EXPORTS
    _CRT_MT @1 DATA
    _ZN15_CORBA_SequenceIN3IOP15TaggedComponentEE7freebufEPS1_ @2
    _ZN15_CORBA_SequenceIhE10copybufferEm @3
    _ZN18omniConnectionData11ServiceDatalSER9cdrStream @4
    _ZN18omniConnectionData13ComponentDatalSER9cdrStream @5
    _ZN18omniConnectionMgmt23makeRestrictedReferenceEPN5CORBA6ObjectEmmmbbb @6
    _ZN18omniConnectionMgmt4initEv @7
    _ZN30omniConnectionMgmt_initialiser6attachEv @8
    _ZN30omniConnectionMgmt_initialiser6detachEv @9
    _ZN4omni14RestrictedInfoD0Ev @10
    _ZN4omni14RestrictedInfoD1Ev @11
    _ZN4omni18restrictedGiopRope10selectRopeERK10omnivectorIPNS_11giopAddressEEPN7omniIOR7IORInfoEmmbbRPNS_4RopeERb @12
    _ZN4omni18restrictedGiopRope13acquireClientEPK7omniIORPKhmP18omniCallDescriptor @13
    _ZN4omni18restrictedGiopRope5ropesE @14 DATA
    _ZN4omni18restrictedGiopRopeD0Ev @15
    _ZN4omni18restrictedGiopRopeD1Ev @16
    _ZN5CORBA14IDLType_Helper6is_nilEPNS_15_objref_IDLTypeE @17
    _ZN5CORBA14IDLType_Helper7releaseEPNS_15_objref_IDLTypeE @18
    _ZN5CORBA15TypeCode_memberD1Ev @19
    _ZN5CORBA15TypeCode_memberD2Ev @20
    _ZN5CORBA16Contained_Helper6is_nilEPNS_17_objref_ContainedE @21
    _ZN5CORBA16Contained_Helper7releaseEPNS_17_objref_ContainedE @22
    _ZN5CORBA19ExceptionDef_Helper6is_nilEPNS_20_objref_ExceptionDefE @23
    _ZN5CORBA19ExceptionDef_Helper7releaseEPNS_20_objref_ExceptionDefE @24
    _ZN5CORBA19InterfaceDef_Helper6is_nilEPNS_20_objref_InterfaceDefE @25
    _ZN5CORBA19InterfaceDef_Helper7releaseEPNS_20_objref_InterfaceDefE @26
    _ZN5CORBA3AnyD1Ev @27
    _ZN5CORBA3AnyD2Ev @28
    _ZN7omniIOR12IORExtraInfoD0Ev @29
    _ZN7omniIOR12IORExtraInfoD1Ev @30
    _ZNK18omniConnectionData11ServiceDatarSER9cdrStream @31
    _ZNK18omniConnectionData13ComponentDatarSER9cdrStream @32
    _ZNK4omni18restrictedGiopRope5matchERK10omnivectorIPNS_11giopAddressEEm @33
    _ZTI30omniConnectionMgmt_initialiser @34 DATA
    _ZTIN4omni14RestrictedInfoE @35 DATA
    _ZTIN4omni15omniInitialiserE @36 DATA
    _ZTIN4omni18restrictedGiopRopeE @37 DATA
    _ZTIN4omni4RopeE @38 DATA
    _ZTIN4omni8RopeLinkE @39 DATA
    _ZTIN4omni8giopRopeE @40 DATA
    _ZTIN5CORBA15SystemExceptionE @41 DATA
    _ZTIN5CORBA9ExceptionE @42 DATA
    _ZTIN7omniIOR12IORExtraInfoE @43 DATA
    _ZTS30omniConnectionMgmt_initialiser @44 DATA
    _ZTSN4omni14RestrictedInfoE @45 DATA
    _ZTSN4omni15omniInitialiserE @46 DATA
    _ZTSN4omni18restrictedGiopRopeE @47 DATA
    _ZTSN4omni4RopeE @48 DATA
    _ZTSN4omni8RopeLinkE @49 DATA
    _ZTSN4omni8giopRopeE @50 DATA
    _ZTSN5CORBA15SystemExceptionE @51 DATA
    _ZTSN5CORBA9ExceptionE @52 DATA
    _ZTSN7omniIOR12IORExtraInfoE @53 DATA
    _ZTV30omniConnectionMgmt_initialiser @54 DATA
    _ZTVN4omni14RestrictedInfoE @55 DATA
    _ZTVN4omni15omniInitialiserE @56 DATA
    _ZTVN4omni18restrictedGiopRopeE @57 DATA
    _ZTVN7omniIOR12IORExtraInfoE @58 DATA
