EXPORTS
    _CRT_MT @1 DATA
    _ZN20_CORBA_String_helper4freeEPc @2
    _ZN20_CORBA_String_helper5allocEi @3
    _ZN21_CORBA_WString_helper4freeEPw @4
    _ZN21_CORBA_WString_helper5allocEi @5
    _ZN4omni11CS_037_initC1Ev @6
    _ZN4omni11CS_500_initC1Ev @7
    _ZN4omni11CS_GBK_initC1Ev @8
    _ZN4omni11omniCodeSet10NCS_C_8bitC1EmPKcPKwPPKh @9
    _ZN4omni11omniCodeSet10NCS_C_8bitD1Ev @10
    _ZN4omni11omniCodeSet10TCS_C_8bitC1EmPKcN4GIOP7VersionEPKwPPKh @11
    _ZN4omni11omniCodeSet10TCS_C_8bitD1Ev @12
    _ZN4omni11omniCodeSet4BaseD0Ev @13
    _ZN4omni11omniCodeSet4BaseD1Ev @14
    _ZN4omni11omniCodeSet4BaseD2Ev @15
    _ZN4omni11omniCodeSet5NCS_CD0Ev @16
    _ZN4omni11omniCodeSet5NCS_CD1Ev @17
    _ZN4omni11omniCodeSet5NCS_CD2Ev @18
    _ZN4omni11omniCodeSet5TCS_CD2Ev @19
    _ZN4omni13CS_EDF_4_initC1Ev @20
    _ZN4omni14CS_8859_2_initC1Ev @21
    _ZN4omni14CS_8859_3_initC1Ev @22
    _ZN4omni14CS_8859_4_initC1Ev @23
    _ZN4omni14CS_8859_5_initC1Ev @24
    _ZN4omni14CS_8859_6_initC1Ev @25
    _ZN4omni14CS_8859_7_initC1Ev @26
    _ZN4omni14CS_8859_8_initC1Ev @27
    _ZN4omni14CS_8859_9_initC1Ev @28
    _ZN4omni14CS_CP1250_initC1Ev @29
    _ZN4omni14CS_CP1251_initC1Ev @30
    _ZN4omni14CS_CP1252_initC1Ev @31
    _ZN4omni14CS_CP1253_initC1Ev @32
    _ZN4omni14CS_CP1254_initC1Ev @33
    _ZN4omni14CS_CP1255_initC1Ev @34
    _ZN4omni14CS_CP1256_initC1Ev @35
    _ZN4omni14CS_CP1257_initC1Ev @36
    _ZN4omni14CS_CP1258_initC1Ev @37
    _ZN4omni15CS_8859_10_initC1Ev @38
    _ZN4omni15CS_8859_11_initC1Ev @39
    _ZN4omni15CS_8859_13_initC1Ev @40
    _ZN4omni15CS_8859_14_initC1Ev @41
    _ZN4omni15CS_8859_15_initC1Ev @42
    _ZN4omni15CS_8859_16_initC1Ev @43
    _ZN4omni15omniCodeSetUtil5freeCEPc @44
    _ZN4omni15omniCodeSetUtil5freeUEPw @45
    _ZN4omni15omniCodeSetUtil6allocCEm @46
    _ZN4omni15omniCodeSetUtil6allocUEm @47
    _ZN4omni15omniCodeSetUtil7BufferC6bufferEv @48
    _ZN4omni15omniCodeSetUtil7BufferC6insertEh @49
    _ZN4omni15omniCodeSetUtil7BufferC6lengthEv @50
    _ZN4omni15omniCodeSetUtil7BufferC7extractEv @51
    _ZN4omni15omniCodeSetUtil7BufferCC1Em @52
    _ZN4omni15omniCodeSetUtil7BufferCD1Ev @53
    _ZN4omni15omniCodeSetUtil7BufferU6bufferEv @54
    _ZN4omni15omniCodeSetUtil7BufferU6insertEw @55
    _ZN4omni15omniCodeSetUtil7BufferU6lengthEv @56
    _ZN4omni15omniCodeSetUtil7BufferU7extractEv @57
    _ZN4omni15omniCodeSetUtil7BufferUC1Em @58
    _ZN4omni15omniCodeSetUtil7BufferUD1Ev @59
    _ZN4omni15omniCodeSetUtil7HolderC4dropEv @60
    _ZN4omni15omniCodeSetUtil7HolderCC1EPc @61
    _ZN4omni15omniCodeSetUtil7HolderCD1Ev @62
    _ZN4omni15omniCodeSetUtil8reallocCEPcmm @63
    _ZN4omni15omniCodeSetUtil8reallocUEPwmm @64
    _ZN4omni8align_toEmNS_11alignment_tE @65
    _ZN4omni9NCS_C_GBK11marshalCharER9cdrStreamPNS_11omniCodeSet5TCS_CEh @66
    _ZN4omni9NCS_C_GBK13marshalStringER9cdrStreamPNS_11omniCodeSet5TCS_CEmmPKc @67
    _ZN4omni9NCS_C_GBK13unmarshalCharER9cdrStreamPNS_11omniCodeSet5TCS_CE @68
    _ZN4omni9NCS_C_GBK15unmarshalStringER9cdrStreamPNS_11omniCodeSet5TCS_CEmRPc @69
    _ZN4omni9NCS_C_GBKC1Ev @70
    _ZN4omni9NCS_C_GBKD0Ev @71
    _ZN4omni9NCS_C_GBKD1Ev @72
    _ZN4omni9TCS_C_GBK11marshalCharER9cdrStreamw @73
    _ZN4omni9TCS_C_GBK13marshalStringER9cdrStreammmPKw @74
    _ZN4omni9TCS_C_GBK13unmarshalCharER9cdrStream @75
    _ZN4omni9TCS_C_GBK15fastMarshalCharER9cdrStreamPNS_11omniCodeSet5NCS_CEh @76
    _ZN4omni9TCS_C_GBK15unmarshalStringER9cdrStreammRPw @77
    _ZN4omni9TCS_C_GBK17fastMarshalStringER9cdrStreamPNS_11omniCodeSet5NCS_CEmmPKc @78
    _ZN4omni9TCS_C_GBK17fastUnmarshalCharER9cdrStreamPNS_11omniCodeSet5NCS_CERh @79
    _ZN4omni9TCS_C_GBK19fastUnmarshalStringER9cdrStreamPNS_11omniCodeSet5NCS_CEmRmRPc @80
    _ZN4omni9TCS_C_GBKC1EN4GIOP7VersionE @81
    _ZN4omni9TCS_C_GBKD0Ev @82
    _ZN4omni9TCS_C_GBKD1Ev @83
    _ZN5CORBA14IDLType_Helper6is_nilEPNS_15_objref_IDLTypeE @84
    _ZN5CORBA14IDLType_Helper7releaseEPNS_15_objref_IDLTypeE @85
    _ZN5CORBA15TypeCode_memberD1Ev @86
    _ZN5CORBA15TypeCode_memberD2Ev @87
    _ZN5CORBA16Contained_Helper6is_nilEPNS_17_objref_ContainedE @88
    _ZN5CORBA16Contained_Helper7releaseEPNS_17_objref_ContainedE @89
    _ZN5CORBA19ExceptionDef_Helper6is_nilEPNS_20_objref_ExceptionDefE @90
    _ZN5CORBA19ExceptionDef_Helper7releaseEPNS_20_objref_ExceptionDefE @91
    _ZN5CORBA19InterfaceDef_Helper6is_nilEPNS_20_objref_InterfaceDefE @92
    _ZN5CORBA19InterfaceDef_Helper7releaseEPNS_20_objref_InterfaceDefE @93
    _ZN5CORBA3AnyD1Ev @94
    _ZN5CORBA3AnyD2Ev @95
    _ZN7omniORB4logsEmPKc @96
    _ZN9cdrStream12marshalOctetEh @97
    _ZN9cdrStream14unmarshalOctetEv @98
    _ZNK4omni11omniCodeSet10NCS_C_8bit3toUEv @99
    _ZNK4omni11omniCodeSet10NCS_C_8bit5fromUEv @100
    _ZNK4omni11omniCodeSet4Base2idEv @101
    _ZNK4omni11omniCodeSet4Base4kindEv @102
    _ZTIN4omni11omniCodeSet4BaseE @103 DATA
    _ZTIN4omni11omniCodeSet5NCS_CE @104 DATA
    _ZTIN4omni11omniCodeSet5TCS_CE @105 DATA
    _ZTIN4omni9NCS_C_GBKE @106 DATA
    _ZTIN4omni9TCS_C_GBKE @107 DATA
    _ZTSN4omni11omniCodeSet4BaseE @108 DATA
    _ZTSN4omni11omniCodeSet5NCS_CE @109 DATA
    _ZTSN4omni11omniCodeSet5TCS_CE @110 DATA
    _ZTSN4omni9NCS_C_GBKE @111 DATA
    _ZTSN4omni9TCS_C_GBKE @112 DATA
    _ZTVN4omni11omniCodeSet4BaseE @113 DATA
    _ZTVN4omni11omniCodeSet5NCS_CE @114 DATA
    _ZTVN4omni9NCS_C_GBKE @115 DATA
    _ZTVN4omni9TCS_C_GBKE @116 DATA
    _ZlSRmR9cdrStream @117
    _ZrSmR9cdrStream @118
    _omni_CS_037_should_be_linked_but_is_not_ @119 DATA
    _omni_CS_500_should_be_linked_but_is_not_ @120 DATA
    _omni_CS_8859_10_should_be_linked_but_is_not_ @121 DATA
    _omni_CS_8859_11_should_be_linked_but_is_not_ @122 DATA
    _omni_CS_8859_13_should_be_linked_but_is_not_ @123 DATA
    _omni_CS_8859_14_should_be_linked_but_is_not_ @124 DATA
    _omni_CS_8859_15_should_be_linked_but_is_not_ @125 DATA
    _omni_CS_8859_16_should_be_linked_but_is_not_ @126 DATA
    _omni_CS_8859_2_should_be_linked_but_is_not_ @127 DATA
    _omni_CS_8859_3_should_be_linked_but_is_not_ @128 DATA
    _omni_CS_8859_4_should_be_linked_but_is_not_ @129 DATA
    _omni_CS_8859_5_should_be_linked_but_is_not_ @130 DATA
    _omni_CS_8859_6_should_be_linked_but_is_not_ @131 DATA
    _omni_CS_8859_7_should_be_linked_but_is_not_ @132 DATA
    _omni_CS_8859_8_should_be_linked_but_is_not_ @133 DATA
    _omni_CS_8859_9_should_be_linked_but_is_not_ @134 DATA
    _omni_CS_CP1250_should_be_linked_but_is_not_ @135 DATA
    _omni_CS_CP1251_should_be_linked_but_is_not_ @136 DATA
    _omni_CS_CP1252_should_be_linked_but_is_not_ @137 DATA
    _omni_CS_CP1253_should_be_linked_but_is_not_ @138 DATA
    _omni_CS_CP1254_should_be_linked_but_is_not_ @139 DATA
    _omni_CS_CP1255_should_be_linked_but_is_not_ @140 DATA
    _omni_CS_CP1256_should_be_linked_but_is_not_ @141 DATA
    _omni_CS_CP1257_should_be_linked_but_is_not_ @142 DATA
    _omni_CS_CP1258_should_be_linked_but_is_not_ @143 DATA
    _omni_CS_EDF_4_should_be_linked_but_is_not_ @144 DATA
    _omni_CS_GBK_should_be_linked_but_is_not_ @145 DATA
    _omni_CS_UCS_4_should_be_linked_but_is_not_ @146 DATA
    _omni_omniCodeSets_should_be_linked_but_is_not_ @147 DATA
