EXPORTS
    _CRT_MT @1 DATA
    _ZN10omniObjKeyC1EPKhi @2
    _ZN10omni_mutex4lockEv @3
    _ZN10omni_mutex6unlockEv @4
    _ZN10omnivectorImE10deallocateEv @5
    _ZN10omnivectorImEC1Ev @6
    _ZN10omnivectorImED1Ev @7
    _ZN12omniIdentityC2EPKhi @8
    _ZN15_CORBA_SequenceIN3IOP13TaggedProfileEE10copybufferEm @9
    _ZN15_CORBA_SequenceIN3IOP13TaggedProfileEE6lengthEm @10
    _ZN15_CORBA_SequenceIN3IOP13TaggedProfileEE7freebufEPS1_ @11
    _ZN15_CORBA_SequenceIN3IOP13TaggedProfileEE8allocbufEm @12
    _ZN15_CORBA_SequenceIN3IOP13TaggedProfileEEC2ERKS2_ @13
    _ZN15_CORBA_SequenceIN3IOP13TaggedProfileEED2Ev @14
    _ZN15_CORBA_SequenceIN3IOP13TaggedProfileEEixEm @15
    _ZN15_CORBA_SequenceIN3IOP14ServiceContextEE10copybufferEm @16
    _ZN15_CORBA_SequenceIN3IOP14ServiceContextEE6lengthEm @17
    _ZN15_CORBA_SequenceIN3IOP14ServiceContextEE7freebufEPS1_ @18
    _ZN15_CORBA_SequenceIN3IOP14ServiceContextEE8allocbufEm @19
    _ZN15_CORBA_SequenceIN3IOP14ServiceContextEEixEm @20
    _ZN15_CORBA_SequenceIN3IOP15TaggedComponentEE10copybufferEm @21
    _ZN15_CORBA_SequenceIN3IOP15TaggedComponentEE6lengthEm @22
    _ZN15_CORBA_SequenceIN3IOP15TaggedComponentEE7freebufEPS1_ @23
    _ZN15_CORBA_SequenceIN3IOP15TaggedComponentEE8allocbufEm @24
    _ZN15_CORBA_SequenceIN3IOP15TaggedComponentEEC2Emb @25
    _ZN15_CORBA_SequenceIN3IOP15TaggedComponentEEC2Ev @26
    _ZN15_CORBA_SequenceIN3IOP15TaggedComponentEED2Ev @27
    _ZN15_CORBA_SequenceIN3IOP15TaggedComponentEEixEm @28
    _ZN15_CORBA_SequenceIhE10copybufferEm @29
    _ZN15_CORBA_SequenceIhE10get_bufferEb @30
    _ZN15_CORBA_SequenceIhE6lengthEm @31
    _ZN15_CORBA_SequenceIhE7freebufEPh @32
    _ZN15_CORBA_SequenceIhE7replaceEmmPhb @33
    _ZN15_CORBA_SequenceIhE8allocbufEm @34
    _ZN15_CORBA_SequenceIhEC2Ev @35
    _ZN15_CORBA_SequenceIhED2Ev @36
    _ZN15_CORBA_SequenceIhEaSERKS0_ @37
    _ZN15omni_mutex_lockC1ER10omni_mutex @38
    _ZN15omni_mutex_lockD1Ev @39
    _ZN18omniConnectionData11ServiceDatalSER9cdrStream @40
    _ZN18omniConnectionData13ComponentDatalSER9cdrStream @41
    _ZN18omniConnectionMgmt23makeRestrictedReferenceEPN5CORBA6ObjectEmmmbbb @42
    _ZN18omniConnectionMgmt4initEv @43
    _ZN18omniRemoteIdentityC1EP7omniIORPKhmPN4omni4RopeE @44
    _ZN18omni_optional_lockC1ER10omni_mutexii @45
    _ZN18omni_optional_lockD1Ev @46
    _ZN20_CORBA_String_helper4freeEPc @47
    _ZN20_CORBA_String_memberC1Ev @48
    _ZN20_CORBA_String_memberD1Ev @49
    _ZN21_CORBA_Sequence_OctetC2Ev @50
    _ZN21_CORBA_Sequence_OctetD2Ev @51
    _ZN21_CORBA_Sequence_OctetaSERKS_ @52
    _ZN22cdrEncapsulationStreamD1Ev @53
    _ZN25_CORBA_Unbounded_SequenceIN3IOP13TaggedProfileEEC1ERKS2_ @54
    _ZN25_CORBA_Unbounded_SequenceIN3IOP13TaggedProfileEED1Ev @55
    _ZN25_CORBA_Unbounded_SequenceIN3IOP15TaggedComponentEEC1Em @56
    _ZN25_CORBA_Unbounded_SequenceIN3IOP15TaggedComponentEEC1Ev @57
    _ZN25_CORBA_Unbounded_SequenceIN3IOP15TaggedComponentEED1Ev @58
    _ZN27_CORBA_PseudoValue_SequenceIPN7omniIOR12IORExtraInfoEE6lengthEm @59
    _ZN27_CORBA_PseudoValue_SequenceIPN7omniIOR12IORExtraInfoEE8allocbufEm @60
    _ZN27_CORBA_PseudoValue_SequenceIPN7omniIOR12IORExtraInfoEEixEm @61
    _ZN30omniConnectionMgmt_initialiser6attachEv @62
    _ZN30omniConnectionMgmt_initialiser6detachEv @63
    _ZN30omniConnectionMgmt_initialiserC1Ev @64
    _ZN31_CORBA_Unbounded_Sequence_Octet7replaceEmmPhb @65
    _ZN31_CORBA_Unbounded_Sequence_OctetC1Ev @66
    _ZN31_CORBA_Unbounded_Sequence_OctetD1Ev @67
    _ZN31_CORBA_Unbounded_Sequence_OctetaSERKS_ @68
    _ZN3IOP13TaggedProfileC1Ev @69
    _ZN3IOP13TaggedProfileD1Ev @70
    _ZN3IOP13TaggedProfileaSERKS0_ @71
    _ZN3IOP14ServiceContextC1Ev @72
    _ZN3IOP14ServiceContextD1Ev @73
    _ZN3IOP14ServiceContextaSERKS0_ @74
    _ZN3IOP15TaggedComponentC1Ev @75
    _ZN3IOP15TaggedComponentD1Ev @76
    _ZN3IOP15TaggedComponentaSERKS0_ @77
    _ZN3IOP21TaggedProfileList_var5_retnEv @78
    _ZN3IOP21TaggedProfileList_varC1EP25_CORBA_Unbounded_SequenceINS_13TaggedProfileEE @79
    _ZN3IOP21TaggedProfileList_varD1Ev @80
    _ZN3IOP21TaggedProfileList_varixEm @81
    _ZN3IOP21TaggedProfileList_varptEv @82
    _ZN4IIOP11ProfileBodyC1Ev @83
    _ZN4IIOP11ProfileBodyD1Ev @84
    _ZN4IIOP7AddressC1Ev @85
    _ZN4IIOP7AddressD1Ev @86
    _ZN4omni10giopStreamcvRNS_10giopStrandEEv @87
    _ZN4omni11ptrStrMatchEPKcS1_ @88
    _ZN4omni14RestrictedInfoC1Ev @89
    _ZN4omni14RestrictedInfoD0Ev @90
    _ZN4omni14RestrictedInfoD1Ev @91
    _ZN4omni14giopConnection11max_workersEi @92
    _ZN4omni14giopConnection11max_workersEv @93
    _ZN4omni15omniInitialiserC2Ev @94
    _ZN4omni18restrictedGiopRope10selectRopeERK10omnivectorIPNS_11giopAddressEEPN7omniIOR7IORInfoEmmbbRPNS_4RopeERb @95
    _ZN4omni18restrictedGiopRope13acquireClientEPK7omniIORPKhmP18omniCallDescriptor @96
    _ZN4omni18restrictedGiopRope5ropesE @97 DATA
    _ZN4omni18restrictedGiopRopeC1ERK10omnivectorIPNS_11giopAddressEERKS1_ImEmmbb @98
    _ZN4omni18restrictedGiopRopeD0Ev @99
    _ZN4omni18restrictedGiopRopeD1Ev @100
    _ZN4omni6GIOP_S16service_contextsEv @101
    _ZN4omni8RopeLinkC1Ev @102
    _ZN4omni8align_toEmNS_11alignment_tE @103
    _ZN4omni8giopRope10maxStrandsEm @104
    _ZN4omni8giopRope10maxStrandsEv @105
    _ZN4omni8giopRope20oneCallPerConnectionEb @106
    _ZN5CORBA14IDLType_Helper6is_nilEPNS_15_objref_IDLTypeE @107
    _ZN5CORBA14IDLType_Helper7releaseEPNS_15_objref_IDLTypeE @108
    _ZN5CORBA15TypeCode_memberD1Ev @109
    _ZN5CORBA15TypeCode_memberD2Ev @110
    _ZN5CORBA16Contained_Helper6is_nilEPNS_17_objref_ContainedE @111
    _ZN5CORBA16Contained_Helper7releaseEPNS_17_objref_ContainedE @112
    _ZN5CORBA19ExceptionDef_Helper6is_nilEPNS_20_objref_ExceptionDefE @113
    _ZN5CORBA19ExceptionDef_Helper7releaseEPNS_20_objref_ExceptionDefE @114
    _ZN5CORBA19InterfaceDef_Helper6is_nilEPNS_20_objref_InterfaceDefE @115
    _ZN5CORBA19InterfaceDef_Helper7releaseEPNS_20_objref_InterfaceDefE @116
    _ZN5CORBA3AnyD1Ev @117
    _ZN5CORBA3AnyD2Ev @118
    _ZN5CORBA6Object10_PR_getobjEv @119
    _ZN5CORBA6Object12_PR_is_validEPS0_ @120
    _ZN5CORBA6is_nilEPNS_6ObjectE @121
    _ZN7omniIOR12IORExtraInfoC2Em @122
    _ZN7omniIOR12IORExtraInfoD0Ev @123
    _ZN7omniIOR12IORExtraInfoD1Ev @124
    _ZN7omniIOR12IORExtraInfoD2Ev @125
    _ZN7omniIOR27addr_selected_profile_indexEl @126
    _ZN7omniIOR7IORInfo9addressesEv @127
    _ZN7omniIOR7IORInfo9extraInfoEv @128
    _ZN7omniORB4logsEmPKc @129
    _ZN7omniORB6loggerlsEt @130
    _ZN9cdrStream12marshalOctetEh @131
    _ZN9cdrStream14unmarshalOctetEv @132
    _ZNK10omnivectorIPN4omni11giopAddressEE3endEv @133
    _ZNK10omnivectorIPN4omni11giopAddressEE4sizeEv @134
    _ZNK10omnivectorIPN4omni11giopAddressEE5beginEv @135
    _ZNK15_CORBA_SequenceIN3IOP13TaggedProfileEE6lengthEv @136
    _ZNK15_CORBA_SequenceIN3IOP13TaggedProfileEEixEm @137
    _ZNK15_CORBA_SequenceIN3IOP14ServiceContextEE6lengthEv @138
    _ZNK15_CORBA_SequenceIN3IOP15TaggedComponentEE6lengthEv @139
    _ZNK15_CORBA_SequenceIN3IOP15TaggedComponentEEixEm @140
    _ZNK15_CORBA_SequenceIhE10get_bufferEv @141
    _ZNK15_CORBA_SequenceIhE6lengthEv @142
    _ZNK18omniConnectionData11ServiceDatarSER9cdrStream @143
    _ZNK18omniConnectionData13ComponentDatarSER9cdrStream @144
    _ZNK20_CORBA_String_membercvPKcEv @145
    _ZNK27_CORBA_PseudoValue_SequenceIPN7omniIOR12IORExtraInfoEE6lengthEv @146
    _ZNK3IOP21TaggedProfileList_varcvRK25_CORBA_Unbounded_SequenceINS_13TaggedProfileEEEv @147
    _ZNK4omni18restrictedGiopRope5matchERK10omnivectorIPNS_11giopAddressEEm @148
    _ZNK4omni6GIOP_C3iorEv @149
    _ZNK5CORBA6Object10_NP_is_nilEv @150
    _ZNK5CORBA6Object13_NP_is_pseudoEv @151
    _ZNK7omniIOR11iopProfilesEv @152
    _ZNK7omniIOR12repositoryIDEv @153
    _ZNK7omniIOR27addr_selected_profile_indexEv @154
    _ZTI30omniConnectionMgmt_initialiser @155 DATA
    _ZTIN4omni14RestrictedInfoE @156 DATA
    _ZTIN4omni15omniInitialiserE @157 DATA
    _ZTIN4omni18restrictedGiopRopeE @158 DATA
    _ZTIN4omni4RopeE @159 DATA
    _ZTIN4omni8RopeLinkE @160 DATA
    _ZTIN4omni8giopRopeE @161 DATA
    _ZTIN5CORBA15SystemExceptionE @162 DATA
    _ZTIN5CORBA9ExceptionE @163 DATA
    _ZTIN7omniIOR12IORExtraInfoE @164 DATA
    _ZTS30omniConnectionMgmt_initialiser @165 DATA
    _ZTSN4omni14RestrictedInfoE @166 DATA
    _ZTSN4omni15omniInitialiserE @167 DATA
    _ZTSN4omni18restrictedGiopRopeE @168 DATA
    _ZTSN4omni4RopeE @169 DATA
    _ZTSN4omni8RopeLinkE @170 DATA
    _ZTSN4omni8giopRopeE @171 DATA
    _ZTSN5CORBA15SystemExceptionE @172 DATA
    _ZTSN5CORBA9ExceptionE @173 DATA
    _ZTSN7omniIOR12IORExtraInfoE @174 DATA
    _ZTV30omniConnectionMgmt_initialiser @175 DATA
    _ZTVN4omni14RestrictedInfoE @176 DATA
    _ZTVN4omni15omniInitialiserE @177 DATA
    _ZTVN4omni18restrictedGiopRopeE @178 DATA
    _ZTVN7omniIOR12IORExtraInfoE @179 DATA
    _ZlSRmR9cdrStream @180
    _ZlSRtR9cdrStream @181
    _ZrSmR9cdrStream @182
    _ZrStR9cdrStream @183
