EXPORTS
    _CRT_MT @1 DATA
    _Z8omnicopyIPPN4omni14DynAnyImplBaseES3_ET0_T_S5_S4_ @2
    _ZN10DynamicAny11DynSequence10_PD_repoIdE @3 DATA
    _ZN10DynamicAny11DynSequence10_duplicateEPS0_ @4
    _ZN10DynamicAny11DynSequence4_nilEv @5
    _ZN10DynamicAny11DynSequence7_narrowEPN5CORBA6ObjectE @6
    _ZN10DynamicAny11DynSequenceC2Ev @7
    _ZN10DynamicAny11DynSequenceD0Ev @8
    _ZN10DynamicAny11DynSequenceD1Ev @9
    _ZN10DynamicAny11DynSequenceD2Ev @10
    _ZN10DynamicAny11DynValueBox10_PD_repoIdE @11 DATA
    _ZN10DynamicAny11DynValueBox10_duplicateEPS0_ @12
    _ZN10DynamicAny11DynValueBox4_nilEv @13
    _ZN10DynamicAny11DynValueBox7_narrowEPN5CORBA6ObjectE @14
    _ZN10DynamicAny11DynValueBoxC2Ev @15
    _ZN10DynamicAny11DynValueBoxD0Ev @16
    _ZN10DynamicAny11DynValueBoxD1Ev @17
    _ZN10DynamicAny11DynValueBoxD2Ev @18
    _ZN10DynamicAny13DynAnyFactory10_PD_repoIdE @19 DATA
    _ZN10DynamicAny13DynAnyFactory10_duplicateEPS0_ @20
    _ZN10DynamicAny13DynAnyFactory20InconsistentTypeCode10_PD_repoIdE @21 DATA
    _ZN10DynamicAny13DynAnyFactory20InconsistentTypeCode13insertToAnyFnE @22 DATA
    _ZN10DynamicAny13DynAnyFactory20InconsistentTypeCode16insertToAnyFnNCPE @23 DATA
    _ZN10DynamicAny13DynAnyFactory20InconsistentTypeCode9_downcastEPKN5CORBA9ExceptionE @24
    _ZN10DynamicAny13DynAnyFactory20InconsistentTypeCode9_downcastEPN5CORBA9ExceptionE @25
    _ZN10DynamicAny13DynAnyFactory20InconsistentTypeCodeC1ERKS1_ @26
    _ZN10DynamicAny13DynAnyFactory20InconsistentTypeCodeC1Ev @27
    _ZN10DynamicAny13DynAnyFactory20InconsistentTypeCodeD0Ev @28
    _ZN10DynamicAny13DynAnyFactory20InconsistentTypeCodeD1Ev @29
    _ZN10DynamicAny13DynAnyFactory20InconsistentTypeCodeD2Ev @30
    _ZN10DynamicAny13DynAnyFactory20InconsistentTypeCodelSER9cdrStream @31
    _ZN10DynamicAny13DynAnyFactory4_nilEv @32
    _ZN10DynamicAny13DynAnyFactory7_narrowEPN5CORBA6ObjectE @33
    _ZN10DynamicAny13DynAnyFactoryC2Ei @34
    _ZN10DynamicAny13DynAnyFactoryD0Ev @35
    _ZN10DynamicAny13DynAnyFactoryD1Ev @36
    _ZN10DynamicAny13DynAnyFactoryD2Ev @37
    _ZN10DynamicAny13DynAny_Helper4_nilEv @38
    _ZN10DynamicAny13DynAny_Helper6is_nilEPNS_6DynAnyE @39
    _ZN10DynamicAny13DynAny_Helper7releaseEPNS_6DynAnyE @40
    _ZN10DynamicAny13DynAny_Helper9duplicateEPNS_6DynAnyE @41
    _ZN10DynamicAny13NameValuePairC1Ev @42
    _ZN10DynamicAny13NameValuePairD1Ev @43
    _ZN10DynamicAny13NameValuePairaSERKS0_ @44
    _ZN10DynamicAny14DynValueCommon10_PD_repoIdE @45 DATA
    _ZN10DynamicAny14DynValueCommon4_nilEv @46
    _ZN10DynamicAny14DynValueCommonC2Ev @47
    _ZN10DynamicAny14DynValueCommonD0Ev @48
    _ZN10DynamicAny14DynValueCommonD1Ev @49
    _ZN10DynamicAny14DynValueCommonD2Ev @50
    _ZN10DynamicAny14NameDynAnyPairC1Ev @51
    _ZN10DynamicAny14NameDynAnyPairD1Ev @52
    _ZN10DynamicAny14NameDynAnyPairaSERKS0_ @53
    _ZN10DynamicAny16NameValuePairSeqC1Ev @54
    _ZN10DynamicAny16NameValuePairSeqD1Ev @55
    _ZN10DynamicAny17NameDynAnyPairSeqC1Ev @56
    _ZN10DynamicAny6AnySeqC1Ev @57
    _ZN10DynamicAny6AnySeqD1Ev @58
    _ZN10DynamicAny6DynAny10_PD_repoIdE @59 DATA
    _ZN10DynamicAny6DynAny10_duplicateEPS0_ @60
    _ZN10DynamicAny6DynAny11PR_is_validEPKS0_ @61
    _ZN10DynamicAny6DynAny12InvalidValue10_PD_repoIdE @62 DATA
    _ZN10DynamicAny6DynAny12InvalidValue13insertToAnyFnE @63 DATA
    _ZN10DynamicAny6DynAny12InvalidValue16insertToAnyFnNCPE @64 DATA
    _ZN10DynamicAny6DynAny12InvalidValue9_downcastEPKN5CORBA9ExceptionE @65
    _ZN10DynamicAny6DynAny12InvalidValue9_downcastEPN5CORBA9ExceptionE @66
    _ZN10DynamicAny6DynAny12InvalidValueC1ERKS1_ @67
    _ZN10DynamicAny6DynAny12InvalidValueC1Ev @68
    _ZN10DynamicAny6DynAny12InvalidValueD0Ev @69
    _ZN10DynamicAny6DynAny12InvalidValueD1Ev @70
    _ZN10DynamicAny6DynAny12InvalidValueD2Ev @71
    _ZN10DynamicAny6DynAny12InvalidValuelSER9cdrStream @72
    _ZN10DynamicAny6DynAny12TypeMismatch10_PD_repoIdE @73 DATA
    _ZN10DynamicAny6DynAny12TypeMismatch13insertToAnyFnE @74 DATA
    _ZN10DynamicAny6DynAny12TypeMismatch16insertToAnyFnNCPE @75 DATA
    _ZN10DynamicAny6DynAny12TypeMismatch9_downcastEPKN5CORBA9ExceptionE @76
    _ZN10DynamicAny6DynAny12TypeMismatch9_downcastEPN5CORBA9ExceptionE @77
    _ZN10DynamicAny6DynAny12TypeMismatchC1ERKS1_ @78
    _ZN10DynamicAny6DynAny12TypeMismatchC1Ev @79
    _ZN10DynamicAny6DynAny12TypeMismatchD0Ev @80
    _ZN10DynamicAny6DynAny12TypeMismatchD1Ev @81
    _ZN10DynamicAny6DynAny12TypeMismatchD2Ev @82
    _ZN10DynamicAny6DynAny12TypeMismatchlSER9cdrStream @83
    _ZN10DynamicAny6DynAny4_nilEv @84
    _ZN10DynamicAny6DynAny7_narrowEPN5CORBA6ObjectE @85
    _ZN10DynamicAny6DynAny8PR_magicE @86 DATA
    _ZN10DynamicAny6DynAnyC2Ei @87
    _ZN10DynamicAny6DynAnyD0Ev @88
    _ZN10DynamicAny6DynAnyD1Ev @89
    _ZN10DynamicAny6DynAnyD2Ev @90
    _ZN10DynamicAny7DynEnum10_PD_repoIdE @91 DATA
    _ZN10DynamicAny7DynEnum10_duplicateEPS0_ @92
    _ZN10DynamicAny7DynEnum4_nilEv @93
    _ZN10DynamicAny7DynEnum7_narrowEPN5CORBA6ObjectE @94
    _ZN10DynamicAny7DynEnumC2Ev @95
    _ZN10DynamicAny7DynEnumD0Ev @96
    _ZN10DynamicAny7DynEnumD1Ev @97
    _ZN10DynamicAny7DynEnumD2Ev @98
    _ZN10DynamicAny8DynArray10_PD_repoIdE @99 DATA
    _ZN10DynamicAny8DynArray10_duplicateEPS0_ @100
    _ZN10DynamicAny8DynArray4_nilEv @101
    _ZN10DynamicAny8DynArray7_narrowEPN5CORBA6ObjectE @102
    _ZN10DynamicAny8DynArrayC2Ev @103
    _ZN10DynamicAny8DynArrayD0Ev @104
    _ZN10DynamicAny8DynArrayD1Ev @105
    _ZN10DynamicAny8DynArrayD2Ev @106
    _ZN10DynamicAny8DynFixed10_PD_repoIdE @107 DATA
    _ZN10DynamicAny8DynFixed10_duplicateEPS0_ @108
    _ZN10DynamicAny8DynFixed4_nilEv @109
    _ZN10DynamicAny8DynFixed7_narrowEPN5CORBA6ObjectE @110
    _ZN10DynamicAny8DynFixedC2Ev @111
    _ZN10DynamicAny8DynFixedD0Ev @112
    _ZN10DynamicAny8DynFixedD1Ev @113
    _ZN10DynamicAny8DynFixedD2Ev @114
    _ZN10DynamicAny8DynUnion10_PD_repoIdE @115 DATA
    _ZN10DynamicAny8DynUnion10_duplicateEPS0_ @116
    _ZN10DynamicAny8DynUnion4_nilEv @117
    _ZN10DynamicAny8DynUnion7_narrowEPN5CORBA6ObjectE @118
    _ZN10DynamicAny8DynUnionC2Ev @119
    _ZN10DynamicAny8DynUnionD0Ev @120
    _ZN10DynamicAny8DynUnionD1Ev @121
    _ZN10DynamicAny8DynUnionD2Ev @122
    _ZN10DynamicAny8DynValue10_PD_repoIdE @123 DATA
    _ZN10DynamicAny8DynValue10_duplicateEPS0_ @124
    _ZN10DynamicAny8DynValue4_nilEv @125
    _ZN10DynamicAny8DynValue7_narrowEPN5CORBA6ObjectE @126
    _ZN10DynamicAny8DynValueC2Ev @127
    _ZN10DynamicAny8DynValueD0Ev @128
    _ZN10DynamicAny8DynValueD1Ev @129
    _ZN10DynamicAny8DynValueD2Ev @130
    _ZN10DynamicAny9DynAnySeqC1Ev @131
    _ZN10DynamicAny9DynStruct10_PD_repoIdE @132 DATA
    _ZN10DynamicAny9DynStruct10_duplicateEPS0_ @133
    _ZN10DynamicAny9DynStruct4_nilEv @134
    _ZN10DynamicAny9DynStruct7_narrowEPN5CORBA6ObjectE @135
    _ZN10DynamicAny9DynStructC2Ev @136
    _ZN10DynamicAny9DynStructD0Ev @137
    _ZN10DynamicAny9DynStructD1Ev @138
    _ZN10DynamicAny9DynStructD2Ev @139
    _ZN10omniPolicy19LocalShortcutPolicyC1Et @140
    _ZN10omni_mutex4lockEv @141
    _ZN10omni_mutex6unlockEv @142
    _ZN10omnivectorIPN4omni14DynAnyImplBaseEE10deallocateEv @143
    _ZN10omnivectorIPN4omni14DynAnyImplBaseEE4moreEv @144
    _ZN10omnivectorIPN4omni14DynAnyImplBaseEE7reserveEj @145
    _ZN10omnivectorIPN4omni14DynAnyImplBaseEE8allocateEj @146
    _ZN10omnivectorIPN4omni14DynAnyImplBaseEE9push_backERKS2_ @147
    _ZN10omnivectorIPN4omni14DynAnyImplBaseEEC1Ev @148
    _ZN10omnivectorIPN4omni14DynAnyImplBaseEED1Ev @149
    _ZN10omnivectorIPN4omni14DynAnyImplBaseEEixEj @150
    _ZN11BiDirPolicy19BidirectionalPolicyC1Et @151
    _ZN11omniCurrent14callDescriptorEv @152
    _ZN11omniCurrent17setCallDescriptorEP18omniCallDescriptor @153
    _ZN11omniCurrent3getEP11omni_thread @154
    _ZN11omniCurrent3getEv @155
    _ZN12omniTaskLinkC2Ev @156
    _ZN12omniTypedefs11TypeCodeSeqC1Ev @157
    _ZN12omniTypedefs11TypeCodeSeqD1Ev @158
    _ZN12omniTypedefs12ValueBaseSeqC1ERKS0_ @159
    _ZN12omniTypedefs12ValueBaseSeqC1EmmPPN5CORBA9ValueBaseEb @160
    _ZN12omniTypedefs12ValueBaseSeqC1Ev @161
    _ZN12omniTypedefs12ValueBaseSeqD1Ev @162
    _ZN12omniTypedefs16ValueBaseSeq_varC1Ev @163
    _ZN12omniTypedefs16ValueBaseSeq_varD1Ev @164
    _ZN12omniTypedefs16ValueBaseSeq_varaSEPNS_12ValueBaseSeqE @165
    _ZN12omniTypedefs16ValueBaseSeq_varptEv @166
    _ZN13omniValueType23handleIncompatibleValueEPKcmPN5CORBA9ValueBaseENS2_16CompletionStatusE @167
    _ZN13omniValueType7hash_idEPKc @168
    _ZN13omniValueType7marshalEPN5CORBA9ValueBaseEPKcR9cdrStream @169
    _ZN13omniValueType8hash_idsEPK14_omni_ValueIds @170
    _ZN13omniValueType9unmarshalEPKcmPN5CORBA8TypeCodeER9cdrStream @171
    _ZN14PortableServer10POAManager15AdapterInactiveC1ERKS1_ @172
    _ZN14PortableServer10POAManager15AdapterInactiveC1Ev @173
    _ZN14PortableServer10POAManager15AdapterInactivelSER9cdrStream @174
    _ZN14PortableServer12ThreadPolicyC1ENS_17ThreadPolicyValueE @175
    _ZN14PortableServer14ForwardRequestC1Ev @176
    _ZN14PortableServer14LifespanPolicyC1ENS_19LifespanPolicyValueE @177
    _ZN14PortableServer17ValueRefCountBase11_remove_refEv @178
    _ZN14PortableServer17ValueRefCountBase15_refcount_valueEv @179
    _ZN14PortableServer17ValueRefCountBase8_add_refEv @180
    _ZN14PortableServer17ValueRefCountBaseD0Ev @181
    _ZN14PortableServer17ValueRefCountBaseD1Ev @182
    _ZN14PortableServer17ValueRefCountBaseD2Ev @183
    _ZN14PortableServer18IdAssignmentPolicyC1ENS_23IdAssignmentPolicyValueE @184
    _ZN14PortableServer18IdUniquenessPolicyC1ENS_23IdUniquenessPolicyValueE @185
    _ZN14PortableServer18_tc_ForwardRequestE @186 DATA
    _ZN14PortableServer21DynamicImplementation17_do_get_interfaceEv @187
    _ZN14PortableServer21DynamicImplementation5_is_aEPKc @188
    _ZN14PortableServer21DynamicImplementation5_thisEv @189
    _ZN14PortableServer21DynamicImplementation9_dispatchER14omniCallHandle @190
    _ZN14PortableServer21DynamicImplementationD0Ev @191
    _ZN14PortableServer21DynamicImplementationD1Ev @192
    _ZN14PortableServer21DynamicImplementationD2Ev @193
    _ZN14PortableServer21_tc_ThreadPolicyValueE @194 DATA
    _ZN14PortableServer22ServantRetentionPolicyC1ENS_27ServantRetentionPolicyValueE @195
    _ZN14PortableServer23RequestProcessingPolicyC1ENS_28RequestProcessingPolicyValueE @196
    _ZN14PortableServer23_tc_LifespanPolicyValueE @197 DATA
    _ZN14PortableServer24ImplicitActivationPolicyC1ENS_29ImplicitActivationPolicyValueE @198
    _ZN14PortableServer27_tc_IdAssignmentPolicyValueE @199 DATA
    _ZN14PortableServer27_tc_IdUniquenessPolicyValueE @200 DATA
    _ZN14PortableServer31_tc_ServantRetentionPolicyValueE @201 DATA
    _ZN14PortableServer32_tc_RequestProcessingPolicyValueE @202 DATA
    _ZN14PortableServer33_tc_ImplicitActivationPolicyValueE @203 DATA
    _ZN14PortableServer3POA11WrongPolicyC1ERKS1_ @204
    _ZN14PortableServer3POA11WrongPolicyC1Ev @205
    _ZN14PortableServer3POA11WrongPolicylSER9cdrStream @206
    _ZN14PortableServer3POA12WrongAdapterC1ERKS1_ @207
    _ZN14PortableServer3POA12WrongAdapterC1Ev @208
    _ZN14PortableServer3POA12WrongAdapterlSER9cdrStream @209
    _ZN14PortableServer3POA13InvalidPolicyC1Ev @210
    _ZN14PortableServer3POA15ObjectNotActiveC1ERKS1_ @211
    _ZN14PortableServer3POA15ObjectNotActiveC1Ev @212
    _ZN14PortableServer3POA15ObjectNotActivelSER9cdrStream @213
    _ZN14PortableServer3POA16ServantNotActiveC1ERKS1_ @214
    _ZN14PortableServer3POA16ServantNotActiveC1Ev @215
    _ZN14PortableServer3POA16ServantNotActivelSER9cdrStream @216
    _ZN14PortableServer3POA17_tc_InvalidPolicyE @217 DATA
    _ZN14PortableServer3POA18AdapterNonExistentC1ERKS1_ @218
    _ZN14PortableServer3POA18AdapterNonExistentC1Ev @219
    _ZN14PortableServer3POA18AdapterNonExistentlSER9cdrStream @220
    _ZN14PortableServer3POA19ObjectAlreadyActiveC1ERKS1_ @221
    _ZN14PortableServer3POA19ObjectAlreadyActiveC1Ev @222
    _ZN14PortableServer3POA19ObjectAlreadyActivelSER9cdrStream @223
    _ZN14PortableServer3POA20AdapterAlreadyExistsC1ERKS1_ @224
    _ZN14PortableServer3POA20AdapterAlreadyExistsC1Ev @225
    _ZN14PortableServer3POA20AdapterAlreadyExistslSER9cdrStream @226
    _ZN14PortableServer3POA20ServantAlreadyActiveC1ERKS1_ @227
    _ZN14PortableServer3POA20ServantAlreadyActiveC1Ev @228
    _ZN14PortableServer3POA20ServantAlreadyActivelSER9cdrStream @229
    _ZN14PortableServer3POA9NoServantC1ERKS1_ @230
    _ZN14PortableServer3POA9NoServantC1Ev @231
    _ZN14PortableServer3POA9NoServantlSER9cdrStream @232
    _ZN14PortableServer8ObjectIdC1Ev @233
    _ZN14PortableServer8ObjectIdD1Ev @234
    _ZN14omniCallHandle13mainthread_muEv @235
    _ZN14omniCallHandle15mainthread_condEv @236
    _ZN14omniCallHandle15postinvoke_hookEv @237
    _ZN14omniCallHandle3poaEv @238
    _ZN14omniCallHandle7localIdEv @239
    _ZN15_CORBA_SequenceIN10DynamicAny13NameValuePairEE10copybufferEm @240
    _ZN15_CORBA_SequenceIN10DynamicAny13NameValuePairEE6lengthEm @241
    _ZN15_CORBA_SequenceIN10DynamicAny13NameValuePairEE7freebufEPS1_ @242
    _ZN15_CORBA_SequenceIN10DynamicAny13NameValuePairEE8allocbufEm @243
    _ZN15_CORBA_SequenceIN10DynamicAny13NameValuePairEEC2Ev @244
    _ZN15_CORBA_SequenceIN10DynamicAny13NameValuePairEED2Ev @245
    _ZN15_CORBA_SequenceIN10DynamicAny13NameValuePairEEixEm @246
    _ZN15_CORBA_SequenceIN10DynamicAny14NameDynAnyPairEE10copybufferEm @247
    _ZN15_CORBA_SequenceIN10DynamicAny14NameDynAnyPairEE6lengthEm @248
    _ZN15_CORBA_SequenceIN10DynamicAny14NameDynAnyPairEE7freebufEPS1_ @249
    _ZN15_CORBA_SequenceIN10DynamicAny14NameDynAnyPairEE8allocbufEm @250
    _ZN15_CORBA_SequenceIN10DynamicAny14NameDynAnyPairEEC2Ev @251
    _ZN15_CORBA_SequenceIN10DynamicAny14NameDynAnyPairEEixEm @252
    _ZN15_CORBA_SequenceIN5CORBA11InitializerEE10copybufferEm @253
    _ZN15_CORBA_SequenceIN5CORBA11InitializerEE6lengthEm @254
    _ZN15_CORBA_SequenceIN5CORBA11InitializerEE7freebufEPS1_ @255
    _ZN15_CORBA_SequenceIN5CORBA11InitializerEE8allocbufEm @256
    _ZN15_CORBA_SequenceIN5CORBA11InitializerEEC2ERKS2_ @257
    _ZN15_CORBA_SequenceIN5CORBA11InitializerEEC2Ev @258
    _ZN15_CORBA_SequenceIN5CORBA11InitializerEED2Ev @259
    _ZN15_CORBA_SequenceIN5CORBA11UnionMemberEE10copybufferEm @260
    _ZN15_CORBA_SequenceIN5CORBA11UnionMemberEE6lengthEm @261
    _ZN15_CORBA_SequenceIN5CORBA11UnionMemberEE7freebufEPS1_ @262
    _ZN15_CORBA_SequenceIN5CORBA11UnionMemberEE8allocbufEm @263
    _ZN15_CORBA_SequenceIN5CORBA11UnionMemberEEC2ERKS2_ @264
    _ZN15_CORBA_SequenceIN5CORBA11UnionMemberEEC2Ev @265
    _ZN15_CORBA_SequenceIN5CORBA11UnionMemberEED2Ev @266
    _ZN15_CORBA_SequenceIN5CORBA11ValueMemberEE10copybufferEm @267
    _ZN15_CORBA_SequenceIN5CORBA11ValueMemberEE6lengthEm @268
    _ZN15_CORBA_SequenceIN5CORBA11ValueMemberEE7freebufEPS1_ @269
    _ZN15_CORBA_SequenceIN5CORBA11ValueMemberEE8allocbufEm @270
    _ZN15_CORBA_SequenceIN5CORBA11ValueMemberEEC2ERKS2_ @271
    _ZN15_CORBA_SequenceIN5CORBA11ValueMemberEEC2Ev @272
    _ZN15_CORBA_SequenceIN5CORBA11ValueMemberEED2Ev @273
    _ZN15_CORBA_SequenceIN5CORBA12StructMemberEE10copybufferEm @274
    _ZN15_CORBA_SequenceIN5CORBA12StructMemberEE6lengthEm @275
    _ZN15_CORBA_SequenceIN5CORBA12StructMemberEE7freebufEPS1_ @276
    _ZN15_CORBA_SequenceIN5CORBA12StructMemberEE8allocbufEm @277
    _ZN15_CORBA_SequenceIN5CORBA12StructMemberEEC2ERKS2_ @278
    _ZN15_CORBA_SequenceIN5CORBA12StructMemberEEC2Ev @279
    _ZN15_CORBA_SequenceIN5CORBA12StructMemberEED2Ev @280
    _ZN15_CORBA_SequenceIN5CORBA12StructMemberEEaSERKS2_ @281
    _ZN15_CORBA_SequenceIN5CORBA15TypeCode_memberEE10copybufferEm @282
    _ZN15_CORBA_SequenceIN5CORBA15TypeCode_memberEE6lengthEm @283
    _ZN15_CORBA_SequenceIN5CORBA15TypeCode_memberEE7freebufEPS1_ @284
    _ZN15_CORBA_SequenceIN5CORBA15TypeCode_memberEE8allocbufEm @285
    _ZN15_CORBA_SequenceIN5CORBA15TypeCode_memberEEC2Ev @286
    _ZN15_CORBA_SequenceIN5CORBA15TypeCode_memberEED2Ev @287
    _ZN15_CORBA_SequenceIN5CORBA15TypeCode_memberEEixEm @288
    _ZN15_CORBA_SequenceIN5CORBA20AttributeDescriptionEE10copybufferEm @289
    _ZN15_CORBA_SequenceIN5CORBA20AttributeDescriptionEE6lengthEm @290
    _ZN15_CORBA_SequenceIN5CORBA20AttributeDescriptionEE7freebufEPS1_ @291
    _ZN15_CORBA_SequenceIN5CORBA20AttributeDescriptionEE8allocbufEm @292
    _ZN15_CORBA_SequenceIN5CORBA20AttributeDescriptionEEC2ERKS2_ @293
    _ZN15_CORBA_SequenceIN5CORBA20AttributeDescriptionEEC2Ev @294
    _ZN15_CORBA_SequenceIN5CORBA20AttributeDescriptionEED2Ev @295
    _ZN15_CORBA_SequenceIN5CORBA20ExceptionDescriptionEE10copybufferEm @296
    _ZN15_CORBA_SequenceIN5CORBA20ExceptionDescriptionEE6lengthEm @297
    _ZN15_CORBA_SequenceIN5CORBA20ExceptionDescriptionEE7freebufEPS1_ @298
    _ZN15_CORBA_SequenceIN5CORBA20ExceptionDescriptionEE8allocbufEm @299
    _ZN15_CORBA_SequenceIN5CORBA20ExceptionDescriptionEEC2ERKS2_ @300
    _ZN15_CORBA_SequenceIN5CORBA20ExceptionDescriptionEEC2Ev @301
    _ZN15_CORBA_SequenceIN5CORBA20ExceptionDescriptionEED2Ev @302
    _ZN15_CORBA_SequenceIN5CORBA20ExceptionDescriptionEEaSERKS2_ @303
    _ZN15_CORBA_SequenceIN5CORBA20OperationDescriptionEE10copybufferEm @304
    _ZN15_CORBA_SequenceIN5CORBA20OperationDescriptionEE6lengthEm @305
    _ZN15_CORBA_SequenceIN5CORBA20OperationDescriptionEE7freebufEPS1_ @306
    _ZN15_CORBA_SequenceIN5CORBA20OperationDescriptionEE8allocbufEm @307
    _ZN15_CORBA_SequenceIN5CORBA20OperationDescriptionEEC2ERKS2_ @308
    _ZN15_CORBA_SequenceIN5CORBA20OperationDescriptionEEC2Ev @309
    _ZN15_CORBA_SequenceIN5CORBA20OperationDescriptionEED2Ev @310
    _ZN15_CORBA_SequenceIN5CORBA20ParameterDescriptionEE10copybufferEm @311
    _ZN15_CORBA_SequenceIN5CORBA20ParameterDescriptionEE6lengthEm @312
    _ZN15_CORBA_SequenceIN5CORBA20ParameterDescriptionEE7freebufEPS1_ @313
    _ZN15_CORBA_SequenceIN5CORBA20ParameterDescriptionEE8allocbufEm @314
    _ZN15_CORBA_SequenceIN5CORBA20ParameterDescriptionEEC2ERKS2_ @315
    _ZN15_CORBA_SequenceIN5CORBA20ParameterDescriptionEEC2Ev @316
    _ZN15_CORBA_SequenceIN5CORBA20ParameterDescriptionEED2Ev @317
    _ZN15_CORBA_SequenceIN5CORBA20ParameterDescriptionEEaSERKS2_ @318
    _ZN15_CORBA_SequenceIN5CORBA3AnyEE10copybufferEm @319
    _ZN15_CORBA_SequenceIN5CORBA3AnyEE6lengthEm @320
    _ZN15_CORBA_SequenceIN5CORBA3AnyEE7freebufEPS1_ @321
    _ZN15_CORBA_SequenceIN5CORBA3AnyEE8allocbufEm @322
    _ZN15_CORBA_SequenceIN5CORBA3AnyEEC2ERKS2_ @323
    _ZN15_CORBA_SequenceIN5CORBA3AnyEEC2Ev @324
    _ZN15_CORBA_SequenceIN5CORBA3AnyEED2Ev @325
    _ZN15_CORBA_SequenceIN5CORBA3AnyEEixEm @326
    _ZN15_CORBA_SequenceIN5CORBA9Container11DescriptionEE10copybufferEm @327
    _ZN15_CORBA_SequenceIN5CORBA9Container11DescriptionEE6lengthEm @328
    _ZN15_CORBA_SequenceIN5CORBA9Container11DescriptionEE7freebufEPS2_ @329
    _ZN15_CORBA_SequenceIN5CORBA9Container11DescriptionEE8allocbufEm @330
    _ZN15_CORBA_SequenceIN5CORBA9Container11DescriptionEEC2ERKS3_ @331
    _ZN15_CORBA_SequenceIN5CORBA9Container11DescriptionEEC2Ev @332
    _ZN15_CORBA_SequenceIN5CORBA9Container11DescriptionEED2Ev @333
    _ZN15_CORBA_SequenceIN9CosNaming13NameComponentEE10copybufferEm @334
    _ZN15_CORBA_SequenceIN9CosNaming13NameComponentEE6lengthEm @335
    _ZN15_CORBA_SequenceIN9CosNaming13NameComponentEE7freebufEPS1_ @336
    _ZN15_CORBA_SequenceIN9CosNaming13NameComponentEE8allocbufEm @337
    _ZN15_CORBA_SequenceIN9CosNaming13NameComponentEEC2ERKS2_ @338
    _ZN15_CORBA_SequenceIN9CosNaming13NameComponentEEC2Ev @339
    _ZN15_CORBA_SequenceIN9CosNaming13NameComponentEED2Ev @340
    _ZN15_CORBA_SequenceIN9CosNaming13NameComponentEEaSERKS2_ @341
    _ZN15_CORBA_SequenceIN9CosNaming7BindingEE10copybufferEm @342
    _ZN15_CORBA_SequenceIN9CosNaming7BindingEE6lengthEm @343
    _ZN15_CORBA_SequenceIN9CosNaming7BindingEE7freebufEPS1_ @344
    _ZN15_CORBA_SequenceIN9CosNaming7BindingEE8allocbufEm @345
    _ZN15_CORBA_SequenceIN9CosNaming7BindingEEC2ERKS2_ @346
    _ZN15_CORBA_SequenceIN9CosNaming7BindingEEC2Ev @347
    _ZN15_CORBA_SequenceIN9CosNaming7BindingEED2Ev @348
    _ZN15_CORBA_SequenceIbE10copybufferEm @349
    _ZN15_CORBA_SequenceIbE6lengthEm @350
    _ZN15_CORBA_SequenceIbE7freebufEPb @351
    _ZN15_CORBA_SequenceIbE8allocbufEm @352
    _ZN15_CORBA_SequenceIbEC2ERKS0_ @353
    _ZN15_CORBA_SequenceIbEC2Emb @354
    _ZN15_CORBA_SequenceIbEC2Ev @355
    _ZN15_CORBA_SequenceIbED2Ev @356
    _ZN15_CORBA_SequenceIdE10copybufferEm @357
    _ZN15_CORBA_SequenceIdE6lengthEm @358
    _ZN15_CORBA_SequenceIdE7freebufEPd @359
    _ZN15_CORBA_SequenceIdE8allocbufEm @360
    _ZN15_CORBA_SequenceIdEC2ERKS0_ @361
    _ZN15_CORBA_SequenceIdEC2Emb @362
    _ZN15_CORBA_SequenceIdEC2Ev @363
    _ZN15_CORBA_SequenceIdED2Ev @364
    _ZN15_CORBA_SequenceIeE10copybufferEm @365
    _ZN15_CORBA_SequenceIeE6lengthEm @366
    _ZN15_CORBA_SequenceIeE7freebufEPe @367
    _ZN15_CORBA_SequenceIeE8allocbufEm @368
    _ZN15_CORBA_SequenceIeEC2ERKS0_ @369
    _ZN15_CORBA_SequenceIeEC2Emb @370
    _ZN15_CORBA_SequenceIeEC2Ev @371
    _ZN15_CORBA_SequenceIeED2Ev @372
    _ZN15_CORBA_SequenceIfE10copybufferEm @373
    _ZN15_CORBA_SequenceIfE6lengthEm @374
    _ZN15_CORBA_SequenceIfE7freebufEPf @375
    _ZN15_CORBA_SequenceIfE8allocbufEm @376
    _ZN15_CORBA_SequenceIfEC2ERKS0_ @377
    _ZN15_CORBA_SequenceIfEC2Emb @378
    _ZN15_CORBA_SequenceIfEC2Ev @379
    _ZN15_CORBA_SequenceIfED2Ev @380
    _ZN15_CORBA_SequenceIhE10copybufferEm @381
    _ZN15_CORBA_SequenceIhE6lengthEm @382
    _ZN15_CORBA_SequenceIhE7freebufEPh @383
    _ZN15_CORBA_SequenceIhE8allocbufEm @384
    _ZN15_CORBA_SequenceIhEC2ERKS0_ @385
    _ZN15_CORBA_SequenceIhEC2Emb @386
    _ZN15_CORBA_SequenceIhEC2Ev @387
    _ZN15_CORBA_SequenceIhED2Ev @388
    _ZN15_CORBA_SequenceIlE10copybufferEm @389
    _ZN15_CORBA_SequenceIlE6lengthEm @390
    _ZN15_CORBA_SequenceIlE7freebufEPl @391
    _ZN15_CORBA_SequenceIlE8allocbufEm @392
    _ZN15_CORBA_SequenceIlEC2ERKS0_ @393
    _ZN15_CORBA_SequenceIlEC2Emb @394
    _ZN15_CORBA_SequenceIlEC2Ev @395
    _ZN15_CORBA_SequenceIlED2Ev @396
    _ZN15_CORBA_SequenceImE10copybufferEm @397
    _ZN15_CORBA_SequenceImE6lengthEm @398
    _ZN15_CORBA_SequenceImE7freebufEPm @399
    _ZN15_CORBA_SequenceImE8allocbufEm @400
    _ZN15_CORBA_SequenceImEC2ERKS0_ @401
    _ZN15_CORBA_SequenceImEC2Emb @402
    _ZN15_CORBA_SequenceImEC2Ev @403
    _ZN15_CORBA_SequenceImED2Ev @404
    _ZN15_CORBA_SequenceIsE10copybufferEm @405
    _ZN15_CORBA_SequenceIsE6lengthEm @406
    _ZN15_CORBA_SequenceIsE7freebufEPs @407
    _ZN15_CORBA_SequenceIsE8allocbufEm @408
    _ZN15_CORBA_SequenceIsEC2ERKS0_ @409
    _ZN15_CORBA_SequenceIsEC2Emb @410
    _ZN15_CORBA_SequenceIsEC2Ev @411
    _ZN15_CORBA_SequenceIsED2Ev @412
    _ZN15_CORBA_SequenceItE10copybufferEm @413
    _ZN15_CORBA_SequenceItE6lengthEm @414
    _ZN15_CORBA_SequenceItE7freebufEPt @415
    _ZN15_CORBA_SequenceItE8allocbufEm @416
    _ZN15_CORBA_SequenceItEC2ERKS0_ @417
    _ZN15_CORBA_SequenceItEC2Emb @418
    _ZN15_CORBA_SequenceItEC2Ev @419
    _ZN15_CORBA_SequenceItED2Ev @420
    _ZN15_CORBA_SequenceIwE10copybufferEm @421
    _ZN15_CORBA_SequenceIwE6lengthEm @422
    _ZN15_CORBA_SequenceIwE7freebufEPw @423
    _ZN15_CORBA_SequenceIwE8allocbufEm @424
    _ZN15_CORBA_SequenceIwEC2ERKS0_ @425
    _ZN15_CORBA_SequenceIwEC2Emb @426
    _ZN15_CORBA_SequenceIwEC2Ev @427
    _ZN15_CORBA_SequenceIwED2Ev @428
    _ZN15_CORBA_SequenceIxE10copybufferEm @429
    _ZN15_CORBA_SequenceIxE6lengthEm @430
    _ZN15_CORBA_SequenceIxE7freebufEPx @431
    _ZN15_CORBA_SequenceIxE8allocbufEm @432
    _ZN15_CORBA_SequenceIxEC2ERKS0_ @433
    _ZN15_CORBA_SequenceIxEC2Emb @434
    _ZN15_CORBA_SequenceIxEC2Ev @435
    _ZN15_CORBA_SequenceIxED2Ev @436
    _ZN15_CORBA_SequenceIyE10copybufferEm @437
    _ZN15_CORBA_SequenceIyE6lengthEm @438
    _ZN15_CORBA_SequenceIyE7freebufEPy @439
    _ZN15_CORBA_SequenceIyE8allocbufEm @440
    _ZN15_CORBA_SequenceIyEC2ERKS0_ @441
    _ZN15_CORBA_SequenceIyEC2Emb @442
    _ZN15_CORBA_SequenceIyEC2Ev @443
    _ZN15_CORBA_SequenceIyED2Ev @444
    _ZN15omniStdCallDesc25_cCORBA_mObject_i_cstring6resultEv @445
    _ZN15omniStdCallDesc25_cCORBA_mObject_i_cstringC1EPFvP18omniCallDescriptorP11omniServantEPKcjS8_b @446
    _ZN15omniStdCallDesc25_cCORBA_mObject_i_cstringD1Ev @447
    _ZN15omni_mutex_lockC1ER10omni_mutex @448
    _ZN15omni_mutex_lockD1Ev @449
    _ZN17_CORBA_ObjRef_VarIN5CORBA15_objref_EnumDefENS0_14EnumDef_HelperEE5_retnEv @450
    _ZN17_CORBA_ObjRef_VarIN5CORBA15_objref_EnumDefENS0_14EnumDef_HelperEEC1Ev @451
    _ZN17_CORBA_ObjRef_VarIN5CORBA15_objref_EnumDefENS0_14EnumDef_HelperEED1Ev @452
    _ZN17_CORBA_ObjRef_VarIN5CORBA15_objref_EnumDefENS0_14EnumDef_HelperEEaSEPS1_ @453
    _ZN17_CORBA_ObjRef_VarIN5CORBA15_objref_IDLTypeENS0_14IDLType_HelperEE5_retnEv @454
    _ZN17_CORBA_ObjRef_VarIN5CORBA15_objref_IDLTypeENS0_14IDLType_HelperEEC1Ev @455
    _ZN17_CORBA_ObjRef_VarIN5CORBA15_objref_IDLTypeENS0_14IDLType_HelperEED1Ev @456
    _ZN17_CORBA_ObjRef_VarIN5CORBA15_objref_IDLTypeENS0_14IDLType_HelperEEaSEPS1_ @457
    _ZN17_CORBA_ObjRef_VarIN5CORBA16_objref_AliasDefENS0_15AliasDef_HelperEE5_retnEv @458
    _ZN17_CORBA_ObjRef_VarIN5CORBA16_objref_AliasDefENS0_15AliasDef_HelperEEC1Ev @459
    _ZN17_CORBA_ObjRef_VarIN5CORBA16_objref_AliasDefENS0_15AliasDef_HelperEED1Ev @460
    _ZN17_CORBA_ObjRef_VarIN5CORBA16_objref_AliasDefENS0_15AliasDef_HelperEEaSEPS1_ @461
    _ZN17_CORBA_ObjRef_VarIN5CORBA16_objref_ArrayDefENS0_15ArrayDef_HelperEE5_retnEv @462
    _ZN17_CORBA_ObjRef_VarIN5CORBA16_objref_ArrayDefENS0_15ArrayDef_HelperEEC1Ev @463
    _ZN17_CORBA_ObjRef_VarIN5CORBA16_objref_ArrayDefENS0_15ArrayDef_HelperEED1Ev @464
    _ZN17_CORBA_ObjRef_VarIN5CORBA16_objref_ArrayDefENS0_15ArrayDef_HelperEEaSEPS1_ @465
    _ZN17_CORBA_ObjRef_VarIN5CORBA16_objref_FixedDefENS0_15FixedDef_HelperEE5_retnEv @466
    _ZN17_CORBA_ObjRef_VarIN5CORBA16_objref_FixedDefENS0_15FixedDef_HelperEEC1Ev @467
    _ZN17_CORBA_ObjRef_VarIN5CORBA16_objref_FixedDefENS0_15FixedDef_HelperEED1Ev @468
    _ZN17_CORBA_ObjRef_VarIN5CORBA16_objref_FixedDefENS0_15FixedDef_HelperEEaSEPS1_ @469
    _ZN17_CORBA_ObjRef_VarIN5CORBA16_objref_UnionDefENS0_15UnionDef_HelperEE5_retnEv @470
    _ZN17_CORBA_ObjRef_VarIN5CORBA16_objref_UnionDefENS0_15UnionDef_HelperEEC1Ev @471
    _ZN17_CORBA_ObjRef_VarIN5CORBA16_objref_UnionDefENS0_15UnionDef_HelperEED1Ev @472
    _ZN17_CORBA_ObjRef_VarIN5CORBA16_objref_UnionDefENS0_15UnionDef_HelperEEaSEPS1_ @473
    _ZN17_CORBA_ObjRef_VarIN5CORBA16_objref_ValueDefENS0_15ValueDef_HelperEE5_retnEv @474
    _ZN17_CORBA_ObjRef_VarIN5CORBA16_objref_ValueDefENS0_15ValueDef_HelperEEC1Ev @475
    _ZN17_CORBA_ObjRef_VarIN5CORBA16_objref_ValueDefENS0_15ValueDef_HelperEED1Ev @476
    _ZN17_CORBA_ObjRef_VarIN5CORBA16_objref_ValueDefENS0_15ValueDef_HelperEEaSEPS1_ @477
    _ZN17_CORBA_ObjRef_VarIN5CORBA17_objref_ContainedENS0_16Contained_HelperEE5_retnEv @478
    _ZN17_CORBA_ObjRef_VarIN5CORBA17_objref_ContainedENS0_16Contained_HelperEEC1Ev @479
    _ZN17_CORBA_ObjRef_VarIN5CORBA17_objref_ContainedENS0_16Contained_HelperEED1Ev @480
    _ZN17_CORBA_ObjRef_VarIN5CORBA17_objref_ContainedENS0_16Contained_HelperEEaSEPS1_ @481
    _ZN17_CORBA_ObjRef_VarIN5CORBA17_objref_ContainerENS0_16Container_HelperEE5_retnEv @482
    _ZN17_CORBA_ObjRef_VarIN5CORBA17_objref_ContainerENS0_16Container_HelperEEC1Ev @483
    _ZN17_CORBA_ObjRef_VarIN5CORBA17_objref_ContainerENS0_16Container_HelperEED1Ev @484
    _ZN17_CORBA_ObjRef_VarIN5CORBA17_objref_ContainerENS0_16Container_HelperEEaSEPS1_ @485
    _ZN17_CORBA_ObjRef_VarIN5CORBA17_objref_ModuleDefENS0_16ModuleDef_HelperEE5_retnEv @486
    _ZN17_CORBA_ObjRef_VarIN5CORBA17_objref_ModuleDefENS0_16ModuleDef_HelperEEC1Ev @487
    _ZN17_CORBA_ObjRef_VarIN5CORBA17_objref_ModuleDefENS0_16ModuleDef_HelperEED1Ev @488
    _ZN17_CORBA_ObjRef_VarIN5CORBA17_objref_ModuleDefENS0_16ModuleDef_HelperEEaSEPS1_ @489
    _ZN17_CORBA_ObjRef_VarIN5CORBA17_objref_NativeDefENS0_16NativeDef_HelperEE5_retnEv @490
    _ZN17_CORBA_ObjRef_VarIN5CORBA17_objref_NativeDefENS0_16NativeDef_HelperEEC1Ev @491
    _ZN17_CORBA_ObjRef_VarIN5CORBA17_objref_NativeDefENS0_16NativeDef_HelperEED1Ev @492
    _ZN17_CORBA_ObjRef_VarIN5CORBA17_objref_NativeDefENS0_16NativeDef_HelperEEaSEPS1_ @493
    _ZN17_CORBA_ObjRef_VarIN5CORBA17_objref_StringDefENS0_16StringDef_HelperEE5_retnEv @494
    _ZN17_CORBA_ObjRef_VarIN5CORBA17_objref_StringDefENS0_16StringDef_HelperEEC1Ev @495
    _ZN17_CORBA_ObjRef_VarIN5CORBA17_objref_StringDefENS0_16StringDef_HelperEED1Ev @496
    _ZN17_CORBA_ObjRef_VarIN5CORBA17_objref_StringDefENS0_16StringDef_HelperEEaSEPS1_ @497
    _ZN17_CORBA_ObjRef_VarIN5CORBA17_objref_StructDefENS0_16StructDef_HelperEE5_retnEv @498
    _ZN17_CORBA_ObjRef_VarIN5CORBA17_objref_StructDefENS0_16StructDef_HelperEEC1Ev @499
    _ZN17_CORBA_ObjRef_VarIN5CORBA17_objref_StructDefENS0_16StructDef_HelperEED1Ev @500
    _ZN17_CORBA_ObjRef_VarIN5CORBA17_objref_StructDefENS0_16StructDef_HelperEEaSEPS1_ @501
    _ZN17_CORBA_ObjRef_VarIN5CORBA18_objref_RepositoryENS0_17Repository_HelperEE5_retnEv @502
    _ZN17_CORBA_ObjRef_VarIN5CORBA18_objref_RepositoryENS0_17Repository_HelperEEC1Ev @503
    _ZN17_CORBA_ObjRef_VarIN5CORBA18_objref_RepositoryENS0_17Repository_HelperEED1Ev @504
    _ZN17_CORBA_ObjRef_VarIN5CORBA18_objref_RepositoryENS0_17Repository_HelperEEaSEPS1_ @505
    _ZN17_CORBA_ObjRef_VarIN5CORBA18_objref_WstringDefENS0_17WstringDef_HelperEE5_retnEv @506
    _ZN17_CORBA_ObjRef_VarIN5CORBA18_objref_WstringDefENS0_17WstringDef_HelperEEC1Ev @507
    _ZN17_CORBA_ObjRef_VarIN5CORBA18_objref_WstringDefENS0_17WstringDef_HelperEED1Ev @508
    _ZN17_CORBA_ObjRef_VarIN5CORBA18_objref_WstringDefENS0_17WstringDef_HelperEEaSEPS1_ @509
    _ZN17_CORBA_ObjRef_VarIN5CORBA19_objref_ConstantDefENS0_18ConstantDef_HelperEE5_retnEv @510
    _ZN17_CORBA_ObjRef_VarIN5CORBA19_objref_ConstantDefENS0_18ConstantDef_HelperEEC1Ev @511
    _ZN17_CORBA_ObjRef_VarIN5CORBA19_objref_ConstantDefENS0_18ConstantDef_HelperEED1Ev @512
    _ZN17_CORBA_ObjRef_VarIN5CORBA19_objref_ConstantDefENS0_18ConstantDef_HelperEEaSEPS1_ @513
    _ZN17_CORBA_ObjRef_VarIN5CORBA19_objref_SequenceDefENS0_18SequenceDef_HelperEE5_retnEv @514
    _ZN17_CORBA_ObjRef_VarIN5CORBA19_objref_SequenceDefENS0_18SequenceDef_HelperEEC1Ev @515
    _ZN17_CORBA_ObjRef_VarIN5CORBA19_objref_SequenceDefENS0_18SequenceDef_HelperEED1Ev @516
    _ZN17_CORBA_ObjRef_VarIN5CORBA19_objref_SequenceDefENS0_18SequenceDef_HelperEEaSEPS1_ @517
    _ZN17_CORBA_ObjRef_VarIN5CORBA19_objref_ValueBoxDefENS0_18ValueBoxDef_HelperEE5_retnEv @518
    _ZN17_CORBA_ObjRef_VarIN5CORBA19_objref_ValueBoxDefENS0_18ValueBoxDef_HelperEEC1Ev @519
    _ZN17_CORBA_ObjRef_VarIN5CORBA19_objref_ValueBoxDefENS0_18ValueBoxDef_HelperEED1Ev @520
    _ZN17_CORBA_ObjRef_VarIN5CORBA19_objref_ValueBoxDefENS0_18ValueBoxDef_HelperEEaSEPS1_ @521
    _ZN17_CORBA_ObjRef_VarIN5CORBA20_objref_AttributeDefENS0_19AttributeDef_HelperEE5_retnEv @522
    _ZN17_CORBA_ObjRef_VarIN5CORBA20_objref_AttributeDefENS0_19AttributeDef_HelperEEC1Ev @523
    _ZN17_CORBA_ObjRef_VarIN5CORBA20_objref_AttributeDefENS0_19AttributeDef_HelperEED1Ev @524
    _ZN17_CORBA_ObjRef_VarIN5CORBA20_objref_AttributeDefENS0_19AttributeDef_HelperEEaSEPS1_ @525
    _ZN17_CORBA_ObjRef_VarIN5CORBA20_objref_ExceptionDefENS0_19ExceptionDef_HelperEE5_retnEv @526
    _ZN17_CORBA_ObjRef_VarIN5CORBA20_objref_ExceptionDefENS0_19ExceptionDef_HelperEEC1Ev @527
    _ZN17_CORBA_ObjRef_VarIN5CORBA20_objref_ExceptionDefENS0_19ExceptionDef_HelperEED1Ev @528
    _ZN17_CORBA_ObjRef_VarIN5CORBA20_objref_ExceptionDefENS0_19ExceptionDef_HelperEEaSEPS1_ @529
    _ZN17_CORBA_ObjRef_VarIN5CORBA20_objref_InterfaceDefENS0_19InterfaceDef_HelperEE5_retnEv @530
    _ZN17_CORBA_ObjRef_VarIN5CORBA20_objref_InterfaceDefENS0_19InterfaceDef_HelperEEC1Ev @531
    _ZN17_CORBA_ObjRef_VarIN5CORBA20_objref_InterfaceDefENS0_19InterfaceDef_HelperEED1Ev @532
    _ZN17_CORBA_ObjRef_VarIN5CORBA20_objref_InterfaceDefENS0_19InterfaceDef_HelperEEaSEPS1_ @533
    _ZN17_CORBA_ObjRef_VarIN5CORBA20_objref_OperationDefENS0_19OperationDef_HelperEE5_retnEv @534
    _ZN17_CORBA_ObjRef_VarIN5CORBA20_objref_OperationDefENS0_19OperationDef_HelperEEC1Ev @535
    _ZN17_CORBA_ObjRef_VarIN5CORBA20_objref_OperationDefENS0_19OperationDef_HelperEED1Ev @536
    _ZN17_CORBA_ObjRef_VarIN5CORBA20_objref_OperationDefENS0_19OperationDef_HelperEEaSEPS1_ @537
    _ZN17_CORBA_ObjRef_VarIN5CORBA20_objref_PrimitiveDefENS0_19PrimitiveDef_HelperEE5_retnEv @538
    _ZN17_CORBA_ObjRef_VarIN5CORBA20_objref_PrimitiveDefENS0_19PrimitiveDef_HelperEEC1Ev @539
    _ZN17_CORBA_ObjRef_VarIN5CORBA20_objref_PrimitiveDefENS0_19PrimitiveDef_HelperEED1Ev @540
    _ZN17_CORBA_ObjRef_VarIN5CORBA20_objref_PrimitiveDefENS0_19PrimitiveDef_HelperEEaSEPS1_ @541
    _ZN17_CORBA_ObjRef_VarIN5CORBA22_objref_ValueMemberDefENS0_21ValueMemberDef_HelperEE5_retnEv @542
    _ZN17_CORBA_ObjRef_VarIN5CORBA22_objref_ValueMemberDefENS0_21ValueMemberDef_HelperEEC1Ev @543
    _ZN17_CORBA_ObjRef_VarIN5CORBA22_objref_ValueMemberDefENS0_21ValueMemberDef_HelperEED1Ev @544
    _ZN17_CORBA_ObjRef_VarIN5CORBA22_objref_ValueMemberDefENS0_21ValueMemberDef_HelperEEaSEPS1_ @545
    _ZN17_CORBA_ObjRef_VarIN5CORBA28_objref_AbstractInterfaceDefENS0_27AbstractInterfaceDef_HelperEE5_retnEv @546
    _ZN17_CORBA_ObjRef_VarIN5CORBA28_objref_AbstractInterfaceDefENS0_27AbstractInterfaceDef_HelperEEC1Ev @547
    _ZN17_CORBA_ObjRef_VarIN5CORBA28_objref_AbstractInterfaceDefENS0_27AbstractInterfaceDef_HelperEED1Ev @548
    _ZN17_CORBA_ObjRef_VarIN5CORBA28_objref_AbstractInterfaceDefENS0_27AbstractInterfaceDef_HelperEEaSEPS1_ @549
    _ZN17_CORBA_String_var5_retnEv @550
    _ZN17_CORBA_String_varC1EPKc @551
    _ZN17_CORBA_String_varC1EPc @552
    _ZN17_CORBA_String_varC1Ev @553
    _ZN17_CORBA_String_varD1Ev @554
    _ZN17_CORBA_String_varaSEPc @555
    _ZN17_CORBA_String_varcvPcEv @556
    _ZN18cdrAnyMemoryStream10ptrToClassEPi @557
    _ZN18cdrAnyMemoryStream13clearValueSeqEv @558
    _ZN18cdrAnyMemoryStream8_classidE @559 DATA
    _ZN18cdrAnyMemoryStream8downcastEP9cdrStream @560
    _ZN18cdrAnyMemoryStream8valueSeqEv @561
    _ZN18cdrAnyMemoryStreamC1EPvb @562
    _ZN18cdrAnyMemoryStreamC1ERKS_b @563
    _ZN18cdrAnyMemoryStreamC1Ev @564
    _ZN18cdrAnyMemoryStreamC2EPvb @565
    _ZN18cdrAnyMemoryStreamC2ERKS_b @566
    _ZN18cdrAnyMemoryStreamC2Ev @567
    _ZN18cdrAnyMemoryStreamD0Ev @568
    _ZN18cdrAnyMemoryStreamD1Ev @569
    _ZN18cdrAnyMemoryStreamD2Ev @570
    _ZN18cdrAnyMemoryStreamaSERK15cdrMemoryStream @571
    _ZN18omniCallDescriptor3poaEPN4omni10omniOrbPOAE @572
    _ZN18omniCallDescriptor3poaEv @573
    _ZN18omniCallDescriptor7localIdEP17omniLocalIdentity @574
    _ZN18omniCallDescriptor7localIdEv @575
    _ZN18omniCallDescriptorC2EPFvPS_P11omniServantEPKcibPKS6_ib @576
    _ZN18omniCallDescriptorD2Ev @577
    _ZN19cdrValueChunkStream17exceptionOccurredEv @578
    _ZN19cdrValueChunkStream19copyStateFromActualEv @579
    _ZN19cdrValueChunkStream8downcastEP9cdrStream @580
    _ZN19cdrValueChunkStream9nestLevelEv @581
    _ZN19cdrValueChunkStreamC1ER9cdrStream @582
    _ZN20_CORBA_ObjRef_MemberIN5CORBA15_objref_IDLTypeENS0_14IDLType_HelperEEC1ERKS3_ @583
    _ZN20_CORBA_ObjRef_MemberIN5CORBA15_objref_IDLTypeENS0_14IDLType_HelperEEC1Ev @584
    _ZN20_CORBA_ObjRef_MemberIN5CORBA15_objref_IDLTypeENS0_14IDLType_HelperEED1Ev @585
    _ZN20_CORBA_ObjRef_MemberIN5CORBA15_objref_IDLTypeENS0_14IDLType_HelperEEaSEPS1_ @586
    _ZN20_CORBA_ObjRef_MemberIN5CORBA15_objref_IDLTypeENS0_14IDLType_HelperEEaSERKS3_ @587
    _ZN20_CORBA_ObjRef_MemberIN5CORBA17_objref_ContainedENS0_16Contained_HelperEEC1ERKS3_ @588
    _ZN20_CORBA_ObjRef_MemberIN5CORBA17_objref_ContainedENS0_16Contained_HelperEEC1Ev @589
    _ZN20_CORBA_ObjRef_MemberIN5CORBA17_objref_ContainedENS0_16Contained_HelperEED1Ev @590
    _ZN20_CORBA_ObjRef_MemberIN5CORBA17_objref_ContainedENS0_16Contained_HelperEEaSEPS1_ @591
    _ZN20_CORBA_ObjRef_MemberIN5CORBA17_objref_ContainedENS0_16Contained_HelperEEaSERKS3_ @592
    _ZN20_CORBA_ObjRef_MemberIN9CosNaming21_objref_NamingContextENS0_20NamingContext_HelperEEC1Ev @593
    _ZN20_CORBA_ObjRef_MemberIN9CosNaming21_objref_NamingContextENS0_20NamingContext_HelperEED1Ev @594
    _ZN20_CORBA_PseudoObj_OutIN5CORBA10NamedValueE20_CORBA_PseudoObj_VarIS1_EEaSEPS1_ @595
    _ZN20_CORBA_PseudoObj_OutIN5CORBA11ContextListE20_CORBA_PseudoObj_VarIS1_EEaSEPS1_ @596
    _ZN20_CORBA_PseudoObj_OutIN5CORBA11EnvironmentE20_CORBA_PseudoObj_VarIS1_EEaSEPS1_ @597
    _ZN20_CORBA_PseudoObj_OutIN5CORBA13ExceptionListE20_CORBA_PseudoObj_VarIS1_EEaSEPS1_ @598
    _ZN20_CORBA_PseudoObj_OutIN5CORBA6NVListE20_CORBA_PseudoObj_VarIS1_EEaSEPS1_ @599
    _ZN20_CORBA_PseudoObj_OutIN5CORBA7ContextE20_CORBA_PseudoObj_VarIS1_EEaSEPS1_ @600
    _ZN20_CORBA_PseudoObj_OutIN5CORBA7RequestE20_CORBA_PseudoObj_VarIS1_EEaSEPS1_ @601
    _ZN20_CORBA_PseudoObj_VarIN10DynamicAny6DynAnyEEC1EPS1_ @602
    _ZN20_CORBA_PseudoObj_VarIN10DynamicAny6DynAnyEED1Ev @603
    _ZN20_CORBA_PseudoObj_VarIN5CORBA10NamedValueEEC1Ev @604
    _ZN20_CORBA_PseudoObj_VarIN5CORBA10NamedValueEED1Ev @605
    _ZN20_CORBA_PseudoObj_VarIN5CORBA10NamedValueEEaSEPS1_ @606
    _ZN20_CORBA_PseudoObj_VarIN5CORBA11ContextListEEC1Ev @607
    _ZN20_CORBA_PseudoObj_VarIN5CORBA11ContextListEED1Ev @608
    _ZN20_CORBA_PseudoObj_VarIN5CORBA11ContextListEEaSEPS1_ @609
    _ZN20_CORBA_PseudoObj_VarIN5CORBA11EnvironmentEEC1Ev @610
    _ZN20_CORBA_PseudoObj_VarIN5CORBA11EnvironmentEED1Ev @611
    _ZN20_CORBA_PseudoObj_VarIN5CORBA11EnvironmentEEaSEPS1_ @612
    _ZN20_CORBA_PseudoObj_VarIN5CORBA13ExceptionListEEC1Ev @613
    _ZN20_CORBA_PseudoObj_VarIN5CORBA13ExceptionListEED1Ev @614
    _ZN20_CORBA_PseudoObj_VarIN5CORBA13ExceptionListEEaSEPS1_ @615
    _ZN20_CORBA_PseudoObj_VarIN5CORBA6NVListEEC1Ev @616
    _ZN20_CORBA_PseudoObj_VarIN5CORBA6NVListEED1Ev @617
    _ZN20_CORBA_PseudoObj_VarIN5CORBA6NVListEEaSEPS1_ @618
    _ZN20_CORBA_PseudoObj_VarIN5CORBA7ContextEEC1Ev @619
    _ZN20_CORBA_PseudoObj_VarIN5CORBA7ContextEED1Ev @620
    _ZN20_CORBA_PseudoObj_VarIN5CORBA7ContextEEaSEPS1_ @621
    _ZN20_CORBA_Sequence_CharC2ERKS_ @622
    _ZN20_CORBA_Sequence_CharC2Emb @623
    _ZN20_CORBA_Sequence_CharC2Ev @624
    _ZN20_CORBA_Sequence_CharD2Ev @625
    _ZN20_CORBA_Sequence_CharlSER9cdrStream @626
    _ZN20_CORBA_String_helper3dupEPKc @627
    _ZN20_CORBA_String_helper4freeEPc @628
    _ZN20_CORBA_String_helper5allocEi @629
    _ZN20_CORBA_String_memberC1ERKS_ @630
    _ZN20_CORBA_String_memberC1Ev @631
    _ZN20_CORBA_String_memberD1Ev @632
    _ZN20_CORBA_String_memberaSEPKc @633
    _ZN20_CORBA_String_memberaSEPc @634
    _ZN20_CORBA_String_memberaSERKS_ @635
    _ZN20_CORBA_String_membercvPcEv @636
    _ZN20_CORBA_Value_ElementIN5CORBA9ValueBaseENS0_16ValueBase_HelperEEC1ERPS1_b @637
    _ZN20_CORBA_Value_ElementIN5CORBA9ValueBaseENS0_16ValueBase_HelperEED1Ev @638
    _ZN20_CORBA_Value_ElementIN5CORBA9ValueBaseENS0_16ValueBase_HelperEEaSEPS1_ @639
    _ZN20_CORBA_Value_ElementIN5CORBA9ValueBaseENS0_16ValueBase_HelperEEaSERKS3_ @640
    _ZN21_CORBA_ObjRef_ElementIN10DynamicAny6DynAnyENS0_13DynAny_HelperEEC1ERPS1_b @641
    _ZN21_CORBA_ObjRef_ElementIN10DynamicAny6DynAnyENS0_13DynAny_HelperEED1Ev @642
    _ZN21_CORBA_ObjRef_ElementIN10DynamicAny6DynAnyENS0_13DynAny_HelperEEaSEPS1_ @643
    _ZN21_CORBA_ObjRef_ElementIN5CORBA16_objref_ValueDefENS0_15ValueDef_HelperEEC1ERPS1_b @644
    _ZN21_CORBA_ObjRef_ElementIN5CORBA16_objref_ValueDefENS0_15ValueDef_HelperEED1Ev @645
    _ZN21_CORBA_ObjRef_ElementIN5CORBA16_objref_ValueDefENS0_15ValueDef_HelperEEaSEPS1_ @646
    _ZN21_CORBA_ObjRef_ElementIN5CORBA16_objref_ValueDefENS0_15ValueDef_HelperEEaSERKS3_ @647
    _ZN21_CORBA_ObjRef_ElementIN5CORBA17_objref_ContainedENS0_16Contained_HelperEEC1ERPS1_b @648
    _ZN21_CORBA_ObjRef_ElementIN5CORBA17_objref_ContainedENS0_16Contained_HelperEED1Ev @649
    _ZN21_CORBA_ObjRef_ElementIN5CORBA17_objref_ContainedENS0_16Contained_HelperEEaSEPS1_ @650
    _ZN21_CORBA_ObjRef_ElementIN5CORBA17_objref_ContainedENS0_16Contained_HelperEEaSERKS3_ @651
    _ZN21_CORBA_ObjRef_ElementIN5CORBA20_objref_ExceptionDefENS0_19ExceptionDef_HelperEEC1ERPS1_b @652
    _ZN21_CORBA_ObjRef_ElementIN5CORBA20_objref_ExceptionDefENS0_19ExceptionDef_HelperEED1Ev @653
    _ZN21_CORBA_ObjRef_ElementIN5CORBA20_objref_ExceptionDefENS0_19ExceptionDef_HelperEEaSEPS1_ @654
    _ZN21_CORBA_ObjRef_ElementIN5CORBA20_objref_ExceptionDefENS0_19ExceptionDef_HelperEEaSERKS3_ @655
    _ZN21_CORBA_ObjRef_ElementIN5CORBA20_objref_InterfaceDefENS0_19InterfaceDef_HelperEEC1ERPS1_b @656
    _ZN21_CORBA_ObjRef_ElementIN5CORBA20_objref_InterfaceDefENS0_19InterfaceDef_HelperEED1Ev @657
    _ZN21_CORBA_ObjRef_ElementIN5CORBA20_objref_InterfaceDefENS0_19InterfaceDef_HelperEEaSEPS1_ @658
    _ZN21_CORBA_ObjRef_ElementIN5CORBA20_objref_InterfaceDefENS0_19InterfaceDef_HelperEEaSERKS3_ @659
    _ZN21_CORBA_ObjRef_ElementIN5CORBA28_objref_AbstractInterfaceDefENS0_27AbstractInterfaceDef_HelperEEC1ERPS1_b @660
    _ZN21_CORBA_ObjRef_ElementIN5CORBA28_objref_AbstractInterfaceDefENS0_27AbstractInterfaceDef_HelperEED1Ev @661
    _ZN21_CORBA_ObjRef_ElementIN5CORBA28_objref_AbstractInterfaceDefENS0_27AbstractInterfaceDef_HelperEEaSEPS1_ @662
    _ZN21_CORBA_ObjRef_ElementIN5CORBA28_objref_AbstractInterfaceDefENS0_27AbstractInterfaceDef_HelperEEaSERKS3_ @663
    _ZN21_CORBA_Sequence_OctetC2ERKS_ @664
    _ZN21_CORBA_Sequence_OctetC2Emb @665
    _ZN21_CORBA_Sequence_OctetC2Ev @666
    _ZN21_CORBA_Sequence_OctetD2Ev @667
    _ZN21_CORBA_Sequence_OctetlSER9cdrStream @668
    _ZN21_CORBA_Sequence_ValueIN5CORBA9ValueBaseE20_CORBA_Value_ElementIS1_NS0_16ValueBase_HelperEES3_E10copybufferEm @669
    _ZN21_CORBA_Sequence_ValueIN5CORBA9ValueBaseE20_CORBA_Value_ElementIS1_NS0_16ValueBase_HelperEES3_E6lengthEm @670
    _ZN21_CORBA_Sequence_ValueIN5CORBA9ValueBaseE20_CORBA_Value_ElementIS1_NS0_16ValueBase_HelperEES3_E7freebufEPPS1_ @671
    _ZN21_CORBA_Sequence_ValueIN5CORBA9ValueBaseE20_CORBA_Value_ElementIS1_NS0_16ValueBase_HelperEES3_E8allocbufEm @672
    _ZN21_CORBA_Sequence_ValueIN5CORBA9ValueBaseE20_CORBA_Value_ElementIS1_NS0_16ValueBase_HelperEES3_EC2ERKS5_ @673
    _ZN21_CORBA_Sequence_ValueIN5CORBA9ValueBaseE20_CORBA_Value_ElementIS1_NS0_16ValueBase_HelperEES3_EC2EmmPPS1_bb @674
    _ZN21_CORBA_Sequence_ValueIN5CORBA9ValueBaseE20_CORBA_Value_ElementIS1_NS0_16ValueBase_HelperEES3_EC2Ev @675
    _ZN21_CORBA_Sequence_ValueIN5CORBA9ValueBaseE20_CORBA_Value_ElementIS1_NS0_16ValueBase_HelperEES3_ED2Ev @676
    _ZN21_CORBA_Sequence_ValueIN5CORBA9ValueBaseE20_CORBA_Value_ElementIS1_NS0_16ValueBase_HelperEES3_EixEm @677
    _ZN21_CORBA_Sequence_WCharC2ERKS_ @678
    _ZN21_CORBA_Sequence_WCharC2Emb @679
    _ZN21_CORBA_Sequence_WCharC2Ev @680
    _ZN21_CORBA_Sequence_WCharD2Ev @681
    _ZN21_CORBA_Sequence_WCharlSER9cdrStream @682
    _ZN21_CORBA_String_elementC1ERPcb @683
    _ZN21_CORBA_String_elementD1Ev @684
    _ZN21_CORBA_String_elementaSEPKc @685
    _ZN21_CORBA_String_elementaSEPc @686
    _ZN21_CORBA_String_elementaSERKS_ @687
    _ZN21_CORBA_String_elementcvPcEv @688
    _ZN21_CORBA_WString_helper3cpyEPwPKw @689
    _ZN21_CORBA_WString_helper3dupEPKw @690
    _ZN21_CORBA_WString_helper3lenEPKw @691
    _ZN21_CORBA_WString_helper4freeEPw @692
    _ZN21_CORBA_WString_helper5allocEi @693
    _ZN22_CORBA_ObjRef_Var_baseC2Ev @694
    _ZN22_CORBA_Sequence_ObjRefIN10DynamicAny6DynAnyE21_CORBA_ObjRef_ElementIS1_NS0_13DynAny_HelperEES3_E10copybufferEm @695
    _ZN22_CORBA_Sequence_ObjRefIN10DynamicAny6DynAnyE21_CORBA_ObjRef_ElementIS1_NS0_13DynAny_HelperEES3_E6lengthEm @696
    _ZN22_CORBA_Sequence_ObjRefIN10DynamicAny6DynAnyE21_CORBA_ObjRef_ElementIS1_NS0_13DynAny_HelperEES3_E7freebufEPPS1_ @697
    _ZN22_CORBA_Sequence_ObjRefIN10DynamicAny6DynAnyE21_CORBA_ObjRef_ElementIS1_NS0_13DynAny_HelperEES3_E8allocbufEm @698
    _ZN22_CORBA_Sequence_ObjRefIN10DynamicAny6DynAnyE21_CORBA_ObjRef_ElementIS1_NS0_13DynAny_HelperEES3_EC2Ev @699
    _ZN22_CORBA_Sequence_ObjRefIN10DynamicAny6DynAnyE21_CORBA_ObjRef_ElementIS1_NS0_13DynAny_HelperEES3_EixEm @700
    _ZN22_CORBA_Sequence_ObjRefIN5CORBA16_objref_ValueDefE21_CORBA_ObjRef_ElementIS1_NS0_15ValueDef_HelperEES3_E10copybufferEm @701
    _ZN22_CORBA_Sequence_ObjRefIN5CORBA16_objref_ValueDefE21_CORBA_ObjRef_ElementIS1_NS0_15ValueDef_HelperEES3_E6lengthEm @702
    _ZN22_CORBA_Sequence_ObjRefIN5CORBA16_objref_ValueDefE21_CORBA_ObjRef_ElementIS1_NS0_15ValueDef_HelperEES3_E7freebufEPPS1_ @703
    _ZN22_CORBA_Sequence_ObjRefIN5CORBA16_objref_ValueDefE21_CORBA_ObjRef_ElementIS1_NS0_15ValueDef_HelperEES3_E8allocbufEm @704
    _ZN22_CORBA_Sequence_ObjRefIN5CORBA16_objref_ValueDefE21_CORBA_ObjRef_ElementIS1_NS0_15ValueDef_HelperEES3_EC2ERKS5_ @705
    _ZN22_CORBA_Sequence_ObjRefIN5CORBA16_objref_ValueDefE21_CORBA_ObjRef_ElementIS1_NS0_15ValueDef_HelperEES3_EC2Ev @706
    _ZN22_CORBA_Sequence_ObjRefIN5CORBA16_objref_ValueDefE21_CORBA_ObjRef_ElementIS1_NS0_15ValueDef_HelperEES3_ED2Ev @707
    _ZN22_CORBA_Sequence_ObjRefIN5CORBA16_objref_ValueDefE21_CORBA_ObjRef_ElementIS1_NS0_15ValueDef_HelperEES3_EixEm @708
    _ZN22_CORBA_Sequence_ObjRefIN5CORBA16_objref_ValueDefE21_CORBA_ObjRef_ElementIS1_NS0_15ValueDef_HelperEES3_ElSER9cdrStream @709
    _ZN22_CORBA_Sequence_ObjRefIN5CORBA17_objref_ContainedE21_CORBA_ObjRef_ElementIS1_NS0_16Contained_HelperEES3_E10copybufferEm @710
    _ZN22_CORBA_Sequence_ObjRefIN5CORBA17_objref_ContainedE21_CORBA_ObjRef_ElementIS1_NS0_16Contained_HelperEES3_E6lengthEm @711
    _ZN22_CORBA_Sequence_ObjRefIN5CORBA17_objref_ContainedE21_CORBA_ObjRef_ElementIS1_NS0_16Contained_HelperEES3_E7freebufEPPS1_ @712
    _ZN22_CORBA_Sequence_ObjRefIN5CORBA17_objref_ContainedE21_CORBA_ObjRef_ElementIS1_NS0_16Contained_HelperEES3_E8allocbufEm @713
    _ZN22_CORBA_Sequence_ObjRefIN5CORBA17_objref_ContainedE21_CORBA_ObjRef_ElementIS1_NS0_16Contained_HelperEES3_EC2ERKS5_ @714
    _ZN22_CORBA_Sequence_ObjRefIN5CORBA17_objref_ContainedE21_CORBA_ObjRef_ElementIS1_NS0_16Contained_HelperEES3_EC2Ev @715
    _ZN22_CORBA_Sequence_ObjRefIN5CORBA17_objref_ContainedE21_CORBA_ObjRef_ElementIS1_NS0_16Contained_HelperEES3_ED2Ev @716
    _ZN22_CORBA_Sequence_ObjRefIN5CORBA17_objref_ContainedE21_CORBA_ObjRef_ElementIS1_NS0_16Contained_HelperEES3_EixEm @717
    _ZN22_CORBA_Sequence_ObjRefIN5CORBA17_objref_ContainedE21_CORBA_ObjRef_ElementIS1_NS0_16Contained_HelperEES3_ElSER9cdrStream @718
    _ZN22_CORBA_Sequence_ObjRefIN5CORBA20_objref_ExceptionDefE21_CORBA_ObjRef_ElementIS1_NS0_19ExceptionDef_HelperEES3_E10copybufferEm @719
    _ZN22_CORBA_Sequence_ObjRefIN5CORBA20_objref_ExceptionDefE21_CORBA_ObjRef_ElementIS1_NS0_19ExceptionDef_HelperEES3_E6lengthEm @720
    _ZN22_CORBA_Sequence_ObjRefIN5CORBA20_objref_ExceptionDefE21_CORBA_ObjRef_ElementIS1_NS0_19ExceptionDef_HelperEES3_E7freebufEPPS1_ @721
    _ZN22_CORBA_Sequence_ObjRefIN5CORBA20_objref_ExceptionDefE21_CORBA_ObjRef_ElementIS1_NS0_19ExceptionDef_HelperEES3_E8allocbufEm @722
    _ZN22_CORBA_Sequence_ObjRefIN5CORBA20_objref_ExceptionDefE21_CORBA_ObjRef_ElementIS1_NS0_19ExceptionDef_HelperEES3_EC2ERKS5_ @723
    _ZN22_CORBA_Sequence_ObjRefIN5CORBA20_objref_ExceptionDefE21_CORBA_ObjRef_ElementIS1_NS0_19ExceptionDef_HelperEES3_EC2Ev @724
    _ZN22_CORBA_Sequence_ObjRefIN5CORBA20_objref_ExceptionDefE21_CORBA_ObjRef_ElementIS1_NS0_19ExceptionDef_HelperEES3_ED2Ev @725
    _ZN22_CORBA_Sequence_ObjRefIN5CORBA20_objref_ExceptionDefE21_CORBA_ObjRef_ElementIS1_NS0_19ExceptionDef_HelperEES3_EixEm @726
    _ZN22_CORBA_Sequence_ObjRefIN5CORBA20_objref_ExceptionDefE21_CORBA_ObjRef_ElementIS1_NS0_19ExceptionDef_HelperEES3_ElSER9cdrStream @727
    _ZN22_CORBA_Sequence_ObjRefIN5CORBA20_objref_InterfaceDefE21_CORBA_ObjRef_ElementIS1_NS0_19InterfaceDef_HelperEES3_E10copybufferEm @728
    _ZN22_CORBA_Sequence_ObjRefIN5CORBA20_objref_InterfaceDefE21_CORBA_ObjRef_ElementIS1_NS0_19InterfaceDef_HelperEES3_E6lengthEm @729
    _ZN22_CORBA_Sequence_ObjRefIN5CORBA20_objref_InterfaceDefE21_CORBA_ObjRef_ElementIS1_NS0_19InterfaceDef_HelperEES3_E7freebufEPPS1_ @730
    _ZN22_CORBA_Sequence_ObjRefIN5CORBA20_objref_InterfaceDefE21_CORBA_ObjRef_ElementIS1_NS0_19InterfaceDef_HelperEES3_E8allocbufEm @731
    _ZN22_CORBA_Sequence_ObjRefIN5CORBA20_objref_InterfaceDefE21_CORBA_ObjRef_ElementIS1_NS0_19InterfaceDef_HelperEES3_EC2ERKS5_ @732
    _ZN22_CORBA_Sequence_ObjRefIN5CORBA20_objref_InterfaceDefE21_CORBA_ObjRef_ElementIS1_NS0_19InterfaceDef_HelperEES3_EC2Ev @733
    _ZN22_CORBA_Sequence_ObjRefIN5CORBA20_objref_InterfaceDefE21_CORBA_ObjRef_ElementIS1_NS0_19InterfaceDef_HelperEES3_ED2Ev @734
    _ZN22_CORBA_Sequence_ObjRefIN5CORBA20_objref_InterfaceDefE21_CORBA_ObjRef_ElementIS1_NS0_19InterfaceDef_HelperEES3_EixEm @735
    _ZN22_CORBA_Sequence_ObjRefIN5CORBA20_objref_InterfaceDefE21_CORBA_ObjRef_ElementIS1_NS0_19InterfaceDef_HelperEES3_ElSER9cdrStream @736
    _ZN22_CORBA_Sequence_ObjRefIN5CORBA28_objref_AbstractInterfaceDefE21_CORBA_ObjRef_ElementIS1_NS0_27AbstractInterfaceDef_HelperEES3_E10copybufferEm @737
    _ZN22_CORBA_Sequence_ObjRefIN5CORBA28_objref_AbstractInterfaceDefE21_CORBA_ObjRef_ElementIS1_NS0_27AbstractInterfaceDef_HelperEES3_E6lengthEm @738
    _ZN22_CORBA_Sequence_ObjRefIN5CORBA28_objref_AbstractInterfaceDefE21_CORBA_ObjRef_ElementIS1_NS0_27AbstractInterfaceDef_HelperEES3_E7freebufEPPS1_ @739
    _ZN22_CORBA_Sequence_ObjRefIN5CORBA28_objref_AbstractInterfaceDefE21_CORBA_ObjRef_ElementIS1_NS0_27AbstractInterfaceDef_HelperEES3_E8allocbufEm @740
    _ZN22_CORBA_Sequence_ObjRefIN5CORBA28_objref_AbstractInterfaceDefE21_CORBA_ObjRef_ElementIS1_NS0_27AbstractInterfaceDef_HelperEES3_EC2ERKS5_ @741
    _ZN22_CORBA_Sequence_ObjRefIN5CORBA28_objref_AbstractInterfaceDefE21_CORBA_ObjRef_ElementIS1_NS0_27AbstractInterfaceDef_HelperEES3_EC2Ev @742
    _ZN22_CORBA_Sequence_ObjRefIN5CORBA28_objref_AbstractInterfaceDefE21_CORBA_ObjRef_ElementIS1_NS0_27AbstractInterfaceDef_HelperEES3_ED2Ev @743
    _ZN22_CORBA_Sequence_ObjRefIN5CORBA28_objref_AbstractInterfaceDefE21_CORBA_ObjRef_ElementIS1_NS0_27AbstractInterfaceDef_HelperEES3_EixEm @744
    _ZN22_CORBA_Sequence_ObjRefIN5CORBA28_objref_AbstractInterfaceDefE21_CORBA_ObjRef_ElementIS1_NS0_27AbstractInterfaceDef_HelperEES3_ElSER9cdrStream @745
    _ZN22_CORBA_Sequence_String10copybufferEm @746
    _ZN22_CORBA_Sequence_String10get_bufferEb @747
    _ZN22_CORBA_Sequence_String6lengthEm @748
    _ZN22_CORBA_Sequence_String7freebufEPPc @749
    _ZN22_CORBA_Sequence_String8allocbufEm @750
    _ZN22_CORBA_Sequence_StringC2ERKS_ @751
    _ZN22_CORBA_Sequence_StringC2Ev @752
    _ZN22_CORBA_Sequence_StringD2Ev @753
    _ZN22_CORBA_Sequence_StringaSERKS_ @754
    _ZN22_CORBA_Sequence_StringixEm @755
    _ZN22_CORBA_WString_elementC1ERPwb @756
    _ZN22_CORBA_WString_elementD1Ev @757
    _ZN22_CORBA_WString_elementaSEPw @758
    _ZN22_CORBA_WString_elementaSERKS_ @759
    _ZN22cdrEncapsulationStreamD1Ev @760
    _ZN22dynException_Singleton6attachEv @761
    _ZN22dynException_SingletonC1Ev @762
    _ZN22dynException_SingletonD1Ev @763
    _ZN23CORBA_InitialReferences13_tc_ObjIdListE @764 DATA
    _ZN23CORBA_InitialReferences9ObjIdListC1ERKS0_ @765
    _ZN23CORBA_InitialReferences9ObjIdListC1Ev @766
    _ZN23CORBA_InitialReferences9ObjIdListD1Ev @767
    _ZN23CORBA_InitialReferences9_tc_ObjIdE @768 DATA
    _ZN23_CORBA_PseudoObj_MemberIN10DynamicAny6DynAnyE20_CORBA_PseudoObj_VarIS1_EEC1Ev @769
    _ZN23_CORBA_PseudoObj_MemberIN10DynamicAny6DynAnyE20_CORBA_PseudoObj_VarIS1_EED1Ev @770
    _ZN23_CORBA_PseudoObj_MemberIN10DynamicAny6DynAnyE20_CORBA_PseudoObj_VarIS1_EEaSEPS1_ @771
    _ZN23_CORBA_PseudoObj_MemberIN10DynamicAny6DynAnyE20_CORBA_PseudoObj_VarIS1_EEaSERKS4_ @772
    _ZN23_CORBA_Sequence_BooleanC2ERKS_ @773
    _ZN23_CORBA_Sequence_BooleanC2Emb @774
    _ZN23_CORBA_Sequence_BooleanC2Ev @775
    _ZN23_CORBA_Sequence_BooleanD2Ev @776
    _ZN23_CORBA_Sequence_BooleanlSER9cdrStream @777
    _ZN23_CORBA_Sequence_WString10copybufferEm @778
    _ZN23_CORBA_Sequence_WString6lengthEm @779
    _ZN23_CORBA_Sequence_WString7freebufEPPw @780
    _ZN23_CORBA_Sequence_WString8allocbufEm @781
    _ZN23_CORBA_Sequence_WStringC2ERKS_ @782
    _ZN23_CORBA_Sequence_WStringC2Ev @783
    _ZN23_CORBA_Sequence_WStringD2Ev @784
    _ZN23_CORBA_Sequence_WStringixEm @785
    _ZN25_CORBA_Unbounded_SequenceIN10DynamicAny13NameValuePairEEC2Ev @786
    _ZN25_CORBA_Unbounded_SequenceIN10DynamicAny13NameValuePairEED2Ev @787
    _ZN25_CORBA_Unbounded_SequenceIN10DynamicAny14NameDynAnyPairEEC2Ev @788
    _ZN25_CORBA_Unbounded_SequenceIN5CORBA11InitializerEEC2ERKS2_ @789
    _ZN25_CORBA_Unbounded_SequenceIN5CORBA11InitializerEEC2Ev @790
    _ZN25_CORBA_Unbounded_SequenceIN5CORBA11InitializerEED2Ev @791
    _ZN25_CORBA_Unbounded_SequenceIN5CORBA11InitializerEElSER9cdrStream @792
    _ZN25_CORBA_Unbounded_SequenceIN5CORBA11UnionMemberEEC2ERKS2_ @793
    _ZN25_CORBA_Unbounded_SequenceIN5CORBA11UnionMemberEEC2Ev @794
    _ZN25_CORBA_Unbounded_SequenceIN5CORBA11UnionMemberEED2Ev @795
    _ZN25_CORBA_Unbounded_SequenceIN5CORBA11UnionMemberEElSER9cdrStream @796
    _ZN25_CORBA_Unbounded_SequenceIN5CORBA11ValueMemberEEC2ERKS2_ @797
    _ZN25_CORBA_Unbounded_SequenceIN5CORBA11ValueMemberEEC2Ev @798
    _ZN25_CORBA_Unbounded_SequenceIN5CORBA11ValueMemberEED2Ev @799
    _ZN25_CORBA_Unbounded_SequenceIN5CORBA11ValueMemberEElSER9cdrStream @800
    _ZN25_CORBA_Unbounded_SequenceIN5CORBA12StructMemberEEC2ERKS2_ @801
    _ZN25_CORBA_Unbounded_SequenceIN5CORBA12StructMemberEEC2Ev @802
    _ZN25_CORBA_Unbounded_SequenceIN5CORBA12StructMemberEED2Ev @803
    _ZN25_CORBA_Unbounded_SequenceIN5CORBA12StructMemberEEaSERKS2_ @804
    _ZN25_CORBA_Unbounded_SequenceIN5CORBA12StructMemberEElSER9cdrStream @805
    _ZN25_CORBA_Unbounded_SequenceIN5CORBA15TypeCode_memberEEC2Ev @806
    _ZN25_CORBA_Unbounded_SequenceIN5CORBA15TypeCode_memberEED2Ev @807
    _ZN25_CORBA_Unbounded_SequenceIN5CORBA20AttributeDescriptionEEC2ERKS2_ @808
    _ZN25_CORBA_Unbounded_SequenceIN5CORBA20AttributeDescriptionEEC2Ev @809
    _ZN25_CORBA_Unbounded_SequenceIN5CORBA20AttributeDescriptionEED2Ev @810
    _ZN25_CORBA_Unbounded_SequenceIN5CORBA20AttributeDescriptionEElSER9cdrStream @811
    _ZN25_CORBA_Unbounded_SequenceIN5CORBA20ExceptionDescriptionEEC2ERKS2_ @812
    _ZN25_CORBA_Unbounded_SequenceIN5CORBA20ExceptionDescriptionEEC2Ev @813
    _ZN25_CORBA_Unbounded_SequenceIN5CORBA20ExceptionDescriptionEED2Ev @814
    _ZN25_CORBA_Unbounded_SequenceIN5CORBA20ExceptionDescriptionEEaSERKS2_ @815
    _ZN25_CORBA_Unbounded_SequenceIN5CORBA20ExceptionDescriptionEElSER9cdrStream @816
    _ZN25_CORBA_Unbounded_SequenceIN5CORBA20OperationDescriptionEEC2ERKS2_ @817
    _ZN25_CORBA_Unbounded_SequenceIN5CORBA20OperationDescriptionEEC2Ev @818
    _ZN25_CORBA_Unbounded_SequenceIN5CORBA20OperationDescriptionEED2Ev @819
    _ZN25_CORBA_Unbounded_SequenceIN5CORBA20OperationDescriptionEElSER9cdrStream @820
    _ZN25_CORBA_Unbounded_SequenceIN5CORBA20ParameterDescriptionEEC2ERKS2_ @821
    _ZN25_CORBA_Unbounded_SequenceIN5CORBA20ParameterDescriptionEEC2Ev @822
    _ZN25_CORBA_Unbounded_SequenceIN5CORBA20ParameterDescriptionEED2Ev @823
    _ZN25_CORBA_Unbounded_SequenceIN5CORBA20ParameterDescriptionEEaSERKS2_ @824
    _ZN25_CORBA_Unbounded_SequenceIN5CORBA20ParameterDescriptionEElSER9cdrStream @825
    _ZN25_CORBA_Unbounded_SequenceIN5CORBA3AnyEEC2ERKS2_ @826
    _ZN25_CORBA_Unbounded_SequenceIN5CORBA3AnyEEC2Ev @827
    _ZN25_CORBA_Unbounded_SequenceIN5CORBA3AnyEED2Ev @828
    _ZN25_CORBA_Unbounded_SequenceIN5CORBA3AnyEElSER9cdrStream @829
    _ZN25_CORBA_Unbounded_SequenceIN5CORBA9Container11DescriptionEEC2ERKS3_ @830
    _ZN25_CORBA_Unbounded_SequenceIN5CORBA9Container11DescriptionEEC2Ev @831
    _ZN25_CORBA_Unbounded_SequenceIN5CORBA9Container11DescriptionEED2Ev @832
    _ZN25_CORBA_Unbounded_SequenceIN5CORBA9Container11DescriptionEElSER9cdrStream @833
    _ZN25_CORBA_Unbounded_SequenceIN9CosNaming13NameComponentEEC2ERKS2_ @834
    _ZN25_CORBA_Unbounded_SequenceIN9CosNaming13NameComponentEEC2Ev @835
    _ZN25_CORBA_Unbounded_SequenceIN9CosNaming13NameComponentEED2Ev @836
    _ZN25_CORBA_Unbounded_SequenceIN9CosNaming13NameComponentEEaSERKS2_ @837
    _ZN25_CORBA_Unbounded_SequenceIN9CosNaming13NameComponentEElSER9cdrStream @838
    _ZN25_CORBA_Unbounded_SequenceIN9CosNaming7BindingEEC2ERKS2_ @839
    _ZN25_CORBA_Unbounded_SequenceIN9CosNaming7BindingEEC2Ev @840
    _ZN25_CORBA_Unbounded_SequenceIN9CosNaming7BindingEED2Ev @841
    _ZN25_CORBA_Unbounded_SequenceIN9CosNaming7BindingEElSER9cdrStream @842
    _ZN25_CORBA_Unbounded_SequenceIdEC2ERKS0_ @843
    _ZN25_CORBA_Unbounded_SequenceIdEC2Em @844
    _ZN25_CORBA_Unbounded_SequenceIdEC2Ev @845
    _ZN25_CORBA_Unbounded_SequenceIdED2Ev @846
    _ZN25_CORBA_Unbounded_SequenceIeEC2ERKS0_ @847
    _ZN25_CORBA_Unbounded_SequenceIeEC2Em @848
    _ZN25_CORBA_Unbounded_SequenceIeEC2Ev @849
    _ZN25_CORBA_Unbounded_SequenceIeED2Ev @850
    _ZN25_CORBA_Unbounded_SequenceIeElSER9cdrStream @851
    _ZN25_CORBA_Unbounded_SequenceIfEC2ERKS0_ @852
    _ZN25_CORBA_Unbounded_SequenceIfEC2Em @853
    _ZN25_CORBA_Unbounded_SequenceIfEC2Ev @854
    _ZN25_CORBA_Unbounded_SequenceIfED2Ev @855
    _ZN25_CORBA_Unbounded_SequenceIlEC2ERKS0_ @856
    _ZN25_CORBA_Unbounded_SequenceIlEC2Em @857
    _ZN25_CORBA_Unbounded_SequenceIlEC2Ev @858
    _ZN25_CORBA_Unbounded_SequenceIlED2Ev @859
    _ZN25_CORBA_Unbounded_SequenceImEC2ERKS0_ @860
    _ZN25_CORBA_Unbounded_SequenceImEC2Em @861
    _ZN25_CORBA_Unbounded_SequenceImEC2Ev @862
    _ZN25_CORBA_Unbounded_SequenceImED2Ev @863
    _ZN25_CORBA_Unbounded_SequenceIsEC2ERKS0_ @864
    _ZN25_CORBA_Unbounded_SequenceIsEC2Em @865
    _ZN25_CORBA_Unbounded_SequenceIsEC2Ev @866
    _ZN25_CORBA_Unbounded_SequenceIsED2Ev @867
    _ZN25_CORBA_Unbounded_SequenceItEC2ERKS0_ @868
    _ZN25_CORBA_Unbounded_SequenceItEC2Em @869
    _ZN25_CORBA_Unbounded_SequenceItEC2Ev @870
    _ZN25_CORBA_Unbounded_SequenceItED2Ev @871
    _ZN25_CORBA_Unbounded_SequenceIxEC2ERKS0_ @872
    _ZN25_CORBA_Unbounded_SequenceIxEC2Em @873
    _ZN25_CORBA_Unbounded_SequenceIxEC2Ev @874
    _ZN25_CORBA_Unbounded_SequenceIxED2Ev @875
    _ZN25_CORBA_Unbounded_SequenceIyEC2ERKS0_ @876
    _ZN25_CORBA_Unbounded_SequenceIyEC2Em @877
    _ZN25_CORBA_Unbounded_SequenceIyEC2Ev @878
    _ZN25_CORBA_Unbounded_SequenceIyED2Ev @879
    _ZN25_omni_ValueFactoryManager16register_factoryEPKcmPN5CORBA16ValueFactoryBaseEb @880
    _ZN25_omni_ValueFactoryManager18unregister_factoryEPKcm @881
    _ZN25_omni_ValueFactoryManager20create_for_unmarshalEPKcm @882
    _ZN25_omni_ValueFactoryManager6lookupEPKcm @883
    _ZN27_0RL_CORBA_StringValue_init20create_for_unmarshalEv @884
    _ZN27_0RL_CORBA_StringValue_initC1Ev @885
    _ZN27_0RL_CORBA_StringValue_initD0Ev @886
    _ZN27_0RL_CORBA_StringValue_initD1Ev @887
    _ZN27_CORBA_PseudoValue_SequenceIN4omni11ContextImpl5EntryEE6lengthEm @888
    _ZN27_CORBA_PseudoValue_SequenceIN4omni11ContextImpl5EntryEE8allocbufEm @889
    _ZN27_CORBA_PseudoValue_SequenceIN4omni11ContextImpl5EntryEEC1Ev @890
    _ZN27_CORBA_PseudoValue_SequenceIN4omni11ContextImpl5EntryEED1Ev @891
    _ZN27_CORBA_PseudoValue_SequenceIN4omni11ContextImpl5EntryEEixEm @892
    _ZN27_CORBA_PseudoValue_SequenceIN4omni14TypeCode_union13TcUnionMemberEE6lengthEm @893
    _ZN27_CORBA_PseudoValue_SequenceIN4omni14TypeCode_union13TcUnionMemberEE8allocbufEm @894
    _ZN27_CORBA_PseudoValue_SequenceIN4omni14TypeCode_union13TcUnionMemberEEC1Ev @895
    _ZN27_CORBA_PseudoValue_SequenceIN4omni14TypeCode_union13TcUnionMemberEED1Ev @896
    _ZN27_CORBA_PseudoValue_SequenceIN4omni14TypeCode_union13TcUnionMemberEEixEm @897
    _ZN27_CORBA_PseudoValue_SequenceIPN5CORBA10NamedValueEE6lengthEm @898
    _ZN27_CORBA_PseudoValue_SequenceIPN5CORBA10NamedValueEE8allocbufEm @899
    _ZN27_CORBA_PseudoValue_SequenceIPN5CORBA10NamedValueEEC1Ev @900
    _ZN27_CORBA_PseudoValue_SequenceIPN5CORBA10NamedValueEED1Ev @901
    _ZN27_CORBA_PseudoValue_SequenceIPN5CORBA10NamedValueEEixEm @902
    _ZN27_CORBA_PseudoValue_SequenceIPN5CORBA8TypeCodeEE6lengthEm @903
    _ZN27_CORBA_PseudoValue_SequenceIPN5CORBA8TypeCodeEE8allocbufEm @904
    _ZN27_CORBA_PseudoValue_SequenceIPN5CORBA8TypeCodeEEC1Ev @905
    _ZN27_CORBA_PseudoValue_SequenceIPN5CORBA8TypeCodeEED1Ev @906
    _ZN27_CORBA_PseudoValue_SequenceIPN5CORBA8TypeCodeEEixEm @907
    _ZN27_CORBA_PseudoValue_SequenceIPcE6lengthEm @908
    _ZN27_CORBA_PseudoValue_SequenceIPcE7NP_dataEv @909
    _ZN27_CORBA_PseudoValue_SequenceIPcE8allocbufEm @910
    _ZN27_CORBA_PseudoValue_SequenceIPcEC1Ev @911
    _ZN27_CORBA_PseudoValue_SequenceIPcED1Ev @912
    _ZN27_CORBA_PseudoValue_SequenceIPcEixEm @913
    _ZN28_0RL_CORBA_WStringValue_init20create_for_unmarshalEv @914
    _ZN28_0RL_CORBA_WStringValue_initC1Ev @915
    _ZN28_0RL_CORBA_WStringValue_initD0Ev @916
    _ZN28_0RL_CORBA_WStringValue_initD1Ev @917
    _ZN30_0RL_CORBA_StringValue_installC1Ev @918
    _ZN30_0RL_CORBA_StringValue_installD1Ev @919
    _ZN30_CORBA_ConstrType_Variable_VarIN5CORBA12InterfaceDef24FullInterfaceDescriptionEE5_retnEv @920
    _ZN30_CORBA_ConstrType_Variable_VarIN5CORBA12InterfaceDef24FullInterfaceDescriptionEEC1Ev @921
    _ZN30_CORBA_ConstrType_Variable_VarIN5CORBA12InterfaceDef24FullInterfaceDescriptionEED1Ev @922
    _ZN30_CORBA_ConstrType_Variable_VarIN5CORBA12InterfaceDef24FullInterfaceDescriptionEEaSEPS2_ @923
    _ZN30_CORBA_ConstrType_Variable_VarIN5CORBA8ValueDef20FullValueDescriptionEE5_retnEv @924
    _ZN30_CORBA_ConstrType_Variable_VarIN5CORBA8ValueDef20FullValueDescriptionEEC1Ev @925
    _ZN30_CORBA_ConstrType_Variable_VarIN5CORBA8ValueDef20FullValueDescriptionEED1Ev @926
    _ZN30_CORBA_ConstrType_Variable_VarIN5CORBA8ValueDef20FullValueDescriptionEEaSEPS2_ @927
    _ZN30_CORBA_ConstrType_Variable_VarIN5CORBA9Contained11DescriptionEE5_retnEv @928
    _ZN30_CORBA_ConstrType_Variable_VarIN5CORBA9Contained11DescriptionEEC1Ev @929
    _ZN30_CORBA_ConstrType_Variable_VarIN5CORBA9Contained11DescriptionEED1Ev @930
    _ZN30_CORBA_ConstrType_Variable_VarIN5CORBA9Contained11DescriptionEEaSEPS2_ @931
    _ZN30_CORBA_Unbounded_Sequence_CharC2ERKS_ @932
    _ZN30_CORBA_Unbounded_Sequence_CharC2Em @933
    _ZN30_CORBA_Unbounded_Sequence_CharC2Ev @934
    _ZN30_CORBA_Unbounded_Sequence_CharD2Ev @935
    _ZN31_0RL_CORBA_WStringValue_installC1Ev @936
    _ZN31_0RL_CORBA_WStringValue_installD1Ev @937
    _ZN31_CORBA_Unbounded_Sequence_OctetC2ERKS_ @938
    _ZN31_CORBA_Unbounded_Sequence_OctetC2Em @939
    _ZN31_CORBA_Unbounded_Sequence_OctetC2Ev @940
    _ZN31_CORBA_Unbounded_Sequence_OctetD2Ev @941
    _ZN31_CORBA_Unbounded_Sequence_ValueIN5CORBA9ValueBaseE20_CORBA_Value_ElementIS1_NS0_16ValueBase_HelperEES3_EC2ERKS5_ @942
    _ZN31_CORBA_Unbounded_Sequence_ValueIN5CORBA9ValueBaseE20_CORBA_Value_ElementIS1_NS0_16ValueBase_HelperEES3_EC2EmmPPS1_b @943
    _ZN31_CORBA_Unbounded_Sequence_ValueIN5CORBA9ValueBaseE20_CORBA_Value_ElementIS1_NS0_16ValueBase_HelperEES3_EC2Ev @944
    _ZN31_CORBA_Unbounded_Sequence_ValueIN5CORBA9ValueBaseE20_CORBA_Value_ElementIS1_NS0_16ValueBase_HelperEES3_ED2Ev @945
    _ZN31_CORBA_Unbounded_Sequence_WCharC2ERKS_ @946
    _ZN31_CORBA_Unbounded_Sequence_WCharC2Em @947
    _ZN31_CORBA_Unbounded_Sequence_WCharC2Ev @948
    _ZN31_CORBA_Unbounded_Sequence_WCharD2Ev @949
    _ZN32_CORBA_Unbounded_Sequence_ObjRefIN10DynamicAny6DynAnyE21_CORBA_ObjRef_ElementIS1_NS0_13DynAny_HelperEES3_EC2Ev @950
    _ZN32_CORBA_Unbounded_Sequence_ObjRefIN5CORBA16_objref_ValueDefE21_CORBA_ObjRef_ElementIS1_NS0_15ValueDef_HelperEES3_EC2ERKS5_ @951
    _ZN32_CORBA_Unbounded_Sequence_ObjRefIN5CORBA16_objref_ValueDefE21_CORBA_ObjRef_ElementIS1_NS0_15ValueDef_HelperEES3_EC2Ev @952
    _ZN32_CORBA_Unbounded_Sequence_ObjRefIN5CORBA16_objref_ValueDefE21_CORBA_ObjRef_ElementIS1_NS0_15ValueDef_HelperEES3_ED2Ev @953
    _ZN32_CORBA_Unbounded_Sequence_ObjRefIN5CORBA17_objref_ContainedE21_CORBA_ObjRef_ElementIS1_NS0_16Contained_HelperEES3_EC2ERKS5_ @954
    _ZN32_CORBA_Unbounded_Sequence_ObjRefIN5CORBA17_objref_ContainedE21_CORBA_ObjRef_ElementIS1_NS0_16Contained_HelperEES3_EC2Ev @955
    _ZN32_CORBA_Unbounded_Sequence_ObjRefIN5CORBA17_objref_ContainedE21_CORBA_ObjRef_ElementIS1_NS0_16Contained_HelperEES3_ED2Ev @956
    _ZN32_CORBA_Unbounded_Sequence_ObjRefIN5CORBA20_objref_ExceptionDefE21_CORBA_ObjRef_ElementIS1_NS0_19ExceptionDef_HelperEES3_EC2ERKS5_ @957
    _ZN32_CORBA_Unbounded_Sequence_ObjRefIN5CORBA20_objref_ExceptionDefE21_CORBA_ObjRef_ElementIS1_NS0_19ExceptionDef_HelperEES3_EC2Ev @958
    _ZN32_CORBA_Unbounded_Sequence_ObjRefIN5CORBA20_objref_ExceptionDefE21_CORBA_ObjRef_ElementIS1_NS0_19ExceptionDef_HelperEES3_ED2Ev @959
    _ZN32_CORBA_Unbounded_Sequence_ObjRefIN5CORBA20_objref_InterfaceDefE21_CORBA_ObjRef_ElementIS1_NS0_19InterfaceDef_HelperEES3_EC2ERKS5_ @960
    _ZN32_CORBA_Unbounded_Sequence_ObjRefIN5CORBA20_objref_InterfaceDefE21_CORBA_ObjRef_ElementIS1_NS0_19InterfaceDef_HelperEES3_EC2Ev @961
    _ZN32_CORBA_Unbounded_Sequence_ObjRefIN5CORBA20_objref_InterfaceDefE21_CORBA_ObjRef_ElementIS1_NS0_19InterfaceDef_HelperEES3_ED2Ev @962
    _ZN32_CORBA_Unbounded_Sequence_ObjRefIN5CORBA28_objref_AbstractInterfaceDefE21_CORBA_ObjRef_ElementIS1_NS0_27AbstractInterfaceDef_HelperEES3_EC2ERKS5_ @963
    _ZN32_CORBA_Unbounded_Sequence_ObjRefIN5CORBA28_objref_AbstractInterfaceDefE21_CORBA_ObjRef_ElementIS1_NS0_27AbstractInterfaceDef_HelperEES3_EC2Ev @964
    _ZN32_CORBA_Unbounded_Sequence_ObjRefIN5CORBA28_objref_AbstractInterfaceDefE21_CORBA_ObjRef_ElementIS1_NS0_27AbstractInterfaceDef_HelperEES3_ED2Ev @965
    _ZN32_CORBA_Unbounded_Sequence_StringC1Ev @966
    _ZN32_CORBA_Unbounded_Sequence_StringC2ERKS_ @967
    _ZN32_CORBA_Unbounded_Sequence_StringC2Ev @968
    _ZN32_CORBA_Unbounded_Sequence_StringD1Ev @969
    _ZN32_CORBA_Unbounded_Sequence_StringD2Ev @970
    _ZN32_CORBA_Unbounded_Sequence_StringaSERKS_ @971
    _ZN33_0RL_cd_7963219A43724A61_0000000010_user_exnsE @972 DATA
    _ZN33_0RL_cd_7963219A43724A61_00000000C1EPFvP18omniCallDescriptorP11omniServantEPKcjb @973
    _ZN33_0RL_cd_7963219A43724A61_00000000D0Ev @974
    _ZN33_0RL_cd_7963219A43724A61_00000000D1Ev @975
    _ZN33_0RL_cd_7963219A43724A61_0100000010_user_exnsE @976 DATA
    _ZN33_0RL_cd_7963219A43724A61_0100000021marshalReturnedValuesER9cdrStream @977
    _ZN33_0RL_cd_7963219A43724A61_0100000023unmarshalReturnedValuesER9cdrStream @978
    _ZN33_0RL_cd_7963219A43724A61_01000000C1EPFvP18omniCallDescriptorP11omniServantEPKcjb @979
    _ZN33_0RL_cd_7963219A43724A61_01000000D0Ev @980
    _ZN33_0RL_cd_7963219A43724A61_01000000D1Ev @981
    _ZN33_0RL_cd_7963219A43724A61_0400000010_user_exnsE @982 DATA
    _ZN33_0RL_cd_7963219A43724A61_0400000016marshalArgumentsER9cdrStream @983
    _ZN33_0RL_cd_7963219A43724A61_0400000018unmarshalArgumentsER9cdrStream @984
    _ZN33_0RL_cd_7963219A43724A61_0400000021marshalReturnedValuesER9cdrStream @985
    _ZN33_0RL_cd_7963219A43724A61_0400000023unmarshalReturnedValuesER9cdrStream @986
    _ZN33_0RL_cd_7963219A43724A61_04000000C1EPFvP18omniCallDescriptorP11omniServantEPKcjb @987
    _ZN33_0RL_cd_7963219A43724A61_04000000D0Ev @988
    _ZN33_0RL_cd_7963219A43724A61_04000000D1Ev @989
    _ZN33_0RL_cd_7963219A43724A61_0600000010_user_exnsE @990 DATA
    _ZN33_0RL_cd_7963219A43724A61_0600000021marshalReturnedValuesER9cdrStream @991
    _ZN33_0RL_cd_7963219A43724A61_0600000023unmarshalReturnedValuesER9cdrStream @992
    _ZN33_0RL_cd_7963219A43724A61_06000000C1EPFvP18omniCallDescriptorP11omniServantEPKcjb @993
    _ZN33_0RL_cd_7963219A43724A61_06000000D0Ev @994
    _ZN33_0RL_cd_7963219A43724A61_06000000D1Ev @995
    _ZN33_0RL_cd_7963219A43724A61_0800000010_user_exnsE @996 DATA
    _ZN33_0RL_cd_7963219A43724A61_0800000021marshalReturnedValuesER9cdrStream @997
    _ZN33_0RL_cd_7963219A43724A61_0800000023unmarshalReturnedValuesER9cdrStream @998
    _ZN33_0RL_cd_7963219A43724A61_08000000C1EPFvP18omniCallDescriptorP11omniServantEPKcjb @999
    _ZN33_0RL_cd_7963219A43724A61_08000000D0Ev @1000
    _ZN33_0RL_cd_7963219A43724A61_08000000D1Ev @1001
    _ZN33_0RL_cd_7963219A43724A61_1200000010_user_exnsE @1002 DATA
    _ZN33_0RL_cd_7963219A43724A61_1200000016marshalArgumentsER9cdrStream @1003
    _ZN33_0RL_cd_7963219A43724A61_1200000018unmarshalArgumentsER9cdrStream @1004
    _ZN33_0RL_cd_7963219A43724A61_1200000021marshalReturnedValuesER9cdrStream @1005
    _ZN33_0RL_cd_7963219A43724A61_1200000023unmarshalReturnedValuesER9cdrStream @1006
    _ZN33_0RL_cd_7963219A43724A61_12000000C1EPFvP18omniCallDescriptorP11omniServantEPKcjb @1007
    _ZN33_0RL_cd_7963219A43724A61_12000000D0Ev @1008
    _ZN33_0RL_cd_7963219A43724A61_12000000D1Ev @1009
    _ZN33_0RL_cd_7963219A43724A61_1300000010_user_exnsE @1010 DATA
    _ZN33_0RL_cd_7963219A43724A61_1300000016marshalArgumentsER9cdrStream @1011
    _ZN33_0RL_cd_7963219A43724A61_1300000018unmarshalArgumentsER9cdrStream @1012
    _ZN33_0RL_cd_7963219A43724A61_1300000021marshalReturnedValuesER9cdrStream @1013
    _ZN33_0RL_cd_7963219A43724A61_1300000023unmarshalReturnedValuesER9cdrStream @1014
    _ZN33_0RL_cd_7963219A43724A61_13000000C1EPFvP18omniCallDescriptorP11omniServantEPKcjb @1015
    _ZN33_0RL_cd_7963219A43724A61_13000000D0Ev @1016
    _ZN33_0RL_cd_7963219A43724A61_13000000D1Ev @1017
    _ZN33_0RL_cd_7963219A43724A61_1500000010_user_exnsE @1018 DATA
    _ZN33_0RL_cd_7963219A43724A61_1500000016marshalArgumentsER9cdrStream @1019
    _ZN33_0RL_cd_7963219A43724A61_1500000018unmarshalArgumentsER9cdrStream @1020
    _ZN33_0RL_cd_7963219A43724A61_15000000C1EPFvP18omniCallDescriptorP11omniServantEPKcjb @1021
    _ZN33_0RL_cd_7963219A43724A61_15000000D0Ev @1022
    _ZN33_0RL_cd_7963219A43724A61_15000000D1Ev @1023
    _ZN33_0RL_cd_7963219A43724A61_1900000010_user_exnsE @1024 DATA
    _ZN33_0RL_cd_7963219A43724A61_1900000016marshalArgumentsER9cdrStream @1025
    _ZN33_0RL_cd_7963219A43724A61_1900000018unmarshalArgumentsER9cdrStream @1026
    _ZN33_0RL_cd_7963219A43724A61_19000000C1EPFvP18omniCallDescriptorP11omniServantEPKcjb @1027
    _ZN33_0RL_cd_7963219A43724A61_19000000D0Ev @1028
    _ZN33_0RL_cd_7963219A43724A61_19000000D1Ev @1029
    _ZN33_0RL_cd_7963219A43724A61_1a00000010_user_exnsE @1030 DATA
    _ZN33_0RL_cd_7963219A43724A61_1a00000016marshalArgumentsER9cdrStream @1031
    _ZN33_0RL_cd_7963219A43724A61_1a00000018unmarshalArgumentsER9cdrStream @1032
    _ZN33_0RL_cd_7963219A43724A61_1a000000C1EPFvP18omniCallDescriptorP11omniServantEPKcjb @1033
    _ZN33_0RL_cd_7963219A43724A61_1a000000D0Ev @1034
    _ZN33_0RL_cd_7963219A43724A61_1a000000D1Ev @1035
    _ZN33_0RL_cd_7963219A43724A61_1b00000010_user_exnsE @1036 DATA
    _ZN33_0RL_cd_7963219A43724A61_1b00000021marshalReturnedValuesER9cdrStream @1037
    _ZN33_0RL_cd_7963219A43724A61_1b00000023unmarshalReturnedValuesER9cdrStream @1038
    _ZN33_0RL_cd_7963219A43724A61_1b000000C1EPFvP18omniCallDescriptorP11omniServantEPKcjb @1039
    _ZN33_0RL_cd_7963219A43724A61_1b000000D0Ev @1040
    _ZN33_0RL_cd_7963219A43724A61_1b000000D1Ev @1041
    _ZN33_0RL_cd_7963219A43724A61_2000000010_user_exnsE @1042 DATA
    _ZN33_0RL_cd_7963219A43724A61_2000000021marshalReturnedValuesER9cdrStream @1043
    _ZN33_0RL_cd_7963219A43724A61_2000000023unmarshalReturnedValuesER9cdrStream @1044
    _ZN33_0RL_cd_7963219A43724A61_20000000C1EPFvP18omniCallDescriptorP11omniServantEPKcjb @1045
    _ZN33_0RL_cd_7963219A43724A61_20000000D0Ev @1046
    _ZN33_0RL_cd_7963219A43724A61_20000000D1Ev @1047
    _ZN33_0RL_cd_7963219A43724A61_2400000010_user_exnsE @1048 DATA
    _ZN33_0RL_cd_7963219A43724A61_2400000016marshalArgumentsER9cdrStream @1049
    _ZN33_0RL_cd_7963219A43724A61_2400000018unmarshalArgumentsER9cdrStream @1050
    _ZN33_0RL_cd_7963219A43724A61_2400000021marshalReturnedValuesER9cdrStream @1051
    _ZN33_0RL_cd_7963219A43724A61_2400000023unmarshalReturnedValuesER9cdrStream @1052
    _ZN33_0RL_cd_7963219A43724A61_24000000C1EPFvP18omniCallDescriptorP11omniServantEPKcjb @1053
    _ZN33_0RL_cd_7963219A43724A61_24000000D0Ev @1054
    _ZN33_0RL_cd_7963219A43724A61_24000000D1Ev @1055
    _ZN33_0RL_cd_7963219A43724A61_2600000010_user_exnsE @1056 DATA
    _ZN33_0RL_cd_7963219A43724A61_2600000021marshalReturnedValuesER9cdrStream @1057
    _ZN33_0RL_cd_7963219A43724A61_2600000023unmarshalReturnedValuesER9cdrStream @1058
    _ZN33_0RL_cd_7963219A43724A61_26000000C1EPFvP18omniCallDescriptorP11omniServantEPKcjb @1059
    _ZN33_0RL_cd_7963219A43724A61_26000000D0Ev @1060
    _ZN33_0RL_cd_7963219A43724A61_26000000D1Ev @1061
    _ZN33_0RL_cd_7963219A43724A61_2800000010_user_exnsE @1062 DATA
    _ZN33_0RL_cd_7963219A43724A61_2800000016marshalArgumentsER9cdrStream @1063
    _ZN33_0RL_cd_7963219A43724A61_2800000018unmarshalArgumentsER9cdrStream @1064
    _ZN33_0RL_cd_7963219A43724A61_28000000C1EPFvP18omniCallDescriptorP11omniServantEPKcjb @1065
    _ZN33_0RL_cd_7963219A43724A61_28000000D0Ev @1066
    _ZN33_0RL_cd_7963219A43724A61_28000000D1Ev @1067
    _ZN33_0RL_cd_7963219A43724A61_3100000010_user_exnsE @1068 DATA
    _ZN33_0RL_cd_7963219A43724A61_3100000021marshalReturnedValuesER9cdrStream @1069
    _ZN33_0RL_cd_7963219A43724A61_3100000023unmarshalReturnedValuesER9cdrStream @1070
    _ZN33_0RL_cd_7963219A43724A61_31000000C1EPFvP18omniCallDescriptorP11omniServantEPKcjb @1071
    _ZN33_0RL_cd_7963219A43724A61_31000000D0Ev @1072
    _ZN33_0RL_cd_7963219A43724A61_31000000D1Ev @1073
    _ZN33_0RL_cd_7963219A43724A61_3200000010_user_exnsE @1074 DATA
    _ZN33_0RL_cd_7963219A43724A61_3200000016marshalArgumentsER9cdrStream @1075
    _ZN33_0RL_cd_7963219A43724A61_3200000018unmarshalArgumentsER9cdrStream @1076
    _ZN33_0RL_cd_7963219A43724A61_3200000021marshalReturnedValuesER9cdrStream @1077
    _ZN33_0RL_cd_7963219A43724A61_3200000023unmarshalReturnedValuesER9cdrStream @1078
    _ZN33_0RL_cd_7963219A43724A61_32000000C1EPFvP18omniCallDescriptorP11omniServantEPKcjb @1079
    _ZN33_0RL_cd_7963219A43724A61_32000000D0Ev @1080
    _ZN33_0RL_cd_7963219A43724A61_32000000D1Ev @1081
    _ZN33_0RL_cd_7963219A43724A61_3300000010_user_exnsE @1082 DATA
    _ZN33_0RL_cd_7963219A43724A61_3300000016marshalArgumentsER9cdrStream @1083
    _ZN33_0RL_cd_7963219A43724A61_3300000018unmarshalArgumentsER9cdrStream @1084
    _ZN33_0RL_cd_7963219A43724A61_3300000021marshalReturnedValuesER9cdrStream @1085
    _ZN33_0RL_cd_7963219A43724A61_3300000023unmarshalReturnedValuesER9cdrStream @1086
    _ZN33_0RL_cd_7963219A43724A61_33000000C1EPFvP18omniCallDescriptorP11omniServantEPKcjb @1087
    _ZN33_0RL_cd_7963219A43724A61_33000000D0Ev @1088
    _ZN33_0RL_cd_7963219A43724A61_33000000D1Ev @1089
    _ZN33_0RL_cd_7963219A43724A61_3900000010_user_exnsE @1090 DATA
    _ZN33_0RL_cd_7963219A43724A61_3900000021marshalReturnedValuesER9cdrStream @1091
    _ZN33_0RL_cd_7963219A43724A61_3900000023unmarshalReturnedValuesER9cdrStream @1092
    _ZN33_0RL_cd_7963219A43724A61_39000000C1EPFvP18omniCallDescriptorP11omniServantEPKcjb @1093
    _ZN33_0RL_cd_7963219A43724A61_39000000D0Ev @1094
    _ZN33_0RL_cd_7963219A43724A61_39000000D1Ev @1095
    _ZN33_0RL_cd_7963219A43724A61_3b00000010_user_exnsE @1096 DATA
    _ZN33_0RL_cd_7963219A43724A61_3b00000016marshalArgumentsER9cdrStream @1097
    _ZN33_0RL_cd_7963219A43724A61_3b00000018unmarshalArgumentsER9cdrStream @1098
    _ZN33_0RL_cd_7963219A43724A61_3b000000C1EPFvP18omniCallDescriptorP11omniServantEPKcjb @1099
    _ZN33_0RL_cd_7963219A43724A61_3b000000D0Ev @1100
    _ZN33_0RL_cd_7963219A43724A61_3b000000D1Ev @1101
    _ZN33_0RL_cd_7963219A43724A61_4000000010_user_exnsE @1102 DATA
    _ZN33_0RL_cd_7963219A43724A61_4000000021marshalReturnedValuesER9cdrStream @1103
    _ZN33_0RL_cd_7963219A43724A61_4000000023unmarshalReturnedValuesER9cdrStream @1104
    _ZN33_0RL_cd_7963219A43724A61_40000000C1EPFvP18omniCallDescriptorP11omniServantEPKcjb @1105
    _ZN33_0RL_cd_7963219A43724A61_40000000D0Ev @1106
    _ZN33_0RL_cd_7963219A43724A61_40000000D1Ev @1107
    _ZN33_0RL_cd_7963219A43724A61_4400000010_user_exnsE @1108 DATA
    _ZN33_0RL_cd_7963219A43724A61_4400000016marshalArgumentsER9cdrStream @1109
    _ZN33_0RL_cd_7963219A43724A61_4400000018unmarshalArgumentsER9cdrStream @1110
    _ZN33_0RL_cd_7963219A43724A61_4400000021marshalReturnedValuesER9cdrStream @1111
    _ZN33_0RL_cd_7963219A43724A61_4400000023unmarshalReturnedValuesER9cdrStream @1112
    _ZN33_0RL_cd_7963219A43724A61_44000000C1EPFvP18omniCallDescriptorP11omniServantEPKcjb @1113
    _ZN33_0RL_cd_7963219A43724A61_44000000D0Ev @1114
    _ZN33_0RL_cd_7963219A43724A61_44000000D1Ev @1115
    _ZN33_0RL_cd_7963219A43724A61_4600000010_user_exnsE @1116 DATA
    _ZN33_0RL_cd_7963219A43724A61_4600000016marshalArgumentsER9cdrStream @1117
    _ZN33_0RL_cd_7963219A43724A61_4600000018unmarshalArgumentsER9cdrStream @1118
    _ZN33_0RL_cd_7963219A43724A61_46000000C1EPFvP18omniCallDescriptorP11omniServantEPKcjb @1119
    _ZN33_0RL_cd_7963219A43724A61_46000000D0Ev @1120
    _ZN33_0RL_cd_7963219A43724A61_46000000D1Ev @1121
    _ZN33_0RL_cd_7963219A43724A61_5100000010_user_exnsE @1122 DATA
    _ZN33_0RL_cd_7963219A43724A61_5100000016marshalArgumentsER9cdrStream @1123
    _ZN33_0RL_cd_7963219A43724A61_5100000018unmarshalArgumentsER9cdrStream @1124
    _ZN33_0RL_cd_7963219A43724A61_5100000021marshalReturnedValuesER9cdrStream @1125
    _ZN33_0RL_cd_7963219A43724A61_5100000023unmarshalReturnedValuesER9cdrStream @1126
    _ZN33_0RL_cd_7963219A43724A61_51000000C1EPFvP18omniCallDescriptorP11omniServantEPKcjb @1127
    _ZN33_0RL_cd_7963219A43724A61_51000000D0Ev @1128
    _ZN33_0RL_cd_7963219A43724A61_51000000D1Ev @1129
    _ZN33_0RL_cd_7963219A43724A61_5200000010_user_exnsE @1130 DATA
    _ZN33_0RL_cd_7963219A43724A61_5200000016marshalArgumentsER9cdrStream @1131
    _ZN33_0RL_cd_7963219A43724A61_5200000018unmarshalArgumentsER9cdrStream @1132
    _ZN33_0RL_cd_7963219A43724A61_5200000021marshalReturnedValuesER9cdrStream @1133
    _ZN33_0RL_cd_7963219A43724A61_5200000023unmarshalReturnedValuesER9cdrStream @1134
    _ZN33_0RL_cd_7963219A43724A61_52000000C1EPFvP18omniCallDescriptorP11omniServantEPKcjb @1135
    _ZN33_0RL_cd_7963219A43724A61_52000000D0Ev @1136
    _ZN33_0RL_cd_7963219A43724A61_52000000D1Ev @1137
    _ZN33_0RL_cd_7963219A43724A61_5300000010_user_exnsE @1138 DATA
    _ZN33_0RL_cd_7963219A43724A61_5300000021marshalReturnedValuesER9cdrStream @1139
    _ZN33_0RL_cd_7963219A43724A61_5300000023unmarshalReturnedValuesER9cdrStream @1140
    _ZN33_0RL_cd_7963219A43724A61_53000000C1EPFvP18omniCallDescriptorP11omniServantEPKcjb @1141
    _ZN33_0RL_cd_7963219A43724A61_53000000D0Ev @1142
    _ZN33_0RL_cd_7963219A43724A61_53000000D1Ev @1143
    _ZN33_0RL_cd_7963219A43724A61_5900000010_user_exnsE @1144 DATA
    _ZN33_0RL_cd_7963219A43724A61_5900000016marshalArgumentsER9cdrStream @1145
    _ZN33_0RL_cd_7963219A43724A61_5900000018unmarshalArgumentsER9cdrStream @1146
    _ZN33_0RL_cd_7963219A43724A61_59000000C1EPFvP18omniCallDescriptorP11omniServantEPKcjb @1147
    _ZN33_0RL_cd_7963219A43724A61_59000000D0Ev @1148
    _ZN33_0RL_cd_7963219A43724A61_59000000D1Ev @1149
    _ZN33_0RL_cd_7963219A43724A61_5b00000010_user_exnsE @1150 DATA
    _ZN33_0RL_cd_7963219A43724A61_5b00000021marshalReturnedValuesER9cdrStream @1151
    _ZN33_0RL_cd_7963219A43724A61_5b00000023unmarshalReturnedValuesER9cdrStream @1152
    _ZN33_0RL_cd_7963219A43724A61_5b000000C1EPFvP18omniCallDescriptorP11omniServantEPKcjb @1153
    _ZN33_0RL_cd_7963219A43724A61_5b000000D0Ev @1154
    _ZN33_0RL_cd_7963219A43724A61_5b000000D1Ev @1155
    _ZN33_0RL_cd_7963219A43724A61_6000000010_user_exnsE @1156 DATA
    _ZN33_0RL_cd_7963219A43724A61_6000000016marshalArgumentsER9cdrStream @1157
    _ZN33_0RL_cd_7963219A43724A61_6000000018unmarshalArgumentsER9cdrStream @1158
    _ZN33_0RL_cd_7963219A43724A61_60000000C1EPFvP18omniCallDescriptorP11omniServantEPKcjb @1159
    _ZN33_0RL_cd_7963219A43724A61_60000000D0Ev @1160
    _ZN33_0RL_cd_7963219A43724A61_60000000D1Ev @1161
    _ZN33_0RL_cd_7963219A43724A61_6500000010_user_exnsE @1162 DATA
    _ZN33_0RL_cd_7963219A43724A61_6500000021marshalReturnedValuesER9cdrStream @1163
    _ZN33_0RL_cd_7963219A43724A61_6500000023unmarshalReturnedValuesER9cdrStream @1164
    _ZN33_0RL_cd_7963219A43724A61_65000000C1EPFvP18omniCallDescriptorP11omniServantEPKcjb @1165
    _ZN33_0RL_cd_7963219A43724A61_65000000D0Ev @1166
    _ZN33_0RL_cd_7963219A43724A61_65000000D1Ev @1167
    _ZN33_0RL_cd_7963219A43724A61_7100000010_user_exnsE @1168 DATA
    _ZN33_0RL_cd_7963219A43724A61_7100000016marshalArgumentsER9cdrStream @1169
    _ZN33_0RL_cd_7963219A43724A61_7100000018unmarshalArgumentsER9cdrStream @1170
    _ZN33_0RL_cd_7963219A43724A61_7100000021marshalReturnedValuesER9cdrStream @1171
    _ZN33_0RL_cd_7963219A43724A61_7100000023unmarshalReturnedValuesER9cdrStream @1172
    _ZN33_0RL_cd_7963219A43724A61_71000000C1EPFvP18omniCallDescriptorP11omniServantEPKcjb @1173
    _ZN33_0RL_cd_7963219A43724A61_71000000D0Ev @1174
    _ZN33_0RL_cd_7963219A43724A61_71000000D1Ev @1175
    _ZN33_0RL_cd_7963219A43724A61_7200000010_user_exnsE @1176 DATA
    _ZN33_0RL_cd_7963219A43724A61_7200000016marshalArgumentsER9cdrStream @1177
    _ZN33_0RL_cd_7963219A43724A61_7200000018unmarshalArgumentsER9cdrStream @1178
    _ZN33_0RL_cd_7963219A43724A61_7200000021marshalReturnedValuesER9cdrStream @1179
    _ZN33_0RL_cd_7963219A43724A61_7200000023unmarshalReturnedValuesER9cdrStream @1180
    _ZN33_0RL_cd_7963219A43724A61_72000000C1EPFvP18omniCallDescriptorP11omniServantEPKcjb @1181
    _ZN33_0RL_cd_7963219A43724A61_72000000D0Ev @1182
    _ZN33_0RL_cd_7963219A43724A61_72000000D1Ev @1183
    _ZN33_0RL_cd_7963219A43724A61_7400000010_user_exnsE @1184 DATA
    _ZN33_0RL_cd_7963219A43724A61_7400000021marshalReturnedValuesER9cdrStream @1185
    _ZN33_0RL_cd_7963219A43724A61_7400000023unmarshalReturnedValuesER9cdrStream @1186
    _ZN33_0RL_cd_7963219A43724A61_74000000C1EPFvP18omniCallDescriptorP11omniServantEPKcjb @1187
    _ZN33_0RL_cd_7963219A43724A61_74000000D0Ev @1188
    _ZN33_0RL_cd_7963219A43724A61_74000000D1Ev @1189
    _ZN33_0RL_cd_7963219A43724A61_7800000010_user_exnsE @1190 DATA
    _ZN33_0RL_cd_7963219A43724A61_7800000021marshalReturnedValuesER9cdrStream @1191
    _ZN33_0RL_cd_7963219A43724A61_7800000023unmarshalReturnedValuesER9cdrStream @1192
    _ZN33_0RL_cd_7963219A43724A61_78000000C1EPFvP18omniCallDescriptorP11omniServantEPKcjb @1193
    _ZN33_0RL_cd_7963219A43724A61_78000000D0Ev @1194
    _ZN33_0RL_cd_7963219A43724A61_78000000D1Ev @1195
    _ZN33_0RL_cd_7963219A43724A61_7900000010_user_exnsE @1196 DATA
    _ZN33_0RL_cd_7963219A43724A61_7900000016marshalArgumentsER9cdrStream @1197
    _ZN33_0RL_cd_7963219A43724A61_7900000018unmarshalArgumentsER9cdrStream @1198
    _ZN33_0RL_cd_7963219A43724A61_7900000021marshalReturnedValuesER9cdrStream @1199
    _ZN33_0RL_cd_7963219A43724A61_7900000023unmarshalReturnedValuesER9cdrStream @1200
    _ZN33_0RL_cd_7963219A43724A61_79000000C1EPFvP18omniCallDescriptorP11omniServantEPKcjb @1201
    _ZN33_0RL_cd_7963219A43724A61_79000000D0Ev @1202
    _ZN33_0RL_cd_7963219A43724A61_79000000D1Ev @1203
    _ZN33_0RL_cd_7963219A43724A61_7b00000010_user_exnsE @1204 DATA
    _ZN33_0RL_cd_7963219A43724A61_7b00000016marshalArgumentsER9cdrStream @1205
    _ZN33_0RL_cd_7963219A43724A61_7b00000018unmarshalArgumentsER9cdrStream @1206
    _ZN33_0RL_cd_7963219A43724A61_7b000000C1EPFvP18omniCallDescriptorP11omniServantEPKcjb @1207
    _ZN33_0RL_cd_7963219A43724A61_7b000000D0Ev @1208
    _ZN33_0RL_cd_7963219A43724A61_7b000000D1Ev @1209
    _ZN33_0RL_cd_7963219A43724A61_8000000010_user_exnsE @1210 DATA
    _ZN33_0RL_cd_7963219A43724A61_8000000021marshalReturnedValuesER9cdrStream @1211
    _ZN33_0RL_cd_7963219A43724A61_8000000023unmarshalReturnedValuesER9cdrStream @1212
    _ZN33_0RL_cd_7963219A43724A61_80000000C1EPFvP18omniCallDescriptorP11omniServantEPKcjb @1213
    _ZN33_0RL_cd_7963219A43724A61_80000000D0Ev @1214
    _ZN33_0RL_cd_7963219A43724A61_80000000D1Ev @1215
    _ZN33_0RL_cd_7963219A43724A61_8300000010_user_exnsE @1216 DATA
    _ZN33_0RL_cd_7963219A43724A61_8300000016marshalArgumentsER9cdrStream @1217
    _ZN33_0RL_cd_7963219A43724A61_8300000018unmarshalArgumentsER9cdrStream @1218
    _ZN33_0RL_cd_7963219A43724A61_8300000021marshalReturnedValuesER9cdrStream @1219
    _ZN33_0RL_cd_7963219A43724A61_8300000023unmarshalReturnedValuesER9cdrStream @1220
    _ZN33_0RL_cd_7963219A43724A61_83000000C1EPFvP18omniCallDescriptorP11omniServantEPKcjb @1221
    _ZN33_0RL_cd_7963219A43724A61_83000000D0Ev @1222
    _ZN33_0RL_cd_7963219A43724A61_83000000D1Ev @1223
    _ZN33_0RL_cd_7963219A43724A61_8500000010_user_exnsE @1224 DATA
    _ZN33_0RL_cd_7963219A43724A61_8500000016marshalArgumentsER9cdrStream @1225
    _ZN33_0RL_cd_7963219A43724A61_8500000018unmarshalArgumentsER9cdrStream @1226
    _ZN33_0RL_cd_7963219A43724A61_85000000C1EPFvP18omniCallDescriptorP11omniServantEPKcjb @1227
    _ZN33_0RL_cd_7963219A43724A61_85000000D0Ev @1228
    _ZN33_0RL_cd_7963219A43724A61_85000000D1Ev @1229
    _ZN33_0RL_cd_7963219A43724A61_8600000010_user_exnsE @1230 DATA
    _ZN33_0RL_cd_7963219A43724A61_8600000021marshalReturnedValuesER9cdrStream @1231
    _ZN33_0RL_cd_7963219A43724A61_8600000023unmarshalReturnedValuesER9cdrStream @1232
    _ZN33_0RL_cd_7963219A43724A61_86000000C1EPFvP18omniCallDescriptorP11omniServantEPKcjb @1233
    _ZN33_0RL_cd_7963219A43724A61_86000000D0Ev @1234
    _ZN33_0RL_cd_7963219A43724A61_86000000D1Ev @1235
    _ZN33_0RL_cd_7963219A43724A61_9100000010_user_exnsE @1236 DATA
    _ZN33_0RL_cd_7963219A43724A61_9100000016marshalArgumentsER9cdrStream @1237
    _ZN33_0RL_cd_7963219A43724A61_9100000018unmarshalArgumentsER9cdrStream @1238
    _ZN33_0RL_cd_7963219A43724A61_9100000021marshalReturnedValuesER9cdrStream @1239
    _ZN33_0RL_cd_7963219A43724A61_9100000023unmarshalReturnedValuesER9cdrStream @1240
    _ZN33_0RL_cd_7963219A43724A61_91000000C1EPFvP18omniCallDescriptorP11omniServantEPKcjb @1241
    _ZN33_0RL_cd_7963219A43724A61_91000000D0Ev @1242
    _ZN33_0RL_cd_7963219A43724A61_91000000D1Ev @1243
    _ZN33_0RL_cd_7963219A43724A61_9200000010_user_exnsE @1244 DATA
    _ZN33_0RL_cd_7963219A43724A61_9200000016marshalArgumentsER9cdrStream @1245
    _ZN33_0RL_cd_7963219A43724A61_9200000018unmarshalArgumentsER9cdrStream @1246
    _ZN33_0RL_cd_7963219A43724A61_9200000021marshalReturnedValuesER9cdrStream @1247
    _ZN33_0RL_cd_7963219A43724A61_9200000023unmarshalReturnedValuesER9cdrStream @1248
    _ZN33_0RL_cd_7963219A43724A61_92000000C1EPFvP18omniCallDescriptorP11omniServantEPKcjb @1249
    _ZN33_0RL_cd_7963219A43724A61_92000000D0Ev @1250
    _ZN33_0RL_cd_7963219A43724A61_92000000D1Ev @1251
    _ZN33_0RL_cd_7963219A43724A61_9400000010_user_exnsE @1252 DATA
    _ZN33_0RL_cd_7963219A43724A61_9400000016marshalArgumentsER9cdrStream @1253
    _ZN33_0RL_cd_7963219A43724A61_9400000018unmarshalArgumentsER9cdrStream @1254
    _ZN33_0RL_cd_7963219A43724A61_94000000C1EPFvP18omniCallDescriptorP11omniServantEPKcjb @1255
    _ZN33_0RL_cd_7963219A43724A61_94000000D0Ev @1256
    _ZN33_0RL_cd_7963219A43724A61_94000000D1Ev @1257
    _ZN33_0RL_cd_7963219A43724A61_9800000010_user_exnsE @1258 DATA
    _ZN33_0RL_cd_7963219A43724A61_9800000016marshalArgumentsER9cdrStream @1259
    _ZN33_0RL_cd_7963219A43724A61_9800000018unmarshalArgumentsER9cdrStream @1260
    _ZN33_0RL_cd_7963219A43724A61_98000000C1EPFvP18omniCallDescriptorP11omniServantEPKcjb @1261
    _ZN33_0RL_cd_7963219A43724A61_98000000D0Ev @1262
    _ZN33_0RL_cd_7963219A43724A61_98000000D1Ev @1263
    _ZN33_0RL_cd_7963219A43724A61_9900000010_user_exnsE @1264 DATA
    _ZN33_0RL_cd_7963219A43724A61_9900000021marshalReturnedValuesER9cdrStream @1265
    _ZN33_0RL_cd_7963219A43724A61_9900000023unmarshalReturnedValuesER9cdrStream @1266
    _ZN33_0RL_cd_7963219A43724A61_99000000C1EPFvP18omniCallDescriptorP11omniServantEPKcjb @1267
    _ZN33_0RL_cd_7963219A43724A61_99000000D0Ev @1268
    _ZN33_0RL_cd_7963219A43724A61_99000000D1Ev @1269
    _ZN33_0RL_cd_7963219A43724A61_9a00000010_user_exnsE @1270 DATA
    _ZN33_0RL_cd_7963219A43724A61_9a00000021marshalReturnedValuesER9cdrStream @1271
    _ZN33_0RL_cd_7963219A43724A61_9a00000023unmarshalReturnedValuesER9cdrStream @1272
    _ZN33_0RL_cd_7963219A43724A61_9a000000C1EPFvP18omniCallDescriptorP11omniServantEPKcjb @1273
    _ZN33_0RL_cd_7963219A43724A61_9a000000D0Ev @1274
    _ZN33_0RL_cd_7963219A43724A61_9a000000D1Ev @1275
    _ZN33_0RL_cd_7963219A43724A61_9b00000010_user_exnsE @1276 DATA
    _ZN33_0RL_cd_7963219A43724A61_9b00000021marshalReturnedValuesER9cdrStream @1277
    _ZN33_0RL_cd_7963219A43724A61_9b00000023unmarshalReturnedValuesER9cdrStream @1278
    _ZN33_0RL_cd_7963219A43724A61_9b000000C1EPFvP18omniCallDescriptorP11omniServantEPKcjb @1279
    _ZN33_0RL_cd_7963219A43724A61_9b000000D0Ev @1280
    _ZN33_0RL_cd_7963219A43724A61_9b000000D1Ev @1281
    _ZN33_0RL_cd_7963219A43724A61_a000000010_user_exnsE @1282 DATA
    _ZN33_0RL_cd_7963219A43724A61_a000000016marshalArgumentsER9cdrStream @1283
    _ZN33_0RL_cd_7963219A43724A61_a000000018unmarshalArgumentsER9cdrStream @1284
    _ZN33_0RL_cd_7963219A43724A61_a0000000C1EPFvP18omniCallDescriptorP11omniServantEPKcjb @1285
    _ZN33_0RL_cd_7963219A43724A61_a0000000D0Ev @1286
    _ZN33_0RL_cd_7963219A43724A61_a0000000D1Ev @1287
    _ZN33_0RL_cd_7963219A43724A61_a300000010_user_exnsE @1288 DATA
    _ZN33_0RL_cd_7963219A43724A61_a300000016marshalArgumentsER9cdrStream @1289
    _ZN33_0RL_cd_7963219A43724A61_a300000018unmarshalArgumentsER9cdrStream @1290
    _ZN33_0RL_cd_7963219A43724A61_a300000021marshalReturnedValuesER9cdrStream @1291
    _ZN33_0RL_cd_7963219A43724A61_a300000023unmarshalReturnedValuesER9cdrStream @1292
    _ZN33_0RL_cd_7963219A43724A61_a3000000C1EPFvP18omniCallDescriptorP11omniServantEPKcjb @1293
    _ZN33_0RL_cd_7963219A43724A61_a3000000D0Ev @1294
    _ZN33_0RL_cd_7963219A43724A61_a3000000D1Ev @1295
    _ZN33_0RL_cd_7963219A43724A61_a500000010_user_exnsE @1296 DATA
    _ZN33_0RL_cd_7963219A43724A61_a500000021marshalReturnedValuesER9cdrStream @1297
    _ZN33_0RL_cd_7963219A43724A61_a500000023unmarshalReturnedValuesER9cdrStream @1298
    _ZN33_0RL_cd_7963219A43724A61_a5000000C1EPFvP18omniCallDescriptorP11omniServantEPKcjb @1299
    _ZN33_0RL_cd_7963219A43724A61_a5000000D0Ev @1300
    _ZN33_0RL_cd_7963219A43724A61_a5000000D1Ev @1301
    _ZN33_0RL_cd_7963219A43724A61_a600000010_user_exnsE @1302 DATA
    _ZN33_0RL_cd_7963219A43724A61_a600000016marshalArgumentsER9cdrStream @1303
    _ZN33_0RL_cd_7963219A43724A61_a600000018unmarshalArgumentsER9cdrStream @1304
    _ZN33_0RL_cd_7963219A43724A61_a6000000C1EPFvP18omniCallDescriptorP11omniServantEPKcjb @1305
    _ZN33_0RL_cd_7963219A43724A61_a6000000D0Ev @1306
    _ZN33_0RL_cd_7963219A43724A61_a6000000D1Ev @1307
    _ZN33_0RL_cd_7963219A43724A61_b100000010_user_exnsE @1308 DATA
    _ZN33_0RL_cd_7963219A43724A61_b100000016marshalArgumentsER9cdrStream @1309
    _ZN33_0RL_cd_7963219A43724A61_b100000018unmarshalArgumentsER9cdrStream @1310
    _ZN33_0RL_cd_7963219A43724A61_b100000021marshalReturnedValuesER9cdrStream @1311
    _ZN33_0RL_cd_7963219A43724A61_b100000023unmarshalReturnedValuesER9cdrStream @1312
    _ZN33_0RL_cd_7963219A43724A61_b1000000C1EPFvP18omniCallDescriptorP11omniServantEPKcjb @1313
    _ZN33_0RL_cd_7963219A43724A61_b1000000D0Ev @1314
    _ZN33_0RL_cd_7963219A43724A61_b1000000D1Ev @1315
    _ZN33_0RL_cd_7963219A43724A61_b200000010_user_exnsE @1316 DATA
    _ZN33_0RL_cd_7963219A43724A61_b200000016marshalArgumentsER9cdrStream @1317
    _ZN33_0RL_cd_7963219A43724A61_b200000018unmarshalArgumentsER9cdrStream @1318
    _ZN33_0RL_cd_7963219A43724A61_b200000021marshalReturnedValuesER9cdrStream @1319
    _ZN33_0RL_cd_7963219A43724A61_b200000023unmarshalReturnedValuesER9cdrStream @1320
    _ZN33_0RL_cd_7963219A43724A61_b2000000C1EPFvP18omniCallDescriptorP11omniServantEPKcjb @1321
    _ZN33_0RL_cd_7963219A43724A61_b2000000D0Ev @1322
    _ZN33_0RL_cd_7963219A43724A61_b2000000D1Ev @1323
    _ZN33_0RL_cd_7963219A43724A61_b400000010_user_exnsE @1324 DATA
    _ZN33_0RL_cd_7963219A43724A61_b400000021marshalReturnedValuesER9cdrStream @1325
    _ZN33_0RL_cd_7963219A43724A61_b400000023unmarshalReturnedValuesER9cdrStream @1326
    _ZN33_0RL_cd_7963219A43724A61_b4000000C1EPFvP18omniCallDescriptorP11omniServantEPKcjb @1327
    _ZN33_0RL_cd_7963219A43724A61_b4000000D0Ev @1328
    _ZN33_0RL_cd_7963219A43724A61_b4000000D1Ev @1329
    _ZN33_0RL_cd_7963219A43724A61_b800000010_user_exnsE @1330 DATA
    _ZN33_0RL_cd_7963219A43724A61_b800000021marshalReturnedValuesER9cdrStream @1331
    _ZN33_0RL_cd_7963219A43724A61_b800000023unmarshalReturnedValuesER9cdrStream @1332
    _ZN33_0RL_cd_7963219A43724A61_b8000000C1EPFvP18omniCallDescriptorP11omniServantEPKcjb @1333
    _ZN33_0RL_cd_7963219A43724A61_b8000000D0Ev @1334
    _ZN33_0RL_cd_7963219A43724A61_b8000000D1Ev @1335
    _ZN33_0RL_cd_7963219A43724A61_b900000010_user_exnsE @1336 DATA
    _ZN33_0RL_cd_7963219A43724A61_b900000016marshalArgumentsER9cdrStream @1337
    _ZN33_0RL_cd_7963219A43724A61_b900000018unmarshalArgumentsER9cdrStream @1338
    _ZN33_0RL_cd_7963219A43724A61_b900000021marshalReturnedValuesER9cdrStream @1339
    _ZN33_0RL_cd_7963219A43724A61_b900000023unmarshalReturnedValuesER9cdrStream @1340
    _ZN33_0RL_cd_7963219A43724A61_b9000000C1EPFvP18omniCallDescriptorP11omniServantEPKcjb @1341
    _ZN33_0RL_cd_7963219A43724A61_b9000000D0Ev @1342
    _ZN33_0RL_cd_7963219A43724A61_b9000000D1Ev @1343
    _ZN33_0RL_cd_7963219A43724A61_ba00000010_user_exnsE @1344 DATA
    _ZN33_0RL_cd_7963219A43724A61_ba00000016marshalArgumentsER9cdrStream @1345
    _ZN33_0RL_cd_7963219A43724A61_ba00000018unmarshalArgumentsER9cdrStream @1346
    _ZN33_0RL_cd_7963219A43724A61_ba00000021marshalReturnedValuesER9cdrStream @1347
    _ZN33_0RL_cd_7963219A43724A61_ba00000023unmarshalReturnedValuesER9cdrStream @1348
    _ZN33_0RL_cd_7963219A43724A61_ba000000C1EPFvP18omniCallDescriptorP11omniServantEPKcjb @1349
    _ZN33_0RL_cd_7963219A43724A61_ba000000D0Ev @1350
    _ZN33_0RL_cd_7963219A43724A61_ba000000D1Ev @1351
    _ZN33_0RL_cd_7963219A43724A61_bb00000010_user_exnsE @1352 DATA
    _ZN33_0RL_cd_7963219A43724A61_bb00000016marshalArgumentsER9cdrStream @1353
    _ZN33_0RL_cd_7963219A43724A61_bb00000018unmarshalArgumentsER9cdrStream @1354
    _ZN33_0RL_cd_7963219A43724A61_bb000000C1EPFvP18omniCallDescriptorP11omniServantEPKcjb @1355
    _ZN33_0RL_cd_7963219A43724A61_bb000000D0Ev @1356
    _ZN33_0RL_cd_7963219A43724A61_bb000000D1Ev @1357
    _ZN33_0RL_cd_7963219A43724A61_c300000010_user_exnsE @1358 DATA
    _ZN33_0RL_cd_7963219A43724A61_c300000016marshalArgumentsER9cdrStream @1359
    _ZN33_0RL_cd_7963219A43724A61_c300000018unmarshalArgumentsER9cdrStream @1360
    _ZN33_0RL_cd_7963219A43724A61_c300000021marshalReturnedValuesER9cdrStream @1361
    _ZN33_0RL_cd_7963219A43724A61_c300000023unmarshalReturnedValuesER9cdrStream @1362
    _ZN33_0RL_cd_7963219A43724A61_c3000000C1EPFvP18omniCallDescriptorP11omniServantEPKcjb @1363
    _ZN33_0RL_cd_7963219A43724A61_c3000000D0Ev @1364
    _ZN33_0RL_cd_7963219A43724A61_c3000000D1Ev @1365
    _ZN33_0RL_cd_7963219A43724A61_c500000010_user_exnsE @1366 DATA
    _ZN33_0RL_cd_7963219A43724A61_c500000016marshalArgumentsER9cdrStream @1367
    _ZN33_0RL_cd_7963219A43724A61_c500000018unmarshalArgumentsER9cdrStream @1368
    _ZN33_0RL_cd_7963219A43724A61_c5000000C1EPFvP18omniCallDescriptorP11omniServantEPKcjb @1369
    _ZN33_0RL_cd_7963219A43724A61_c5000000D0Ev @1370
    _ZN33_0RL_cd_7963219A43724A61_c5000000D1Ev @1371
    _ZN33_0RL_cd_7963219A43724A61_c600000010_user_exnsE @1372 DATA
    _ZN33_0RL_cd_7963219A43724A61_c600000021marshalReturnedValuesER9cdrStream @1373
    _ZN33_0RL_cd_7963219A43724A61_c600000023unmarshalReturnedValuesER9cdrStream @1374
    _ZN33_0RL_cd_7963219A43724A61_c6000000C1EPFvP18omniCallDescriptorP11omniServantEPKcjb @1375
    _ZN33_0RL_cd_7963219A43724A61_c6000000D0Ev @1376
    _ZN33_0RL_cd_7963219A43724A61_c6000000D1Ev @1377
    _ZN33_0RL_cd_7963219A43724A61_d100000010_user_exnsE @1378 DATA
    _ZN33_0RL_cd_7963219A43724A61_d100000016marshalArgumentsER9cdrStream @1379
    _ZN33_0RL_cd_7963219A43724A61_d100000018unmarshalArgumentsER9cdrStream @1380
    _ZN33_0RL_cd_7963219A43724A61_d100000021marshalReturnedValuesER9cdrStream @1381
    _ZN33_0RL_cd_7963219A43724A61_d100000023unmarshalReturnedValuesER9cdrStream @1382
    _ZN33_0RL_cd_7963219A43724A61_d1000000C1EPFvP18omniCallDescriptorP11omniServantEPKcjb @1383
    _ZN33_0RL_cd_7963219A43724A61_d1000000D0Ev @1384
    _ZN33_0RL_cd_7963219A43724A61_d1000000D1Ev @1385
    _ZN33_0RL_cd_7963219A43724A61_d200000010_user_exnsE @1386 DATA
    _ZN33_0RL_cd_7963219A43724A61_d200000016marshalArgumentsER9cdrStream @1387
    _ZN33_0RL_cd_7963219A43724A61_d200000018unmarshalArgumentsER9cdrStream @1388
    _ZN33_0RL_cd_7963219A43724A61_d200000021marshalReturnedValuesER9cdrStream @1389
    _ZN33_0RL_cd_7963219A43724A61_d200000023unmarshalReturnedValuesER9cdrStream @1390
    _ZN33_0RL_cd_7963219A43724A61_d2000000C1EPFvP18omniCallDescriptorP11omniServantEPKcjb @1391
    _ZN33_0RL_cd_7963219A43724A61_d2000000D0Ev @1392
    _ZN33_0RL_cd_7963219A43724A61_d2000000D1Ev @1393
    _ZN33_0RL_cd_7963219A43724A61_d400000010_user_exnsE @1394 DATA
    _ZN33_0RL_cd_7963219A43724A61_d400000016marshalArgumentsER9cdrStream @1395
    _ZN33_0RL_cd_7963219A43724A61_d400000018unmarshalArgumentsER9cdrStream @1396
    _ZN33_0RL_cd_7963219A43724A61_d4000000C1EPFvP18omniCallDescriptorP11omniServantEPKcjb @1397
    _ZN33_0RL_cd_7963219A43724A61_d4000000D0Ev @1398
    _ZN33_0RL_cd_7963219A43724A61_d4000000D1Ev @1399
    _ZN33_0RL_cd_7963219A43724A61_d800000010_user_exnsE @1400 DATA
    _ZN33_0RL_cd_7963219A43724A61_d800000016marshalArgumentsER9cdrStream @1401
    _ZN33_0RL_cd_7963219A43724A61_d800000018unmarshalArgumentsER9cdrStream @1402
    _ZN33_0RL_cd_7963219A43724A61_d8000000C1EPFvP18omniCallDescriptorP11omniServantEPKcjb @1403
    _ZN33_0RL_cd_7963219A43724A61_d8000000D0Ev @1404
    _ZN33_0RL_cd_7963219A43724A61_d8000000D1Ev @1405
    _ZN33_0RL_cd_7963219A43724A61_d900000010_user_exnsE @1406 DATA
    _ZN33_0RL_cd_7963219A43724A61_d900000016marshalArgumentsER9cdrStream @1407
    _ZN33_0RL_cd_7963219A43724A61_d900000018unmarshalArgumentsER9cdrStream @1408
    _ZN33_0RL_cd_7963219A43724A61_d900000021marshalReturnedValuesER9cdrStream @1409
    _ZN33_0RL_cd_7963219A43724A61_d900000023unmarshalReturnedValuesER9cdrStream @1410
    _ZN33_0RL_cd_7963219A43724A61_d9000000C1EPFvP18omniCallDescriptorP11omniServantEPKcjb @1411
    _ZN33_0RL_cd_7963219A43724A61_d9000000D0Ev @1412
    _ZN33_0RL_cd_7963219A43724A61_d9000000D1Ev @1413
    _ZN33_0RL_cd_7963219A43724A61_db00000010_user_exnsE @1414 DATA
    _ZN33_0RL_cd_7963219A43724A61_db00000021marshalReturnedValuesER9cdrStream @1415
    _ZN33_0RL_cd_7963219A43724A61_db00000023unmarshalReturnedValuesER9cdrStream @1416
    _ZN33_0RL_cd_7963219A43724A61_db000000C1EPFvP18omniCallDescriptorP11omniServantEPKcjb @1417
    _ZN33_0RL_cd_7963219A43724A61_db000000D0Ev @1418
    _ZN33_0RL_cd_7963219A43724A61_db000000D1Ev @1419
    _ZN33_0RL_cd_7963219A43724A61_e300000010_user_exnsE @1420 DATA
    _ZN33_0RL_cd_7963219A43724A61_e300000016marshalArgumentsER9cdrStream @1421
    _ZN33_0RL_cd_7963219A43724A61_e300000018unmarshalArgumentsER9cdrStream @1422
    _ZN33_0RL_cd_7963219A43724A61_e300000021marshalReturnedValuesER9cdrStream @1423
    _ZN33_0RL_cd_7963219A43724A61_e300000023unmarshalReturnedValuesER9cdrStream @1424
    _ZN33_0RL_cd_7963219A43724A61_e3000000C1EPFvP18omniCallDescriptorP11omniServantEPKcjb @1425
    _ZN33_0RL_cd_7963219A43724A61_e3000000D0Ev @1426
    _ZN33_0RL_cd_7963219A43724A61_e3000000D1Ev @1427
    _ZN33_0RL_cd_7963219A43724A61_e600000010_user_exnsE @1428 DATA
    _ZN33_0RL_cd_7963219A43724A61_e600000016marshalArgumentsER9cdrStream @1429
    _ZN33_0RL_cd_7963219A43724A61_e600000018unmarshalArgumentsER9cdrStream @1430
    _ZN33_0RL_cd_7963219A43724A61_e6000000C1EPFvP18omniCallDescriptorP11omniServantEPKcjb @1431
    _ZN33_0RL_cd_7963219A43724A61_e6000000D0Ev @1432
    _ZN33_0RL_cd_7963219A43724A61_e6000000D1Ev @1433
    _ZN33_0RL_cd_7963219A43724A61_f100000010_user_exnsE @1434 DATA
    _ZN33_0RL_cd_7963219A43724A61_f100000016marshalArgumentsER9cdrStream @1435
    _ZN33_0RL_cd_7963219A43724A61_f100000018unmarshalArgumentsER9cdrStream @1436
    _ZN33_0RL_cd_7963219A43724A61_f100000021marshalReturnedValuesER9cdrStream @1437
    _ZN33_0RL_cd_7963219A43724A61_f100000023unmarshalReturnedValuesER9cdrStream @1438
    _ZN33_0RL_cd_7963219A43724A61_f1000000C1EPFvP18omniCallDescriptorP11omniServantEPKcjb @1439
    _ZN33_0RL_cd_7963219A43724A61_f1000000D0Ev @1440
    _ZN33_0RL_cd_7963219A43724A61_f1000000D1Ev @1441
    _ZN33_0RL_cd_7963219A43724A61_f200000010_user_exnsE @1442 DATA
    _ZN33_0RL_cd_7963219A43724A61_f200000016marshalArgumentsER9cdrStream @1443
    _ZN33_0RL_cd_7963219A43724A61_f200000018unmarshalArgumentsER9cdrStream @1444
    _ZN33_0RL_cd_7963219A43724A61_f200000021marshalReturnedValuesER9cdrStream @1445
    _ZN33_0RL_cd_7963219A43724A61_f200000023unmarshalReturnedValuesER9cdrStream @1446
    _ZN33_0RL_cd_7963219A43724A61_f2000000C1EPFvP18omniCallDescriptorP11omniServantEPKcjb @1447
    _ZN33_0RL_cd_7963219A43724A61_f2000000D0Ev @1448
    _ZN33_0RL_cd_7963219A43724A61_f2000000D1Ev @1449
    _ZN33_0RL_cd_7963219A43724A61_f400000010_user_exnsE @1450 DATA
    _ZN33_0RL_cd_7963219A43724A61_f400000021marshalReturnedValuesER9cdrStream @1451
    _ZN33_0RL_cd_7963219A43724A61_f400000023unmarshalReturnedValuesER9cdrStream @1452
    _ZN33_0RL_cd_7963219A43724A61_f4000000C1EPFvP18omniCallDescriptorP11omniServantEPKcjb @1453
    _ZN33_0RL_cd_7963219A43724A61_f4000000D0Ev @1454
    _ZN33_0RL_cd_7963219A43724A61_f4000000D1Ev @1455
    _ZN33_0RL_cd_7963219A43724A61_f800000010_user_exnsE @1456 DATA
    _ZN33_0RL_cd_7963219A43724A61_f800000021marshalReturnedValuesER9cdrStream @1457
    _ZN33_0RL_cd_7963219A43724A61_f800000023unmarshalReturnedValuesER9cdrStream @1458
    _ZN33_0RL_cd_7963219A43724A61_f8000000C1EPFvP18omniCallDescriptorP11omniServantEPKcjb @1459
    _ZN33_0RL_cd_7963219A43724A61_f8000000D0Ev @1460
    _ZN33_0RL_cd_7963219A43724A61_f8000000D1Ev @1461
    _ZN33_0RL_cd_7963219A43724A61_f900000010_user_exnsE @1462 DATA
    _ZN33_0RL_cd_7963219A43724A61_f900000021marshalReturnedValuesER9cdrStream @1463
    _ZN33_0RL_cd_7963219A43724A61_f900000023unmarshalReturnedValuesER9cdrStream @1464
    _ZN33_0RL_cd_7963219A43724A61_f9000000C1EPFvP18omniCallDescriptorP11omniServantEPKcjb @1465
    _ZN33_0RL_cd_7963219A43724A61_f9000000D0Ev @1466
    _ZN33_0RL_cd_7963219A43724A61_f9000000D1Ev @1467
    _ZN33_0RL_cd_7963219A43724A61_fb00000010_user_exnsE @1468 DATA
    _ZN33_0RL_cd_7963219A43724A61_fb00000016marshalArgumentsER9cdrStream @1469
    _ZN33_0RL_cd_7963219A43724A61_fb00000018unmarshalArgumentsER9cdrStream @1470
    _ZN33_0RL_cd_7963219A43724A61_fb000000C1EPFvP18omniCallDescriptorP11omniServantEPKcjb @1471
    _ZN33_0RL_cd_7963219A43724A61_fb000000D0Ev @1472
    _ZN33_0RL_cd_7963219A43724A61_fb000000D1Ev @1473
    _ZN33_CORBA_Unbounded_Sequence_BooleanC2ERKS_ @1474
    _ZN33_CORBA_Unbounded_Sequence_BooleanC2Em @1475
    _ZN33_CORBA_Unbounded_Sequence_BooleanC2Ev @1476
    _ZN33_CORBA_Unbounded_Sequence_BooleanD2Ev @1477
    _ZN33_CORBA_Unbounded_Sequence_WStringC2ERKS_ @1478
    _ZN33_CORBA_Unbounded_Sequence_WStringC2Ev @1479
    _ZN33_CORBA_Unbounded_Sequence_WStringD2Ev @1480
    _ZN42_CORBA_Unbounded_Sequence_w_FixSizeElementIdLi8ELi8EEC2ERKS0_ @1481
    _ZN42_CORBA_Unbounded_Sequence_w_FixSizeElementIdLi8ELi8EEC2Em @1482
    _ZN42_CORBA_Unbounded_Sequence_w_FixSizeElementIdLi8ELi8EEC2Ev @1483
    _ZN42_CORBA_Unbounded_Sequence_w_FixSizeElementIdLi8ELi8EED2Ev @1484
    _ZN42_CORBA_Unbounded_Sequence_w_FixSizeElementIdLi8ELi8EElSER9cdrStream @1485
    _ZN42_CORBA_Unbounded_Sequence_w_FixSizeElementIfLi4ELi4EEC2ERKS0_ @1486
    _ZN42_CORBA_Unbounded_Sequence_w_FixSizeElementIfLi4ELi4EEC2Em @1487
    _ZN42_CORBA_Unbounded_Sequence_w_FixSizeElementIfLi4ELi4EEC2Ev @1488
    _ZN42_CORBA_Unbounded_Sequence_w_FixSizeElementIfLi4ELi4EED2Ev @1489
    _ZN42_CORBA_Unbounded_Sequence_w_FixSizeElementIfLi4ELi4EElSER9cdrStream @1490
    _ZN42_CORBA_Unbounded_Sequence_w_FixSizeElementIlLi4ELi4EEC2ERKS0_ @1491
    _ZN42_CORBA_Unbounded_Sequence_w_FixSizeElementIlLi4ELi4EEC2Em @1492
    _ZN42_CORBA_Unbounded_Sequence_w_FixSizeElementIlLi4ELi4EEC2Ev @1493
    _ZN42_CORBA_Unbounded_Sequence_w_FixSizeElementIlLi4ELi4EED2Ev @1494
    _ZN42_CORBA_Unbounded_Sequence_w_FixSizeElementIlLi4ELi4EElSER9cdrStream @1495
    _ZN42_CORBA_Unbounded_Sequence_w_FixSizeElementImLi4ELi4EEC2ERKS0_ @1496
    _ZN42_CORBA_Unbounded_Sequence_w_FixSizeElementImLi4ELi4EEC2Em @1497
    _ZN42_CORBA_Unbounded_Sequence_w_FixSizeElementImLi4ELi4EEC2Ev @1498
    _ZN42_CORBA_Unbounded_Sequence_w_FixSizeElementImLi4ELi4EED2Ev @1499
    _ZN42_CORBA_Unbounded_Sequence_w_FixSizeElementImLi4ELi4EElSER9cdrStream @1500
    _ZN42_CORBA_Unbounded_Sequence_w_FixSizeElementIsLi2ELi2EEC2ERKS0_ @1501
    _ZN42_CORBA_Unbounded_Sequence_w_FixSizeElementIsLi2ELi2EEC2Em @1502
    _ZN42_CORBA_Unbounded_Sequence_w_FixSizeElementIsLi2ELi2EEC2Ev @1503
    _ZN42_CORBA_Unbounded_Sequence_w_FixSizeElementIsLi2ELi2EED2Ev @1504
    _ZN42_CORBA_Unbounded_Sequence_w_FixSizeElementIsLi2ELi2EElSER9cdrStream @1505
    _ZN42_CORBA_Unbounded_Sequence_w_FixSizeElementItLi2ELi2EEC2ERKS0_ @1506
    _ZN42_CORBA_Unbounded_Sequence_w_FixSizeElementItLi2ELi2EEC2Em @1507
    _ZN42_CORBA_Unbounded_Sequence_w_FixSizeElementItLi2ELi2EEC2Ev @1508
    _ZN42_CORBA_Unbounded_Sequence_w_FixSizeElementItLi2ELi2EED2Ev @1509
    _ZN42_CORBA_Unbounded_Sequence_w_FixSizeElementItLi2ELi2EElSER9cdrStream @1510
    _ZN42_CORBA_Unbounded_Sequence_w_FixSizeElementIxLi8ELi8EEC2ERKS0_ @1511
    _ZN42_CORBA_Unbounded_Sequence_w_FixSizeElementIxLi8ELi8EEC2Em @1512
    _ZN42_CORBA_Unbounded_Sequence_w_FixSizeElementIxLi8ELi8EEC2Ev @1513
    _ZN42_CORBA_Unbounded_Sequence_w_FixSizeElementIxLi8ELi8EED2Ev @1514
    _ZN42_CORBA_Unbounded_Sequence_w_FixSizeElementIxLi8ELi8EElSER9cdrStream @1515
    _ZN42_CORBA_Unbounded_Sequence_w_FixSizeElementIyLi8ELi8EEC2ERKS0_ @1516
    _ZN42_CORBA_Unbounded_Sequence_w_FixSizeElementIyLi8ELi8EEC2Em @1517
    _ZN42_CORBA_Unbounded_Sequence_w_FixSizeElementIyLi8ELi8EEC2Ev @1518
    _ZN42_CORBA_Unbounded_Sequence_w_FixSizeElementIyLi8ELi8EED2Ev @1519
    _ZN42_CORBA_Unbounded_Sequence_w_FixSizeElementIyLi8ELi8EElSER9cdrStream @1520
    _ZN47_0RL_insertToAny_Singleton__cCORBA_mPolicyErrorC1Ev @1521
    _ZN4omni10DynAnyImpl10_PD_repoIdE @1522 DATA
    _ZN4omni10DynAnyImpl10get_doubleEv @1523
    _ZN4omni10DynAnyImpl10get_stringEv @1524
    _ZN4omni10DynAnyImpl10get_ushortEv @1525
    _ZN4omni10DynAnyImpl10insert_anyERKN5CORBA3AnyE @1526
    _ZN4omni10DynAnyImpl10insert_valEPN5CORBA9ValueBaseE @1527
    _ZN4omni10DynAnyImpl10setInvalidEv @1528
    _ZN4omni10DynAnyImpl11get_booleanEv @1529
    _ZN4omni10DynAnyImpl11get_dyn_anyEv @1530
    _ZN4omni10DynAnyImpl11get_wstringEv @1531
    _ZN4omni10DynAnyImpl11insert_charEh @1532
    _ZN4omni10DynAnyImpl11insert_longEl @1533
    _ZN4omni10DynAnyImpl12_ptrToObjRefEPKc @1534
    _ZN4omni10DynAnyImpl12get_abstractEv @1535
    _ZN4omni10DynAnyImpl12get_char_seqEv @1536
    _ZN4omni10DynAnyImpl12get_long_seqEv @1537
    _ZN4omni10DynAnyImpl12get_longlongEv @1538
    _ZN4omni10DynAnyImpl12get_typecodeEv @1539
    _ZN4omni10DynAnyImpl12insert_floatEf @1540
    _ZN4omni10DynAnyImpl12insert_octetEh @1541
    _ZN4omni10DynAnyImpl12insert_shortEs @1542
    _ZN4omni10DynAnyImpl12insert_ulongEm @1543
    _ZN4omni10DynAnyImpl12insert_wcharEw @1544
    _ZN4omni10DynAnyImpl13get_float_seqEv @1545
    _ZN4omni10DynAnyImpl13get_octet_seqEv @1546
    _ZN4omni10DynAnyImpl13get_referenceEv @1547
    _ZN4omni10DynAnyImpl13get_short_seqEv @1548
    _ZN4omni10DynAnyImpl13get_ulong_seqEv @1549
    _ZN4omni10DynAnyImpl13get_ulonglongEv @1550
    _ZN4omni10DynAnyImpl13get_wchar_seqEv @1551
    _ZN4omni10DynAnyImpl13insert_doubleEd @1552
    _ZN4omni10DynAnyImpl13insert_stringEPKc @1553
    _ZN4omni10DynAnyImpl13insert_ushortEt @1554
    _ZN4omni10DynAnyImpl14get_double_seqEv @1555
    _ZN4omni10DynAnyImpl14get_longdoubleEv @1556
    _ZN4omni10DynAnyImpl14get_ushort_seqEv @1557
    _ZN4omni10DynAnyImpl14insert_booleanEb @1558
    _ZN4omni10DynAnyImpl14insert_dyn_anyEPN10DynamicAny6DynAnyE @1559
    _ZN4omni10DynAnyImpl14insert_wstringEPKw @1560
    _ZN4omni10DynAnyImpl15component_countEv @1561
    _ZN4omni10DynAnyImpl15get_boolean_seqEv @1562
    _ZN4omni10DynAnyImpl15insert_abstractEPN5CORBA12AbstractBaseE @1563
    _ZN4omni10DynAnyImpl15insert_char_seqERN5CORBA7CharSeqE @1564
    _ZN4omni10DynAnyImpl15insert_long_seqERN5CORBA7LongSeqE @1565
    _ZN4omni10DynAnyImpl15insert_longlongEx @1566
    _ZN4omni10DynAnyImpl15insert_typecodeEPN5CORBA8TypeCodeE @1567
    _ZN4omni10DynAnyImpl16get_longlong_seqEv @1568
    _ZN4omni10DynAnyImpl16insert_float_seqERN5CORBA8FloatSeqE @1569
    _ZN4omni10DynAnyImpl16insert_octet_seqERN5CORBA8OctetSeqE @1570
    _ZN4omni10DynAnyImpl16insert_referenceEPN5CORBA6ObjectE @1571
    _ZN4omni10DynAnyImpl16insert_short_seqERN5CORBA8ShortSeqE @1572
    _ZN4omni10DynAnyImpl16insert_ulong_seqERN5CORBA8ULongSeqE @1573
    _ZN4omni10DynAnyImpl16insert_ulonglongEy @1574
    _ZN4omni10DynAnyImpl16insert_wchar_seqERN5CORBA8WCharSeqE @1575
    _ZN4omni10DynAnyImpl17current_componentEv @1576
    _ZN4omni10DynAnyImpl17get_ulonglong_seqEv @1577
    _ZN4omni10DynAnyImpl17insert_double_seqERN5CORBA9DoubleSeqE @1578
    _ZN4omni10DynAnyImpl17insert_longdoubleEe @1579
    _ZN4omni10DynAnyImpl17insert_ushort_seqERN5CORBA9UShortSeqE @1580
    _ZN4omni10DynAnyImpl18get_longdouble_seqEv @1581
    _ZN4omni10DynAnyImpl18insert_boolean_seqERN5CORBA10BooleanSeqE @1582
    _ZN4omni10DynAnyImpl19insert_longlong_seqERN5CORBA11LongLongSeqE @1583
    _ZN4omni10DynAnyImpl20insert_ulonglong_seqERN5CORBA12ULongLongSeqE @1584
    _ZN4omni10DynAnyImpl20set_to_initial_valueEv @1585
    _ZN4omni10DynAnyImpl21insert_longdouble_seqERN5CORBA13LongDoubleSeqE @1586
    _ZN4omni10DynAnyImpl4copyEv @1587
    _ZN4omni10DynAnyImpl4nextEv @1588
    _ZN4omni10DynAnyImpl4seekEl @1589
    _ZN4omni10DynAnyImpl5equalEPN10DynamicAny6DynAnyE @1590
    _ZN4omni10DynAnyImpl6assignEPN10DynamicAny6DynAnyE @1591
    _ZN4omni10DynAnyImpl6doReadEN5CORBA6TCKindE @1592
    _ZN4omni10DynAnyImpl6rewindEv @1593
    _ZN4omni10DynAnyImpl7copy_toER18cdrAnyMemoryStream @1594
    _ZN4omni10DynAnyImpl7doWriteEN5CORBA6TCKindE @1595
    _ZN4omni10DynAnyImpl7get_anyEv @1596
    _ZN4omni10DynAnyImpl7get_valEv @1597
    _ZN4omni10DynAnyImpl8get_charEv @1598
    _ZN4omni10DynAnyImpl8get_longEv @1599
    _ZN4omni10DynAnyImpl8setValidEv @1600
    _ZN4omni10DynAnyImpl9copy_fromER18cdrAnyMemoryStream @1601
    _ZN4omni10DynAnyImpl9get_floatEv @1602
    _ZN4omni10DynAnyImpl9get_octetEv @1603
    _ZN4omni10DynAnyImpl9get_shortEv @1604
    _ZN4omni10DynAnyImpl9get_ulongEv @1605
    _ZN4omni10DynAnyImpl9get_wcharEv @1606
    _ZN4omni10DynAnyImplC1EPNS_13TypeCode_baseEib @1607
    _ZN4omni10DynAnyImplC2EPNS_13TypeCode_baseEib @1608
    _ZN4omni10DynAnyImplD0Ev @1609
    _ZN4omni10DynAnyImplD1Ev @1610
    _ZN4omni10DynAnyImplD2Ev @1611
    _ZN4omni10NVListImpl12NP_duplicateEv @1612
    _ZN4omni10NVListImpl16add_item_consumeEPcm @1613
    _ZN4omni10NVListImpl17add_value_consumeEPcPN5CORBA3AnyEm @1614
    _ZN4omni10NVListImpl3addEm @1615
    _ZN4omni10NVListImpl4itemEm @1616
    _ZN4omni10NVListImpl6removeEm @1617
    _ZN4omni10NVListImpl8add_itemEPKcm @1618
    _ZN4omni10NVListImpl9add_valueEPKcRKN5CORBA3AnyEm @1619
    _ZN4omni10NVListImplC1Ev @1620
    _ZN4omni10NVListImplC2Ev @1621
    _ZN4omni10NVListImplD0Ev @1622
    _ZN4omni10NVListImplD1Ev @1623
    _ZN4omni10NVListImplD2Ev @1624
    _ZN4omni10giopStream8downcastEP9cdrStream @1625
    _ZN4omni10omniNilEnv12NP_duplicateEv @1626
    _ZN4omni10omniNilEnv5clearEv @1627
    _ZN4omni10omniNilEnv9exceptionEPN5CORBA9ExceptionE @1628
    _ZN4omni10omniNilEnvC1Ev @1629
    _ZN4omni10omniNilEnvD0Ev @1630
    _ZN4omni10omniNilEnvD1Ev @1631
    _ZN4omni11ContextImpl10add_valuesEPS0_mPKciPN5CORBA6NVListE @1632
    _ZN4omni11ContextImpl10get_valuesEPKcmS2_20_CORBA_PseudoObj_OutIN5CORBA6NVListE20_CORBA_PseudoObj_VarIS5_EE @1633
    _ZN4omni11ContextImpl10set_valuesEPN5CORBA6NVListE @1634
    _ZN4omni11ContextImpl12NP_duplicateEv @1635
    _ZN4omni11ContextImpl12create_childEPKc20_CORBA_PseudoObj_OutIN5CORBA7ContextE20_CORBA_PseudoObj_VarIS5_EE @1636
    _ZN4omni11ContextImpl12decrRefCountEv @1637
    _ZN4omni11ContextImpl13delete_valuesEPKc @1638
    _ZN4omni11ContextImpl13set_one_valueEPKcRKN5CORBA3AnyE @1639
    _ZN4omni11ContextImpl14releaseDefaultEv @1640
    _ZN4omni11ContextImpl18check_context_nameEPKc @1641
    _ZN4omni11ContextImpl19check_property_nameEPKc @1642
    _ZN4omni11ContextImpl21insert_single_consumeEPcS1_ @1643
    _ZN4omni11ContextImpl8addChildEPS0_ @1644
    _ZN4omni11ContextImpl9loseChildEPS0_ @1645
    _ZN4omni11ContextImplC1EPKcPN5CORBA7ContextE @1646
    _ZN4omni11ContextImplC2EPKcPN5CORBA7ContextE @1647
    _ZN4omni11ContextImplD0Ev @1648
    _ZN4omni11ContextImplD1Ev @1649
    _ZN4omni11ContextImplD2Ev @1650
    _ZN4omni11DynEnumImpl12_ptrToObjRefEPKc @1651
    _ZN4omni11DynEnumImpl12get_as_ulongEv @1652
    _ZN4omni11DynEnumImpl12set_as_ulongEm @1653
    _ZN4omni11DynEnumImpl13get_as_stringEv @1654
    _ZN4omni11DynEnumImpl13set_as_stringEPKc @1655
    _ZN4omni11DynEnumImpl16_NP_decrRefCountEv @1656
    _ZN4omni11DynEnumImpl16_NP_incrRefCountEv @1657
    _ZN4omni11DynEnumImpl20set_to_initial_valueEv @1658
    _ZN4omni11DynEnumImpl4copyEv @1659
    _ZN4omni11DynEnumImplC1EPNS_13TypeCode_baseEb @1660
    _ZN4omni11DynEnumImplC2EPNS_13TypeCode_baseEb @1661
    _ZN4omni11DynEnumImplD0Ev @1662
    _ZN4omni11DynEnumImplD1Ev @1663
    _ZN4omni11DynEnumImplD2Ev @1664
    _ZN4omni11RequestImpl10add_in_argEPKc @1665
    _ZN4omni11RequestImpl10add_in_argEv @1666
    _ZN4omni11RequestImpl10exceptionsEv @1667
    _ZN4omni11RequestImpl11add_out_argEPKc @1668
    _ZN4omni11RequestImpl11add_out_argEv @1669
    _ZN4omni11RequestImpl11marshalArgsER9cdrStream @1670
    _ZN4omni11RequestImpl11send_onewayEv @1671
    _ZN4omni11RequestImpl12NP_duplicateEv @1672
    _ZN4omni11RequestImpl12get_responseEv @1673
    _ZN4omni11RequestImpl12return_valueEv @1674
    _ZN4omni11RequestImpl13add_inout_argEPKc @1675
    _ZN4omni11RequestImpl13add_inout_argEv @1676
    _ZN4omni11RequestImpl13poll_responseEv @1677
    _ZN4omni11RequestImpl13send_deferredEv @1678
    _ZN4omni11RequestImpl15deferred_invokeEv @1679
    _ZN4omni11RequestImpl15set_return_typeEPN5CORBA8TypeCodeE @1680
    _ZN4omni11RequestImpl16unmarshalResultsER9cdrStream @1681
    _ZN4omni11RequestImpl19storeExceptionInEnvEv @1682
    _ZN4omni11RequestImpl22unmarshalUserExceptionER9cdrStreamPKc @1683
    _ZN4omni11RequestImpl3ctxEPN5CORBA7ContextE @1684
    _ZN4omni11RequestImpl3envEv @1685
    _ZN4omni11RequestImpl6invokeEv @1686
    _ZN4omni11RequestImpl6resultEv @1687
    _ZN4omni11RequestImpl8contextsEv @1688
    _ZN4omni11RequestImpl9argumentsEv @1689
    _ZN4omni11RequestImplC1EPN5CORBA6ObjectEPKc @1690
    _ZN4omni11RequestImplC1EPN5CORBA6ObjectEPKcPNS1_7ContextEPNS1_6NVListEPNS1_10NamedValueE @1691
    _ZN4omni11RequestImplC1EPN5CORBA6ObjectEPKcPNS1_7ContextEPNS1_6NVListEPNS1_10NamedValueEPNS1_13ExceptionListEPNS1_11ContextListE @1692
    _ZN4omni11RequestImplC2EPN5CORBA6ObjectEPKc @1693
    _ZN4omni11RequestImplC2EPN5CORBA6ObjectEPKcPNS1_7ContextEPNS1_6NVListEPNS1_10NamedValueE @1694
    _ZN4omni11RequestImplC2EPN5CORBA6ObjectEPKcPNS1_7ContextEPNS1_6NVListEPNS1_10NamedValueEPNS1_13ExceptionListEPNS1_11ContextListE @1695
    _ZN4omni11RequestImplD0Ev @1696
    _ZN4omni11RequestImplD1Ev @1697
    _ZN4omni11RequestImplD2Ev @1698
    _ZN4omni11RequestLinkC1EPN5CORBA7RequestE @1699
    _ZN4omni11copyUsingTCEPNS_13TypeCode_baseER9cdrStreamS3_ @1700
    _ZN4omni11ptrStrMatchEPKcS1_ @1701
    _ZN4omni11skipUsingTCEPNS_13TypeCode_baseER9cdrStream @1702
    _ZN4omni12DynArrayImpl12_ptrToObjRefEPKc @1703
    _ZN4omni12DynArrayImpl12get_elementsEv @1704
    _ZN4omni12DynArrayImpl12set_elementsERKN10DynamicAny6AnySeqE @1705
    _ZN4omni12DynArrayImpl14nthComponentTCEj @1706
    _ZN4omni12DynArrayImpl16_NP_decrRefCountEv @1707
    _ZN4omni12DynArrayImpl16_NP_incrRefCountEv @1708
    _ZN4omni12DynArrayImpl19prepareSequenceReadEN5CORBA6TCKindE @1709
    _ZN4omni12DynArrayImpl20prepareSequenceWriteEN5CORBA6TCKindEm @1710
    _ZN4omni12DynArrayImpl23get_elements_as_dyn_anyEv @1711
    _ZN4omni12DynArrayImpl23set_elements_as_dyn_anyERKN10DynamicAny9DynAnySeqE @1712
    _ZN4omni12DynArrayImpl4copyEv @1713
    _ZN4omni12DynArrayImplC1EPNS_13TypeCode_baseEb @1714
    _ZN4omni12DynArrayImplC2EPNS_13TypeCode_baseEb @1715
    _ZN4omni12DynArrayImplD0Ev @1716
    _ZN4omni12DynArrayImplD1Ev @1717
    _ZN4omni12DynArrayImplD2Ev @1718
    _ZN4omni12DynFixedImpl12_ptrToObjRefEPKc @1719
    _ZN4omni12DynFixedImpl16_NP_decrRefCountEv @1720
    _ZN4omni12DynFixedImpl16_NP_incrRefCountEv @1721
    _ZN4omni12DynFixedImpl20set_to_initial_valueEv @1722
    _ZN4omni12DynFixedImpl4copyEv @1723
    _ZN4omni12DynFixedImpl9get_valueEv @1724
    _ZN4omni12DynFixedImpl9set_valueEPKc @1725
    _ZN4omni12DynFixedImplC1EPNS_13TypeCode_baseEb @1726
    _ZN4omni12DynFixedImplC2EPNS_13TypeCode_baseEb @1727
    _ZN4omni12DynFixedImplD0Ev @1728
    _ZN4omni12DynFixedImplD1Ev @1729
    _ZN4omni12DynFixedImplD2Ev @1730
    _ZN4omni12DynUnionDisc10insert_anyERKN5CORBA3AnyE @1731
    _ZN4omni12DynUnionDisc10insert_valEPN5CORBA9ValueBaseE @1732
    _ZN4omni12DynUnionDisc11insert_charEh @1733
    _ZN4omni12DynUnionDisc11insert_longEl @1734
    _ZN4omni12DynUnionDisc12insert_floatEf @1735
    _ZN4omni12DynUnionDisc12insert_octetEh @1736
    _ZN4omni12DynUnionDisc12insert_shortEs @1737
    _ZN4omni12DynUnionDisc12insert_ulongEm @1738
    _ZN4omni12DynUnionDisc12insert_wcharEw @1739
    _ZN4omni12DynUnionDisc13insert_doubleEd @1740
    _ZN4omni12DynUnionDisc13insert_stringEPKc @1741
    _ZN4omni12DynUnionDisc13insert_ushortEt @1742
    _ZN4omni12DynUnionDisc14insert_booleanEb @1743
    _ZN4omni12DynUnionDisc14insert_dyn_anyEPN10DynamicAny6DynAnyE @1744
    _ZN4omni12DynUnionDisc14insert_wstringEPKw @1745
    _ZN4omni12DynUnionDisc15insert_abstractEPN5CORBA12AbstractBaseE @1746
    _ZN4omni12DynUnionDisc15insert_longlongEx @1747
    _ZN4omni12DynUnionDisc15insert_typecodeEPN5CORBA8TypeCodeE @1748
    _ZN4omni12DynUnionDisc16insert_referenceEPN5CORBA6ObjectE @1749
    _ZN4omni12DynUnionDisc16insert_ulonglongEy @1750
    _ZN4omni12DynUnionDisc17insert_longdoubleEe @1751
    _ZN4omni12DynUnionDisc20set_to_initial_valueEv @1752
    _ZN4omni12DynUnionDisc6assignEPN10DynamicAny6DynAnyE @1753
    _ZN4omni12DynUnionDisc6detachEv @1754
    _ZN4omni12DynUnionDisc9set_valueEy @1755
    _ZN4omni12DynUnionDiscC1EPNS_13TypeCode_baseEiPNS_12DynUnionImplE @1756
    _ZN4omni12DynUnionDiscC2EPNS_13TypeCode_baseEiPNS_12DynUnionImplE @1757
    _ZN4omni12DynUnionDiscD0Ev @1758
    _ZN4omni12DynUnionDiscD1Ev @1759
    _ZN4omni12DynUnionDiscD2Ev @1760
    _ZN4omni12DynUnionImpl10_PD_repoIdE @1761 DATA
    _ZN4omni12DynUnionImpl10get_doubleEv @1762
    _ZN4omni12DynUnionImpl10get_stringEv @1763
    _ZN4omni12DynUnionImpl10get_ushortEv @1764
    _ZN4omni12DynUnionImpl10insert_anyERKN5CORBA3AnyE @1765
    _ZN4omni12DynUnionImpl10insert_valEPN5CORBA9ValueBaseE @1766
    _ZN4omni12DynUnionImpl11get_booleanEv @1767
    _ZN4omni12DynUnionImpl11get_dyn_anyEv @1768
    _ZN4omni12DynUnionImpl11get_wstringEv @1769
    _ZN4omni12DynUnionImpl11insert_charEh @1770
    _ZN4omni12DynUnionImpl11insert_longEl @1771
    _ZN4omni12DynUnionImpl11member_kindEv @1772
    _ZN4omni12DynUnionImpl11member_nameEv @1773
    _ZN4omni12DynUnionImpl11readCurrentEN5CORBA6TCKindE @1774
    _ZN4omni12DynUnionImpl12_ptrToObjRefEPKc @1775
    _ZN4omni12DynUnionImpl12detachMemberEv @1776
    _ZN4omni12DynUnionImpl12get_abstractEv @1777
    _ZN4omni12DynUnionImpl12get_char_seqEv @1778
    _ZN4omni12DynUnionImpl12get_long_seqEv @1779
    _ZN4omni12DynUnionImpl12get_longlongEv @1780
    _ZN4omni12DynUnionImpl12get_typecodeEv @1781
    _ZN4omni12DynUnionImpl12insert_floatEf @1782
    _ZN4omni12DynUnionImpl12insert_octetEh @1783
    _ZN4omni12DynUnionImpl12insert_shortEs @1784
    _ZN4omni12DynUnionImpl12insert_ulongEm @1785
    _ZN4omni12DynUnionImpl12insert_wcharEw @1786
    _ZN4omni12DynUnionImpl12writeCurrentEN5CORBA6TCKindE @1787
    _ZN4omni12DynUnionImpl13get_float_seqEv @1788
    _ZN4omni12DynUnionImpl13get_octet_seqEv @1789
    _ZN4omni12DynUnionImpl13get_referenceEv @1790
    _ZN4omni12DynUnionImpl13get_short_seqEv @1791
    _ZN4omni12DynUnionImpl13get_ulong_seqEv @1792
    _ZN4omni12DynUnionImpl13get_ulonglongEv @1793
    _ZN4omni12DynUnionImpl13get_wchar_seqEv @1794
    _ZN4omni12DynUnionImpl13insert_doubleEd @1795
    _ZN4omni12DynUnionImpl13insert_stringEPKc @1796
    _ZN4omni12DynUnionImpl13insert_ushortEt @1797
    _ZN4omni12DynUnionImpl14get_double_seqEv @1798
    _ZN4omni12DynUnionImpl14get_longdoubleEv @1799
    _ZN4omni12DynUnionImpl14get_ushort_seqEv @1800
    _ZN4omni12DynUnionImpl14insert_booleanEb @1801
    _ZN4omni12DynUnionImpl14insert_dyn_anyEPN10DynamicAny6DynAnyE @1802
    _ZN4omni12DynUnionImpl14insert_wstringEPKw @1803
    _ZN4omni12DynUnionImpl15component_countEv @1804
    _ZN4omni12DynUnionImpl15get_boolean_seqEv @1805
    _ZN4omni12DynUnionImpl15insert_abstractEPN5CORBA12AbstractBaseE @1806
    _ZN4omni12DynUnionImpl15insert_char_seqERN5CORBA7CharSeqE @1807
    _ZN4omni12DynUnionImpl15insert_long_seqERN5CORBA7LongSeqE @1808
    _ZN4omni12DynUnionImpl15insert_longlongEx @1809
    _ZN4omni12DynUnionImpl15insert_typecodeEPN5CORBA8TypeCodeE @1810
    _ZN4omni12DynUnionImpl16_NP_decrRefCountEv @1811
    _ZN4omni12DynUnionImpl16_NP_incrRefCountEv @1812
    _ZN4omni12DynUnionImpl16get_longlong_seqEv @1813
    _ZN4omni12DynUnionImpl16insert_float_seqERN5CORBA8FloatSeqE @1814
    _ZN4omni12DynUnionImpl16insert_octet_seqERN5CORBA8OctetSeqE @1815
    _ZN4omni12DynUnionImpl16insert_referenceEPN5CORBA6ObjectE @1816
    _ZN4omni12DynUnionImpl16insert_short_seqERN5CORBA8ShortSeqE @1817
    _ZN4omni12DynUnionImpl16insert_ulong_seqERN5CORBA8ULongSeqE @1818
    _ZN4omni12DynUnionImpl16insert_ulonglongEy @1819
    _ZN4omni12DynUnionImpl16insert_wchar_seqERN5CORBA8WCharSeqE @1820
    _ZN4omni12DynUnionImpl17current_componentEv @1821
    _ZN4omni12DynUnionImpl17get_discriminatorEv @1822
    _ZN4omni12DynUnionImpl17get_ulonglong_seqEv @1823
    _ZN4omni12DynUnionImpl17insert_double_seqERN5CORBA9DoubleSeqE @1824
    _ZN4omni12DynUnionImpl17insert_longdoubleEe @1825
    _ZN4omni12DynUnionImpl17insert_ushort_seqERN5CORBA9UShortSeqE @1826
    _ZN4omni12DynUnionImpl17set_discriminatorEPN10DynamicAny6DynAnyE @1827
    _ZN4omni12DynUnionImpl18discriminator_kindEv @1828
    _ZN4omni12DynUnionImpl18get_longdouble_seqEv @1829
    _ZN4omni12DynUnionImpl18insert_boolean_seqERN5CORBA10BooleanSeqE @1830
    _ZN4omni12DynUnionImpl19insert_longlong_seqERN5CORBA11LongLongSeqE @1831
    _ZN4omni12DynUnionImpl20has_no_active_memberEv @1832
    _ZN4omni12DynUnionImpl20insert_ulonglong_seqERN5CORBA12ULongLongSeqE @1833
    _ZN4omni12DynUnionImpl20set_to_initial_valueEv @1834
    _ZN4omni12DynUnionImpl21insert_longdouble_seqERN5CORBA13LongDoubleSeqE @1835
    _ZN4omni12DynUnionImpl21set_to_default_memberEv @1836
    _ZN4omni12DynUnionImpl23discriminatorHasChangedEv @1837
    _ZN4omni12DynUnionImpl23set_to_no_active_memberEv @1838
    _ZN4omni12DynUnionImpl24is_set_to_default_memberEv @1839
    _ZN4omni12DynUnionImpl4copyEv @1840
    _ZN4omni12DynUnionImpl4nextEv @1841
    _ZN4omni12DynUnionImpl4seekEl @1842
    _ZN4omni12DynUnionImpl5equalEPN10DynamicAny6DynAnyE @1843
    _ZN4omni12DynUnionImpl6assignEPN10DynamicAny6DynAnyE @1844
    _ZN4omni12DynUnionImpl6memberEv @1845
    _ZN4omni12DynUnionImpl6rewindEv @1846
    _ZN4omni12DynUnionImpl7copy_toER18cdrAnyMemoryStream @1847
    _ZN4omni12DynUnionImpl7get_anyEv @1848
    _ZN4omni12DynUnionImpl7get_valEv @1849
    _ZN4omni12DynUnionImpl8get_charEv @1850
    _ZN4omni12DynUnionImpl8get_longEv @1851
    _ZN4omni12DynUnionImpl9copy_fromER18cdrAnyMemoryStream @1852
    _ZN4omni12DynUnionImpl9get_floatEv @1853
    _ZN4omni12DynUnionImpl9get_octetEv @1854
    _ZN4omni12DynUnionImpl9get_shortEv @1855
    _ZN4omni12DynUnionImpl9get_ulongEv @1856
    _ZN4omni12DynUnionImpl9get_wcharEv @1857
    _ZN4omni12DynUnionImpl9onDisposeEv @1858
    _ZN4omni12DynUnionImplC1EPNS_13TypeCode_baseEb @1859
    _ZN4omni12DynUnionImplC2EPNS_13TypeCode_baseEb @1860
    _ZN4omni12DynUnionImplD0Ev @1861
    _ZN4omni12DynUnionImplD1Ev @1862
    _ZN4omni12DynUnionImplD2Ev @1863
    _ZN4omni12DynValueImpl11get_membersEv @1864
    _ZN4omni12DynValueImpl11set_membersERKN10DynamicAny16NameValuePairSeqE @1865
    _ZN4omni12DynValueImpl11set_to_nullEv @1866
    _ZN4omni12DynValueImpl12_ptrToObjRefEPKc @1867
    _ZN4omni12DynValueImpl12set_to_valueEv @1868
    _ZN4omni12DynValueImpl14nthComponentTCEj @1869
    _ZN4omni12DynValueImpl16_NP_decrRefCountEv @1870
    _ZN4omni12DynValueImpl16_NP_incrRefCountEv @1871
    _ZN4omni12DynValueImpl19current_member_kindEv @1872
    _ZN4omni12DynValueImpl19current_member_nameEv @1873
    _ZN4omni12DynValueImpl19prepareSequenceReadEN5CORBA6TCKindE @1874
    _ZN4omni12DynValueImpl20prepareSequenceWriteEN5CORBA6TCKindEm @1875
    _ZN4omni12DynValueImpl20set_to_initial_valueEv @1876
    _ZN4omni12DynValueImpl22get_members_as_dyn_anyEv @1877
    _ZN4omni12DynValueImpl22set_members_as_dyn_anyERKN10DynamicAny17NameDynAnyPairSeqE @1878
    _ZN4omni12DynValueImpl4copyEv @1879
    _ZN4omni12DynValueImpl7copy_toER18cdrAnyMemoryStream @1880
    _ZN4omni12DynValueImpl7is_nullEv @1881
    _ZN4omni12DynValueImpl9copy_fromER18cdrAnyMemoryStream @1882
    _ZN4omni12DynValueImplC1EPNS_13TypeCode_baseEb @1883
    _ZN4omni12DynValueImplC2EPNS_13TypeCode_baseEb @1884
    _ZN4omni12DynValueImplD0Ev @1885
    _ZN4omni12DynValueImplD1Ev @1886
    _ZN4omni12DynValueImplD2Ev @1887
    _ZN4omni12ToDynAnyImplEPN10DynamicAny6DynAnyE @1888
    _ZN4omni12UnknownValue10_PD_repoIdE @1889 DATA
    _ZN4omni12UnknownValue11_copy_valueEv @1890
    _ZN4omni12UnknownValue11_ptrToValueEPKc @1891
    _ZN4omni12UnknownValue19_PR_unmarshal_stateER9cdrStream @1892
    _ZN4omni12UnknownValue9_downcastEPN5CORBA9ValueBaseE @1893
    _ZN4omni12UnknownValueC1EPN5CORBA8TypeCodeE @1894
    _ZN4omni12UnknownValueC1ERKS0_ @1895
    _ZN4omni12UnknownValueC2EPN5CORBA8TypeCodeE @1896
    _ZN4omni12UnknownValueC2ERKS0_ @1897
    _ZN4omni12UnknownValueD0Ev @1898
    _ZN4omni12UnknownValueD1Ev @1899
    _ZN4omni12UnknownValueD2Ev @1900
    _ZN4omni13DynStructImpl11get_membersEv @1901
    _ZN4omni13DynStructImpl11set_membersERKN10DynamicAny16NameValuePairSeqE @1902
    _ZN4omni13DynStructImpl12_ptrToObjRefEPKc @1903
    _ZN4omni13DynStructImpl14nthComponentTCEj @1904
    _ZN4omni13DynStructImpl16_NP_decrRefCountEv @1905
    _ZN4omni13DynStructImpl16_NP_incrRefCountEv @1906
    _ZN4omni13DynStructImpl19current_member_kindEv @1907
    _ZN4omni13DynStructImpl19current_member_nameEv @1908
    _ZN4omni13DynStructImpl19prepareSequenceReadEN5CORBA6TCKindE @1909
    _ZN4omni13DynStructImpl20prepareSequenceWriteEN5CORBA6TCKindEm @1910
    _ZN4omni13DynStructImpl22get_members_as_dyn_anyEv @1911
    _ZN4omni13DynStructImpl22set_members_as_dyn_anyERKN10DynamicAny17NameDynAnyPairSeqE @1912
    _ZN4omni13DynStructImpl4copyEv @1913
    _ZN4omni13DynStructImplC1EPNS_13TypeCode_baseEb @1914
    _ZN4omni13DynStructImplC2EPNS_13TypeCode_baseEb @1915
    _ZN4omni13DynStructImplD0Ev @1916
    _ZN4omni13DynStructImplD1Ev @1917
    _ZN4omni13DynStructImplD2Ev @1918
    _ZN4omni13PseudoObjBase12decrRefCountEv @1919
    _ZN4omni13PseudoObjBase12incrRefCountEv @1920
    _ZN4omni13PseudoObjBaseC2Ev @1921
    _ZN4omni13PseudoObjBaseD0Ev @1922
    _ZN4omni13PseudoObjBaseD1Ev @1923
    _ZN4omni13PseudoObjBaseD2Ev @1924
    _ZN4omni13TypeCode_base11aliasExpandEPS0_ @1925
    _ZN4omni13TypeCode_base12NP_compactTcEv @1926
    _ZN4omni13TypeCode_base13NP_namesEqualEPKcS2_ @1927
    _ZN4omni13TypeCode_base14NP_aliasExpandEPNS_17TypeCode_pairlistE @1928
    _ZN4omni13TypeCode_base15aliasExpandedTcEv @1929
    _ZN4omni13TypeCode_base18NP_containsAnAliasEv @1930
    _ZN4omni13TypeCode_base18NP_releaseChildrenEv @1931
    _ZN4omni13TypeCode_base19removeOptionalNamesEv @1932
    _ZN4omni13TypeCode_base21NP_complete_recursiveEPS0_PKc @1933
    _ZN4omni13TypeCode_base31NP_complete_recursive_sequencesEPS0_m @1934
    _ZN4omni13TypeCode_base8completeEv @1935
    _ZN4omni13TypeCode_base9NP_expandEPKS0_ @1936
    _ZN4omni13TypeCode_baseC1EN5CORBA6TCKindE @1937
    _ZN4omni13TypeCode_baseC2EN5CORBA6TCKindE @1938
    _ZN4omni13TypeCode_baseD0Ev @1939
    _ZN4omni13TypeCode_baseD1Ev @1940
    _ZN4omni13TypeCode_baseD2Ev @1941
    _ZN4omni13TypeCode_enum19removeOptionalNamesEv @1942
    _ZN4omni13TypeCode_enum25NP_unmarshalComplexParamsER9cdrStreamPNS_20TypeCode_offsetTableE @1943
    _ZN4omni13TypeCode_enumC1EPKcS2_RKN5CORBA13EnumMemberSeqE @1944
    _ZN4omni13TypeCode_enumC1Ev @1945
    _ZN4omni13TypeCode_enumC2EPKcS2_RKN5CORBA13EnumMemberSeqE @1946
    _ZN4omni13TypeCode_enumC2Ev @1947
    _ZN4omni13TypeCode_enumD0Ev @1948
    _ZN4omni13TypeCode_enumD1Ev @1949
    _ZN4omni13TypeCode_enumD2Ev @1950
    _ZN4omni13omniNilCtList11add_consumeEPc @1951
    _ZN4omni13omniNilCtList12NP_duplicateEv @1952
    _ZN4omni13omniNilCtList3addEPKc @1953
    _ZN4omni13omniNilCtList4itemEm @1954
    _ZN4omni13omniNilCtList6removeEm @1955
    _ZN4omni13omniNilCtListC1Ev @1956
    _ZN4omni13omniNilCtListD0Ev @1957
    _ZN4omni13omniNilCtListD1Ev @1958
    _ZN4omni13omniNilDynAny10get_doubleEv @1959
    _ZN4omni13omniNilDynAny10get_stringEv @1960
    _ZN4omni13omniNilDynAny10get_ushortEv @1961
    _ZN4omni13omniNilDynAny10insert_anyERKN5CORBA3AnyE @1962
    _ZN4omni13omniNilDynAny10insert_valEPN5CORBA9ValueBaseE @1963
    _ZN4omni13omniNilDynAny11get_booleanEv @1964
    _ZN4omni13omniNilDynAny11get_dyn_anyEv @1965
    _ZN4omni13omniNilDynAny11get_wstringEv @1966
    _ZN4omni13omniNilDynAny11insert_charEh @1967
    _ZN4omni13omniNilDynAny11insert_longEl @1968
    _ZN4omni13omniNilDynAny12_ptrToObjRefEPKc @1969
    _ZN4omni13omniNilDynAny12get_abstractEv @1970
    _ZN4omni13omniNilDynAny12get_char_seqEv @1971
    _ZN4omni13omniNilDynAny12get_long_seqEv @1972
    _ZN4omni13omniNilDynAny12get_longlongEv @1973
    _ZN4omni13omniNilDynAny12get_typecodeEv @1974
    _ZN4omni13omniNilDynAny12insert_floatEf @1975
    _ZN4omni13omniNilDynAny12insert_octetEh @1976
    _ZN4omni13omniNilDynAny12insert_shortEs @1977
    _ZN4omni13omniNilDynAny12insert_ulongEm @1978
    _ZN4omni13omniNilDynAny12insert_wcharEw @1979
    _ZN4omni13omniNilDynAny13get_float_seqEv @1980
    _ZN4omni13omniNilDynAny13get_octet_seqEv @1981
    _ZN4omni13omniNilDynAny13get_referenceEv @1982
    _ZN4omni13omniNilDynAny13get_short_seqEv @1983
    _ZN4omni13omniNilDynAny13get_ulong_seqEv @1984
    _ZN4omni13omniNilDynAny13get_ulonglongEv @1985
    _ZN4omni13omniNilDynAny13get_wchar_seqEv @1986
    _ZN4omni13omniNilDynAny13insert_doubleEd @1987
    _ZN4omni13omniNilDynAny13insert_stringEPKc @1988
    _ZN4omni13omniNilDynAny13insert_ushortEt @1989
    _ZN4omni13omniNilDynAny14get_double_seqEv @1990
    _ZN4omni13omniNilDynAny14get_longdoubleEv @1991
    _ZN4omni13omniNilDynAny14get_ushort_seqEv @1992
    _ZN4omni13omniNilDynAny14insert_booleanEb @1993
    _ZN4omni13omniNilDynAny14insert_dyn_anyEPN10DynamicAny6DynAnyE @1994
    _ZN4omni13omniNilDynAny14insert_wstringEPKw @1995
    _ZN4omni13omniNilDynAny15component_countEv @1996
    _ZN4omni13omniNilDynAny15get_boolean_seqEv @1997
    _ZN4omni13omniNilDynAny15insert_abstractEPN5CORBA12AbstractBaseE @1998
    _ZN4omni13omniNilDynAny15insert_char_seqERN5CORBA7CharSeqE @1999
    _ZN4omni13omniNilDynAny15insert_long_seqERN5CORBA7LongSeqE @2000
    _ZN4omni13omniNilDynAny15insert_longlongEx @2001
    _ZN4omni13omniNilDynAny15insert_typecodeEPN5CORBA8TypeCodeE @2002
    _ZN4omni13omniNilDynAny16_NP_decrRefCountEv @2003
    _ZN4omni13omniNilDynAny16_NP_incrRefCountEv @2004
    _ZN4omni13omniNilDynAny16get_longlong_seqEv @2005
    _ZN4omni13omniNilDynAny16insert_float_seqERN5CORBA8FloatSeqE @2006
    _ZN4omni13omniNilDynAny16insert_octet_seqERN5CORBA8OctetSeqE @2007
    _ZN4omni13omniNilDynAny16insert_referenceEPN5CORBA6ObjectE @2008
    _ZN4omni13omniNilDynAny16insert_short_seqERN5CORBA8ShortSeqE @2009
    _ZN4omni13omniNilDynAny16insert_ulong_seqERN5CORBA8ULongSeqE @2010
    _ZN4omni13omniNilDynAny16insert_ulonglongEy @2011
    _ZN4omni13omniNilDynAny16insert_wchar_seqERN5CORBA8WCharSeqE @2012
    _ZN4omni13omniNilDynAny17current_componentEv @2013
    _ZN4omni13omniNilDynAny17get_ulonglong_seqEv @2014
    _ZN4omni13omniNilDynAny17insert_double_seqERN5CORBA9DoubleSeqE @2015
    _ZN4omni13omniNilDynAny17insert_longdoubleEe @2016
    _ZN4omni13omniNilDynAny17insert_ushort_seqERN5CORBA9UShortSeqE @2017
    _ZN4omni13omniNilDynAny18get_longdouble_seqEv @2018
    _ZN4omni13omniNilDynAny18insert_boolean_seqERN5CORBA10BooleanSeqE @2019
    _ZN4omni13omniNilDynAny19insert_longlong_seqERN5CORBA11LongLongSeqE @2020
    _ZN4omni13omniNilDynAny20insert_ulonglong_seqERN5CORBA12ULongLongSeqE @2021
    _ZN4omni13omniNilDynAny21insert_longdouble_seqERN5CORBA13LongDoubleSeqE @2022
    _ZN4omni13omniNilDynAny4copyEv @2023
    _ZN4omni13omniNilDynAny4nextEv @2024
    _ZN4omni13omniNilDynAny4seekEl @2025
    _ZN4omni13omniNilDynAny5equalEPN10DynamicAny6DynAnyE @2026
    _ZN4omni13omniNilDynAny6assignEPN10DynamicAny6DynAnyE @2027
    _ZN4omni13omniNilDynAny6rewindEv @2028
    _ZN4omni13omniNilDynAny6to_anyEv @2029
    _ZN4omni13omniNilDynAny7destroyEv @2030
    _ZN4omni13omniNilDynAny7get_anyEv @2031
    _ZN4omni13omniNilDynAny7get_valEv @2032
    _ZN4omni13omniNilDynAny8from_anyERKN5CORBA3AnyE @2033
    _ZN4omni13omniNilDynAny8get_charEv @2034
    _ZN4omni13omniNilDynAny8get_longEv @2035
    _ZN4omni13omniNilDynAny9get_floatEv @2036
    _ZN4omni13omniNilDynAny9get_octetEv @2037
    _ZN4omni13omniNilDynAny9get_shortEv @2038
    _ZN4omni13omniNilDynAny9get_ulongEv @2039
    _ZN4omni13omniNilDynAny9get_wcharEv @2040
    _ZN4omni13omniNilDynAnyC1Ev @2041
    _ZN4omni13omniNilDynAnyC2Ev @2042
    _ZN4omni13omniNilDynAnyD0Ev @2043
    _ZN4omni13omniNilDynAnyD1Ev @2044
    _ZN4omni13omniNilDynAnyD2Ev @2045
    _ZN4omni13omniNilExList11add_consumeEPN5CORBA8TypeCodeE @2046
    _ZN4omni13omniNilExList12NP_duplicateEv @2047
    _ZN4omni13omniNilExList3addEPN5CORBA8TypeCodeE @2048
    _ZN4omni13omniNilExList4itemEm @2049
    _ZN4omni13omniNilExList6removeEm @2050
    _ZN4omni13omniNilExListC1Ev @2051
    _ZN4omni13omniNilExListD0Ev @2052
    _ZN4omni13omniNilExListD1Ev @2053
    _ZN4omni13omniNilNVList12NP_duplicateEv @2054
    _ZN4omni13omniNilNVList16add_item_consumeEPcm @2055
    _ZN4omni13omniNilNVList17add_value_consumeEPcPN5CORBA3AnyEm @2056
    _ZN4omni13omniNilNVList3addEm @2057
    _ZN4omni13omniNilNVList4itemEm @2058
    _ZN4omni13omniNilNVList6removeEm @2059
    _ZN4omni13omniNilNVList8add_itemEPKcm @2060
    _ZN4omni13omniNilNVList9add_valueEPKcRKN5CORBA3AnyEm @2061
    _ZN4omni13omniNilNVListC1Ev @2062
    _ZN4omni13omniNilNVListD0Ev @2063
    _ZN4omni13omniNilNVListD1Ev @2064
    _ZN4omni14DynAnyImplBase10_PD_repoIdE @2065 DATA
    _ZN4omni14DynAnyImplBase12refCountLockE @2066 DATA
    _ZN4omni14DynAnyImplBase16_NP_decrRefCountEv @2067
    _ZN4omni14DynAnyImplBase16_NP_incrRefCountEv @2068
    _ZN4omni14DynAnyImplBase6attachEv @2069
    _ZN4omni14DynAnyImplBase6detachEv @2070
    _ZN4omni14DynAnyImplBase6to_anyEv @2071
    _ZN4omni14DynAnyImplBase7destroyEv @2072
    _ZN4omni14DynAnyImplBase8from_anyERKN5CORBA3AnyE @2073
    _ZN4omni14DynAnyImplBase9onDisposeEv @2074
    _ZN4omni14DynAnyImplBaseC2EPNS_13TypeCode_baseEib @2075
    _ZN4omni14DynAnyImplBaseD0Ev @2076
    _ZN4omni14DynAnyImplBaseD1Ev @2077
    _ZN4omni14DynAnyImplBaseD2Ev @2078
    _ZN4omni14NamedValueImpl12NP_duplicateEv @2079
    _ZN4omni14NamedValueImplC1EPKcRKN5CORBA3AnyEm @2080
    _ZN4omni14NamedValueImplC1EPKcm @2081
    _ZN4omni14NamedValueImplC1EPcPN5CORBA3AnyEm @2082
    _ZN4omni14NamedValueImplC1EPcm @2083
    _ZN4omni14NamedValueImplC1Em @2084
    _ZN4omni14NamedValueImplC2EPKcRKN5CORBA3AnyEm @2085
    _ZN4omni14NamedValueImplC2EPKcm @2086
    _ZN4omni14NamedValueImplC2EPcPN5CORBA3AnyEm @2087
    _ZN4omni14NamedValueImplC2EPcm @2088
    _ZN4omni14NamedValueImplC2Em @2089
    _ZN4omni14NamedValueImplD0Ev @2090
    _ZN4omni14NamedValueImplD1Ev @2091
    _ZN4omni14NamedValueImplD2Ev @2092
    _ZN4omni14ToDynUnionImplEPN10DynamicAny6DynAnyE @2093
    _ZN4omni14TypeCode_alias14NP_aliasExpandEPNS_17TypeCode_pairlistE @2094
    _ZN4omni14TypeCode_alias18NP_containsAnAliasEv @2095
    _ZN4omni14TypeCode_alias18NP_releaseChildrenEv @2096
    _ZN4omni14TypeCode_alias19removeOptionalNamesEv @2097
    _ZN4omni14TypeCode_alias21NP_complete_recursiveEPNS_13TypeCode_baseEPKc @2098
    _ZN4omni14TypeCode_alias25NP_unmarshalComplexParamsER9cdrStreamPNS_20TypeCode_offsetTableE @2099
    _ZN4omni14TypeCode_alias31NP_complete_recursive_sequencesEPNS_13TypeCode_baseEm @2100
    _ZN4omni14TypeCode_aliasC1EPKcS2_PNS_13TypeCode_baseE @2101
    _ZN4omni14TypeCode_aliasC1Ev @2102
    _ZN4omni14TypeCode_aliasC2EPKcS2_PNS_13TypeCode_baseE @2103
    _ZN4omni14TypeCode_aliasD0Ev @2104
    _ZN4omni14TypeCode_aliasD1Ev @2105
    _ZN4omni14TypeCode_aliasD2Ev @2106
    _ZN4omni14TypeCode_array14NP_aliasExpandEPNS_17TypeCode_pairlistE @2107
    _ZN4omni14TypeCode_array18NP_containsAnAliasEv @2108
    _ZN4omni14TypeCode_array18NP_releaseChildrenEv @2109
    _ZN4omni14TypeCode_array19removeOptionalNamesEv @2110
    _ZN4omni14TypeCode_array21NP_complete_recursiveEPNS_13TypeCode_baseEPKc @2111
    _ZN4omni14TypeCode_array22generateAlignmentTableEv @2112
    _ZN4omni14TypeCode_array25NP_unmarshalComplexParamsER9cdrStreamPNS_20TypeCode_offsetTableE @2113
    _ZN4omni14TypeCode_array31NP_complete_recursive_sequencesEPNS_13TypeCode_baseEm @2114
    _ZN4omni14TypeCode_arrayC1EmPNS_13TypeCode_baseE @2115
    _ZN4omni14TypeCode_arrayC1Ev @2116
    _ZN4omni14TypeCode_arrayC2EmPNS_13TypeCode_baseE @2117
    _ZN4omni14TypeCode_arrayD0Ev @2118
    _ZN4omni14TypeCode_arrayD1Ev @2119
    _ZN4omni14TypeCode_arrayD2Ev @2120
    _ZN4omni14TypeCode_fixed24NP_unmarshalSimpleParamsER9cdrStreamPNS_20TypeCode_offsetTableE @2121
    _ZN4omni14TypeCode_fixedC1Ets @2122
    _ZN4omni14TypeCode_fixedC1Ev @2123
    _ZN4omni14TypeCode_fixedC2Ets @2124
    _ZN4omni14TypeCode_fixedC2Ev @2125
    _ZN4omni14TypeCode_fixedD0Ev @2126
    _ZN4omni14TypeCode_fixedD1Ev @2127
    _ZN4omni14TypeCode_fixedD2Ev @2128
    _ZN4omni14TypeCode_union13TcUnionMemberC1Ev @2129
    _ZN4omni14TypeCode_union13TcUnionMemberD1Ev @2130
    _ZN4omni14TypeCode_union13TcUnionMemberaSERKS1_ @2131
    _ZN4omni14TypeCode_union14NP_aliasExpandEPNS_17TypeCode_pairlistE @2132
    _ZN4omni14TypeCode_union16NP_default_valueEv @2133
    _ZN4omni14TypeCode_union18NP_containsAnAliasEv @2134
    _ZN4omni14TypeCode_union18NP_releaseChildrenEv @2135
    _ZN4omni14TypeCode_union19removeOptionalNamesEv @2136
    _ZN4omni14TypeCode_union21NP_complete_recursiveEPNS_13TypeCode_baseEPKc @2137
    _ZN4omni14TypeCode_union25NP_unmarshalComplexParamsER9cdrStreamPNS_20TypeCode_offsetTableE @2138
    _ZN4omni14TypeCode_union31NP_complete_recursive_sequencesEPNS_13TypeCode_baseEm @2139
    _ZN4omni14TypeCode_unionC1EPKcS2_PNS_13TypeCode_baseEPKN5CORBA14PR_unionMemberEml @2140
    _ZN4omni14TypeCode_unionC1EPKcS2_PNS_13TypeCode_baseERKN5CORBA14UnionMemberSeqE @2141
    _ZN4omni14TypeCode_unionC1Ev @2142
    _ZN4omni14TypeCode_unionC2EPKcS2_PNS_13TypeCode_baseEPKN5CORBA14PR_unionMemberEml @2143
    _ZN4omni14TypeCode_unionC2EPKcS2_PNS_13TypeCode_baseERKN5CORBA14UnionMemberSeqE @2144
    _ZN4omni14TypeCode_unionC2Ev @2145
    _ZN4omni14TypeCode_unionD0Ev @2146
    _ZN4omni14TypeCode_unionD1Ev @2147
    _ZN4omni14TypeCode_unionD2Ev @2148
    _ZN4omni14TypeCode_value14NP_aliasExpandEPNS_17TypeCode_pairlistE @2149
    _ZN4omni14TypeCode_value18NP_containsAnAliasEv @2150
    _ZN4omni14TypeCode_value18NP_releaseChildrenEv @2151
    _ZN4omni14TypeCode_value19removeOptionalNamesEv @2152
    _ZN4omni14TypeCode_value21NP_complete_recursiveEPNS_13TypeCode_baseEPKc @2153
    _ZN4omni14TypeCode_value25NP_unmarshalComplexParamsER9cdrStreamPNS_20TypeCode_offsetTableE @2154
    _ZN4omni14TypeCode_value31NP_complete_recursive_sequencesEPNS_13TypeCode_baseEm @2155
    _ZN4omni14TypeCode_valueC1EPKcS2_sPNS_13TypeCode_baseEPNS0_6MemberEm @2156
    _ZN4omni14TypeCode_valueC1Ev @2157
    _ZN4omni14TypeCode_valueC2EPKcS2_sPNS_13TypeCode_baseEPNS0_6MemberEm @2158
    _ZN4omni14TypeCode_valueC2Ev @2159
    _ZN4omni14TypeCode_valueD0Ev @2160
    _ZN4omni14TypeCode_valueD1Ev @2161
    _ZN4omni14TypeCode_valueD2Ev @2162
    _ZN4omni14omniNilContext10get_valuesEPKcmS2_20_CORBA_PseudoObj_OutIN5CORBA6NVListE20_CORBA_PseudoObj_VarIS5_EE @2163
    _ZN4omni14omniNilContext10set_valuesEPN5CORBA6NVListE @2164
    _ZN4omni14omniNilContext12NP_duplicateEv @2165
    _ZN4omni14omniNilContext12create_childEPKc20_CORBA_PseudoObj_OutIN5CORBA7ContextE20_CORBA_PseudoObj_VarIS5_EE @2166
    _ZN4omni14omniNilContext13delete_valuesEPKc @2167
    _ZN4omni14omniNilContext13set_one_valueEPKcRKN5CORBA3AnyE @2168
    _ZN4omni14omniNilContextC1Ev @2169
    _ZN4omni14omniNilContextD0Ev @2170
    _ZN4omni14omniNilContextD1Ev @2171
    _ZN4omni14omniNilDynEnum12_ptrToObjRefEPKc @2172
    _ZN4omni14omniNilDynEnum12get_as_ulongEv @2173
    _ZN4omni14omniNilDynEnum12set_as_ulongEm @2174
    _ZN4omni14omniNilDynEnum13get_as_stringEv @2175
    _ZN4omni14omniNilDynEnum13set_as_stringEPKc @2176
    _ZN4omni14omniNilDynEnumC1Ev @2177
    _ZN4omni14omniNilDynEnumD0Ev @2178
    _ZN4omni14omniNilDynEnumD1Ev @2179
    _ZN4omni14omniNilRequest10add_in_argEPKc @2180
    _ZN4omni14omniNilRequest10add_in_argEv @2181
    _ZN4omni14omniNilRequest10exceptionsEv @2182
    _ZN4omni14omniNilRequest11add_out_argEPKc @2183
    _ZN4omni14omniNilRequest11add_out_argEv @2184
    _ZN4omni14omniNilRequest11send_onewayEv @2185
    _ZN4omni14omniNilRequest12NP_duplicateEv @2186
    _ZN4omni14omniNilRequest12get_responseEv @2187
    _ZN4omni14omniNilRequest12return_valueEv @2188
    _ZN4omni14omniNilRequest13add_inout_argEPKc @2189
    _ZN4omni14omniNilRequest13add_inout_argEv @2190
    _ZN4omni14omniNilRequest13poll_responseEv @2191
    _ZN4omni14omniNilRequest13send_deferredEv @2192
    _ZN4omni14omniNilRequest15set_return_typeEPN5CORBA8TypeCodeE @2193
    _ZN4omni14omniNilRequest3ctxEPN5CORBA7ContextE @2194
    _ZN4omni14omniNilRequest3envEv @2195
    _ZN4omni14omniNilRequest6invokeEv @2196
    _ZN4omni14omniNilRequest6resultEv @2197
    _ZN4omni14omniNilRequest8contextsEv @2198
    _ZN4omni14omniNilRequest9argumentsEv @2199
    _ZN4omni14omniNilRequestC1Ev @2200
    _ZN4omni14omniNilRequestD0Ev @2201
    _ZN4omni14omniNilRequestD1Ev @2202
    _ZN4omni15ContextListImpl11add_consumeEPc @2203
    _ZN4omni15ContextListImpl12NP_duplicateEv @2204
    _ZN4omni15ContextListImpl12free_entriesEv @2205
    _ZN4omni15ContextListImpl3addEPKc @2206
    _ZN4omni15ContextListImpl4itemEm @2207
    _ZN4omni15ContextListImpl6removeEm @2208
    _ZN4omni15ContextListImpl7NP_listEv @2209
    _ZN4omni15ContextListImplC1Ev @2210
    _ZN4omni15ContextListImplC2Ev @2211
    _ZN4omni15ContextListImplD0Ev @2212
    _ZN4omni15ContextListImplD1Ev @2213
    _ZN4omni15ContextListImplD2Ev @2214
    _ZN4omni15DeferredRequest12get_responseEv @2215
    _ZN4omni15DeferredRequest13get_exceptionEv @2216
    _ZN4omni15DeferredRequest13poll_responseEv @2217
    _ZN4omni15DeferredRequest3dieEv @2218
    _ZN4omni15DeferredRequest7executeEv @2219
    _ZN4omni15DeferredRequestC1EPNS_11RequestImplE @2220
    _ZN4omni15DeferredRequestC2EPNS_11RequestImplE @2221
    _ZN4omni15DeferredRequestD0Ev @2222
    _ZN4omni15DeferredRequestD1Ev @2223
    _ZN4omni15DeferredRequestD2Ev @2224
    _ZN4omni15DynSequenceImpl10get_lengthEv @2225
    _ZN4omni15DynSequenceImpl10set_lengthEm @2226
    _ZN4omni15DynSequenceImpl12_ptrToObjRefEPKc @2227
    _ZN4omni15DynSequenceImpl12get_elementsEv @2228
    _ZN4omni15DynSequenceImpl12set_elementsERKN10DynamicAny6AnySeqE @2229
    _ZN4omni15DynSequenceImpl14nthComponentTCEj @2230
    _ZN4omni15DynSequenceImpl16_NP_decrRefCountEv @2231
    _ZN4omni15DynSequenceImpl16_NP_incrRefCountEv @2232
    _ZN4omni15DynSequenceImpl19prepareSequenceReadEN5CORBA6TCKindE @2233
    _ZN4omni15DynSequenceImpl20prepareSequenceWriteEN5CORBA6TCKindEm @2234
    _ZN4omni15DynSequenceImpl23get_elements_as_dyn_anyEv @2235
    _ZN4omni15DynSequenceImpl23set_elements_as_dyn_anyERKN10DynamicAny9DynAnySeqE @2236
    _ZN4omni15DynSequenceImpl4copyEv @2237
    _ZN4omni15DynSequenceImpl7copy_toER18cdrAnyMemoryStream @2238
    _ZN4omni15DynSequenceImpl9copy_fromER18cdrAnyMemoryStream @2239
    _ZN4omni15DynSequenceImplC1EPNS_13TypeCode_baseEb @2240
    _ZN4omni15DynSequenceImplC2EPNS_13TypeCode_baseEb @2241
    _ZN4omni15DynSequenceImplD0Ev @2242
    _ZN4omni15DynSequenceImplD1Ev @2243
    _ZN4omni15DynSequenceImplD2Ev @2244
    _ZN4omni15DynValueBoxImpl11set_to_nullEv @2245
    _ZN4omni15DynValueBoxImpl12_ptrToObjRefEPKc @2246
    _ZN4omni15DynValueBoxImpl12set_to_valueEv @2247
    _ZN4omni15DynValueBoxImpl14nthComponentTCEj @2248
    _ZN4omni15DynValueBoxImpl15get_boxed_valueEv @2249
    _ZN4omni15DynValueBoxImpl15set_boxed_valueERKN5CORBA3AnyE @2250
    _ZN4omni15DynValueBoxImpl16_NP_decrRefCountEv @2251
    _ZN4omni15DynValueBoxImpl16_NP_incrRefCountEv @2252
    _ZN4omni15DynValueBoxImpl19prepareSequenceReadEN5CORBA6TCKindE @2253
    _ZN4omni15DynValueBoxImpl20prepareSequenceWriteEN5CORBA6TCKindEm @2254
    _ZN4omni15DynValueBoxImpl20set_to_initial_valueEv @2255
    _ZN4omni15DynValueBoxImpl26get_boxed_value_as_dyn_anyEv @2256
    _ZN4omni15DynValueBoxImpl26set_boxed_value_as_dyn_anyEPN10DynamicAny6DynAnyE @2257
    _ZN4omni15DynValueBoxImpl4copyEv @2258
    _ZN4omni15DynValueBoxImpl7copy_toER18cdrAnyMemoryStream @2259
    _ZN4omni15DynValueBoxImpl7is_nullEv @2260
    _ZN4omni15DynValueBoxImpl9copy_fromER18cdrAnyMemoryStream @2261
    _ZN4omni15DynValueBoxImplC1EPNS_13TypeCode_baseEb @2262
    _ZN4omni15DynValueBoxImplC2EPNS_13TypeCode_baseEb @2263
    _ZN4omni15DynValueBoxImplD0Ev @2264
    _ZN4omni15DynValueBoxImplD1Ev @2265
    _ZN4omni15DynValueBoxImplD2Ev @2266
    _ZN4omni15EnvironmentImpl12NP_duplicateEv @2267
    _ZN4omni15EnvironmentImplC1Ev @2268
    _ZN4omni15EnvironmentImplC2Ev @2269
    _ZN4omni15EnvironmentImplD0Ev @2270
    _ZN4omni15EnvironmentImplD1Ev @2271
    _ZN4omni15EnvironmentImplD2Ev @2272
    _ZN4omni15InputTableEntryC1EP14_omni_ValueIdslPS0_ @2273
    _ZN4omni15InputTableEntryC1EPN5CORBA9ValueBaseElPS0_ @2274
    _ZN4omni15InputTableEntryC1EPS0_lS1_ @2275
    _ZN4omni15InputTableEntryC1EPclPS0_ @2276
    _ZN4omni15TypeCode_except14NP_aliasExpandEPNS_17TypeCode_pairlistE @2277
    _ZN4omni15TypeCode_except18NP_containsAnAliasEv @2278
    _ZN4omni15TypeCode_except18NP_releaseChildrenEv @2279
    _ZN4omni15TypeCode_except19removeOptionalNamesEv @2280
    _ZN4omni15TypeCode_except21NP_complete_recursiveEPNS_13TypeCode_baseEPKc @2281
    _ZN4omni15TypeCode_except22generateAlignmentTableEv @2282
    _ZN4omni15TypeCode_except25NP_unmarshalComplexParamsER9cdrStreamPNS_20TypeCode_offsetTableE @2283
    _ZN4omni15TypeCode_except31NP_complete_recursive_sequencesEPNS_13TypeCode_baseEm @2284
    _ZN4omni15TypeCode_exceptC1EPcS1_PNS_15TypeCode_struct6MemberEm @2285
    _ZN4omni15TypeCode_exceptC1Ev @2286
    _ZN4omni15TypeCode_exceptC2EPcS1_PNS_15TypeCode_struct6MemberEm @2287
    _ZN4omni15TypeCode_exceptD0Ev @2288
    _ZN4omni15TypeCode_exceptD1Ev @2289
    _ZN4omni15TypeCode_exceptD2Ev @2290
    _ZN4omni15TypeCode_objref19removeOptionalNamesEv @2291
    _ZN4omni15TypeCode_objref25NP_unmarshalComplexParamsER9cdrStreamPNS_20TypeCode_offsetTableE @2292
    _ZN4omni15TypeCode_objrefC1EN5CORBA6TCKindE @2293
    _ZN4omni15TypeCode_objrefC1EPKcS2_N5CORBA6TCKindE @2294
    _ZN4omni15TypeCode_objrefC2EN5CORBA6TCKindE @2295
    _ZN4omni15TypeCode_objrefC2EPKcS2_N5CORBA6TCKindE @2296
    _ZN4omni15TypeCode_objrefD0Ev @2297
    _ZN4omni15TypeCode_objrefD1Ev @2298
    _ZN4omni15TypeCode_objrefD2Ev @2299
    _ZN4omni15TypeCode_string24NP_unmarshalSimpleParamsER9cdrStreamPNS_20TypeCode_offsetTableE @2300
    _ZN4omni15TypeCode_stringC1Em @2301
    _ZN4omni15TypeCode_stringC1Ev @2302
    _ZN4omni15TypeCode_stringC2Em @2303
    _ZN4omni15TypeCode_stringC2Ev @2304
    _ZN4omni15TypeCode_stringD0Ev @2305
    _ZN4omni15TypeCode_stringD1Ev @2306
    _ZN4omni15TypeCode_stringD2Ev @2307
    _ZN4omni15TypeCode_struct14NP_aliasExpandEPNS_17TypeCode_pairlistE @2308
    _ZN4omni15TypeCode_struct18NP_containsAnAliasEv @2309
    _ZN4omni15TypeCode_struct18NP_releaseChildrenEv @2310
    _ZN4omni15TypeCode_struct19removeOptionalNamesEv @2311
    _ZN4omni15TypeCode_struct21NP_complete_recursiveEPNS_13TypeCode_baseEPKc @2312
    _ZN4omni15TypeCode_struct22generateAlignmentTableEv @2313
    _ZN4omni15TypeCode_struct25NP_unmarshalComplexParamsER9cdrStreamPNS_20TypeCode_offsetTableE @2314
    _ZN4omni15TypeCode_struct31NP_complete_recursive_sequencesEPNS_13TypeCode_baseEm @2315
    _ZN4omni15TypeCode_structC1EPcS1_PNS0_6MemberEm @2316
    _ZN4omni15TypeCode_structC1Ev @2317
    _ZN4omni15TypeCode_structC2EPcS1_PNS0_6MemberEm @2318
    _ZN4omni15TypeCode_structD0Ev @2319
    _ZN4omni15TypeCode_structD1Ev @2320
    _ZN4omni15TypeCode_structD2Ev @2321
    _ZN4omni15fastCopyUsingTCEPNS_13TypeCode_baseER9cdrStreamS3_ @2322
    _ZN4omni15omniCodeSetUtil5freeUEPw @2323
    _ZN4omni15omniCodeSetUtil7HolderUC1EPw @2324
    _ZN4omni15omniCodeSetUtil7HolderUD1Ev @2325
    _ZN4omni15omniInitialiserC2Ev @2326
    _ZN4omni15omniNilDynArray12_ptrToObjRefEPKc @2327
    _ZN4omni15omniNilDynArray12get_elementsEv @2328
    _ZN4omni15omniNilDynArray12set_elementsERKN10DynamicAny6AnySeqE @2329
    _ZN4omni15omniNilDynArray23get_elements_as_dyn_anyEv @2330
    _ZN4omni15omniNilDynArray23set_elements_as_dyn_anyERKN10DynamicAny9DynAnySeqE @2331
    _ZN4omni15omniNilDynArrayC1Ev @2332
    _ZN4omni15omniNilDynArrayD0Ev @2333
    _ZN4omni15omniNilDynArrayD1Ev @2334
    _ZN4omni15omniNilDynFixed12_ptrToObjRefEPKc @2335
    _ZN4omni15omniNilDynFixed9get_valueEv @2336
    _ZN4omni15omniNilDynFixed9set_valueEPKc @2337
    _ZN4omni15omniNilDynFixedC1Ev @2338
    _ZN4omni15omniNilDynFixedD0Ev @2339
    _ZN4omni15omniNilDynFixedD1Ev @2340
    _ZN4omni15omniNilDynUnion11member_kindEv @2341
    _ZN4omni15omniNilDynUnion11member_nameEv @2342
    _ZN4omni15omniNilDynUnion12_ptrToObjRefEPKc @2343
    _ZN4omni15omniNilDynUnion17get_discriminatorEv @2344
    _ZN4omni15omniNilDynUnion17set_discriminatorEPN10DynamicAny6DynAnyE @2345
    _ZN4omni15omniNilDynUnion18discriminator_kindEv @2346
    _ZN4omni15omniNilDynUnion20has_no_active_memberEv @2347
    _ZN4omni15omniNilDynUnion21set_to_default_memberEv @2348
    _ZN4omni15omniNilDynUnion23set_to_no_active_memberEv @2349
    _ZN4omni15omniNilDynUnion24is_set_to_default_memberEv @2350
    _ZN4omni15omniNilDynUnion6memberEv @2351
    _ZN4omni15omniNilDynUnionC1Ev @2352
    _ZN4omni15omniNilDynUnionD0Ev @2353
    _ZN4omni15omniNilDynUnionD1Ev @2354
    _ZN4omni15omniNilDynValue11get_membersEv @2355
    _ZN4omni15omniNilDynValue11set_membersERKN10DynamicAny16NameValuePairSeqE @2356
    _ZN4omni15omniNilDynValue11set_to_nullEv @2357
    _ZN4omni15omniNilDynValue12_ptrToObjRefEPKc @2358
    _ZN4omni15omniNilDynValue12set_to_valueEv @2359
    _ZN4omni15omniNilDynValue19current_member_kindEv @2360
    _ZN4omni15omniNilDynValue19current_member_nameEv @2361
    _ZN4omni15omniNilDynValue22get_members_as_dyn_anyEv @2362
    _ZN4omni15omniNilDynValue22set_members_as_dyn_anyERKN10DynamicAny17NameDynAnyPairSeqE @2363
    _ZN4omni15omniNilDynValue7is_nullEv @2364
    _ZN4omni15omniNilDynValueC1Ev @2365
    _ZN4omni15omniNilDynValueD0Ev @2366
    _ZN4omni15omniNilDynValueD1Ev @2367
    _ZN4omni15omniORB_4_1_dynE @2368 DATA
    _ZN4omni16DynAnyConstrBase10_PD_repoIdE @2369 DATA
    _ZN4omni16DynAnyConstrBase10getCurrentEv @2370
    _ZN4omni16DynAnyConstrBase10get_doubleEv @2371
    _ZN4omni16DynAnyConstrBase10get_stringEv @2372
    _ZN4omni16DynAnyConstrBase10get_ushortEv @2373
    _ZN4omni16DynAnyConstrBase10insert_anyERKN5CORBA3AnyE @2374
    _ZN4omni16DynAnyConstrBase10insert_valEPN5CORBA9ValueBaseE @2375
    _ZN4omni16DynAnyConstrBase11currentKindEv @2376
    _ZN4omni16DynAnyConstrBase11get_booleanEv @2377
    _ZN4omni16DynAnyConstrBase11get_dyn_anyEv @2378
    _ZN4omni16DynAnyConstrBase11get_wstringEv @2379
    _ZN4omni16DynAnyConstrBase11insert_charEh @2380
    _ZN4omni16DynAnyConstrBase11insert_longEl @2381
    _ZN4omni16DynAnyConstrBase11readCurrentEN5CORBA6TCKindE @2382
    _ZN4omni16DynAnyConstrBase12get_abstractEv @2383
    _ZN4omni16DynAnyConstrBase12get_char_seqEv @2384
    _ZN4omni16DynAnyConstrBase12get_long_seqEv @2385
    _ZN4omni16DynAnyConstrBase12get_longlongEv @2386
    _ZN4omni16DynAnyConstrBase12get_typecodeEv @2387
    _ZN4omni16DynAnyConstrBase12insert_floatEf @2388
    _ZN4omni16DynAnyConstrBase12insert_octetEh @2389
    _ZN4omni16DynAnyConstrBase12insert_shortEs @2390
    _ZN4omni16DynAnyConstrBase12insert_ulongEm @2391
    _ZN4omni16DynAnyConstrBase12insert_wcharEw @2392
    _ZN4omni16DynAnyConstrBase12writeCurrentEN5CORBA6TCKindE @2393
    _ZN4omni16DynAnyConstrBase13get_float_seqEv @2394
    _ZN4omni16DynAnyConstrBase13get_octet_seqEv @2395
    _ZN4omni16DynAnyConstrBase13get_referenceEv @2396
    _ZN4omni16DynAnyConstrBase13get_short_seqEv @2397
    _ZN4omni16DynAnyConstrBase13get_ulong_seqEv @2398
    _ZN4omni16DynAnyConstrBase13get_ulonglongEv @2399
    _ZN4omni16DynAnyConstrBase13get_wchar_seqEv @2400
    _ZN4omni16DynAnyConstrBase13insert_doubleEd @2401
    _ZN4omni16DynAnyConstrBase13insert_stringEPKc @2402
    _ZN4omni16DynAnyConstrBase13insert_ushortEt @2403
    _ZN4omni16DynAnyConstrBase14get_double_seqEv @2404
    _ZN4omni16DynAnyConstrBase14get_longdoubleEv @2405
    _ZN4omni16DynAnyConstrBase14get_ushort_seqEv @2406
    _ZN4omni16DynAnyConstrBase14insert_booleanEb @2407
    _ZN4omni16DynAnyConstrBase14insert_dyn_anyEPN10DynamicAny6DynAnyE @2408
    _ZN4omni16DynAnyConstrBase14insert_wstringEPKw @2409
    _ZN4omni16DynAnyConstrBase15component_countEv @2410
    _ZN4omni16DynAnyConstrBase15createComponentEj @2411
    _ZN4omni16DynAnyConstrBase15get_boolean_seqEv @2412
    _ZN4omni16DynAnyConstrBase15insert_abstractEPN5CORBA12AbstractBaseE @2413
    _ZN4omni16DynAnyConstrBase15insert_char_seqERN5CORBA7CharSeqE @2414
    _ZN4omni16DynAnyConstrBase15insert_long_seqERN5CORBA7LongSeqE @2415
    _ZN4omni16DynAnyConstrBase15insert_longlongEx @2416
    _ZN4omni16DynAnyConstrBase15insert_typecodeEPN5CORBA8TypeCodeE @2417
    _ZN4omni16DynAnyConstrBase16component_to_anyEjRN5CORBA3AnyE @2418
    _ZN4omni16DynAnyConstrBase16get_longlong_seqEv @2419
    _ZN4omni16DynAnyConstrBase16insert_float_seqERN5CORBA8FloatSeqE @2420
    _ZN4omni16DynAnyConstrBase16insert_octet_seqERN5CORBA8OctetSeqE @2421
    _ZN4omni16DynAnyConstrBase16insert_referenceEPN5CORBA6ObjectE @2422
    _ZN4omni16DynAnyConstrBase16insert_short_seqERN5CORBA8ShortSeqE @2423
    _ZN4omni16DynAnyConstrBase16insert_ulong_seqERN5CORBA8ULongSeqE @2424
    _ZN4omni16DynAnyConstrBase16insert_ulonglongEy @2425
    _ZN4omni16DynAnyConstrBase16insert_wchar_seqERN5CORBA8WCharSeqE @2426
    _ZN4omni16DynAnyConstrBase16setNumComponentsEj @2427
    _ZN4omni16DynAnyConstrBase17current_componentEv @2428
    _ZN4omni16DynAnyConstrBase17get_ulonglong_seqEv @2429
    _ZN4omni16DynAnyConstrBase17insert_double_seqERN5CORBA9DoubleSeqE @2430
    _ZN4omni16DynAnyConstrBase17insert_longdoubleEe @2431
    _ZN4omni16DynAnyConstrBase17insert_ushort_seqERN5CORBA9UShortSeqE @2432
    _ZN4omni16DynAnyConstrBase18component_from_anyEjRKN5CORBA3AnyE @2433
    _ZN4omni16DynAnyConstrBase18get_longdouble_seqEv @2434
    _ZN4omni16DynAnyConstrBase18insert_boolean_seqERN5CORBA10BooleanSeqE @2435
    _ZN4omni16DynAnyConstrBase19insert_longlong_seqERN5CORBA11LongLongSeqE @2436
    _ZN4omni16DynAnyConstrBase20insert_ulonglong_seqERN5CORBA12ULongLongSeqE @2437
    _ZN4omni16DynAnyConstrBase20set_to_initial_valueEv @2438
    _ZN4omni16DynAnyConstrBase21insert_longdouble_seqERN5CORBA13LongDoubleSeqE @2439
    _ZN4omni16DynAnyConstrBase4nextEv @2440
    _ZN4omni16DynAnyConstrBase4seekEl @2441
    _ZN4omni16DynAnyConstrBase5equalEPN10DynamicAny6DynAnyE @2442
    _ZN4omni16DynAnyConstrBase6assignEPN10DynamicAny6DynAnyE @2443
    _ZN4omni16DynAnyConstrBase6rewindEv @2444
    _ZN4omni16DynAnyConstrBase6seekToEj @2445
    _ZN4omni16DynAnyConstrBase7copy_toER18cdrAnyMemoryStream @2446
    _ZN4omni16DynAnyConstrBase7get_anyEv @2447
    _ZN4omni16DynAnyConstrBase7get_valEv @2448
    _ZN4omni16DynAnyConstrBase8get_charEv @2449
    _ZN4omni16DynAnyConstrBase8get_longEv @2450
    _ZN4omni16DynAnyConstrBase9copy_fromER18cdrAnyMemoryStream @2451
    _ZN4omni16DynAnyConstrBase9get_floatEv @2452
    _ZN4omni16DynAnyConstrBase9get_octetEv @2453
    _ZN4omni16DynAnyConstrBase9get_shortEv @2454
    _ZN4omni16DynAnyConstrBase9get_ulongEv @2455
    _ZN4omni16DynAnyConstrBase9get_wcharEv @2456
    _ZN4omni16DynAnyConstrBase9onDisposeEv @2457
    _ZN4omni16DynAnyConstrBaseC1EPNS_13TypeCode_baseEib @2458
    _ZN4omni16DynAnyConstrBaseC2EPNS_13TypeCode_baseEib @2459
    _ZN4omni16DynAnyConstrBaseD0Ev @2460
    _ZN4omni16DynAnyConstrBaseD1Ev @2461
    _ZN4omni16DynAnyConstrBaseD2Ev @2462
    _ZN4omni16DynUnionEnumDisc12_ptrToObjRefEPKc @2463
    _ZN4omni16DynUnionEnumDisc12get_as_ulongEv @2464
    _ZN4omni16DynUnionEnumDisc12set_as_ulongEm @2465
    _ZN4omni16DynUnionEnumDisc13get_as_stringEv @2466
    _ZN4omni16DynUnionEnumDisc13set_as_stringEPKc @2467
    _ZN4omni16DynUnionEnumDisc16_NP_decrRefCountEv @2468
    _ZN4omni16DynUnionEnumDisc16_NP_incrRefCountEv @2469
    _ZN4omni16DynUnionEnumDisc20set_to_initial_valueEv @2470
    _ZN4omni16DynUnionEnumDisc4copyEv @2471
    _ZN4omni16DynUnionEnumDisc9set_valueEy @2472
    _ZN4omni16DynUnionEnumDiscC1EPNS_13TypeCode_baseEPNS_12DynUnionImplE @2473
    _ZN4omni16DynUnionEnumDiscC2EPNS_13TypeCode_baseEPNS_12DynUnionImplE @2474
    _ZN4omni16DynUnionEnumDiscD0Ev @2475
    _ZN4omni16DynUnionEnumDiscD1Ev @2476
    _ZN4omni16DynUnionEnumDiscD2Ev @2477
    _ZN4omni16OutputTableEntryC1EPK14_omni_ValueIdslPS0_ @2478
    _ZN4omni16OutputTableEntryC1EPKN5CORBA9ValueBaseElPS0_ @2479
    _ZN4omni16OutputTableEntryC1EPKclPS0_ @2480
    _ZN4omni16ToDynAnyImplBaseEPN10DynamicAny6DynAnyE @2481
    _ZN4omni16ToTcBase_CheckedEPN5CORBA8TypeCodeE @2482
    _ZN4omni16TypeCode_wstring24NP_unmarshalSimpleParamsER9cdrStreamPNS_20TypeCode_offsetTableE @2483
    _ZN4omni16TypeCode_wstringC1Em @2484
    _ZN4omni16TypeCode_wstringC1Ev @2485
    _ZN4omni16TypeCode_wstringC2Em @2486
    _ZN4omni16TypeCode_wstringC2Ev @2487
    _ZN4omni16TypeCode_wstringD0Ev @2488
    _ZN4omni16TypeCode_wstringD1Ev @2489
    _ZN4omni16TypeCode_wstringD2Ev @2490
    _ZN4omni16omniInterceptorP5visitERNS_16omniInterceptors14createPolicy_T6info_TE @2491
    _ZN4omni16omniInterceptors14createPolicy_T6info_TC1EmRKN5CORBA3AnyERPNS3_6PolicyE @2492
    _ZN4omni16omniNilDynStruct11get_membersEv @2493
    _ZN4omni16omniNilDynStruct11set_membersERKN10DynamicAny16NameValuePairSeqE @2494
    _ZN4omni16omniNilDynStruct12_ptrToObjRefEPKc @2495
    _ZN4omni16omniNilDynStruct19current_member_kindEv @2496
    _ZN4omni16omniNilDynStruct19current_member_nameEv @2497
    _ZN4omni16omniNilDynStruct22get_members_as_dyn_anyEv @2498
    _ZN4omni16omniNilDynStruct22set_members_as_dyn_anyERKN10DynamicAny17NameDynAnyPairSeqE @2499
    _ZN4omni16omniNilDynStructC1Ev @2500
    _ZN4omni16omniNilDynStructD0Ev @2501
    _ZN4omni16omniNilDynStructD1Ev @2502
    _ZN4omni17DynAnyFactoryImpl10theFactoryEv @2503
    _ZN4omni17DynAnyFactoryImpl12_ptrToObjRefEPKc @2504
    _ZN4omni17DynAnyFactoryImpl14create_dyn_anyERKN5CORBA3AnyE @2505
    _ZN4omni17DynAnyFactoryImpl16_NP_decrRefCountEv @2506
    _ZN4omni17DynAnyFactoryImpl16_NP_incrRefCountEv @2507
    _ZN4omni17DynAnyFactoryImpl29create_dyn_any_from_type_codeEPN5CORBA8TypeCodeE @2508
    _ZN4omni17DynAnyFactoryImplC1Ev @2509
    _ZN4omni17DynAnyFactoryImplD0Ev @2510
    _ZN4omni17DynAnyFactoryImplD1Ev @2511
    _ZN4omni17DynAnyFactoryImplD2Ev @2512
    _ZN4omni17ExceptionListImpl11add_consumeEPN5CORBA8TypeCodeE @2513
    _ZN4omni17ExceptionListImpl12NP_duplicateEv @2514
    _ZN4omni17ExceptionListImpl12free_entriesEv @2515
    _ZN4omni17ExceptionListImpl3addEPN5CORBA8TypeCodeE @2516
    _ZN4omni17ExceptionListImpl4itemEm @2517
    _ZN4omni17ExceptionListImpl6removeEm @2518
    _ZN4omni17ExceptionListImplC1Ev @2519
    _ZN4omni17ExceptionListImplC2Ev @2520
    _ZN4omni17ExceptionListImplD0Ev @2521
    _ZN4omni17ExceptionListImplD1Ev @2522
    _ZN4omni17ExceptionListImplD2Ev @2523
    _ZN4omni17InputValueTracker10addRepoIdsEP14_omni_ValueIdsl @2524
    _ZN4omni17InputValueTracker11lookupValueEllN5CORBA16CompletionStatusE @2525
    _ZN4omni17InputValueTracker12lookupRepoIdEllN5CORBA16CompletionStatusE @2526
    _ZN4omni17InputValueTracker13lookupRepoIdsEllN5CORBA16CompletionStatusE @2527
    _ZN4omni17InputValueTracker5validEv @2528
    _ZN4omni17InputValueTracker8PD_MAGICE @2529 DATA
    _ZN4omni17InputValueTracker8addValueEPN5CORBA9ValueBaseEl @2530
    _ZN4omni17InputValueTracker9addRepoIdEPcl @2531
    _ZN4omni17InputValueTrackerC1Ev @2532
    _ZN4omni17InputValueTrackerC2Ev @2533
    _ZN4omni17InputValueTrackerD0Ev @2534
    _ZN4omni17InputValueTrackerD1Ev @2535
    _ZN4omni17InputValueTrackerD2Ev @2536
    _ZN4omni17TypeCode_indirect11NP_resolvedEv @2537
    _ZN4omni17TypeCode_indirect14NP_aliasExpandEPNS_17TypeCode_pairlistE @2538
    _ZN4omni17TypeCode_indirect18NP_containsAnAliasEv @2539
    _ZN4omni17TypeCode_indirect18NP_releaseChildrenEv @2540
    _ZN4omni17TypeCode_indirect19removeOptionalNamesEv @2541
    _ZN4omni17TypeCode_indirect21NP_complete_recursiveEPNS_13TypeCode_baseEPKc @2542
    _ZN4omni17TypeCode_indirect31NP_complete_recursive_sequencesEPNS_13TypeCode_baseEm @2543
    _ZN4omni17TypeCode_indirect5stripEPKNS_13TypeCode_baseE @2544
    _ZN4omni17TypeCode_indirect5stripEPNS_13TypeCode_baseE @2545
    _ZN4omni17TypeCode_indirectC1EPKc @2546
    _ZN4omni17TypeCode_indirectC2EPKc @2547
    _ZN4omni17TypeCode_indirectD0Ev @2548
    _ZN4omni17TypeCode_indirectD1Ev @2549
    _ZN4omni17TypeCode_indirectD2Ev @2550
    _ZN4omni17TypeCode_pairlist6searchEPKS0_PKNS_13TypeCode_baseE @2551
    _ZN4omni17TypeCode_pairlist8containsEPKS0_PKNS_13TypeCode_baseES5_ @2552
    _ZN4omni17TypeCode_pairlistC1EPKS0_PKNS_13TypeCode_baseES5_ @2553
    _ZN4omni17TypeCode_sequence14NP_aliasExpandEPNS_17TypeCode_pairlistE @2554
    _ZN4omni17TypeCode_sequence18NP_containsAnAliasEv @2555
    _ZN4omni17TypeCode_sequence18NP_releaseChildrenEv @2556
    _ZN4omni17TypeCode_sequence19removeOptionalNamesEv @2557
    _ZN4omni17TypeCode_sequence21NP_complete_recursiveEPNS_13TypeCode_baseEPKc @2558
    _ZN4omni17TypeCode_sequence25NP_unmarshalComplexParamsER9cdrStreamPNS_20TypeCode_offsetTableE @2559
    _ZN4omni17TypeCode_sequence31NP_complete_recursive_sequencesEPNS_13TypeCode_baseEm @2560
    _ZN4omni17TypeCode_sequenceC1EmPNS_13TypeCode_baseE @2561
    _ZN4omni17TypeCode_sequenceC1Emm @2562
    _ZN4omni17TypeCode_sequenceC1Ev @2563
    _ZN4omni17TypeCode_sequenceC2EmPNS_13TypeCode_baseE @2564
    _ZN4omni17TypeCode_sequenceC2Emm @2565
    _ZN4omni17TypeCode_sequenceC2Ev @2566
    _ZN4omni17TypeCode_sequenceD0Ev @2567
    _ZN4omni17TypeCode_sequenceD1Ev @2568
    _ZN4omni17TypeCode_sequenceD2Ev @2569
    _ZN4omni17omniServerRequest10set_resultERKN5CORBA3AnyE @2570
    _ZN4omni17omniServerRequest13set_exceptionERKN5CORBA3AnyE @2571
    _ZN4omni17omniServerRequest3ctxEv @2572
    _ZN4omni17omniServerRequest5stateEv @2573
    _ZN4omni17omniServerRequest8calldescEv @2574
    _ZN4omni17omniServerRequest8do_replyEv @2575
    _ZN4omni17omniServerRequest9argumentsERPN5CORBA6NVListE @2576
    _ZN4omni17omniServerRequest9operationEv @2577
    _ZN4omni17omniServerRequestC1ER14omniCallHandle @2578
    _ZN4omni17omniServerRequestC2ER14omniCallHandle @2579
    _ZN4omni17omniServerRequestD0Ev @2580
    _ZN4omni17omniServerRequestD1Ev @2581
    _ZN4omni17omniServerRequestD2Ev @2582
    _ZN4omni17omniTrackedObjectC2Ev @2583
    _ZN4omni17omniTrackedObjectD0Ev @2584
    _ZN4omni17omniTrackedObjectD1Ev @2585
    _ZN4omni17omniTrackedObjectD2Ev @2586
    _ZN4omni18OutputValueTracker10addRepoIdsEPK14_omni_ValueIdsl @2587
    _ZN4omni18OutputValueTracker13inTruncatableEv @2588
    _ZN4omni18OutputValueTracker14endTruncatableEv @2589
    _ZN4omni18OutputValueTracker16startTruncatableEv @2590
    _ZN4omni18OutputValueTracker5validEv @2591
    _ZN4omni18OutputValueTracker8PD_MAGICE @2592 DATA
    _ZN4omni18OutputValueTracker8addValueEPKN5CORBA9ValueBaseEl @2593
    _ZN4omni18OutputValueTracker9addRepoIdEPKcml @2594
    _ZN4omni18OutputValueTrackerC1Ev @2595
    _ZN4omni18OutputValueTrackerC2Ev @2596
    _ZN4omni18OutputValueTrackerD0Ev @2597
    _ZN4omni18OutputValueTrackerD1Ev @2598
    _ZN4omni18OutputValueTrackerD2Ev @2599
    _ZN4omni18ToDynAnyConstrBaseEPN10DynamicAny6DynAnyE @2600
    _ZN4omni18TypeCode_collector10releaseRefEPNS_13TypeCode_baseE @2601
    _ZN4omni18TypeCode_collector12duplicateRefEPNS_13TypeCode_baseE @2602
    _ZN4omni18TypeCode_collector15markLoopMembersEPNS_13TypeCode_baseE @2603
    _ZN4omni18TypeCode_collector17checkInternalRefsEPNS_13TypeCode_baseEm @2604
    _ZN4omni18TypeCode_collector17countInternalRefsEPNS_13TypeCode_baseE @2605
    _ZN4omni18TypeCode_collector9markLoopsEPNS_13TypeCode_baseEm @2606
    _ZN4omni18TypeCode_value_box14NP_aliasExpandEPNS_17TypeCode_pairlistE @2607
    _ZN4omni18TypeCode_value_box18NP_containsAnAliasEv @2608
    _ZN4omni18TypeCode_value_box18NP_releaseChildrenEv @2609
    _ZN4omni18TypeCode_value_box19removeOptionalNamesEv @2610
    _ZN4omni18TypeCode_value_box25NP_unmarshalComplexParamsER9cdrStreamPNS_20TypeCode_offsetTableE @2611
    _ZN4omni18TypeCode_value_boxC1EPKcS2_PNS_13TypeCode_baseE @2612
    _ZN4omni18TypeCode_value_boxC1Ev @2613
    _ZN4omni18TypeCode_value_boxC2EPKcS2_PNS_13TypeCode_baseE @2614
    _ZN4omni18TypeCode_value_boxC2Ev @2615
    _ZN4omni18TypeCode_value_boxD0Ev @2616
    _ZN4omni18TypeCode_value_boxD1Ev @2617
    _ZN4omni18TypeCode_value_boxD2Ev @2618
    _ZN4omni18omniNilDynSequence10get_lengthEv @2619
    _ZN4omni18omniNilDynSequence10set_lengthEm @2620
    _ZN4omni18omniNilDynSequence12_ptrToObjRefEPKc @2621
    _ZN4omni18omniNilDynSequence12get_elementsEv @2622
    _ZN4omni18omniNilDynSequence12set_elementsERKN10DynamicAny6AnySeqE @2623
    _ZN4omni18omniNilDynSequence23get_elements_as_dyn_anyEv @2624
    _ZN4omni18omniNilDynSequence23set_elements_as_dyn_anyERKN10DynamicAny9DynAnySeqE @2625
    _ZN4omni18omniNilDynSequenceC1Ev @2626
    _ZN4omni18omniNilDynSequenceD0Ev @2627
    _ZN4omni18omniNilDynSequenceD1Ev @2628
    _ZN4omni18omniNilDynValueBox11set_to_nullEv @2629
    _ZN4omni18omniNilDynValueBox12_ptrToObjRefEPKc @2630
    _ZN4omni18omniNilDynValueBox12set_to_valueEv @2631
    _ZN4omni18omniNilDynValueBox15get_boxed_valueEv @2632
    _ZN4omni18omniNilDynValueBox15set_boxed_valueERKN5CORBA3AnyE @2633
    _ZN4omni18omniNilDynValueBox26get_boxed_value_as_dyn_anyEv @2634
    _ZN4omni18omniNilDynValueBox26set_boxed_value_as_dyn_anyEPN10DynamicAny6DynAnyE @2635
    _ZN4omni18omniNilDynValueBox7is_nullEv @2636
    _ZN4omni18omniNilDynValueBoxC1Ev @2637
    _ZN4omni18omniNilDynValueBoxD0Ev @2638
    _ZN4omni18omniNilDynValueBoxD1Ev @2639
    _ZN4omni19TypeCodeInitialiser20typecode_initialiserE @2640 DATA
    _ZN4omni19TypeCodeInitialiserC1Ev @2641
    _ZN4omni19TypeCode_alignTable13setNumEntriesEj @2642
    _ZN4omni19TypeCode_alignTable3addERKS0_j @2643
    _ZN4omni19TypeCode_alignTable3setERKS0_ @2644
    _ZN4omni19TypeCode_alignTable8addNastyEPNS_13TypeCode_baseE @2645
    _ZN4omni19TypeCode_alignTable9addSimpleENS_11alignment_tEj @2646
    _ZN4omni19TypeCode_alignTable9new_entryEv @2647
    _ZN4omni19TypeCode_alignTable9set_i_ownEj @2648
    _ZN4omni19TypeCode_alignTableC1Ev @2649
    _ZN4omni19TypeCode_alignTableD1Ev @2650
    _ZN4omni19TypeCode_marshaller13paramListTypeEm @2651
    _ZN4omni19TypeCode_marshaller7marshalEPNS_13TypeCode_baseER9cdrStreamPNS_20TypeCode_offsetTableE @2652
    _ZN4omni19TypeCode_marshaller9unmarshalER9cdrStreamPNS_20TypeCode_offsetTableE @2653
    _ZN4omni20FromAnyUserExceptionC1ERKN5CORBA3AnyEPKc @2654
    _ZN4omni20FromAnyUserExceptionD0Ev @2655
    _ZN4omni20FromAnyUserExceptionD1Ev @2656
    _ZN4omni20TypeCode_offsetTable12lookupOffsetEl @2657
    _ZN4omni20TypeCode_offsetTable13currentOffsetEv @2658
    _ZN4omni20TypeCode_offsetTable14lookupTypeCodeEPKNS_13TypeCode_baseERl @2659
    _ZN4omni20TypeCode_offsetTable8addEntryElPNS_13TypeCode_baseE @2660
    _ZN4omni20TypeCode_offsetTable9setOffsetEl @2661
    _ZN4omni20TypeCode_offsetTableC1EPS0_l @2662
    _ZN4omni20TypeCode_offsetTableC1Ev @2663
    _ZN4omni20TypeCode_offsetTableC2EPS0_l @2664
    _ZN4omni20TypeCode_offsetTableC2Ev @2665
    _ZN4omni20TypeCode_offsetTableD1Ev @2666
    _ZN4omni20TypeCode_offsetTableD2Ev @2667
    _ZN4omni20omniNilDynAnyFactory12_ptrToObjRefEPKc @2668
    _ZN4omni20omniNilDynAnyFactory14create_dyn_anyERKN5CORBA3AnyE @2669
    _ZN4omni20omniNilDynAnyFactory29create_dyn_any_from_type_codeEPN5CORBA8TypeCodeE @2670
    _ZN4omni20omniNilDynAnyFactoryC1Ev @2671
    _ZN4omni20omniNilDynAnyFactoryD0Ev @2672
    _ZN4omni20omniNilDynAnyFactoryD1Ev @2673
    _ZN4omni21ToConstTcBase_CheckedEPKN5CORBA8TypeCodeE @2674
    _ZN4omni21TypeCode_union_helper11insertLabelERN5CORBA3AnyEyPNS1_8TypeCodeE @2675
    _ZN4omni21TypeCode_union_helper12extractLabelERKN5CORBA3AnyEPNS1_8TypeCodeE @2676
    _ZN4omni21TypeCode_union_helper12marshalLabelEyPN5CORBA8TypeCodeER9cdrStream @2677
    _ZN4omni21TypeCode_union_helper14unmarshalLabelEPN5CORBA8TypeCodeER9cdrStream @2678
    _ZN4omni21TypeCode_union_helper20has_implicit_defaultEPNS_13TypeCode_baseE @2679
    _ZN4omni21omniNilDynValueCommon11set_to_nullEv @2680
    _ZN4omni21omniNilDynValueCommon12_ptrToObjRefEPKc @2681
    _ZN4omni21omniNilDynValueCommon12set_to_valueEv @2682
    _ZN4omni21omniNilDynValueCommon7is_nullEv @2683
    _ZN4omni21omniNilDynValueCommonC1Ev @2684
    _ZN4omni21omniNilDynValueCommonD0Ev @2685
    _ZN4omni21omniNilDynValueCommonD1Ev @2686
    _ZN4omni21omniNilTypeCodeHolderC1EPN5CORBA8TypeCodeE @2687
    _ZN4omni21omniNilTypeCodeHolderD0Ev @2688
    _ZN4omni21omniNilTypeCodeHolderD1Ev @2689
    _ZN4omni21poaCurrentStackInsertC1EP18omniCallDescriptorP11omni_thread @2690
    _ZN4omni21poaCurrentStackInsertD1Ev @2691
    _ZN4omni22omniTypeCodeCollection3addEPKcPN5CORBA8TypeCodeE @2692
    _ZN4omni22omniTypeCodeCollection4findEPKc @2693
    _ZN4omni22omniTypeCodeCollection5EntryC1EPKcPN5CORBA8TypeCodeE @2694
    _ZN4omni22omniTypeCodeCollection5EntryD1Ev @2695
    _ZN4omni22omniTypeCodeCollection5trackEPN5CORBA8TypeCodeE @2696
    _ZN4omni22omniTypeCodeCollection6removeEPKcPN5CORBA8TypeCodeE @2697
    _ZN4omni22omniTypeCodeCollection7hash_idEPKc @2698
    _ZN4omni22omniTypeCodeCollectionC1Ev @2699
    _ZN4omni22omniTypeCodeCollectionD0Ev @2700
    _ZN4omni22omniTypeCodeCollectionD1Ev @2701
    _ZN4omni22omniTypeCodeCollectionD2Ev @2702
    _ZN4omni23ValueIndirectionTrackerC2Ev @2703
    _ZN4omni23omni_dynAny_initialiser6attachEv @2704
    _ZN4omni23omni_dynAny_initialiser6detachEv @2705
    _ZN4omni23omni_dynAny_initialiserC1Ev @2706
    _ZN4omni23omni_interface_CallDesc6resultEv @2707
    _ZN4omni23omni_interface_CallDescC1EPKcib @2708
    _ZN4omni23omni_interface_CallDescD1Ev @2709
    _ZN4omni24TypeCode_local_interface25NP_unmarshalComplexParamsER9cdrStreamPNS_20TypeCode_offsetTableE @2710
    _ZN4omni24TypeCode_local_interfaceC1EPKcS2_ @2711
    _ZN4omni24TypeCode_local_interfaceC1Ev @2712
    _ZN4omni24TypeCode_local_interfaceC2EPKcS2_ @2713
    _ZN4omni24TypeCode_local_interfaceC2Ev @2714
    _ZN4omni24TypeCode_local_interfaceD0Ev @2715
    _ZN4omni24TypeCode_local_interfaceD1Ev @2716
    _ZN4omni24TypeCode_local_interfaceD2Ev @2717
    _ZN4omni24omni_dynAny_initialiser_E @2718 DATA
    _ZN4omni25omni_RequestImpl_callDesc13userExceptionER9cdrStreamPNS_5IOP_CEPKc @2719
    _ZN4omni25omni_RequestImpl_callDesc16marshalArgumentsER9cdrStream @2720
    _ZN4omni25omni_RequestImpl_callDesc23unmarshalReturnedValuesER9cdrStream @2721
    _ZN4omni25omni_RequestImpl_callDescC1EPKcjbRNS_11RequestImplE @2722
    _ZN4omni25omni_RequestImpl_callDescD0Ev @2723
    _ZN4omni25omni_RequestImpl_callDescD1Ev @2724
    _ZN4omni26omniDynamicLib_initialiser8instanceE @2725 DATA
    _ZN4omni26omniDynamicLib_initialiserC1Ev @2726
    _ZN4omni27TypeCode_abstract_interface25NP_unmarshalComplexParamsER9cdrStreamPNS_20TypeCode_offsetTableE @2727
    _ZN4omni27TypeCode_abstract_interfaceC1EPKcS2_ @2728
    _ZN4omni27TypeCode_abstract_interfaceC1Ev @2729
    _ZN4omni27TypeCode_abstract_interfaceC2EPKcS2_ @2730
    _ZN4omni27TypeCode_abstract_interfaceC2Ev @2731
    _ZN4omni27TypeCode_abstract_interfaceD0Ev @2732
    _ZN4omni27TypeCode_abstract_interfaceD1Ev @2733
    _ZN4omni27TypeCode_abstract_interfaceD2Ev @2734
    _ZN4omni27serverRequestCallDescriptor18unmarshalArgumentsER9cdrStream @2735
    _ZN4omni27serverRequestCallDescriptor21marshalReturnedValuesER9cdrStream @2736
    _ZN4omni27serverRequestCallDescriptorC1EPKcj @2737
    _ZN4omni27serverRequestCallDescriptorC2EPKcj @2738
    _ZN4omni27serverRequestCallDescriptorD0Ev @2739
    _ZN4omni27serverRequestCallDescriptorD1Ev @2740
    _ZN4omni29omni_valueFactory_initialiser6attachEv @2741
    _ZN4omni29omni_valueFactory_initialiser6detachEv @2742
    _ZN4omni29omni_valueFactory_initialiserC1Ev @2743
    _ZN4omni30omni_valueFactory_initialiser_E @2744 DATA
    _ZN4omni6GIOP_C8downcastEP9cdrStream @2745
    _ZN4omni6GIOP_S8downcastEP9cdrStream @2746
    _ZN4omni8align_toEmNS_11alignment_tE @2747
    _ZN4omni8strMatchEPKcS1_ @2748
    _ZN4omni8tcParser18copyStreamToStreamEPN5CORBA8TypeCodeER9cdrStreamS5_ @2749
    _ZN4omni8tcParser27copyStreamToMemStream_flushEPN5CORBA8TypeCodeER9cdrStreamR18cdrAnyMemoryStream @2750
    _ZN4omni8tcParser28copyMemStreamToStream_rdonlyEPN5CORBA8TypeCodeERK18cdrAnyMemoryStreamR9cdrStream @2751
    _ZN4omni8tcParser4skipEPN5CORBA8TypeCodeER9cdrStream @2752
    _ZN4omni9omniNilNV12NP_duplicateEv @2753
    _ZN4omni9omniNilNVC1Ev @2754
    _ZN4omni9omniNilNVD0Ev @2755
    _ZN4omni9omniNilNVD1Ev @2756
    _ZN56_0RL_insertToAny_Singleton__cCORBA_mUnknownUserExceptionC1Ev @2757
    _ZN59_0RL_insertToAny_Singleton__cPortableServer_mForwardRequestC1Ev @2758
    _ZN5CORBA10BooleanSeqC1ERKS0_ @2759
    _ZN5CORBA10BooleanSeqC1Em @2760
    _ZN5CORBA10BooleanSeqC1Ev @2761
    _ZN5CORBA10BooleanSeqD1Ev @2762
    _ZN5CORBA10INITIALIZEC1ERKS0_ @2763
    _ZN5CORBA10INITIALIZEC1EmNS_16CompletionStatusE @2764
    _ZN5CORBA10INTF_REPOSC1ERKS0_ @2765
    _ZN5CORBA10INTF_REPOSC1EmNS_16CompletionStatusE @2766
    _ZN5CORBA10INV_OBJREFC1ERKS0_ @2767
    _ZN5CORBA10INV_OBJREFC1EmNS_16CompletionStatusE @2768
    _ZN5CORBA10INV_POLICYC1ERKS0_ @2769
    _ZN5CORBA10INV_POLICYC1EmNS_16CompletionStatusE @2770
    _ZN5CORBA10NamedValue10_duplicateEPS0_ @2771
    _ZN5CORBA10NamedValue11PR_is_validEPS0_ @2772
    _ZN5CORBA10NamedValue4_nilEv @2773
    _ZN5CORBA10NamedValue8PR_magicE @2774 DATA
    _ZN5CORBA10NamedValueC2Ev @2775
    _ZN5CORBA10NamedValueD0Ev @2776
    _ZN5CORBA10NamedValueD1Ev @2777
    _ZN5CORBA10NamedValueD2Ev @2778
    _ZN5CORBA10Object_var5_retnEv @2779
    _ZN5CORBA10Object_varC1EPNS_6ObjectE @2780
    _ZN5CORBA10Object_varC1Ev @2781
    _ZN5CORBA10Object_varD1Ev @2782
    _ZN5CORBA10Object_varaSEPNS_6ObjectE @2783
    _ZN5CORBA10Repository10_PD_repoIdE @2784 DATA
    _ZN5CORBA10Repository10_duplicateEPNS_18_objref_RepositoryE @2785
    _ZN5CORBA10Repository14_marshalObjRefEPNS_18_objref_RepositoryER9cdrStream @2786
    _ZN5CORBA10Repository16_unmarshalObjRefER9cdrStream @2787
    _ZN5CORBA10Repository17_unchecked_narrowEPNS_6ObjectE @2788
    _ZN5CORBA10Repository4_nilEv @2789
    _ZN5CORBA10Repository7_narrowEPNS_6ObjectE @2790
    _ZN5CORBA10TypedefDef10_PD_repoIdE @2791 DATA
    _ZN5CORBA10TypedefDef10_duplicateEPNS_18_objref_TypedefDefE @2792
    _ZN5CORBA10TypedefDef14_marshalObjRefEPNS_18_objref_TypedefDefER9cdrStream @2793
    _ZN5CORBA10TypedefDef16_unmarshalObjRefER9cdrStream @2794
    _ZN5CORBA10TypedefDef17_unchecked_narrowEPNS_6ObjectE @2795
    _ZN5CORBA10TypedefDef4_nilEv @2796
    _ZN5CORBA10TypedefDef7_narrowEPNS_6ObjectE @2797
    _ZN5CORBA10WStringSeqC1ERKS0_ @2798
    _ZN5CORBA10WStringSeqC1Ev @2799
    _ZN5CORBA10WStringSeqD1Ev @2800
    _ZN5CORBA10WstringDef10_PD_repoIdE @2801 DATA
    _ZN5CORBA10WstringDef10_duplicateEPNS_18_objref_WstringDefE @2802
    _ZN5CORBA10WstringDef14_marshalObjRefEPNS_18_objref_WstringDefER9cdrStream @2803
    _ZN5CORBA10WstringDef16_unmarshalObjRefER9cdrStream @2804
    _ZN5CORBA10WstringDef17_unchecked_narrowEPNS_6ObjectE @2805
    _ZN5CORBA10WstringDef4_nilEv @2806
    _ZN5CORBA10WstringDef7_narrowEPNS_6ObjectE @2807
    _ZN5CORBA10_tc_AnySeqE @2808 DATA
    _ZN5CORBA10_tc_ObjectE @2809 DATA
    _ZN5CORBA10_tc_REBINDE @2810 DATA
    _ZN5CORBA10_tc_doubleE @2811 DATA
    _ZN5CORBA10_tc_stringE @2812 DATA
    _ZN5CORBA10_tc_ushortE @2813 DATA
    _ZN5CORBA10remove_refEPNS_9ValueBaseE @2814
    _ZN5CORBA11BAD_CONTEXTC1ERKS0_ @2815
    _ZN5CORBA11BAD_CONTEXTC1EmNS_16CompletionStatusE @2816
    _ZN5CORBA11CharSeq_var5_retnEv @2817
    _ZN5CORBA11CharSeq_varC1EPNS_7CharSeqE @2818
    _ZN5CORBA11CharSeq_varD1Ev @2819
    _ZN5CORBA11CharSeq_varptEv @2820
    _ZN5CORBA11ConstantDef10_PD_repoIdE @2821 DATA
    _ZN5CORBA11ConstantDef10_duplicateEPNS_19_objref_ConstantDefE @2822
    _ZN5CORBA11ConstantDef14_marshalObjRefEPNS_19_objref_ConstantDefER9cdrStream @2823
    _ZN5CORBA11ConstantDef16_unmarshalObjRefER9cdrStream @2824
    _ZN5CORBA11ConstantDef17_unchecked_narrowEPNS_6ObjectE @2825
    _ZN5CORBA11ConstantDef4_nilEv @2826
    _ZN5CORBA11ConstantDef7_narrowEPNS_6ObjectE @2827
    _ZN5CORBA11ContextList10_duplicateEPS0_ @2828
    _ZN5CORBA11ContextList11PR_is_validEPS0_ @2829
    _ZN5CORBA11ContextList4_nilEv @2830
    _ZN5CORBA11ContextList6Bounds10_PD_repoIdE @2831 DATA
    _ZN5CORBA11ContextList6Bounds13insertToAnyFnE @2832 DATA
    _ZN5CORBA11ContextList6Bounds16insertToAnyFnNCPE @2833 DATA
    _ZN5CORBA11ContextList6Bounds9_downcastEPKNS_9ExceptionE @2834
    _ZN5CORBA11ContextList6Bounds9_downcastEPNS_9ExceptionE @2835
    _ZN5CORBA11ContextList6BoundsC1ERKS1_ @2836
    _ZN5CORBA11ContextList6BoundsC1Ev @2837
    _ZN5CORBA11ContextList6BoundsD0Ev @2838
    _ZN5CORBA11ContextList6BoundsD1Ev @2839
    _ZN5CORBA11ContextList6BoundsD2Ev @2840
    _ZN5CORBA11ContextList6BoundslSER9cdrStream @2841
    _ZN5CORBA11ContextList8PR_magicE @2842 DATA
    _ZN5CORBA11ContextListC2Ev @2843
    _ZN5CORBA11ContextListD0Ev @2844
    _ZN5CORBA11ContextListD1Ev @2845
    _ZN5CORBA11ContextListD2Ev @2846
    _ZN5CORBA11Environment10_duplicateEPS0_ @2847
    _ZN5CORBA11Environment11PR_is_validEPS0_ @2848
    _ZN5CORBA11Environment12NP_duplicateEv @2849
    _ZN5CORBA11Environment4_nilEv @2850
    _ZN5CORBA11Environment5clearEv @2851
    _ZN5CORBA11Environment8PR_magicE @2852 DATA
    _ZN5CORBA11Environment9exceptionEPNS_9ExceptionE @2853
    _ZN5CORBA11EnvironmentC1Ev @2854
    _ZN5CORBA11EnvironmentC2Ev @2855
    _ZN5CORBA11EnvironmentD0Ev @2856
    _ZN5CORBA11EnvironmentD1Ev @2857
    _ZN5CORBA11EnvironmentD2Ev @2858
    _ZN5CORBA11InitializerC1ERKS0_ @2859
    _ZN5CORBA11InitializerC1Ev @2860
    _ZN5CORBA11InitializerD1Ev @2861
    _ZN5CORBA11InitializeraSERKS0_ @2862
    _ZN5CORBA11InitializerlSER9cdrStream @2863
    _ZN5CORBA11LongLongSeqC1ERKS0_ @2864
    _ZN5CORBA11LongLongSeqC1Em @2865
    _ZN5CORBA11LongLongSeqC1Ev @2866
    _ZN5CORBA11LongLongSeqD1Ev @2867
    _ZN5CORBA11LongSeq_var5_retnEv @2868
    _ZN5CORBA11LongSeq_varC1EPNS_7LongSeqE @2869
    _ZN5CORBA11LongSeq_varD1Ev @2870
    _ZN5CORBA11LongSeq_varptEv @2871
    _ZN5CORBA11NO_RESPONSEC1ERKS0_ @2872
    _ZN5CORBA11NO_RESPONSEC1EmNS_16CompletionStatusE @2873
    _ZN5CORBA11OBJ_ADAPTERC1ERKS0_ @2874
    _ZN5CORBA11OBJ_ADAPTERC1EmNS_16CompletionStatusE @2875
    _ZN5CORBA11PolicyError10_PD_repoIdE @2876 DATA
    _ZN5CORBA11PolicyError13insertToAnyFnE @2877 DATA
    _ZN5CORBA11PolicyError16insertToAnyFnNCPE @2878 DATA
    _ZN5CORBA11PolicyError9_downcastEPKNS_9ExceptionE @2879
    _ZN5CORBA11PolicyError9_downcastEPNS_9ExceptionE @2880
    _ZN5CORBA11PolicyErrorC1ERKS0_ @2881
    _ZN5CORBA11PolicyErrorC1Es @2882
    _ZN5CORBA11PolicyErrorC1Ev @2883
    _ZN5CORBA11PolicyErrorC2ERKS0_ @2884
    _ZN5CORBA11PolicyErrorC2Es @2885
    _ZN5CORBA11PolicyErrorD0Ev @2886
    _ZN5CORBA11PolicyErrorD1Ev @2887
    _ZN5CORBA11PolicyErrorD2Ev @2888
    _ZN5CORBA11PolicyErroraSERKS0_ @2889
    _ZN5CORBA11PolicyErrorlSER9cdrStream @2890
    _ZN5CORBA11SequenceDef10_PD_repoIdE @2891 DATA
    _ZN5CORBA11SequenceDef10_duplicateEPNS_19_objref_SequenceDefE @2892
    _ZN5CORBA11SequenceDef14_marshalObjRefEPNS_19_objref_SequenceDefER9cdrStream @2893
    _ZN5CORBA11SequenceDef16_unmarshalObjRefER9cdrStream @2894
    _ZN5CORBA11SequenceDef17_unchecked_narrowEPNS_6ObjectE @2895
    _ZN5CORBA11SequenceDef4_nilEv @2896
    _ZN5CORBA11SequenceDef7_narrowEPNS_6ObjectE @2897
    _ZN5CORBA11StringValue10_PD_repoIdE @2898 DATA
    _ZN5CORBA11StringValue11_NP_marshalEPS0_R9cdrStream @2899
    _ZN5CORBA11StringValue11_copy_valueEv @2900
    _ZN5CORBA11StringValue11_ptrToValueEPKc @2901
    _ZN5CORBA11StringValue13_NP_unmarshalER9cdrStream @2902
    _ZN5CORBA11StringValue14_PR_copy_stateEPS0_ @2903
    _ZN5CORBA11StringValue19_PR_unmarshal_stateER9cdrStream @2904
    _ZN5CORBA11StringValue9_downcastEPNS_9ValueBaseE @2905
    _ZN5CORBA11StringValueC1Ev @2906
    _ZN5CORBA11StringValueD0Ev @2907
    _ZN5CORBA11StringValueD1Ev @2908
    _ZN5CORBA11StringValueD2Ev @2909
    _ZN5CORBA11UnionMemberC1ERKS0_ @2910
    _ZN5CORBA11UnionMemberC1Ev @2911
    _ZN5CORBA11UnionMemberD1Ev @2912
    _ZN5CORBA11UnionMemberaSERKS0_ @2913
    _ZN5CORBA11UnionMemberlSER9cdrStream @2914
    _ZN5CORBA11ValueBoxDef10_PD_repoIdE @2915 DATA
    _ZN5CORBA11ValueBoxDef10_duplicateEPNS_19_objref_ValueBoxDefE @2916
    _ZN5CORBA11ValueBoxDef14_marshalObjRefEPNS_19_objref_ValueBoxDefER9cdrStream @2917
    _ZN5CORBA11ValueBoxDef16_unmarshalObjRefER9cdrStream @2918
    _ZN5CORBA11ValueBoxDef17_unchecked_narrowEPNS_6ObjectE @2919
    _ZN5CORBA11ValueBoxDef4_nilEv @2920
    _ZN5CORBA11ValueBoxDef7_narrowEPNS_6ObjectE @2921
    _ZN5CORBA11ValueDefSeqC1ERKS0_ @2922
    _ZN5CORBA11ValueDefSeqC1Ev @2923
    _ZN5CORBA11ValueDefSeqD1Ev @2924
    _ZN5CORBA11ValueMemberC1ERKS0_ @2925
    _ZN5CORBA11ValueMemberC1Ev @2926
    _ZN5CORBA11ValueMemberD1Ev @2927
    _ZN5CORBA11ValueMemberaSERKS0_ @2928
    _ZN5CORBA11ValueMemberlSER9cdrStream @2929
    _ZN5CORBA11_tc_BAD_QOSE @2930 DATA
    _ZN5CORBA11_tc_CharSeqE @2931 DATA
    _ZN5CORBA11_tc_EnumDefE @2932 DATA
    _ZN5CORBA11_tc_IDLTypeE @2933 DATA
    _ZN5CORBA11_tc_LongSeqE @2934 DATA
    _ZN5CORBA11_tc_MARSHALE @2935 DATA
    _ZN5CORBA11_tc_TIMEOUTE @2936 DATA
    _ZN5CORBA11_tc_UNKNOWNE @2937 DATA
    _ZN5CORBA11_tc_booleanE @2938 DATA
    _ZN5CORBA11_tc_wstringE @2939 DATA
    _ZN5CORBA12AbstractBase10_PD_repoIdE @2940 DATA
    _ZN5CORBA12AbstractBase10_duplicateEPS0_ @2941
    _ZN5CORBA12AbstractBase10_to_objectEv @2942
    _ZN5CORBA12AbstractBase12_NP_to_valueEv @2943
    _ZN5CORBA12AbstractBase13_NP_to_objectEv @2944
    _ZN5CORBA12AbstractBase4_nilEv @2945
    _ZN5CORBA12AbstractBase7_narrowEPS0_ @2946
    _ZN5CORBA12AbstractBase9_to_valueEv @2947
    _ZN5CORBA12AbstractBaseC1ERKS0_ @2948
    _ZN5CORBA12AbstractBaseC1Ev @2949
    _ZN5CORBA12AbstractBaseC2ERKS0_ @2950
    _ZN5CORBA12AbstractBaseC2Ev @2951
    _ZN5CORBA12AbstractBaseD0Ev @2952
    _ZN5CORBA12AbstractBaseD1Ev @2953
    _ZN5CORBA12AbstractBaseD2Ev @2954
    _ZN5CORBA12AttributeDef10_PD_repoIdE @2955 DATA
    _ZN5CORBA12AttributeDef10_duplicateEPNS_20_objref_AttributeDefE @2956
    _ZN5CORBA12AttributeDef14_marshalObjRefEPNS_20_objref_AttributeDefER9cdrStream @2957
    _ZN5CORBA12AttributeDef16_unmarshalObjRefER9cdrStream @2958
    _ZN5CORBA12AttributeDef17_unchecked_narrowEPNS_6ObjectE @2959
    _ZN5CORBA12AttributeDef4_nilEv @2960
    _ZN5CORBA12AttributeDef7_narrowEPNS_6ObjectE @2961
    _ZN5CORBA12BAD_TYPECODEC1ERKS0_ @2962
    _ZN5CORBA12BAD_TYPECODEC1EmNS_16CompletionStatusE @2963
    _ZN5CORBA12COMM_FAILUREC1ERKS0_ @2964
    _ZN5CORBA12COMM_FAILUREC1EmNS_16CompletionStatusE @2965
    _ZN5CORBA12ContainedSeqC1ERKS0_ @2966
    _ZN5CORBA12ContainedSeqC1Ev @2967
    _ZN5CORBA12ContainedSeqD1Ev @2968
    _ZN5CORBA12ContextIdSeqC1ERKS0_ @2969
    _ZN5CORBA12ContextIdSeqC1Ev @2970
    _ZN5CORBA12ContextIdSeqD1Ev @2971
    _ZN5CORBA12ContextIdSeqaSERKS0_ @2972
    _ZN5CORBA12ExceptionDef10_PD_repoIdE @2973 DATA
    _ZN5CORBA12ExceptionDef10_duplicateEPNS_20_objref_ExceptionDefE @2974
    _ZN5CORBA12ExceptionDef14_marshalObjRefEPNS_20_objref_ExceptionDefER9cdrStream @2975
    _ZN5CORBA12ExceptionDef16_unmarshalObjRefER9cdrStream @2976
    _ZN5CORBA12ExceptionDef17_unchecked_narrowEPNS_6ObjectE @2977
    _ZN5CORBA12ExceptionDef4_nilEv @2978
    _ZN5CORBA12ExceptionDef7_narrowEPNS_6ObjectE @2979
    _ZN5CORBA12FloatSeq_var5_retnEv @2980
    _ZN5CORBA12FloatSeq_varC1EPNS_8FloatSeqE @2981
    _ZN5CORBA12FloatSeq_varD1Ev @2982
    _ZN5CORBA12FloatSeq_varptEv @2983
    _ZN5CORBA12InterfaceDef10_PD_repoIdE @2984 DATA
    _ZN5CORBA12InterfaceDef10_duplicateEPNS_20_objref_InterfaceDefE @2985
    _ZN5CORBA12InterfaceDef14_marshalObjRefEPNS_20_objref_InterfaceDefER9cdrStream @2986
    _ZN5CORBA12InterfaceDef16_unmarshalObjRefER9cdrStream @2987
    _ZN5CORBA12InterfaceDef17_unchecked_narrowEPNS_6ObjectE @2988
    _ZN5CORBA12InterfaceDef24FullInterfaceDescriptionC1ERKS1_ @2989
    _ZN5CORBA12InterfaceDef24FullInterfaceDescriptionC1Ev @2990
    _ZN5CORBA12InterfaceDef24FullInterfaceDescriptionD1Ev @2991
    _ZN5CORBA12InterfaceDef24FullInterfaceDescriptionlSER9cdrStream @2992
    _ZN5CORBA12InterfaceDef28_tc_FullInterfaceDescriptionE @2993 DATA
    _ZN5CORBA12InterfaceDef4_nilEv @2994
    _ZN5CORBA12InterfaceDef7_narrowEPNS_6ObjectE @2995
    _ZN5CORBA12NO_IMPLEMENTC1ERKS0_ @2996
    _ZN5CORBA12NO_IMPLEMENTC1EmNS_16CompletionStatusE @2997
    _ZN5CORBA12NO_RESOURCESC1ERKS0_ @2998
    _ZN5CORBA12NO_RESOURCESC1EmNS_16CompletionStatusE @2999
    _ZN5CORBA12OctetSeq_var5_retnEv @3000
    _ZN5CORBA12OctetSeq_varC1EPNS_8OctetSeqE @3001
    _ZN5CORBA12OctetSeq_varD1Ev @3002
    _ZN5CORBA12OctetSeq_varptEv @3003
    _ZN5CORBA12OperationDef10_PD_repoIdE @3004 DATA
    _ZN5CORBA12OperationDef10_duplicateEPNS_20_objref_OperationDefE @3005
    _ZN5CORBA12OperationDef14_marshalObjRefEPNS_20_objref_OperationDefER9cdrStream @3006
    _ZN5CORBA12OperationDef16_unmarshalObjRefER9cdrStream @3007
    _ZN5CORBA12OperationDef17_unchecked_narrowEPNS_6ObjectE @3008
    _ZN5CORBA12OperationDef4_nilEv @3009
    _ZN5CORBA12OperationDef7_narrowEPNS_6ObjectE @3010
    _ZN5CORBA12PrimitiveDef10_PD_repoIdE @3011 DATA
    _ZN5CORBA12PrimitiveDef10_duplicateEPNS_20_objref_PrimitiveDefE @3012
    _ZN5CORBA12PrimitiveDef14_marshalObjRefEPNS_20_objref_PrimitiveDefER9cdrStream @3013
    _ZN5CORBA12PrimitiveDef16_unmarshalObjRefER9cdrStream @3014
    _ZN5CORBA12PrimitiveDef17_unchecked_narrowEPNS_6ObjectE @3015
    _ZN5CORBA12PrimitiveDef4_nilEv @3016
    _ZN5CORBA12PrimitiveDef7_narrowEPNS_6ObjectE @3017
    _ZN5CORBA12ShortSeq_var5_retnEv @3018
    _ZN5CORBA12ShortSeq_varC1EPNS_8ShortSeqE @3019
    _ZN5CORBA12ShortSeq_varD1Ev @3020
    _ZN5CORBA12ShortSeq_varptEv @3021
    _ZN5CORBA12StructMemberC1ERKS0_ @3022
    _ZN5CORBA12StructMemberC1Ev @3023
    _ZN5CORBA12StructMemberD1Ev @3024
    _ZN5CORBA12StructMemberaSERKS0_ @3025
    _ZN5CORBA12StructMemberlSER9cdrStream @3026
    _ZN5CORBA12TypeCode_var5_retnEv @3027
    _ZN5CORBA12TypeCode_varC1EPNS_8TypeCodeE @3028
    _ZN5CORBA12TypeCode_varC1ERKS0_ @3029
    _ZN5CORBA12TypeCode_varC1Ev @3030
    _ZN5CORBA12TypeCode_varD1Ev @3031
    _ZN5CORBA12TypeCode_varaSEPNS_8TypeCodeE @3032
    _ZN5CORBA12ULongLongSeqC1ERKS0_ @3033
    _ZN5CORBA12ULongLongSeqC1Em @3034
    _ZN5CORBA12ULongLongSeqC1Ev @3035
    _ZN5CORBA12ULongLongSeqD1Ev @3036
    _ZN5CORBA12ULongSeq_var5_retnEv @3037
    _ZN5CORBA12ULongSeq_varC1EPNS_8ULongSeqE @3038
    _ZN5CORBA12ULongSeq_varD1Ev @3039
    _ZN5CORBA12ULongSeq_varptEv @3040
    _ZN5CORBA12WCharSeq_var5_retnEv @3041
    _ZN5CORBA12WCharSeq_varC1EPNS_8WCharSeqE @3042
    _ZN5CORBA12WCharSeq_varD1Ev @3043
    _ZN5CORBA12WCharSeq_varptEv @3044
    _ZN5CORBA12WStringValue10_PD_repoIdE @3045 DATA
    _ZN5CORBA12WStringValue11_NP_marshalEPS0_R9cdrStream @3046
    _ZN5CORBA12WStringValue11_copy_valueEv @3047
    _ZN5CORBA12WStringValue11_ptrToValueEPKc @3048
    _ZN5CORBA12WStringValue13_NP_unmarshalER9cdrStream @3049
    _ZN5CORBA12WStringValue14_PR_copy_stateEPS0_ @3050
    _ZN5CORBA12WStringValue19_PR_unmarshal_stateER9cdrStream @3051
    _ZN5CORBA12WStringValue9_downcastEPNS_9ValueBaseE @3052
    _ZN5CORBA12WStringValueC1Ev @3053
    _ZN5CORBA12WStringValueD0Ev @3054
    _ZN5CORBA12WStringValueD1Ev @3055
    _ZN5CORBA12WStringValueD2Ev @3056
    _ZN5CORBA12_pof_EnumDef9newObjRefEP7omniIORP12omniIdentity @3057
    _ZN5CORBA12_pof_EnumDefC1Ev @3058
    _ZN5CORBA12_pof_EnumDefD0Ev @3059
    _ZN5CORBA12_pof_EnumDefD1Ev @3060
    _ZN5CORBA12_pof_EnumDefD2Ev @3061
    _ZN5CORBA12_pof_IDLType9newObjRefEP7omniIORP12omniIdentity @3062
    _ZN5CORBA12_pof_IDLTypeC1Ev @3063
    _ZN5CORBA12_pof_IDLTypeD0Ev @3064
    _ZN5CORBA12_pof_IDLTypeD1Ev @3065
    _ZN5CORBA12_pof_IDLTypeD2Ev @3066
    _ZN5CORBA12_tc_AliasDefE @3067 DATA
    _ZN5CORBA12_tc_ArrayDefE @3068 DATA
    _ZN5CORBA12_tc_FREE_MEME @3069 DATA
    _ZN5CORBA12_tc_FixedDefE @3070 DATA
    _ZN5CORBA12_tc_FloatSeqE @3071 DATA
    _ZN5CORBA12_tc_INTERNALE @3072 DATA
    _ZN5CORBA12_tc_INV_FLAGE @3073 DATA
    _ZN5CORBA12_tc_IRObjectE @3074 DATA
    _ZN5CORBA12_tc_OctetSeqE @3075 DATA
    _ZN5CORBA12_tc_ShortSeqE @3076 DATA
    _ZN5CORBA12_tc_TypeCodeE @3077 DATA
    _ZN5CORBA12_tc_ULongSeqE @3078 DATA
    _ZN5CORBA12_tc_UnionDefE @3079 DATA
    _ZN5CORBA12_tc_ValueDefE @3080 DATA
    _ZN5CORBA12_tc_WCharSeqE @3081 DATA
    _ZN5CORBA12_tc_longlongE @3082 DATA
    _ZN5CORBA13BAD_INV_ORDERC1ERKS0_ @3083
    _ZN5CORBA13BAD_INV_ORDERC1EmNS_16CompletionStatusE @3084
    _ZN5CORBA13BAD_OPERATIONC1ERKS0_ @3085
    _ZN5CORBA13BAD_OPERATIONC1EmNS_16CompletionStatusE @3086
    _ZN5CORBA13DoubleSeq_var5_retnEv @3087
    _ZN5CORBA13DoubleSeq_varC1EPNS_9DoubleSeqE @3088
    _ZN5CORBA13DoubleSeq_varD1Ev @3089
    _ZN5CORBA13DoubleSeq_varptEv @3090
    _ZN5CORBA13EnumMemberSeqC1ERKS0_ @3091
    _ZN5CORBA13EnumMemberSeqC1Ev @3092
    _ZN5CORBA13EnumMemberSeqD1Ev @3093
    _ZN5CORBA13EnumMemberSeqaSERKS0_ @3094
    _ZN5CORBA13ExceptionList10_duplicateEPS0_ @3095
    _ZN5CORBA13ExceptionList11PR_is_validEPS0_ @3096
    _ZN5CORBA13ExceptionList4_nilEv @3097
    _ZN5CORBA13ExceptionList6Bounds10_PD_repoIdE @3098 DATA
    _ZN5CORBA13ExceptionList6Bounds13insertToAnyFnE @3099 DATA
    _ZN5CORBA13ExceptionList6Bounds16insertToAnyFnNCPE @3100 DATA
    _ZN5CORBA13ExceptionList6Bounds9_downcastEPKNS_9ExceptionE @3101
    _ZN5CORBA13ExceptionList6Bounds9_downcastEPNS_9ExceptionE @3102
    _ZN5CORBA13ExceptionList6BoundsC1ERKS1_ @3103
    _ZN5CORBA13ExceptionList6BoundsC1Ev @3104
    _ZN5CORBA13ExceptionList6BoundsD0Ev @3105
    _ZN5CORBA13ExceptionList6BoundsD1Ev @3106
    _ZN5CORBA13ExceptionList6BoundsD2Ev @3107
    _ZN5CORBA13ExceptionList6BoundslSER9cdrStream @3108
    _ZN5CORBA13ExceptionList8PR_magicE @3109 DATA
    _ZN5CORBA13ExceptionListC2Ev @3110
    _ZN5CORBA13ExceptionListD0Ev @3111
    _ZN5CORBA13ExceptionListD1Ev @3112
    _ZN5CORBA13ExceptionListD2Ev @3113
    _ZN5CORBA13LongDoubleSeqC1ERKS0_ @3114
    _ZN5CORBA13LongDoubleSeqC1Em @3115
    _ZN5CORBA13LongDoubleSeqC1Ev @3116
    _ZN5CORBA13LongDoubleSeqD1Ev @3117
    _ZN5CORBA13NO_PERMISSIONC1ERKS0_ @3118
    _ZN5CORBA13NO_PERMISSIONC1EmNS_16CompletionStatusE @3119
    _ZN5CORBA13Object_MemberC1Ev @3120
    _ZN5CORBA13Object_MemberD1Ev @3121
    _ZN5CORBA13Object_MemberlSER9cdrStream @3122
    _ZN5CORBA13PERSIST_STOREC1ERKS0_ @3123
    _ZN5CORBA13PERSIST_STOREC1EmNS_16CompletionStatusE @3124
    _ZN5CORBA13ServerRequestC2Ev @3125
    _ZN5CORBA13ServerRequestD0Ev @3126
    _ZN5CORBA13ServerRequestD1Ev @3127
    _ZN5CORBA13ServerRequestD2Ev @3128
    _ZN5CORBA13UShortSeq_var5_retnEv @3129
    _ZN5CORBA13UShortSeq_varC1EPNS_9UShortSeqE @3130
    _ZN5CORBA13UShortSeq_varD1Ev @3131
    _ZN5CORBA13UShortSeq_varptEv @3132
    _ZN5CORBA13UserExceptionC2ERKS0_ @3133
    _ZN5CORBA13UserExceptionC2Ev @3134
    _ZN5CORBA13UserExceptionaSERKS0_ @3135
    _ZN5CORBA13ValueBase_var5_retnEv @3136
    _ZN5CORBA13ValueBase_varC1EPNS_9ValueBaseE @3137
    _ZN5CORBA13ValueBase_varD1Ev @3138
    _ZN5CORBA13ValueBase_varaSEPNS_9ValueBaseE @3139
    _ZN5CORBA13_impl_EnumDef15_ptrToInterfaceEPKc @3140
    _ZN5CORBA13_impl_EnumDef18_mostDerivedRepoIdEv @3141
    _ZN5CORBA13_impl_EnumDef9_dispatchER14omniCallHandle @3142
    _ZN5CORBA13_impl_EnumDefD0Ev @3143
    _ZN5CORBA13_impl_EnumDefD1Ev @3144
    _ZN5CORBA13_impl_EnumDefD2Ev @3145
    _ZN5CORBA13_impl_IDLType15_ptrToInterfaceEPKc @3146
    _ZN5CORBA13_impl_IDLType18_mostDerivedRepoIdEv @3147
    _ZN5CORBA13_impl_IDLType9_dispatchER14omniCallHandle @3148
    _ZN5CORBA13_impl_IDLTypeD0Ev @3149
    _ZN5CORBA13_impl_IDLTypeD1Ev @3150
    _ZN5CORBA13_impl_IDLTypeD2Ev @3151
    _ZN5CORBA13_pof_AliasDef9newObjRefEP7omniIORP12omniIdentity @3152
    _ZN5CORBA13_pof_AliasDefC1Ev @3153
    _ZN5CORBA13_pof_AliasDefD0Ev @3154
    _ZN5CORBA13_pof_AliasDefD1Ev @3155
    _ZN5CORBA13_pof_AliasDefD2Ev @3156
    _ZN5CORBA13_pof_ArrayDef9newObjRefEP7omniIORP12omniIdentity @3157
    _ZN5CORBA13_pof_ArrayDefC1Ev @3158
    _ZN5CORBA13_pof_ArrayDefD0Ev @3159
    _ZN5CORBA13_pof_ArrayDefD1Ev @3160
    _ZN5CORBA13_pof_ArrayDefD2Ev @3161
    _ZN5CORBA13_pof_FixedDef9newObjRefEP7omniIORP12omniIdentity @3162
    _ZN5CORBA13_pof_FixedDefC1Ev @3163
    _ZN5CORBA13_pof_FixedDefD0Ev @3164
    _ZN5CORBA13_pof_FixedDefD1Ev @3165
    _ZN5CORBA13_pof_FixedDefD2Ev @3166
    _ZN5CORBA13_pof_IRObject9newObjRefEP7omniIORP12omniIdentity @3167
    _ZN5CORBA13_pof_IRObjectC1Ev @3168
    _ZN5CORBA13_pof_IRObjectD0Ev @3169
    _ZN5CORBA13_pof_IRObjectD1Ev @3170
    _ZN5CORBA13_pof_IRObjectD2Ev @3171
    _ZN5CORBA13_pof_UnionDef9newObjRefEP7omniIORP12omniIdentity @3172
    _ZN5CORBA13_pof_UnionDefC1Ev @3173
    _ZN5CORBA13_pof_UnionDefD0Ev @3174
    _ZN5CORBA13_pof_UnionDefD1Ev @3175
    _ZN5CORBA13_pof_UnionDefD2Ev @3176
    _ZN5CORBA13_pof_ValueDef9newObjRefEP7omniIORP12omniIdentity @3177
    _ZN5CORBA13_pof_ValueDefC1Ev @3178
    _ZN5CORBA13_pof_ValueDefD0Ev @3179
    _ZN5CORBA13_pof_ValueDefD1Ev @3180
    _ZN5CORBA13_pof_ValueDefD2Ev @3181
    _ZN5CORBA13_tc_BAD_PARAME @3182 DATA
    _ZN5CORBA13_tc_ContainedE @3183 DATA
    _ZN5CORBA13_tc_ContainerE @3184 DATA
    _ZN5CORBA13_tc_DoubleSeqE @3185 DATA
    _ZN5CORBA13_tc_IMP_LIMITE @3186 DATA
    _ZN5CORBA13_tc_INV_IDENTE @3187 DATA
    _ZN5CORBA13_tc_ModuleDefE @3188 DATA
    _ZN5CORBA13_tc_NO_MEMORYE @3189 DATA
    _ZN5CORBA13_tc_NativeDefE @3190 DATA
    _ZN5CORBA13_tc_PrincipalE @3191 DATA
    _ZN5CORBA13_tc_StringDefE @3192 DATA
    _ZN5CORBA13_tc_StringSeqE @3193 DATA
    _ZN5CORBA13_tc_StructDefE @3194 DATA
    _ZN5CORBA13_tc_TRANSIENTE @3195 DATA
    _ZN5CORBA13_tc_UShortSeqE @3196 DATA
    _ZN5CORBA13_tc_ulonglongE @3197 DATA
    _ZN5CORBA14BooleanSeq_var5_retnEv @3198
    _ZN5CORBA14BooleanSeq_varC1EPNS_10BooleanSeqE @3199
    _ZN5CORBA14BooleanSeq_varD1Ev @3200
    _ZN5CORBA14BooleanSeq_varptEv @3201
    _ZN5CORBA14EnumDef_Helper13marshalObjRefEPNS_15_objref_EnumDefER9cdrStream @3202
    _ZN5CORBA14EnumDef_Helper15unmarshalObjRefER9cdrStream @3203
    _ZN5CORBA14EnumDef_Helper4_nilEv @3204
    _ZN5CORBA14EnumDef_Helper6is_nilEPNS_15_objref_EnumDefE @3205
    _ZN5CORBA14EnumDef_Helper7releaseEPNS_15_objref_EnumDefE @3206
    _ZN5CORBA14EnumDef_Helper9duplicateEPNS_15_objref_EnumDefE @3207
    _ZN5CORBA14IDLType_Helper13marshalObjRefEPNS_15_objref_IDLTypeER9cdrStream @3208
    _ZN5CORBA14IDLType_Helper15unmarshalObjRefER9cdrStream @3209
    _ZN5CORBA14IDLType_Helper4_nilEv @3210
    _ZN5CORBA14IDLType_Helper6is_nilEPNS_15_objref_IDLTypeE @3211
    _ZN5CORBA14IDLType_Helper7releaseEPNS_15_objref_IDLTypeE @3212
    _ZN5CORBA14IDLType_Helper9duplicateEPNS_15_objref_IDLTypeE @3213
    _ZN5CORBA14InitializerSeqC1ERKS0_ @3214
    _ZN5CORBA14InitializerSeqC1Ev @3215
    _ZN5CORBA14InitializerSeqD1Ev @3216
    _ZN5CORBA14UnionMemberSeqC1ERKS0_ @3217
    _ZN5CORBA14UnionMemberSeqC1Ev @3218
    _ZN5CORBA14UnionMemberSeqD1Ev @3219
    _ZN5CORBA14ValueMemberDef10_PD_repoIdE @3220 DATA
    _ZN5CORBA14ValueMemberDef10_duplicateEPNS_22_objref_ValueMemberDefE @3221
    _ZN5CORBA14ValueMemberDef14_marshalObjRefEPNS_22_objref_ValueMemberDefER9cdrStream @3222
    _ZN5CORBA14ValueMemberDef16_unmarshalObjRefER9cdrStream @3223
    _ZN5CORBA14ValueMemberDef17_unchecked_narrowEPNS_6ObjectE @3224
    _ZN5CORBA14ValueMemberDef4_nilEv @3225
    _ZN5CORBA14ValueMemberDef7_narrowEPNS_6ObjectE @3226
    _ZN5CORBA14ValueMemberSeqC1ERKS0_ @3227
    _ZN5CORBA14ValueMemberSeqC1Ev @3228
    _ZN5CORBA14ValueMemberSeqD1Ev @3229
    _ZN5CORBA14_impl_AliasDef15_ptrToInterfaceEPKc @3230
    _ZN5CORBA14_impl_AliasDef18_mostDerivedRepoIdEv @3231
    _ZN5CORBA14_impl_AliasDef9_dispatchER14omniCallHandle @3232
    _ZN5CORBA14_impl_AliasDefD0Ev @3233
    _ZN5CORBA14_impl_AliasDefD1Ev @3234
    _ZN5CORBA14_impl_AliasDefD2Ev @3235
    _ZN5CORBA14_impl_ArrayDef15_ptrToInterfaceEPKc @3236
    _ZN5CORBA14_impl_ArrayDef18_mostDerivedRepoIdEv @3237
    _ZN5CORBA14_impl_ArrayDef9_dispatchER14omniCallHandle @3238
    _ZN5CORBA14_impl_ArrayDefD0Ev @3239
    _ZN5CORBA14_impl_ArrayDefD1Ev @3240
    _ZN5CORBA14_impl_ArrayDefD2Ev @3241
    _ZN5CORBA14_impl_FixedDef15_ptrToInterfaceEPKc @3242
    _ZN5CORBA14_impl_FixedDef18_mostDerivedRepoIdEv @3243
    _ZN5CORBA14_impl_FixedDef9_dispatchER14omniCallHandle @3244
    _ZN5CORBA14_impl_FixedDefD0Ev @3245
    _ZN5CORBA14_impl_FixedDefD1Ev @3246
    _ZN5CORBA14_impl_FixedDefD2Ev @3247
    _ZN5CORBA14_impl_IRObject15_ptrToInterfaceEPKc @3248
    _ZN5CORBA14_impl_IRObject18_mostDerivedRepoIdEv @3249
    _ZN5CORBA14_impl_IRObject9_dispatchER14omniCallHandle @3250
    _ZN5CORBA14_impl_IRObjectD0Ev @3251
    _ZN5CORBA14_impl_IRObjectD1Ev @3252
    _ZN5CORBA14_impl_IRObjectD2Ev @3253
    _ZN5CORBA14_impl_UnionDef15_ptrToInterfaceEPKc @3254
    _ZN5CORBA14_impl_UnionDef18_mostDerivedRepoIdEv @3255
    _ZN5CORBA14_impl_UnionDef9_dispatchER14omniCallHandle @3256
    _ZN5CORBA14_impl_UnionDefD0Ev @3257
    _ZN5CORBA14_impl_UnionDefD1Ev @3258
    _ZN5CORBA14_impl_UnionDefD2Ev @3259
    _ZN5CORBA14_impl_ValueDef15_ptrToInterfaceEPKc @3260
    _ZN5CORBA14_impl_ValueDef18_mostDerivedRepoIdEv @3261
    _ZN5CORBA14_impl_ValueDef9_dispatchER14omniCallHandle @3262
    _ZN5CORBA14_impl_ValueDefD0Ev @3263
    _ZN5CORBA14_impl_ValueDefD1Ev @3264
    _ZN5CORBA14_impl_ValueDefD2Ev @3265
    _ZN5CORBA14_pof_Contained9newObjRefEP7omniIORP12omniIdentity @3266
    _ZN5CORBA14_pof_ContainedC1Ev @3267
    _ZN5CORBA14_pof_ContainedD0Ev @3268
    _ZN5CORBA14_pof_ContainedD1Ev @3269
    _ZN5CORBA14_pof_ContainedD2Ev @3270
    _ZN5CORBA14_pof_Container9newObjRefEP7omniIORP12omniIdentity @3271
    _ZN5CORBA14_pof_ContainerC1Ev @3272
    _ZN5CORBA14_pof_ContainerD0Ev @3273
    _ZN5CORBA14_pof_ContainerD1Ev @3274
    _ZN5CORBA14_pof_ContainerD2Ev @3275
    _ZN5CORBA14_pof_ModuleDef9newObjRefEP7omniIORP12omniIdentity @3276
    _ZN5CORBA14_pof_ModuleDefC1Ev @3277
    _ZN5CORBA14_pof_ModuleDefD0Ev @3278
    _ZN5CORBA14_pof_ModuleDefD1Ev @3279
    _ZN5CORBA14_pof_ModuleDefD2Ev @3280
    _ZN5CORBA14_pof_NativeDef9newObjRefEP7omniIORP12omniIdentity @3281
    _ZN5CORBA14_pof_NativeDefC1Ev @3282
    _ZN5CORBA14_pof_NativeDefD0Ev @3283
    _ZN5CORBA14_pof_NativeDefD1Ev @3284
    _ZN5CORBA14_pof_NativeDefD2Ev @3285
    _ZN5CORBA14_pof_StringDef9newObjRefEP7omniIORP12omniIdentity @3286
    _ZN5CORBA14_pof_StringDefC1Ev @3287
    _ZN5CORBA14_pof_StringDefD0Ev @3288
    _ZN5CORBA14_pof_StringDefD1Ev @3289
    _ZN5CORBA14_pof_StringDefD2Ev @3290
    _ZN5CORBA14_pof_StructDef9newObjRefEP7omniIORP12omniIdentity @3291
    _ZN5CORBA14_pof_StructDefC1Ev @3292
    _ZN5CORBA14_pof_StructDefD0Ev @3293
    _ZN5CORBA14_pof_StructDefD1Ev @3294
    _ZN5CORBA14_pof_StructDefD2Ev @3295
    _ZN5CORBA14_tc_BooleanSeqE @3296 DATA
    _ZN5CORBA14_tc_INITIALIZEE @3297 DATA
    _ZN5CORBA14_tc_INTF_REPOSE @3298 DATA
    _ZN5CORBA14_tc_INV_OBJREFE @3299 DATA
    _ZN5CORBA14_tc_INV_POLICYE @3300 DATA
    _ZN5CORBA14_tc_IdentifierE @3301 DATA
    _ZN5CORBA14_tc_NamedValueE @3302 DATA
    _ZN5CORBA14_tc_RepositoryE @3303 DATA
    _ZN5CORBA14_tc_ScopedNameE @3304 DATA
    _ZN5CORBA14_tc_TypedefDefE @3305 DATA
    _ZN5CORBA14_tc_VisibilityE @3306 DATA
    _ZN5CORBA14_tc_WStringSeqE @3307 DATA
    _ZN5CORBA14_tc_WstringDefE @3308 DATA
    _ZN5CORBA14_tc_longdoubleE @3309 DATA
    _ZN5CORBA15AliasDef_Helper13marshalObjRefEPNS_16_objref_AliasDefER9cdrStream @3310
    _ZN5CORBA15AliasDef_Helper15unmarshalObjRefER9cdrStream @3311
    _ZN5CORBA15AliasDef_Helper4_nilEv @3312
    _ZN5CORBA15AliasDef_Helper6is_nilEPNS_16_objref_AliasDefE @3313
    _ZN5CORBA15AliasDef_Helper7releaseEPNS_16_objref_AliasDefE @3314
    _ZN5CORBA15AliasDef_Helper9duplicateEPNS_16_objref_AliasDefE @3315
    _ZN5CORBA15ArrayDef_Helper13marshalObjRefEPNS_16_objref_ArrayDefER9cdrStream @3316
    _ZN5CORBA15ArrayDef_Helper15unmarshalObjRefER9cdrStream @3317
    _ZN5CORBA15ArrayDef_Helper4_nilEv @3318
    _ZN5CORBA15ArrayDef_Helper6is_nilEPNS_16_objref_ArrayDefE @3319
    _ZN5CORBA15ArrayDef_Helper7releaseEPNS_16_objref_ArrayDefE @3320
    _ZN5CORBA15ArrayDef_Helper9duplicateEPNS_16_objref_ArrayDefE @3321
    _ZN5CORBA15DATA_CONVERSIONC1ERKS0_ @3322
    _ZN5CORBA15DATA_CONVERSIONC1EmNS_16CompletionStatusE @3323
    _ZN5CORBA15ExceptionDefSeqC1ERKS0_ @3324
    _ZN5CORBA15ExceptionDefSeqC1Ev @3325
    _ZN5CORBA15ExceptionDefSeqD1Ev @3326
    _ZN5CORBA15FixedDef_Helper13marshalObjRefEPNS_16_objref_FixedDefER9cdrStream @3327
    _ZN5CORBA15FixedDef_Helper15unmarshalObjRefER9cdrStream @3328
    _ZN5CORBA15FixedDef_Helper4_nilEv @3329
    _ZN5CORBA15FixedDef_Helper6is_nilEPNS_16_objref_FixedDefE @3330
    _ZN5CORBA15FixedDef_Helper7releaseEPNS_16_objref_FixedDefE @3331
    _ZN5CORBA15FixedDef_Helper9duplicateEPNS_16_objref_FixedDefE @3332
    _ZN5CORBA15IRObject_Helper13marshalObjRefEPNS_16_objref_IRObjectER9cdrStream @3333
    _ZN5CORBA15IRObject_Helper15unmarshalObjRefER9cdrStream @3334
    _ZN5CORBA15IRObject_Helper4_nilEv @3335
    _ZN5CORBA15IRObject_Helper6is_nilEPNS_16_objref_IRObjectE @3336
    _ZN5CORBA15IRObject_Helper7releaseEPNS_16_objref_IRObjectE @3337
    _ZN5CORBA15IRObject_Helper9duplicateEPNS_16_objref_IRObjectE @3338
    _ZN5CORBA15InterfaceDefSeqC1ERKS0_ @3339
    _ZN5CORBA15InterfaceDefSeqC1Ev @3340
    _ZN5CORBA15InterfaceDefSeqD1Ev @3341
    _ZN5CORBA15LongLongSeq_var5_retnEv @3342
    _ZN5CORBA15LongLongSeq_varC1EPNS_11LongLongSeqE @3343
    _ZN5CORBA15LongLongSeq_varD1Ev @3344
    _ZN5CORBA15LongLongSeq_varptEv @3345
    _ZN5CORBA15RepositoryIdSeqC1ERKS0_ @3346
    _ZN5CORBA15RepositoryIdSeqC1Ev @3347
    _ZN5CORBA15RepositoryIdSeqD1Ev @3348
    _ZN5CORBA15StructMemberSeqC1ERKS0_ @3349
    _ZN5CORBA15StructMemberSeqC1Ev @3350
    _ZN5CORBA15StructMemberSeqD1Ev @3351
    _ZN5CORBA15StructMemberSeqaSERKS0_ @3352
    _ZN5CORBA15SystemExceptionC2ERKS0_ @3353
    _ZN5CORBA15SystemExceptionC2EmNS_16CompletionStatusE @3354
    _ZN5CORBA15TypeCode_member3outEv @3355
    _ZN5CORBA15TypeCode_member5_retnEv @3356
    _ZN5CORBA15TypeCode_memberC1ERKS0_ @3357
    _ZN5CORBA15TypeCode_memberC1Ev @3358
    _ZN5CORBA15TypeCode_memberC2ERKS0_ @3359
    _ZN5CORBA15TypeCode_memberC2Ev @3360
    _ZN5CORBA15TypeCode_memberD1Ev @3361
    _ZN5CORBA15TypeCode_memberD2Ev @3362
    _ZN5CORBA15TypeCode_memberaSEPNS_8TypeCodeE @3363
    _ZN5CORBA15TypeCode_memberaSERKNS_12TypeCode_varE @3364
    _ZN5CORBA15TypeCode_memberaSERKS0_ @3365
    _ZN5CORBA15TypeCode_memberlSER9cdrStream @3366
    _ZN5CORBA15TypeDescriptionC1ERKS0_ @3367
    _ZN5CORBA15TypeDescriptionC1Ev @3368
    _ZN5CORBA15TypeDescriptionD1Ev @3369
    _ZN5CORBA15TypeDescriptionlSER9cdrStream @3370
    _ZN5CORBA15UnionDef_Helper13marshalObjRefEPNS_16_objref_UnionDefER9cdrStream @3371
    _ZN5CORBA15UnionDef_Helper15unmarshalObjRefER9cdrStream @3372
    _ZN5CORBA15UnionDef_Helper4_nilEv @3373
    _ZN5CORBA15UnionDef_Helper6is_nilEPNS_16_objref_UnionDefE @3374
    _ZN5CORBA15UnionDef_Helper7releaseEPNS_16_objref_UnionDefE @3375
    _ZN5CORBA15UnionDef_Helper9duplicateEPNS_16_objref_UnionDefE @3376
    _ZN5CORBA15ValueDefSeq_var5_retnEv @3377
    _ZN5CORBA15ValueDefSeq_varC1Ev @3378
    _ZN5CORBA15ValueDefSeq_varD1Ev @3379
    _ZN5CORBA15ValueDefSeq_varaSEPNS_11ValueDefSeqE @3380
    _ZN5CORBA15ValueDef_Helper13marshalObjRefEPNS_16_objref_ValueDefER9cdrStream @3381
    _ZN5CORBA15ValueDef_Helper15unmarshalObjRefER9cdrStream @3382
    _ZN5CORBA15ValueDef_Helper4_nilEv @3383
    _ZN5CORBA15ValueDef_Helper6is_nilEPNS_16_objref_ValueDefE @3384
    _ZN5CORBA15ValueDef_Helper7releaseEPNS_16_objref_ValueDefE @3385
    _ZN5CORBA15ValueDef_Helper9duplicateEPNS_16_objref_ValueDefE @3386
    _ZN5CORBA15_impl_Contained15_ptrToInterfaceEPKc @3387
    _ZN5CORBA15_impl_Contained18_mostDerivedRepoIdEv @3388
    _ZN5CORBA15_impl_Contained9_dispatchER14omniCallHandle @3389
    _ZN5CORBA15_impl_ContainedD0Ev @3390
    _ZN5CORBA15_impl_ContainedD1Ev @3391
    _ZN5CORBA15_impl_ContainedD2Ev @3392
    _ZN5CORBA15_impl_Container15_ptrToInterfaceEPKc @3393
    _ZN5CORBA15_impl_Container18_mostDerivedRepoIdEv @3394
    _ZN5CORBA15_impl_Container9_dispatchER14omniCallHandle @3395
    _ZN5CORBA15_impl_ContainerD0Ev @3396
    _ZN5CORBA15_impl_ContainerD1Ev @3397
    _ZN5CORBA15_impl_ContainerD2Ev @3398
    _ZN5CORBA15_impl_ModuleDef15_ptrToInterfaceEPKc @3399
    _ZN5CORBA15_impl_ModuleDef18_mostDerivedRepoIdEv @3400
    _ZN5CORBA15_impl_ModuleDef9_dispatchER14omniCallHandle @3401
    _ZN5CORBA15_impl_ModuleDefD0Ev @3402
    _ZN5CORBA15_impl_ModuleDefD1Ev @3403
    _ZN5CORBA15_impl_ModuleDefD2Ev @3404
    _ZN5CORBA15_impl_NativeDef15_ptrToInterfaceEPKc @3405
    _ZN5CORBA15_impl_NativeDef18_mostDerivedRepoIdEv @3406
    _ZN5CORBA15_impl_NativeDef9_dispatchER14omniCallHandle @3407
    _ZN5CORBA15_impl_NativeDefD0Ev @3408
    _ZN5CORBA15_impl_NativeDefD1Ev @3409
    _ZN5CORBA15_impl_NativeDefD2Ev @3410
    _ZN5CORBA15_impl_StringDef15_ptrToInterfaceEPKc @3411
    _ZN5CORBA15_impl_StringDef18_mostDerivedRepoIdEv @3412
    _ZN5CORBA15_impl_StringDef9_dispatchER14omniCallHandle @3413
    _ZN5CORBA15_impl_StringDefD0Ev @3414
    _ZN5CORBA15_impl_StringDefD1Ev @3415
    _ZN5CORBA15_impl_StringDefD2Ev @3416
    _ZN5CORBA15_impl_StructDef15_ptrToInterfaceEPKc @3417
    _ZN5CORBA15_impl_StructDef18_mostDerivedRepoIdEv @3418
    _ZN5CORBA15_impl_StructDef9_dispatchER14omniCallHandle @3419
    _ZN5CORBA15_impl_StructDefD0Ev @3420
    _ZN5CORBA15_impl_StructDefD1Ev @3421
    _ZN5CORBA15_impl_StructDefD2Ev @3422
    _ZN5CORBA15_objref_EnumDef12_ptrToObjRefEPKc @3423
    _ZN5CORBA15_objref_EnumDef7membersERKNS_13EnumMemberSeqE @3424
    _ZN5CORBA15_objref_EnumDef7membersEv @3425
    _ZN5CORBA15_objref_EnumDefC1EP7omniIORP12omniIdentity @3426
    _ZN5CORBA15_objref_EnumDefC1Ev @3427
    _ZN5CORBA15_objref_EnumDefC2EP7omniIORP12omniIdentity @3428
    _ZN5CORBA15_objref_EnumDefD0Ev @3429
    _ZN5CORBA15_objref_EnumDefD1Ev @3430
    _ZN5CORBA15_objref_EnumDefD2Ev @3431
    _ZN5CORBA15_objref_IDLType12_ptrToObjRefEPKc @3432
    _ZN5CORBA15_objref_IDLType4typeEv @3433
    _ZN5CORBA15_objref_IDLTypeC1EP7omniIORP12omniIdentity @3434
    _ZN5CORBA15_objref_IDLTypeC1Ev @3435
    _ZN5CORBA15_objref_IDLTypeC2EP7omniIORP12omniIdentity @3436
    _ZN5CORBA15_objref_IDLTypeC2Ev @3437
    _ZN5CORBA15_objref_IDLTypeD0Ev @3438
    _ZN5CORBA15_objref_IDLTypeD1Ev @3439
    _ZN5CORBA15_objref_IDLTypeD2Ev @3440
    _ZN5CORBA15_pof_Repository9newObjRefEP7omniIORP12omniIdentity @3441
    _ZN5CORBA15_pof_RepositoryC1Ev @3442
    _ZN5CORBA15_pof_RepositoryD0Ev @3443
    _ZN5CORBA15_pof_RepositoryD1Ev @3444
    _ZN5CORBA15_pof_RepositoryD2Ev @3445
    _ZN5CORBA15_pof_TypedefDef9newObjRefEP7omniIORP12omniIdentity @3446
    _ZN5CORBA15_pof_TypedefDefC1Ev @3447
    _ZN5CORBA15_pof_TypedefDefD0Ev @3448
    _ZN5CORBA15_pof_TypedefDefD1Ev @3449
    _ZN5CORBA15_pof_TypedefDefD2Ev @3450
    _ZN5CORBA15_pof_WstringDef9newObjRefEP7omniIORP12omniIdentity @3451
    _ZN5CORBA15_pof_WstringDefC1Ev @3452
    _ZN5CORBA15_pof_WstringDefD0Ev @3453
    _ZN5CORBA15_pof_WstringDefD1Ev @3454
    _ZN5CORBA15_pof_WstringDefD2Ev @3455
    _ZN5CORBA15_tc_BAD_CONTEXTE @3456 DATA
    _ZN5CORBA15_tc_ConstantDefE @3457 DATA
    _ZN5CORBA15_tc_InitializerE @3458 DATA
    _ZN5CORBA15_tc_LongLongSeqE @3459 DATA
    _ZN5CORBA15_tc_NO_RESPONSEE @3460 DATA
    _ZN5CORBA15_tc_OBJ_ADAPTERE @3461 DATA
    _ZN5CORBA15_tc_PolicyErrorE @3462 DATA
    _ZN5CORBA15_tc_SequenceDefE @3463 DATA
    _ZN5CORBA15_tc_StringValueE @3464 DATA
    _ZN5CORBA15_tc_UnionMemberE @3465 DATA
    _ZN5CORBA15_tc_ValueBoxDefE @3466 DATA
    _ZN5CORBA15_tc_ValueDefSeqE @3467 DATA
    _ZN5CORBA15_tc_ValueMemberE @3468 DATA
    _ZN5CORBA15_tc_VersionSpecE @3469 DATA
    _ZN5CORBA16ContainedSeq_var5_retnEv @3470
    _ZN5CORBA16ContainedSeq_varC1Ev @3471
    _ZN5CORBA16ContainedSeq_varD1Ev @3472
    _ZN5CORBA16ContainedSeq_varaSEPNS_12ContainedSeqE @3473
    _ZN5CORBA16Contained_Helper13marshalObjRefEPNS_17_objref_ContainedER9cdrStream @3474
    _ZN5CORBA16Contained_Helper15unmarshalObjRefER9cdrStream @3475
    _ZN5CORBA16Contained_Helper4_nilEv @3476
    _ZN5CORBA16Contained_Helper6is_nilEPNS_17_objref_ContainedE @3477
    _ZN5CORBA16Contained_Helper7releaseEPNS_17_objref_ContainedE @3478
    _ZN5CORBA16Contained_Helper9duplicateEPNS_17_objref_ContainedE @3479
    _ZN5CORBA16Container_Helper13marshalObjRefEPNS_17_objref_ContainerER9cdrStream @3480
    _ZN5CORBA16Container_Helper15unmarshalObjRefER9cdrStream @3481
    _ZN5CORBA16Container_Helper4_nilEv @3482
    _ZN5CORBA16Container_Helper6is_nilEPNS_17_objref_ContainerE @3483
    _ZN5CORBA16Container_Helper7releaseEPNS_17_objref_ContainerE @3484
    _ZN5CORBA16Container_Helper9duplicateEPNS_17_objref_ContainerE @3485
    _ZN5CORBA16ContextIdSeq_var5_retnEv @3486
    _ZN5CORBA16ContextIdSeq_varC1Ev @3487
    _ZN5CORBA16ContextIdSeq_varD1Ev @3488
    _ZN5CORBA16ContextIdSeq_varaSEPNS_12ContextIdSeqE @3489
    _ZN5CORBA16ModuleDef_Helper13marshalObjRefEPNS_17_objref_ModuleDefER9cdrStream @3490
    _ZN5CORBA16ModuleDef_Helper15unmarshalObjRefER9cdrStream @3491
    _ZN5CORBA16ModuleDef_Helper4_nilEv @3492
    _ZN5CORBA16ModuleDef_Helper6is_nilEPNS_17_objref_ModuleDefE @3493
    _ZN5CORBA16ModuleDef_Helper7releaseEPNS_17_objref_ModuleDefE @3494
    _ZN5CORBA16ModuleDef_Helper9duplicateEPNS_17_objref_ModuleDefE @3495
    _ZN5CORBA16NativeDef_Helper13marshalObjRefEPNS_17_objref_NativeDefER9cdrStream @3496
    _ZN5CORBA16NativeDef_Helper15unmarshalObjRefER9cdrStream @3497
    _ZN5CORBA16NativeDef_Helper4_nilEv @3498
    _ZN5CORBA16NativeDef_Helper6is_nilEPNS_17_objref_NativeDefE @3499
    _ZN5CORBA16NativeDef_Helper7releaseEPNS_17_objref_NativeDefE @3500
    _ZN5CORBA16NativeDef_Helper9duplicateEPNS_17_objref_NativeDefE @3501
    _ZN5CORBA16OBJECT_NOT_EXISTC1ERKS0_ @3502
    _ZN5CORBA16OBJECT_NOT_EXISTC1EmNS_16CompletionStatusE @3503
    _ZN5CORBA16OpDescriptionSeqC1ERKS0_ @3504
    _ZN5CORBA16OpDescriptionSeqC1Ev @3505
    _ZN5CORBA16OpDescriptionSeqD1Ev @3506
    _ZN5CORBA16StringDef_Helper13marshalObjRefEPNS_17_objref_StringDefER9cdrStream @3507
    _ZN5CORBA16StringDef_Helper15unmarshalObjRefER9cdrStream @3508
    _ZN5CORBA16StringDef_Helper4_nilEv @3509
    _ZN5CORBA16StringDef_Helper6is_nilEPNS_17_objref_StringDefE @3510
    _ZN5CORBA16StringDef_Helper7releaseEPNS_17_objref_StringDefE @3511
    _ZN5CORBA16StringDef_Helper9duplicateEPNS_17_objref_StringDefE @3512
    _ZN5CORBA16StructDef_Helper13marshalObjRefEPNS_17_objref_StructDefER9cdrStream @3513
    _ZN5CORBA16StructDef_Helper15unmarshalObjRefER9cdrStream @3514
    _ZN5CORBA16StructDef_Helper4_nilEv @3515
    _ZN5CORBA16StructDef_Helper6is_nilEPNS_17_objref_StructDefE @3516
    _ZN5CORBA16StructDef_Helper7releaseEPNS_17_objref_StructDefE @3517
    _ZN5CORBA16StructDef_Helper9duplicateEPNS_17_objref_StructDefE @3518
    _ZN5CORBA16TRANSACTION_MODEC1ERKS0_ @3519
    _ZN5CORBA16TRANSACTION_MODEC1EmNS_16CompletionStatusE @3520
    _ZN5CORBA16ULongLongSeq_var5_retnEv @3521
    _ZN5CORBA16ULongLongSeq_varC1EPNS_12ULongLongSeqE @3522
    _ZN5CORBA16ULongLongSeq_varD1Ev @3523
    _ZN5CORBA16ULongLongSeq_varptEv @3524
    _ZN5CORBA16ValueBase_Helper10remove_refEPNS_9ValueBaseE @3525
    _ZN5CORBA16ValueBase_Helper7add_refEPNS_9ValueBaseE @3526
    _ZN5CORBA16ValueDescriptionC1ERKS0_ @3527
    _ZN5CORBA16ValueDescriptionC1Ev @3528
    _ZN5CORBA16ValueDescriptionD1Ev @3529
    _ZN5CORBA16ValueDescriptionlSER9cdrStream @3530
    _ZN5CORBA16ValueFactoryBase11_remove_refEv @3531
    _ZN5CORBA16ValueFactoryBase13_ptrToFactoryEPKc @3532
    _ZN5CORBA16ValueFactoryBase8_add_refEv @3533
    _ZN5CORBA16ValueFactoryBase9_downcastEPS0_ @3534
    _ZN5CORBA16ValueFactoryBaseC1Ev @3535
    _ZN5CORBA16ValueFactoryBaseC2Ev @3536
    _ZN5CORBA16ValueFactoryBaseD0Ev @3537
    _ZN5CORBA16ValueFactoryBaseD1Ev @3538
    _ZN5CORBA16ValueFactoryBaseD2Ev @3539
    _ZN5CORBA16WrongTransaction10_PD_repoIdE @3540 DATA
    _ZN5CORBA16WrongTransaction13insertToAnyFnE @3541 DATA
    _ZN5CORBA16WrongTransaction16insertToAnyFnNCPE @3542 DATA
    _ZN5CORBA16WrongTransaction9_downcastEPKNS_9ExceptionE @3543
    _ZN5CORBA16WrongTransaction9_downcastEPNS_9ExceptionE @3544
    _ZN5CORBA16WrongTransactionC1ERKS0_ @3545
    _ZN5CORBA16WrongTransactionC1Ev @3546
    _ZN5CORBA16WrongTransactionD0Ev @3547
    _ZN5CORBA16WrongTransactionD1Ev @3548
    _ZN5CORBA16WrongTransactionD2Ev @3549
    _ZN5CORBA16WrongTransactionlSER9cdrStream @3550
    _ZN5CORBA16_impl_Repository15_ptrToInterfaceEPKc @3551
    _ZN5CORBA16_impl_Repository18_mostDerivedRepoIdEv @3552
    _ZN5CORBA16_impl_Repository9_dispatchER14omniCallHandle @3553
    _ZN5CORBA16_impl_RepositoryD0Ev @3554
    _ZN5CORBA16_impl_RepositoryD1Ev @3555
    _ZN5CORBA16_impl_RepositoryD2Ev @3556
    _ZN5CORBA16_impl_TypedefDef15_ptrToInterfaceEPKc @3557
    _ZN5CORBA16_impl_TypedefDef18_mostDerivedRepoIdEv @3558
    _ZN5CORBA16_impl_TypedefDef9_dispatchER14omniCallHandle @3559
    _ZN5CORBA16_impl_TypedefDefD0Ev @3560
    _ZN5CORBA16_impl_TypedefDefD1Ev @3561
    _ZN5CORBA16_impl_TypedefDefD2Ev @3562
    _ZN5CORBA16_impl_WstringDef15_ptrToInterfaceEPKc @3563
    _ZN5CORBA16_impl_WstringDef18_mostDerivedRepoIdEv @3564
    _ZN5CORBA16_impl_WstringDef9_dispatchER14omniCallHandle @3565
    _ZN5CORBA16_impl_WstringDefD0Ev @3566
    _ZN5CORBA16_impl_WstringDefD1Ev @3567
    _ZN5CORBA16_impl_WstringDefD2Ev @3568
    _ZN5CORBA16_objref_AliasDef12_ptrToObjRefEPKc @3569
    _ZN5CORBA16_objref_AliasDef17original_type_defEPNS_15_objref_IDLTypeE @3570
    _ZN5CORBA16_objref_AliasDef17original_type_defEv @3571
    _ZN5CORBA16_objref_AliasDefC1EP7omniIORP12omniIdentity @3572
    _ZN5CORBA16_objref_AliasDefC1Ev @3573
    _ZN5CORBA16_objref_AliasDefC2EP7omniIORP12omniIdentity @3574
    _ZN5CORBA16_objref_AliasDefD0Ev @3575
    _ZN5CORBA16_objref_AliasDefD1Ev @3576
    _ZN5CORBA16_objref_AliasDefD2Ev @3577
    _ZN5CORBA16_objref_ArrayDef12_ptrToObjRefEPKc @3578
    _ZN5CORBA16_objref_ArrayDef12element_typeEv @3579
    _ZN5CORBA16_objref_ArrayDef16element_type_defEPNS_15_objref_IDLTypeE @3580
    _ZN5CORBA16_objref_ArrayDef16element_type_defEv @3581
    _ZN5CORBA16_objref_ArrayDef6lengthEm @3582
    _ZN5CORBA16_objref_ArrayDef6lengthEv @3583
    _ZN5CORBA16_objref_ArrayDefC1EP7omniIORP12omniIdentity @3584
    _ZN5CORBA16_objref_ArrayDefC1Ev @3585
    _ZN5CORBA16_objref_ArrayDefC2EP7omniIORP12omniIdentity @3586
    _ZN5CORBA16_objref_ArrayDefD0Ev @3587
    _ZN5CORBA16_objref_ArrayDefD1Ev @3588
    _ZN5CORBA16_objref_ArrayDefD2Ev @3589
    _ZN5CORBA16_objref_FixedDef12_ptrToObjRefEPKc @3590
    _ZN5CORBA16_objref_FixedDef5scaleEs @3591
    _ZN5CORBA16_objref_FixedDef5scaleEv @3592
    _ZN5CORBA16_objref_FixedDef6digitsEt @3593
    _ZN5CORBA16_objref_FixedDef6digitsEv @3594
    _ZN5CORBA16_objref_FixedDefC1EP7omniIORP12omniIdentity @3595
    _ZN5CORBA16_objref_FixedDefC1Ev @3596
    _ZN5CORBA16_objref_FixedDefC2EP7omniIORP12omniIdentity @3597
    _ZN5CORBA16_objref_FixedDefD0Ev @3598
    _ZN5CORBA16_objref_FixedDefD1Ev @3599
    _ZN5CORBA16_objref_FixedDefD2Ev @3600
    _ZN5CORBA16_objref_IRObject12_ptrToObjRefEPKc @3601
    _ZN5CORBA16_objref_IRObject7destroyEv @3602
    _ZN5CORBA16_objref_IRObject8def_kindEv @3603
    _ZN5CORBA16_objref_IRObjectC1EP7omniIORP12omniIdentity @3604
    _ZN5CORBA16_objref_IRObjectC1Ev @3605
    _ZN5CORBA16_objref_IRObjectC2EP7omniIORP12omniIdentity @3606
    _ZN5CORBA16_objref_IRObjectC2Ev @3607
    _ZN5CORBA16_objref_IRObjectD0Ev @3608
    _ZN5CORBA16_objref_IRObjectD1Ev @3609
    _ZN5CORBA16_objref_IRObjectD2Ev @3610
    _ZN5CORBA16_objref_UnionDef12_ptrToObjRefEPKc @3611
    _ZN5CORBA16_objref_UnionDef18discriminator_typeEv @3612
    _ZN5CORBA16_objref_UnionDef22discriminator_type_defEPNS_15_objref_IDLTypeE @3613
    _ZN5CORBA16_objref_UnionDef22discriminator_type_defEv @3614
    _ZN5CORBA16_objref_UnionDef7membersERKNS_14UnionMemberSeqE @3615
    _ZN5CORBA16_objref_UnionDef7membersEv @3616
    _ZN5CORBA16_objref_UnionDefC1EP7omniIORP12omniIdentity @3617
    _ZN5CORBA16_objref_UnionDefC1Ev @3618
    _ZN5CORBA16_objref_UnionDefC2EP7omniIORP12omniIdentity @3619
    _ZN5CORBA16_objref_UnionDefD0Ev @3620
    _ZN5CORBA16_objref_UnionDefD1Ev @3621
    _ZN5CORBA16_objref_UnionDefD2Ev @3622
    _ZN5CORBA16_objref_ValueDef10base_valueEPS0_ @3623
    _ZN5CORBA16_objref_ValueDef10base_valueEv @3624
    _ZN5CORBA16_objref_ValueDef11is_abstractEb @3625
    _ZN5CORBA16_objref_ValueDef11is_abstractEv @3626
    _ZN5CORBA16_objref_ValueDef12_ptrToObjRefEPKc @3627
    _ZN5CORBA16_objref_ValueDef12initializersERKNS_14InitializerSeqE @3628
    _ZN5CORBA16_objref_ValueDef12initializersEv @3629
    _ZN5CORBA16_objref_ValueDef14describe_valueEv @3630
    _ZN5CORBA16_objref_ValueDef14is_truncatableEb @3631
    _ZN5CORBA16_objref_ValueDef14is_truncatableEv @3632
    _ZN5CORBA16_objref_ValueDef16create_attributeEPKcS2_S2_PNS_15_objref_IDLTypeENS_13AttributeModeE @3633
    _ZN5CORBA16_objref_ValueDef16create_operationEPKcS2_S2_PNS_15_objref_IDLTypeENS_13OperationModeERKNS_17ParDescriptionSeqERKNS_15ExceptionDefSeqERKNS_12ContextIdSeqE @3634
    _ZN5CORBA16_objref_ValueDef19create_value_memberEPKcS2_S2_PNS_15_objref_IDLTypeEs @3635
    _ZN5CORBA16_objref_ValueDef20abstract_base_valuesERKNS_11ValueDefSeqE @3636
    _ZN5CORBA16_objref_ValueDef20abstract_base_valuesEv @3637
    _ZN5CORBA16_objref_ValueDef20supported_interfacesERKNS_15InterfaceDefSeqE @3638
    _ZN5CORBA16_objref_ValueDef20supported_interfacesEv @3639
    _ZN5CORBA16_objref_ValueDef4is_aEPKc @3640
    _ZN5CORBA16_objref_ValueDef9is_customEb @3641
    _ZN5CORBA16_objref_ValueDef9is_customEv @3642
    _ZN5CORBA16_objref_ValueDefC1EP7omniIORP12omniIdentity @3643
    _ZN5CORBA16_objref_ValueDefC1Ev @3644
    _ZN5CORBA16_objref_ValueDefC2EP7omniIORP12omniIdentity @3645
    _ZN5CORBA16_objref_ValueDefD0Ev @3646
    _ZN5CORBA16_objref_ValueDefD1Ev @3647
    _ZN5CORBA16_objref_ValueDefD2Ev @3648
    _ZN5CORBA16_pof_ConstantDef9newObjRefEP7omniIORP12omniIdentity @3649
    _ZN5CORBA16_pof_ConstantDefC1Ev @3650
    _ZN5CORBA16_pof_ConstantDefD0Ev @3651
    _ZN5CORBA16_pof_ConstantDefD1Ev @3652
    _ZN5CORBA16_pof_ConstantDefD2Ev @3653
    _ZN5CORBA16_pof_SequenceDef9newObjRefEP7omniIORP12omniIdentity @3654
    _ZN5CORBA16_pof_SequenceDefC1Ev @3655
    _ZN5CORBA16_pof_SequenceDefD0Ev @3656
    _ZN5CORBA16_pof_SequenceDefD1Ev @3657
    _ZN5CORBA16_pof_SequenceDefD2Ev @3658
    _ZN5CORBA16_pof_ValueBoxDef9newObjRefEP7omniIORP12omniIdentity @3659
    _ZN5CORBA16_pof_ValueBoxDefC1Ev @3660
    _ZN5CORBA16_pof_ValueBoxDefD0Ev @3661
    _ZN5CORBA16_pof_ValueBoxDefD1Ev @3662
    _ZN5CORBA16_pof_ValueBoxDefD2Ev @3663
    _ZN5CORBA16_tc_AttributeDefE @3664 DATA
    _ZN5CORBA16_tc_BAD_TYPECODEE @3665 DATA
    _ZN5CORBA16_tc_COMM_FAILUREE @3666 DATA
    _ZN5CORBA16_tc_ContainedSeqE @3667 DATA
    _ZN5CORBA16_tc_ContextIdSeqE @3668 DATA
    _ZN5CORBA16_tc_ExceptionDefE @3669 DATA
    _ZN5CORBA16_tc_InterfaceDefE @3670 DATA
    _ZN5CORBA16_tc_NO_IMPLEMENTE @3671 DATA
    _ZN5CORBA16_tc_NO_RESOURCESE @3672 DATA
    _ZN5CORBA16_tc_OperationDefE @3673 DATA
    _ZN5CORBA16_tc_PrimitiveDefE @3674 DATA
    _ZN5CORBA16_tc_RepositoryIdE @3675 DATA
    _ZN5CORBA16_tc_StructMemberE @3676 DATA
    _ZN5CORBA16_tc_ULongLongSeqE @3677 DATA
    _ZN5CORBA16_tc_WStringValueE @3678 DATA
    _ZN5CORBA17EnumMemberSeq_var5_retnEv @3679
    _ZN5CORBA17EnumMemberSeq_varC1Ev @3680
    _ZN5CORBA17EnumMemberSeq_varD1Ev @3681
    _ZN5CORBA17EnumMemberSeq_varaSEPNS_13EnumMemberSeqE @3682
    _ZN5CORBA17ExcDescriptionSeqC1ERKS0_ @3683
    _ZN5CORBA17ExcDescriptionSeqC1Ev @3684
    _ZN5CORBA17ExcDescriptionSeqD1Ev @3685
    _ZN5CORBA17ExcDescriptionSeqaSERKS0_ @3686
    _ZN5CORBA17LongDoubleSeq_var5_retnEv @3687
    _ZN5CORBA17LongDoubleSeq_varC1EPNS_13LongDoubleSeqE @3688
    _ZN5CORBA17LongDoubleSeq_varD1Ev @3689
    _ZN5CORBA17LongDoubleSeq_varptEv @3690
    _ZN5CORBA17ModuleDescriptionC1ERKS0_ @3691
    _ZN5CORBA17ModuleDescriptionC1Ev @3692
    _ZN5CORBA17ModuleDescriptionD1Ev @3693
    _ZN5CORBA17ModuleDescriptionlSER9cdrStream @3694
    _ZN5CORBA17ParDescriptionSeqC1ERKS0_ @3695
    _ZN5CORBA17ParDescriptionSeqC1Ev @3696
    _ZN5CORBA17ParDescriptionSeqD1Ev @3697
    _ZN5CORBA17ParDescriptionSeqaSERKS0_ @3698
    _ZN5CORBA17Repository_Helper13marshalObjRefEPNS_18_objref_RepositoryER9cdrStream @3699
    _ZN5CORBA17Repository_Helper15unmarshalObjRefER9cdrStream @3700
    _ZN5CORBA17Repository_Helper4_nilEv @3701
    _ZN5CORBA17Repository_Helper6is_nilEPNS_18_objref_RepositoryE @3702
    _ZN5CORBA17Repository_Helper7releaseEPNS_18_objref_RepositoryE @3703
    _ZN5CORBA17Repository_Helper9duplicateEPNS_18_objref_RepositoryE @3704
    _ZN5CORBA17TypedefDef_Helper13marshalObjRefEPNS_18_objref_TypedefDefER9cdrStream @3705
    _ZN5CORBA17TypedefDef_Helper15unmarshalObjRefER9cdrStream @3706
    _ZN5CORBA17TypedefDef_Helper4_nilEv @3707
    _ZN5CORBA17TypedefDef_Helper6is_nilEPNS_18_objref_TypedefDefE @3708
    _ZN5CORBA17TypedefDef_Helper7releaseEPNS_18_objref_TypedefDefE @3709
    _ZN5CORBA17TypedefDef_Helper9duplicateEPNS_18_objref_TypedefDefE @3710
    _ZN5CORBA17WstringDef_Helper13marshalObjRefEPNS_18_objref_WstringDefER9cdrStream @3711
    _ZN5CORBA17WstringDef_Helper15unmarshalObjRefER9cdrStream @3712
    _ZN5CORBA17WstringDef_Helper4_nilEv @3713
    _ZN5CORBA17WstringDef_Helper6is_nilEPNS_18_objref_WstringDefE @3714
    _ZN5CORBA17WstringDef_Helper7releaseEPNS_18_objref_WstringDefE @3715
    _ZN5CORBA17WstringDef_Helper9duplicateEPNS_18_objref_WstringDefE @3716
    _ZN5CORBA17_impl_ConstantDef15_ptrToInterfaceEPKc @3717
    _ZN5CORBA17_impl_ConstantDef18_mostDerivedRepoIdEv @3718
    _ZN5CORBA17_impl_ConstantDef9_dispatchER14omniCallHandle @3719
    _ZN5CORBA17_impl_ConstantDefD0Ev @3720
    _ZN5CORBA17_impl_ConstantDefD1Ev @3721
    _ZN5CORBA17_impl_ConstantDefD2Ev @3722
    _ZN5CORBA17_impl_SequenceDef15_ptrToInterfaceEPKc @3723
    _ZN5CORBA17_impl_SequenceDef18_mostDerivedRepoIdEv @3724
    _ZN5CORBA17_impl_SequenceDef9_dispatchER14omniCallHandle @3725
    _ZN5CORBA17_impl_SequenceDefD0Ev @3726
    _ZN5CORBA17_impl_SequenceDefD1Ev @3727
    _ZN5CORBA17_impl_SequenceDefD2Ev @3728
    _ZN5CORBA17_impl_ValueBoxDef15_ptrToInterfaceEPKc @3729
    _ZN5CORBA17_impl_ValueBoxDef18_mostDerivedRepoIdEv @3730
    _ZN5CORBA17_impl_ValueBoxDef9_dispatchER14omniCallHandle @3731
    _ZN5CORBA17_impl_ValueBoxDefD0Ev @3732
    _ZN5CORBA17_impl_ValueBoxDefD1Ev @3733
    _ZN5CORBA17_impl_ValueBoxDefD2Ev @3734
    _ZN5CORBA17_objref_Contained10defined_inEv @3735
    _ZN5CORBA17_objref_Contained12_ptrToObjRefEPKc @3736
    _ZN5CORBA17_objref_Contained13absolute_nameEv @3737
    _ZN5CORBA17_objref_Contained21containing_repositoryEv @3738
    _ZN5CORBA17_objref_Contained2idEPKc @3739
    _ZN5CORBA17_objref_Contained2idEv @3740
    _ZN5CORBA17_objref_Contained4moveEPNS_17_objref_ContainerEPKcS4_ @3741
    _ZN5CORBA17_objref_Contained4nameEPKc @3742
    _ZN5CORBA17_objref_Contained4nameEv @3743
    _ZN5CORBA17_objref_Contained7versionEPKc @3744
    _ZN5CORBA17_objref_Contained7versionEv @3745
    _ZN5CORBA17_objref_Contained8describeEv @3746
    _ZN5CORBA17_objref_ContainedC1EP7omniIORP12omniIdentity @3747
    _ZN5CORBA17_objref_ContainedC1Ev @3748
    _ZN5CORBA17_objref_ContainedC2EP7omniIORP12omniIdentity @3749
    _ZN5CORBA17_objref_ContainedC2Ev @3750
    _ZN5CORBA17_objref_ContainedD0Ev @3751
    _ZN5CORBA17_objref_ContainedD1Ev @3752
    _ZN5CORBA17_objref_ContainedD2Ev @3753
    _ZN5CORBA17_objref_Container11create_enumEPKcS2_S2_RKNS_13EnumMemberSeqE @3754
    _ZN5CORBA17_objref_Container11lookup_nameEPKclNS_14DefinitionKindEb @3755
    _ZN5CORBA17_objref_Container12_ptrToObjRefEPKc @3756
    _ZN5CORBA17_objref_Container12create_aliasEPKcS2_S2_PNS_15_objref_IDLTypeE @3757
    _ZN5CORBA17_objref_Container12create_unionEPKcS2_S2_PNS_15_objref_IDLTypeERKNS_14UnionMemberSeqE @3758
    _ZN5CORBA17_objref_Container12create_valueEPKcS2_S2_bbPNS_16_objref_ValueDefEbRKNS_11ValueDefSeqERKNS_15InterfaceDefSeqERKNS_14InitializerSeqE @3759
    _ZN5CORBA17_objref_Container13create_moduleEPKcS2_S2_ @3760
    _ZN5CORBA17_objref_Container13create_nativeEPKcS2_S2_ @3761
    _ZN5CORBA17_objref_Container13create_structEPKcS2_S2_RKNS_15StructMemberSeqE @3762
    _ZN5CORBA17_objref_Container15create_constantEPKcS2_S2_PNS_15_objref_IDLTypeERKNS_3AnyE @3763
    _ZN5CORBA17_objref_Container16create_exceptionEPKcS2_S2_RKNS_15StructMemberSeqE @3764
    _ZN5CORBA17_objref_Container16create_interfaceEPKcS2_S2_RKNS_15InterfaceDefSeqE @3765
    _ZN5CORBA17_objref_Container16create_value_boxEPKcS2_S2_PNS_15_objref_IDLTypeE @3766
    _ZN5CORBA17_objref_Container17describe_contentsENS_14DefinitionKindEbl @3767
    _ZN5CORBA17_objref_Container25create_abstract_interfaceEPKcS2_S2_RKNS_23AbstractInterfaceDefSeqE @3768
    _ZN5CORBA17_objref_Container6lookupEPKc @3769
    _ZN5CORBA17_objref_Container8contentsENS_14DefinitionKindEb @3770
    _ZN5CORBA17_objref_ContainerC1EP7omniIORP12omniIdentity @3771
    _ZN5CORBA17_objref_ContainerC1Ev @3772
    _ZN5CORBA17_objref_ContainerC2EP7omniIORP12omniIdentity @3773
    _ZN5CORBA17_objref_ContainerC2Ev @3774
    _ZN5CORBA17_objref_ContainerD0Ev @3775
    _ZN5CORBA17_objref_ContainerD1Ev @3776
    _ZN5CORBA17_objref_ContainerD2Ev @3777
    _ZN5CORBA17_objref_ModuleDef12_ptrToObjRefEPKc @3778
    _ZN5CORBA17_objref_ModuleDefC1EP7omniIORP12omniIdentity @3779
    _ZN5CORBA17_objref_ModuleDefC1Ev @3780
    _ZN5CORBA17_objref_ModuleDefC2EP7omniIORP12omniIdentity @3781
    _ZN5CORBA17_objref_ModuleDefD0Ev @3782
    _ZN5CORBA17_objref_ModuleDefD1Ev @3783
    _ZN5CORBA17_objref_ModuleDefD2Ev @3784
    _ZN5CORBA17_objref_NativeDef12_ptrToObjRefEPKc @3785
    _ZN5CORBA17_objref_NativeDefC1EP7omniIORP12omniIdentity @3786
    _ZN5CORBA17_objref_NativeDefC1Ev @3787
    _ZN5CORBA17_objref_NativeDefC2EP7omniIORP12omniIdentity @3788
    _ZN5CORBA17_objref_NativeDefD0Ev @3789
    _ZN5CORBA17_objref_NativeDefD1Ev @3790
    _ZN5CORBA17_objref_NativeDefD2Ev @3791
    _ZN5CORBA17_objref_StringDef12_ptrToObjRefEPKc @3792
    _ZN5CORBA17_objref_StringDef5boundEm @3793
    _ZN5CORBA17_objref_StringDef5boundEv @3794
    _ZN5CORBA17_objref_StringDefC1EP7omniIORP12omniIdentity @3795
    _ZN5CORBA17_objref_StringDefC1Ev @3796
    _ZN5CORBA17_objref_StringDefC2EP7omniIORP12omniIdentity @3797
    _ZN5CORBA17_objref_StringDefD0Ev @3798
    _ZN5CORBA17_objref_StringDefD1Ev @3799
    _ZN5CORBA17_objref_StringDefD2Ev @3800
    _ZN5CORBA17_objref_StructDef12_ptrToObjRefEPKc @3801
    _ZN5CORBA17_objref_StructDef7membersERKNS_15StructMemberSeqE @3802
    _ZN5CORBA17_objref_StructDef7membersEv @3803
    _ZN5CORBA17_objref_StructDefC1EP7omniIORP12omniIdentity @3804
    _ZN5CORBA17_objref_StructDefC1Ev @3805
    _ZN5CORBA17_objref_StructDefC2EP7omniIORP12omniIdentity @3806
    _ZN5CORBA17_objref_StructDefD0Ev @3807
    _ZN5CORBA17_objref_StructDefD1Ev @3808
    _ZN5CORBA17_objref_StructDefD2Ev @3809
    _ZN5CORBA17_pof_AttributeDef9newObjRefEP7omniIORP12omniIdentity @3810
    _ZN5CORBA17_pof_AttributeDefC1Ev @3811
    _ZN5CORBA17_pof_AttributeDefD0Ev @3812
    _ZN5CORBA17_pof_AttributeDefD1Ev @3813
    _ZN5CORBA17_pof_AttributeDefD2Ev @3814
    _ZN5CORBA17_pof_ExceptionDef9newObjRefEP7omniIORP12omniIdentity @3815
    _ZN5CORBA17_pof_ExceptionDefC1Ev @3816
    _ZN5CORBA17_pof_ExceptionDefD0Ev @3817
    _ZN5CORBA17_pof_ExceptionDefD1Ev @3818
    _ZN5CORBA17_pof_ExceptionDefD2Ev @3819
    _ZN5CORBA17_pof_InterfaceDef9newObjRefEP7omniIORP12omniIdentity @3820
    _ZN5CORBA17_pof_InterfaceDefC1Ev @3821
    _ZN5CORBA17_pof_InterfaceDefD0Ev @3822
    _ZN5CORBA17_pof_InterfaceDefD1Ev @3823
    _ZN5CORBA17_pof_InterfaceDefD2Ev @3824
    _ZN5CORBA17_pof_OperationDef9newObjRefEP7omniIORP12omniIdentity @3825
    _ZN5CORBA17_pof_OperationDefC1Ev @3826
    _ZN5CORBA17_pof_OperationDefD0Ev @3827
    _ZN5CORBA17_pof_OperationDefD1Ev @3828
    _ZN5CORBA17_pof_OperationDefD2Ev @3829
    _ZN5CORBA17_pof_PrimitiveDef9newObjRefEP7omniIORP12omniIdentity @3830
    _ZN5CORBA17_pof_PrimitiveDefC1Ev @3831
    _ZN5CORBA17_pof_PrimitiveDefD0Ev @3832
    _ZN5CORBA17_pof_PrimitiveDefD1Ev @3833
    _ZN5CORBA17_pof_PrimitiveDefD2Ev @3834
    _ZN5CORBA17_tc_AttributeModeE @3835 DATA
    _ZN5CORBA17_tc_BAD_INV_ORDERE @3836 DATA
    _ZN5CORBA17_tc_BAD_OPERATIONE @3837 DATA
    _ZN5CORBA17_tc_EnumMemberSeqE @3838 DATA
    _ZN5CORBA17_tc_LongDoubleSeqE @3839 DATA
    _ZN5CORBA17_tc_NO_PERMISSIONE @3840 DATA
    _ZN5CORBA17_tc_OperationModeE @3841 DATA
    _ZN5CORBA17_tc_PERSIST_STOREE @3842 DATA
    _ZN5CORBA17_tc_ParameterModeE @3843 DATA
    _ZN5CORBA17_tc_PrimitiveKindE @3844 DATA
    _ZN5CORBA18AttrDescriptionSeqC1ERKS0_ @3845
    _ZN5CORBA18AttrDescriptionSeqC1Ev @3846
    _ZN5CORBA18AttrDescriptionSeqD1Ev @3847
    _ZN5CORBA18ConstantDef_Helper13marshalObjRefEPNS_19_objref_ConstantDefER9cdrStream @3848
    _ZN5CORBA18ConstantDef_Helper15unmarshalObjRefER9cdrStream @3849
    _ZN5CORBA18ConstantDef_Helper4_nilEv @3850
    _ZN5CORBA18ConstantDef_Helper6is_nilEPNS_19_objref_ConstantDefE @3851
    _ZN5CORBA18ConstantDef_Helper7releaseEPNS_19_objref_ConstantDefE @3852
    _ZN5CORBA18ConstantDef_Helper9duplicateEPNS_19_objref_ConstantDefE @3853
    _ZN5CORBA18InitializerSeq_var5_retnEv @3854
    _ZN5CORBA18InitializerSeq_varC1Ev @3855
    _ZN5CORBA18InitializerSeq_varD1Ev @3856
    _ZN5CORBA18InitializerSeq_varaSEPNS_14InitializerSeqE @3857
    _ZN5CORBA18SequenceDef_Helper13marshalObjRefEPNS_19_objref_SequenceDefER9cdrStream @3858
    _ZN5CORBA18SequenceDef_Helper15unmarshalObjRefER9cdrStream @3859
    _ZN5CORBA18SequenceDef_Helper4_nilEv @3860
    _ZN5CORBA18SequenceDef_Helper6is_nilEPNS_19_objref_SequenceDefE @3861
    _ZN5CORBA18SequenceDef_Helper7releaseEPNS_19_objref_SequenceDefE @3862
    _ZN5CORBA18SequenceDef_Helper9duplicateEPNS_19_objref_SequenceDefE @3863
    _ZN5CORBA18StringValue_Helper10remove_refEPNS_11StringValueE @3864
    _ZN5CORBA18StringValue_Helper7add_refEPNS_11StringValueE @3865
    _ZN5CORBA18StringValue_Helper7marshalEPNS_11StringValueER9cdrStream @3866
    _ZN5CORBA18StringValue_Helper9unmarshalER9cdrStream @3867
    _ZN5CORBA18UnionMemberSeq_var5_retnEv @3868
    _ZN5CORBA18UnionMemberSeq_varC1Ev @3869
    _ZN5CORBA18UnionMemberSeq_varD1Ev @3870
    _ZN5CORBA18UnionMemberSeq_varaSEPNS_14UnionMemberSeqE @3871
    _ZN5CORBA18ValueBoxDef_Helper13marshalObjRefEPNS_19_objref_ValueBoxDefER9cdrStream @3872
    _ZN5CORBA18ValueBoxDef_Helper15unmarshalObjRefER9cdrStream @3873
    _ZN5CORBA18ValueBoxDef_Helper4_nilEv @3874
    _ZN5CORBA18ValueBoxDef_Helper6is_nilEPNS_19_objref_ValueBoxDefE @3875
    _ZN5CORBA18ValueBoxDef_Helper7releaseEPNS_19_objref_ValueBoxDefE @3876
    _ZN5CORBA18ValueBoxDef_Helper9duplicateEPNS_19_objref_ValueBoxDefE @3877
    _ZN5CORBA18_impl_AttributeDef15_ptrToInterfaceEPKc @3878
    _ZN5CORBA18_impl_AttributeDef18_mostDerivedRepoIdEv @3879
    _ZN5CORBA18_impl_AttributeDef9_dispatchER14omniCallHandle @3880
    _ZN5CORBA18_impl_AttributeDefD0Ev @3881
    _ZN5CORBA18_impl_AttributeDefD1Ev @3882
    _ZN5CORBA18_impl_AttributeDefD2Ev @3883
    _ZN5CORBA18_impl_ExceptionDef15_ptrToInterfaceEPKc @3884
    _ZN5CORBA18_impl_ExceptionDef18_mostDerivedRepoIdEv @3885
    _ZN5CORBA18_impl_ExceptionDef9_dispatchER14omniCallHandle @3886
    _ZN5CORBA18_impl_ExceptionDefD0Ev @3887
    _ZN5CORBA18_impl_ExceptionDefD1Ev @3888
    _ZN5CORBA18_impl_ExceptionDefD2Ev @3889
    _ZN5CORBA18_impl_InterfaceDef15_ptrToInterfaceEPKc @3890
    _ZN5CORBA18_impl_InterfaceDef18_mostDerivedRepoIdEv @3891
    _ZN5CORBA18_impl_InterfaceDef9_dispatchER14omniCallHandle @3892
    _ZN5CORBA18_impl_InterfaceDefD0Ev @3893
    _ZN5CORBA18_impl_InterfaceDefD1Ev @3894
    _ZN5CORBA18_impl_InterfaceDefD2Ev @3895
    _ZN5CORBA18_impl_OperationDef15_ptrToInterfaceEPKc @3896
    _ZN5CORBA18_impl_OperationDef18_mostDerivedRepoIdEv @3897
    _ZN5CORBA18_impl_OperationDef9_dispatchER14omniCallHandle @3898
    _ZN5CORBA18_impl_OperationDefD0Ev @3899
    _ZN5CORBA18_impl_OperationDefD1Ev @3900
    _ZN5CORBA18_impl_OperationDefD2Ev @3901
    _ZN5CORBA18_impl_PrimitiveDef15_ptrToInterfaceEPKc @3902
    _ZN5CORBA18_impl_PrimitiveDef18_mostDerivedRepoIdEv @3903
    _ZN5CORBA18_impl_PrimitiveDef9_dispatchER14omniCallHandle @3904
    _ZN5CORBA18_impl_PrimitiveDefD0Ev @3905
    _ZN5CORBA18_impl_PrimitiveDefD1Ev @3906
    _ZN5CORBA18_impl_PrimitiveDefD2Ev @3907
    _ZN5CORBA18_objref_Repository12_ptrToObjRefEPKc @3908
    _ZN5CORBA18_objref_Repository12create_arrayEmPNS_15_objref_IDLTypeE @3909
    _ZN5CORBA18_objref_Repository12create_fixedEts @3910
    _ZN5CORBA18_objref_Repository13create_stringEm @3911
    _ZN5CORBA18_objref_Repository13get_primitiveENS_13PrimitiveKindE @3912
    _ZN5CORBA18_objref_Repository14create_wstringEm @3913
    _ZN5CORBA18_objref_Repository15create_sequenceEmPNS_15_objref_IDLTypeE @3914
    _ZN5CORBA18_objref_Repository22get_canonical_typecodeEPNS_8TypeCodeE @3915
    _ZN5CORBA18_objref_Repository9lookup_idEPKc @3916
    _ZN5CORBA18_objref_RepositoryC1EP7omniIORP12omniIdentity @3917
    _ZN5CORBA18_objref_RepositoryC1Ev @3918
    _ZN5CORBA18_objref_RepositoryC2EP7omniIORP12omniIdentity @3919
    _ZN5CORBA18_objref_RepositoryD0Ev @3920
    _ZN5CORBA18_objref_RepositoryD1Ev @3921
    _ZN5CORBA18_objref_RepositoryD2Ev @3922
    _ZN5CORBA18_objref_TypedefDef12_ptrToObjRefEPKc @3923
    _ZN5CORBA18_objref_TypedefDefC1EP7omniIORP12omniIdentity @3924
    _ZN5CORBA18_objref_TypedefDefC1Ev @3925
    _ZN5CORBA18_objref_TypedefDefC2EP7omniIORP12omniIdentity @3926
    _ZN5CORBA18_objref_TypedefDefC2Ev @3927
    _ZN5CORBA18_objref_TypedefDefD0Ev @3928
    _ZN5CORBA18_objref_TypedefDefD1Ev @3929
    _ZN5CORBA18_objref_TypedefDefD2Ev @3930
    _ZN5CORBA18_objref_WstringDef12_ptrToObjRefEPKc @3931
    _ZN5CORBA18_objref_WstringDef5boundEm @3932
    _ZN5CORBA18_objref_WstringDef5boundEv @3933
    _ZN5CORBA18_objref_WstringDefC1EP7omniIORP12omniIdentity @3934
    _ZN5CORBA18_objref_WstringDefC1Ev @3935
    _ZN5CORBA18_objref_WstringDefC2EP7omniIORP12omniIdentity @3936
    _ZN5CORBA18_objref_WstringDefD0Ev @3937
    _ZN5CORBA18_objref_WstringDefD1Ev @3938
    _ZN5CORBA18_objref_WstringDefD2Ev @3939
    _ZN5CORBA18_tc_DefinitionKindE @3940 DATA
    _ZN5CORBA18_tc_InitializerSeqE @3941 DATA
    _ZN5CORBA18_tc_UnionMemberSeqE @3942 DATA
    _ZN5CORBA18_tc_ValueMemberDefE @3943 DATA
    _ZN5CORBA18_tc_ValueMemberSeqE @3944 DATA
    _ZN5CORBA19AttributeDef_Helper13marshalObjRefEPNS_20_objref_AttributeDefER9cdrStream @3945
    _ZN5CORBA19AttributeDef_Helper15unmarshalObjRefER9cdrStream @3946
    _ZN5CORBA19AttributeDef_Helper4_nilEv @3947
    _ZN5CORBA19AttributeDef_Helper6is_nilEPNS_20_objref_AttributeDefE @3948
    _ZN5CORBA19AttributeDef_Helper7releaseEPNS_20_objref_AttributeDefE @3949
    _ZN5CORBA19AttributeDef_Helper9duplicateEPNS_20_objref_AttributeDefE @3950
    _ZN5CORBA19ConstantDescriptionC1ERKS0_ @3951
    _ZN5CORBA19ConstantDescriptionC1Ev @3952
    _ZN5CORBA19ConstantDescriptionD1Ev @3953
    _ZN5CORBA19ConstantDescriptionlSER9cdrStream @3954
    _ZN5CORBA19ExceptionDefSeq_var5_retnEv @3955
    _ZN5CORBA19ExceptionDefSeq_varC1Ev @3956
    _ZN5CORBA19ExceptionDefSeq_varD1Ev @3957
    _ZN5CORBA19ExceptionDefSeq_varaSEPNS_15ExceptionDefSeqE @3958
    _ZN5CORBA19ExceptionDef_Helper13marshalObjRefEPNS_20_objref_ExceptionDefER9cdrStream @3959
    _ZN5CORBA19ExceptionDef_Helper15unmarshalObjRefER9cdrStream @3960
    _ZN5CORBA19ExceptionDef_Helper4_nilEv @3961
    _ZN5CORBA19ExceptionDef_Helper6is_nilEPNS_20_objref_ExceptionDefE @3962
    _ZN5CORBA19ExceptionDef_Helper7releaseEPNS_20_objref_ExceptionDefE @3963
    _ZN5CORBA19ExceptionDef_Helper9duplicateEPNS_20_objref_ExceptionDefE @3964
    _ZN5CORBA19INVALID_TRANSACTIONC1ERKS0_ @3965
    _ZN5CORBA19INVALID_TRANSACTIONC1EmNS_16CompletionStatusE @3966
    _ZN5CORBA19InterfaceDefSeq_var5_retnEv @3967
    _ZN5CORBA19InterfaceDefSeq_varC1Ev @3968
    _ZN5CORBA19InterfaceDefSeq_varD1Ev @3969
    _ZN5CORBA19InterfaceDefSeq_varaSEPNS_15InterfaceDefSeqE @3970
    _ZN5CORBA19InterfaceDef_Helper13marshalObjRefEPNS_20_objref_InterfaceDefER9cdrStream @3971
    _ZN5CORBA19InterfaceDef_Helper15unmarshalObjRefER9cdrStream @3972
    _ZN5CORBA19InterfaceDef_Helper4_nilEv @3973
    _ZN5CORBA19InterfaceDef_Helper6is_nilEPNS_20_objref_InterfaceDefE @3974
    _ZN5CORBA19InterfaceDef_Helper7releaseEPNS_20_objref_InterfaceDefE @3975
    _ZN5CORBA19InterfaceDef_Helper9duplicateEPNS_20_objref_InterfaceDefE @3976
    _ZN5CORBA19OperationDef_Helper13marshalObjRefEPNS_20_objref_OperationDefER9cdrStream @3977
    _ZN5CORBA19OperationDef_Helper15unmarshalObjRefER9cdrStream @3978
    _ZN5CORBA19OperationDef_Helper4_nilEv @3979
    _ZN5CORBA19OperationDef_Helper6is_nilEPNS_20_objref_OperationDefE @3980
    _ZN5CORBA19OperationDef_Helper7releaseEPNS_20_objref_OperationDefE @3981
    _ZN5CORBA19OperationDef_Helper9duplicateEPNS_20_objref_OperationDefE @3982
    _ZN5CORBA19PrimitiveDef_Helper13marshalObjRefEPNS_20_objref_PrimitiveDefER9cdrStream @3983
    _ZN5CORBA19PrimitiveDef_Helper15unmarshalObjRefER9cdrStream @3984
    _ZN5CORBA19PrimitiveDef_Helper4_nilEv @3985
    _ZN5CORBA19PrimitiveDef_Helper6is_nilEPNS_20_objref_PrimitiveDefE @3986
    _ZN5CORBA19PrimitiveDef_Helper7releaseEPNS_20_objref_PrimitiveDefE @3987
    _ZN5CORBA19PrimitiveDef_Helper9duplicateEPNS_20_objref_PrimitiveDefE @3988
    _ZN5CORBA19StructMemberSeq_var5_retnEv @3989
    _ZN5CORBA19StructMemberSeq_varC1Ev @3990
    _ZN5CORBA19StructMemberSeq_varD1Ev @3991
    _ZN5CORBA19StructMemberSeq_varaSEPNS_15StructMemberSeqE @3992
    _ZN5CORBA19WStringValue_Helper10remove_refEPNS_12WStringValueE @3993
    _ZN5CORBA19WStringValue_Helper7add_refEPNS_12WStringValueE @3994
    _ZN5CORBA19WStringValue_Helper7marshalEPNS_12WStringValueER9cdrStream @3995
    _ZN5CORBA19WStringValue_Helper9unmarshalER9cdrStream @3996
    _ZN5CORBA19_objref_ConstantDef12_ptrToObjRefEPKc @3997
    _ZN5CORBA19_objref_ConstantDef4typeEv @3998
    _ZN5CORBA19_objref_ConstantDef5valueERKNS_3AnyE @3999
    _ZN5CORBA19_objref_ConstantDef5valueEv @4000
    _ZN5CORBA19_objref_ConstantDef8type_defEPNS_15_objref_IDLTypeE @4001
    _ZN5CORBA19_objref_ConstantDef8type_defEv @4002
    _ZN5CORBA19_objref_ConstantDefC1EP7omniIORP12omniIdentity @4003
    _ZN5CORBA19_objref_ConstantDefC1Ev @4004
    _ZN5CORBA19_objref_ConstantDefC2EP7omniIORP12omniIdentity @4005
    _ZN5CORBA19_objref_ConstantDefD0Ev @4006
    _ZN5CORBA19_objref_ConstantDefD1Ev @4007
    _ZN5CORBA19_objref_ConstantDefD2Ev @4008
    _ZN5CORBA19_objref_SequenceDef12_ptrToObjRefEPKc @4009
    _ZN5CORBA19_objref_SequenceDef12element_typeEv @4010
    _ZN5CORBA19_objref_SequenceDef16element_type_defEPNS_15_objref_IDLTypeE @4011
    _ZN5CORBA19_objref_SequenceDef16element_type_defEv @4012
    _ZN5CORBA19_objref_SequenceDef5boundEm @4013
    _ZN5CORBA19_objref_SequenceDef5boundEv @4014
    _ZN5CORBA19_objref_SequenceDefC1EP7omniIORP12omniIdentity @4015
    _ZN5CORBA19_objref_SequenceDefC1Ev @4016
    _ZN5CORBA19_objref_SequenceDefC2EP7omniIORP12omniIdentity @4017
    _ZN5CORBA19_objref_SequenceDefD0Ev @4018
    _ZN5CORBA19_objref_SequenceDefD1Ev @4019
    _ZN5CORBA19_objref_SequenceDefD2Ev @4020
    _ZN5CORBA19_objref_ValueBoxDef12_ptrToObjRefEPKc @4021
    _ZN5CORBA19_objref_ValueBoxDef17original_type_defEPNS_15_objref_IDLTypeE @4022
    _ZN5CORBA19_objref_ValueBoxDef17original_type_defEv @4023
    _ZN5CORBA19_objref_ValueBoxDefC1EP7omniIORP12omniIdentity @4024
    _ZN5CORBA19_objref_ValueBoxDefC1Ev @4025
    _ZN5CORBA19_objref_ValueBoxDefC2EP7omniIORP12omniIdentity @4026
    _ZN5CORBA19_objref_ValueBoxDefD0Ev @4027
    _ZN5CORBA19_objref_ValueBoxDefD1Ev @4028
    _ZN5CORBA19_objref_ValueBoxDefD2Ev @4029
    _ZN5CORBA19_pof_ValueMemberDef9newObjRefEP7omniIORP12omniIdentity @4030
    _ZN5CORBA19_pof_ValueMemberDefC1Ev @4031
    _ZN5CORBA19_pof_ValueMemberDefD0Ev @4032
    _ZN5CORBA19_pof_ValueMemberDefD1Ev @4033
    _ZN5CORBA19_pof_ValueMemberDefD2Ev @4034
    _ZN5CORBA19_tc_DATA_CONVERSIONE @4035 DATA
    _ZN5CORBA19_tc_ExceptionDefSeqE @4036 DATA
    _ZN5CORBA19_tc_InterfaceDefSeqE @4037 DATA
    _ZN5CORBA19_tc_PolicyErrorCodeE @4038 DATA
    _ZN5CORBA19_tc_RepositoryIdSeqE @4039 DATA
    _ZN5CORBA19_tc_StructMemberSeqE @4040 DATA
    _ZN5CORBA19_tc_TypeDescriptionE @4041 DATA
    _ZN5CORBA20AbstractInterfaceDef10_PD_repoIdE @4042 DATA
    _ZN5CORBA20AbstractInterfaceDef10_duplicateEPNS_28_objref_AbstractInterfaceDefE @4043
    _ZN5CORBA20AbstractInterfaceDef14_marshalObjRefEPNS_28_objref_AbstractInterfaceDefER9cdrStream @4044
    _ZN5CORBA20AbstractInterfaceDef16_unmarshalObjRefER9cdrStream @4045
    _ZN5CORBA20AbstractInterfaceDef17_unchecked_narrowEPNS_6ObjectE @4046
    _ZN5CORBA20AbstractInterfaceDef4_nilEv @4047
    _ZN5CORBA20AbstractInterfaceDef7_narrowEPNS_6ObjectE @4048
    _ZN5CORBA20AttributeDescriptionC1ERKS0_ @4049
    _ZN5CORBA20AttributeDescriptionC1Ev @4050
    _ZN5CORBA20AttributeDescriptionD1Ev @4051
    _ZN5CORBA20AttributeDescriptionaSERKS0_ @4052
    _ZN5CORBA20AttributeDescriptionlSER9cdrStream @4053
    _ZN5CORBA20CODESET_INCOMPATIBLEC1ERKS0_ @4054
    _ZN5CORBA20CODESET_INCOMPATIBLEC1EmNS_16CompletionStatusE @4055
    _ZN5CORBA20ExceptionDescriptionC1ERKS0_ @4056
    _ZN5CORBA20ExceptionDescriptionC1Ev @4057
    _ZN5CORBA20ExceptionDescriptionD1Ev @4058
    _ZN5CORBA20ExceptionDescriptionaSERKS0_ @4059
    _ZN5CORBA20ExceptionDescriptionlSER9cdrStream @4060
    _ZN5CORBA20InterfaceDescriptionC1ERKS0_ @4061
    _ZN5CORBA20InterfaceDescriptionC1Ev @4062
    _ZN5CORBA20InterfaceDescriptionD1Ev @4063
    _ZN5CORBA20InterfaceDescriptionlSER9cdrStream @4064
    _ZN5CORBA20OperationDescriptionC1ERKS0_ @4065
    _ZN5CORBA20OperationDescriptionC1Ev @4066
    _ZN5CORBA20OperationDescriptionD1Ev @4067
    _ZN5CORBA20OperationDescriptionaSERKS0_ @4068
    _ZN5CORBA20OperationDescriptionlSER9cdrStream @4069
    _ZN5CORBA20ParameterDescriptionC1ERKS0_ @4070
    _ZN5CORBA20ParameterDescriptionC1Ev @4071
    _ZN5CORBA20ParameterDescriptionD1Ev @4072
    _ZN5CORBA20ParameterDescriptionaSERKS0_ @4073
    _ZN5CORBA20ParameterDescriptionlSER9cdrStream @4074
    _ZN5CORBA20TRANSACTION_REQUIREDC1ERKS0_ @4075
    _ZN5CORBA20TRANSACTION_REQUIREDC1EmNS_16CompletionStatusE @4076
    _ZN5CORBA20UnknownUserException13insertToAnyFnE @4077 DATA
    _ZN5CORBA20UnknownUserException16insertToAnyFnNCPE @4078 DATA
    _ZN5CORBA20UnknownUserException9_downcastEPKNS_9ExceptionE @4079
    _ZN5CORBA20UnknownUserException9_downcastEPNS_9ExceptionE @4080
    _ZN5CORBA20UnknownUserException9exceptionEv @4081
    _ZN5CORBA20UnknownUserExceptionC1EPNS_3AnyE @4082
    _ZN5CORBA20UnknownUserExceptionC1ERKS0_ @4083
    _ZN5CORBA20UnknownUserExceptionC2EPNS_3AnyE @4084
    _ZN5CORBA20UnknownUserExceptionD0Ev @4085
    _ZN5CORBA20UnknownUserExceptionD1Ev @4086
    _ZN5CORBA20UnknownUserExceptionD2Ev @4087
    _ZN5CORBA20_impl_ValueMemberDef15_ptrToInterfaceEPKc @4088
    _ZN5CORBA20_impl_ValueMemberDef18_mostDerivedRepoIdEv @4089
    _ZN5CORBA20_impl_ValueMemberDef9_dispatchER14omniCallHandle @4090
    _ZN5CORBA20_impl_ValueMemberDefD0Ev @4091
    _ZN5CORBA20_impl_ValueMemberDefD1Ev @4092
    _ZN5CORBA20_impl_ValueMemberDefD2Ev @4093
    _ZN5CORBA20_objref_AttributeDef12_ptrToObjRefEPKc @4094
    _ZN5CORBA20_objref_AttributeDef4modeENS_13AttributeModeE @4095
    _ZN5CORBA20_objref_AttributeDef4modeEv @4096
    _ZN5CORBA20_objref_AttributeDef4typeEv @4097
    _ZN5CORBA20_objref_AttributeDef8type_defEPNS_15_objref_IDLTypeE @4098
    _ZN5CORBA20_objref_AttributeDef8type_defEv @4099
    _ZN5CORBA20_objref_AttributeDefC1EP7omniIORP12omniIdentity @4100
    _ZN5CORBA20_objref_AttributeDefC1Ev @4101
    _ZN5CORBA20_objref_AttributeDefC2EP7omniIORP12omniIdentity @4102
    _ZN5CORBA20_objref_AttributeDefD0Ev @4103
    _ZN5CORBA20_objref_AttributeDefD1Ev @4104
    _ZN5CORBA20_objref_AttributeDefD2Ev @4105
    _ZN5CORBA20_objref_ExceptionDef12_ptrToObjRefEPKc @4106
    _ZN5CORBA20_objref_ExceptionDef4typeEv @4107
    _ZN5CORBA20_objref_ExceptionDef7membersERKNS_15StructMemberSeqE @4108
    _ZN5CORBA20_objref_ExceptionDef7membersEv @4109
    _ZN5CORBA20_objref_ExceptionDefC1EP7omniIORP12omniIdentity @4110
    _ZN5CORBA20_objref_ExceptionDefC1Ev @4111
    _ZN5CORBA20_objref_ExceptionDefC2EP7omniIORP12omniIdentity @4112
    _ZN5CORBA20_objref_ExceptionDefD0Ev @4113
    _ZN5CORBA20_objref_ExceptionDefD1Ev @4114
    _ZN5CORBA20_objref_ExceptionDefD2Ev @4115
    _ZN5CORBA20_objref_InterfaceDef12_ptrToObjRefEPKc @4116
    _ZN5CORBA20_objref_InterfaceDef15base_interfacesERKNS_15InterfaceDefSeqE @4117
    _ZN5CORBA20_objref_InterfaceDef15base_interfacesEv @4118
    _ZN5CORBA20_objref_InterfaceDef16create_attributeEPKcS2_S2_PNS_15_objref_IDLTypeENS_13AttributeModeE @4119
    _ZN5CORBA20_objref_InterfaceDef16create_operationEPKcS2_S2_PNS_15_objref_IDLTypeENS_13OperationModeERKNS_17ParDescriptionSeqERKNS_15ExceptionDefSeqERKNS_12ContextIdSeqE @4120
    _ZN5CORBA20_objref_InterfaceDef18describe_interfaceEv @4121
    _ZN5CORBA20_objref_InterfaceDef4is_aEPKc @4122
    _ZN5CORBA20_objref_InterfaceDefC1EP7omniIORP12omniIdentity @4123
    _ZN5CORBA20_objref_InterfaceDefC1Ev @4124
    _ZN5CORBA20_objref_InterfaceDefC2EP7omniIORP12omniIdentity @4125
    _ZN5CORBA20_objref_InterfaceDefC2Ev @4126
    _ZN5CORBA20_objref_InterfaceDefD0Ev @4127
    _ZN5CORBA20_objref_InterfaceDefD1Ev @4128
    _ZN5CORBA20_objref_InterfaceDefD2Ev @4129
    _ZN5CORBA20_objref_OperationDef10exceptionsERKNS_15ExceptionDefSeqE @4130
    _ZN5CORBA20_objref_OperationDef10exceptionsEv @4131
    _ZN5CORBA20_objref_OperationDef10result_defEPNS_15_objref_IDLTypeE @4132
    _ZN5CORBA20_objref_OperationDef10result_defEv @4133
    _ZN5CORBA20_objref_OperationDef12_ptrToObjRefEPKc @4134
    _ZN5CORBA20_objref_OperationDef4modeENS_13OperationModeE @4135
    _ZN5CORBA20_objref_OperationDef4modeEv @4136
    _ZN5CORBA20_objref_OperationDef6paramsERKNS_17ParDescriptionSeqE @4137
    _ZN5CORBA20_objref_OperationDef6paramsEv @4138
    _ZN5CORBA20_objref_OperationDef6resultEv @4139
    _ZN5CORBA20_objref_OperationDef8contextsERKNS_12ContextIdSeqE @4140
    _ZN5CORBA20_objref_OperationDef8contextsEv @4141
    _ZN5CORBA20_objref_OperationDefC1EP7omniIORP12omniIdentity @4142
    _ZN5CORBA20_objref_OperationDefC1Ev @4143
    _ZN5CORBA20_objref_OperationDefC2EP7omniIORP12omniIdentity @4144
    _ZN5CORBA20_objref_OperationDefD0Ev @4145
    _ZN5CORBA20_objref_OperationDefD1Ev @4146
    _ZN5CORBA20_objref_OperationDefD2Ev @4147
    _ZN5CORBA20_objref_PrimitiveDef12_ptrToObjRefEPKc @4148
    _ZN5CORBA20_objref_PrimitiveDef4kindEv @4149
    _ZN5CORBA20_objref_PrimitiveDefC1EP7omniIORP12omniIdentity @4150
    _ZN5CORBA20_objref_PrimitiveDefC1Ev @4151
    _ZN5CORBA20_objref_PrimitiveDefC2EP7omniIORP12omniIdentity @4152
    _ZN5CORBA20_objref_PrimitiveDefD0Ev @4153
    _ZN5CORBA20_objref_PrimitiveDefD1Ev @4154
    _ZN5CORBA20_objref_PrimitiveDefD2Ev @4155
    _ZN5CORBA20_tc_OBJECT_NOT_EXISTE @4156 DATA
    _ZN5CORBA20_tc_OpDescriptionSeqE @4157 DATA
    _ZN5CORBA20_tc_TRANSACTION_MODEE @4158 DATA
    _ZN5CORBA20_tc_ValueDescriptionE @4159 DATA
    _ZN5CORBA21ParDescriptionSeq_var5_retnEv @4160
    _ZN5CORBA21ParDescriptionSeq_varC1Ev @4161
    _ZN5CORBA21ParDescriptionSeq_varD1Ev @4162
    _ZN5CORBA21ParDescriptionSeq_varaSEPNS_17ParDescriptionSeqE @4163
    _ZN5CORBA21ValueMemberDef_Helper13marshalObjRefEPNS_22_objref_ValueMemberDefER9cdrStream @4164
    _ZN5CORBA21ValueMemberDef_Helper15unmarshalObjRefER9cdrStream @4165
    _ZN5CORBA21ValueMemberDef_Helper4_nilEv @4166
    _ZN5CORBA21ValueMemberDef_Helper6is_nilEPNS_22_objref_ValueMemberDefE @4167
    _ZN5CORBA21ValueMemberDef_Helper7releaseEPNS_22_objref_ValueMemberDefE @4168
    _ZN5CORBA21ValueMemberDef_Helper9duplicateEPNS_22_objref_ValueMemberDefE @4169
    _ZN5CORBA21_tc_ContextIdentifierE @4170 DATA
    _ZN5CORBA21_tc_ExcDescriptionSeqE @4171 DATA
    _ZN5CORBA21_tc_ModuleDescriptionE @4172 DATA
    _ZN5CORBA21_tc_ParDescriptionSeqE @4173 DATA
    _ZN5CORBA22TRANSACTION_ROLLEDBACKC1ERKS0_ @4174
    _ZN5CORBA22TRANSACTION_ROLLEDBACKC1EmNS_16CompletionStatusE @4175
    _ZN5CORBA22_objref_ValueMemberDef12_ptrToObjRefEPKc @4176
    _ZN5CORBA22_objref_ValueMemberDef4typeEv @4177
    _ZN5CORBA22_objref_ValueMemberDef6accessEs @4178
    _ZN5CORBA22_objref_ValueMemberDef6accessEv @4179
    _ZN5CORBA22_objref_ValueMemberDef8type_defEPNS_15_objref_IDLTypeE @4180
    _ZN5CORBA22_objref_ValueMemberDef8type_defEv @4181
    _ZN5CORBA22_objref_ValueMemberDefC1EP7omniIORP12omniIdentity @4182
    _ZN5CORBA22_objref_ValueMemberDefC1Ev @4183
    _ZN5CORBA22_objref_ValueMemberDefC2EP7omniIORP12omniIdentity @4184
    _ZN5CORBA22_objref_ValueMemberDefD0Ev @4185
    _ZN5CORBA22_objref_ValueMemberDefD1Ev @4186
    _ZN5CORBA22_objref_ValueMemberDefD2Ev @4187
    _ZN5CORBA22_tc_AttrDescriptionSeqE @4188 DATA
    _ZN5CORBA23AbstractInterfaceDefSeqC1ERKS0_ @4189
    _ZN5CORBA23AbstractInterfaceDefSeqC1Ev @4190
    _ZN5CORBA23AbstractInterfaceDefSeqD1Ev @4191
    _ZN5CORBA23TRANSACTION_UNAVAILABLEC1ERKS0_ @4192
    _ZN5CORBA23TRANSACTION_UNAVAILABLEC1EmNS_16CompletionStatusE @4193
    _ZN5CORBA23_tc_ConstantDescriptionE @4194 DATA
    _ZN5CORBA23_tc_INVALID_TRANSACTIONE @4195 DATA
    _ZN5CORBA24DefaultValueRefCountBase11_remove_refEv @4196
    _ZN5CORBA24DefaultValueRefCountBase15_refcount_valueEv @4197
    _ZN5CORBA24DefaultValueRefCountBase8_add_refEv @4198
    _ZN5CORBA24DefaultValueRefCountBaseC2Ev @4199
    _ZN5CORBA24DefaultValueRefCountBaseD0Ev @4200
    _ZN5CORBA24DefaultValueRefCountBaseD1Ev @4201
    _ZN5CORBA24DefaultValueRefCountBaseD2Ev @4202
    _ZN5CORBA24_omni_AbstractBaseObjref13_NP_to_objectEv @4203
    _ZN5CORBA24_omni_AbstractBaseObjrefD0Ev @4204
    _ZN5CORBA24_omni_AbstractBaseObjrefD1Ev @4205
    _ZN5CORBA24_tc_AbstractInterfaceDefE @4206 DATA
    _ZN5CORBA24_tc_AttributeDescriptionE @4207 DATA
    _ZN5CORBA24_tc_CODESET_INCOMPATIBLEE @4208 DATA
    _ZN5CORBA24_tc_ExceptionDescriptionE @4209 DATA
    _ZN5CORBA24_tc_InterfaceDescriptionE @4210 DATA
    _ZN5CORBA24_tc_OperationDescriptionE @4211 DATA
    _ZN5CORBA24_tc_ParameterDescriptionE @4212 DATA
    _ZN5CORBA24_tc_TRANSACTION_REQUIREDE @4213 DATA
    _ZN5CORBA25_pof_AbstractInterfaceDef9newObjRefEP7omniIORP12omniIdentity @4214
    _ZN5CORBA25_pof_AbstractInterfaceDefC1Ev @4215
    _ZN5CORBA25_pof_AbstractInterfaceDefD0Ev @4216
    _ZN5CORBA25_pof_AbstractInterfaceDefD1Ev @4217
    _ZN5CORBA25_pof_AbstractInterfaceDefD2Ev @4218
    _ZN5CORBA26_impl_AbstractInterfaceDef15_ptrToInterfaceEPKc @4219
    _ZN5CORBA26_impl_AbstractInterfaceDef18_mostDerivedRepoIdEv @4220
    _ZN5CORBA26_impl_AbstractInterfaceDef9_dispatchER14omniCallHandle @4221
    _ZN5CORBA26_impl_AbstractInterfaceDefD0Ev @4222
    _ZN5CORBA26_impl_AbstractInterfaceDefD1Ev @4223
    _ZN5CORBA26_impl_AbstractInterfaceDefD2Ev @4224
    _ZN5CORBA26_tc_TRANSACTION_ROLLEDBACKE @4225 DATA
    _ZN5CORBA27AbstractInterfaceDefSeq_varC1Ev @4226
    _ZN5CORBA27AbstractInterfaceDefSeq_varD1Ev @4227
    _ZN5CORBA27AbstractInterfaceDefSeq_varaSEPNS_23AbstractInterfaceDefSeqE @4228
    _ZN5CORBA27AbstractInterfaceDef_Helper13marshalObjRefEPNS_28_objref_AbstractInterfaceDefER9cdrStream @4229
    _ZN5CORBA27AbstractInterfaceDef_Helper15unmarshalObjRefER9cdrStream @4230
    _ZN5CORBA27AbstractInterfaceDef_Helper4_nilEv @4231
    _ZN5CORBA27AbstractInterfaceDef_Helper6is_nilEPNS_28_objref_AbstractInterfaceDefE @4232
    _ZN5CORBA27AbstractInterfaceDef_Helper7releaseEPNS_28_objref_AbstractInterfaceDefE @4233
    _ZN5CORBA27AbstractInterfaceDef_Helper9duplicateEPNS_28_objref_AbstractInterfaceDefE @4234
    _ZN5CORBA27_tc_AbstractInterfaceDefSeqE @4235 DATA
    _ZN5CORBA27_tc_TRANSACTION_UNAVAILABLEE @4236 DATA
    _ZN5CORBA28_objref_AbstractInterfaceDef12_ptrToObjRefEPKc @4237
    _ZN5CORBA28_objref_AbstractInterfaceDefC1EP7omniIORP12omniIdentity @4238
    _ZN5CORBA28_objref_AbstractInterfaceDefC1Ev @4239
    _ZN5CORBA28_objref_AbstractInterfaceDefC2EP7omniIORP12omniIdentity @4240
    _ZN5CORBA28_objref_AbstractInterfaceDefD0Ev @4241
    _ZN5CORBA28_objref_AbstractInterfaceDefD1Ev @4242
    _ZN5CORBA28_objref_AbstractInterfaceDefD2Ev @4243
    _ZN5CORBA3Any10from_octetC1Eh @4244
    _ZN5CORBA3Any10to_booleanC1ERb @4245
    _ZN5CORBA3Any12PR_clearDataEv @4246
    _ZN5CORBA3Any12from_booleanC1Eb @4247
    _ZN5CORBA3Any16PR_streamToWriteEv @4248
    _ZN5CORBA3Any20NP_unmarshalDataOnlyER9cdrStream @4249
    _ZN5CORBA3Any4typeEPNS_8TypeCodeE @4250
    _ZN5CORBA3Any7replaceEPNS_8TypeCodeEPvb @4251
    _ZN5CORBA3Any7to_charC1ERh @4252
    _ZN5CORBA3Any8to_octetC1ERh @4253
    _ZN5CORBA3Any8to_valueC1ERPNS_9ValueBaseE @4254
    _ZN5CORBA3Any9PR_insertEPNS_8TypeCodeEPFvR9cdrStreamPvEPFvS5_ES5_ @4255
    _ZN5CORBA3Any9PR_insertEPNS_8TypeCodeEPFvR9cdrStreamPvES5_ @4256
    _ZN5CORBA3Any9from_charC1Eh @4257
    _ZN5CORBA3AnyC1EPNS_8TypeCodeEPvb @4258
    _ZN5CORBA3AnyC1ERKS0_ @4259
    _ZN5CORBA3AnyC1Ev @4260
    _ZN5CORBA3AnyC2EPNS_8TypeCodeEPvb @4261
    _ZN5CORBA3AnyC2ERKS0_ @4262
    _ZN5CORBA3AnyC2Ev @4263
    _ZN5CORBA3AnyD1Ev @4264
    _ZN5CORBA3AnyD2Ev @4265
    _ZN5CORBA3AnyaSERKS0_ @4266
    _ZN5CORBA3AnylSENS0_10from_fixedE @4267
    _ZN5CORBA3AnylSENS0_10from_octetE @4268
    _ZN5CORBA3AnylSENS0_10from_wcharE @4269
    _ZN5CORBA3AnylSENS0_11from_stringE @4270
    _ZN5CORBA3AnylSENS0_12from_booleanE @4271
    _ZN5CORBA3AnylSENS0_12from_wstringE @4272
    _ZN5CORBA3AnylSENS0_9from_charE @4273
    _ZN5CORBA3AnylSEPKc @4274
    _ZN5CORBA3AnylSEPKw @4275
    _ZN5CORBA3AnylSEPNS_6ObjectE @4276
    _ZN5CORBA3AnylSEPNS_8TypeCodeE @4277
    _ZN5CORBA3AnylSEPPNS_6ObjectE @4278
    _ZN5CORBA3AnylSEPPNS_8TypeCodeE @4279
    _ZN5CORBA3AnylSEPS0_ @4280
    _ZN5CORBA3AnylSER9cdrStream @4281
    _ZN5CORBA3AnylSERKS0_ @4282
    _ZN5CORBA3AnylSEd @4283
    _ZN5CORBA3AnylSEe @4284
    _ZN5CORBA3AnylSEf @4285
    _ZN5CORBA3AnylSEl @4286
    _ZN5CORBA3AnylSEm @4287
    _ZN5CORBA3AnylSEs @4288
    _ZN5CORBA3AnylSEt @4289
    _ZN5CORBA3AnylSEx @4290
    _ZN5CORBA3AnylSEy @4291
    _ZN5CORBA3ORB11InvalidNameC1ERKS1_ @4292
    _ZN5CORBA3ORB11InvalidNameC1Ev @4293
    _ZN5CORBA3ORB11InvalidNamelSER9cdrStream @4294
    _ZN5CORBA3ORB11create_listEl20_CORBA_PseudoObj_OutINS_6NVListE20_CORBA_PseudoObj_VarIS2_EE @4295
    _ZN5CORBA3ORB13create_policyEmRKNS_3AnyE @4296
    _ZN5CORBA3ORB14create_enum_tcEPKcS2_RKNS_13EnumMemberSeqE @4297
    _ZN5CORBA3ORB15create_alias_tcEPKcS2_PNS_8TypeCodeE @4298
    _ZN5CORBA3ORB15create_array_tcEmPNS_8TypeCodeE @4299
    _ZN5CORBA3ORB15create_fixed_tcEts @4300
    _ZN5CORBA3ORB15create_union_tcEPKcS2_PNS_8TypeCodeERKNS_14UnionMemberSeqE @4301
    _ZN5CORBA3ORB15create_value_tcEPKcS2_sPNS_8TypeCodeERKNS_14ValueMemberSeqE @4302
    _ZN5CORBA3ORB16create_string_tcEm @4303
    _ZN5CORBA3ORB16create_struct_tcEPKcS2_RKNS_15StructMemberSeqE @4304
    _ZN5CORBA3ORB17create_wstring_tcEm @4305
    _ZN5CORBA3ORB17get_next_responseE20_CORBA_PseudoObj_OutINS_7RequestE20_CORBA_PseudoObj_VarIS2_EE @4306
    _ZN5CORBA3ORB18create_environmentE20_CORBA_PseudoObj_OutINS_11EnvironmentE20_CORBA_PseudoObj_VarIS2_EE @4307
    _ZN5CORBA3ORB18create_named_valueE20_CORBA_PseudoObj_OutINS_10NamedValueE20_CORBA_PseudoObj_VarIS2_EE @4308
    _ZN5CORBA3ORB18create_sequence_tcEmPNS_8TypeCodeE @4309
    _ZN5CORBA3ORB18poll_next_responseEv @4310
    _ZN5CORBA3ORB19create_context_listE20_CORBA_PseudoObj_OutINS_11ContextListE20_CORBA_PseudoObj_VarIS2_EE @4311
    _ZN5CORBA3ORB19create_exception_tcEPKcS2_RKNS_15StructMemberSeqE @4312
    _ZN5CORBA3ORB19create_interface_tcEPKcS2_ @4313
    _ZN5CORBA3ORB19create_recursive_tcEPKc @4314
    _ZN5CORBA3ORB19create_value_box_tcEPKcS2_PNS_8TypeCodeE @4315
    _ZN5CORBA3ORB19get_default_contextE20_CORBA_PseudoObj_OutINS_7ContextE20_CORBA_PseudoObj_VarIS2_EE @4316
    _ZN5CORBA3ORB20InconsistentTypeCode10_PD_repoIdE @4317 DATA
    _ZN5CORBA3ORB20InconsistentTypeCode13insertToAnyFnE @4318 DATA
    _ZN5CORBA3ORB20InconsistentTypeCode16insertToAnyFnNCPE @4319 DATA
    _ZN5CORBA3ORB20InconsistentTypeCode9_downcastEPKNS_9ExceptionE @4320
    _ZN5CORBA3ORB20InconsistentTypeCode9_downcastEPNS_9ExceptionE @4321
    _ZN5CORBA3ORB20InconsistentTypeCodeC1ERKS1_ @4322
    _ZN5CORBA3ORB20InconsistentTypeCodeC1Ev @4323
    _ZN5CORBA3ORB20InconsistentTypeCodeD0Ev @4324
    _ZN5CORBA3ORB20InconsistentTypeCodeD1Ev @4325
    _ZN5CORBA3ORB20InconsistentTypeCodeD2Ev @4326
    _ZN5CORBA3ORB20InconsistentTypeCodelSER9cdrStream @4327
    _ZN5CORBA3ORB20lookup_value_factoryEPKc @4328
    _ZN5CORBA3ORB21create_exception_listE20_CORBA_PseudoObj_OutINS_13ExceptionListE20_CORBA_PseudoObj_VarIS2_EE @4329
    _ZN5CORBA3ORB21create_operation_listEPNS_20_objref_OperationDefE20_CORBA_PseudoObj_OutINS_6NVListE20_CORBA_PseudoObj_VarIS4_EE @4330
    _ZN5CORBA3ORB22register_value_factoryEPKcPNS_16ValueFactoryBaseE @4331
    _ZN5CORBA3ORB24unregister_value_factoryEPKc @4332
    _ZN5CORBA3ORB28create_recursive_sequence_tcEmm @4333
    _ZN5CORBA3ORB29send_multiple_requests_onewayERK32_CORBA_Pseudo_Unbounded_SequenceINS_7RequestE23_CORBA_PseudoObj_MemberIS2_20_CORBA_PseudoObj_VarIS2_EEE @4334
    _ZN5CORBA3ORB31send_multiple_requests_deferredERK32_CORBA_Pseudo_Unbounded_SequenceINS_7RequestE23_CORBA_PseudoObj_MemberIS2_20_CORBA_PseudoObj_VarIS2_EEE @4335
    _ZN5CORBA6AnySeqC1ERKS0_ @4336
    _ZN5CORBA6AnySeqC1Ev @4337
    _ZN5CORBA6AnySeqD1Ev @4338
    _ZN5CORBA6NVList10_duplicateEPS0_ @4339
    _ZN5CORBA6NVList11PR_is_validEPS0_ @4340
    _ZN5CORBA6NVList4_nilEv @4341
    _ZN5CORBA6NVList6Bounds10_PD_repoIdE @4342 DATA
    _ZN5CORBA6NVList6Bounds13insertToAnyFnE @4343 DATA
    _ZN5CORBA6NVList6Bounds16insertToAnyFnNCPE @4344 DATA
    _ZN5CORBA6NVList6Bounds9_downcastEPKNS_9ExceptionE @4345
    _ZN5CORBA6NVList6Bounds9_downcastEPNS_9ExceptionE @4346
    _ZN5CORBA6NVList6BoundsC1ERKS1_ @4347
    _ZN5CORBA6NVList6BoundsC1Ev @4348
    _ZN5CORBA6NVList6BoundsD0Ev @4349
    _ZN5CORBA6NVList6BoundsD1Ev @4350
    _ZN5CORBA6NVList6BoundsD2Ev @4351
    _ZN5CORBA6NVList6BoundslSER9cdrStream @4352
    _ZN5CORBA6NVList8PR_magicE @4353 DATA
    _ZN5CORBA6NVListC2Ev @4354
    _ZN5CORBA6NVListD0Ev @4355
    _ZN5CORBA6NVListD1Ev @4356
    _ZN5CORBA6NVListD2Ev @4357
    _ZN5CORBA6Object10_PR_getobjEv @4358
    _ZN5CORBA6Object10_PR_setobjEP10omniObjRef @4359
    _ZN5CORBA6Object12_PR_is_validEPS0_ @4360
    _ZN5CORBA6Object14_get_interfaceEv @4361
    _ZN5CORBA6Object15_create_requestEPNS_7ContextEPKcPNS_6NVListEPNS_10NamedValueE20_CORBA_PseudoObj_OutINS_7RequestE20_CORBA_PseudoObj_VarISA_EEm @4362
    _ZN5CORBA6Object15_create_requestEPNS_7ContextEPKcPNS_6NVListEPNS_10NamedValueEPNS_13ExceptionListEPNS_11ContextListE20_CORBA_PseudoObj_OutINS_7RequestE20_CORBA_PseudoObj_VarISE_EEm @4363
    _ZN5CORBA6Object8_requestEPKc @4364
    _ZN5CORBA6ObjectC2Ev @4365
    _ZN5CORBA6REBINDC1ERKS0_ @4366
    _ZN5CORBA6REBINDC1EmNS_16CompletionStatusE @4367
    _ZN5CORBA6is_nilEPNS_10NamedValueE @4368
    _ZN5CORBA6is_nilEPNS_11ContextListE @4369
    _ZN5CORBA6is_nilEPNS_11EnvironmentE @4370
    _ZN5CORBA6is_nilEPNS_13ExceptionListE @4371
    _ZN5CORBA6is_nilEPNS_6NVListE @4372
    _ZN5CORBA6is_nilEPNS_6ObjectE @4373
    _ZN5CORBA6is_nilEPNS_7ContextE @4374
    _ZN5CORBA6is_nilEPNS_7RequestE @4375
    _ZN5CORBA6is_nilEPNS_8TypeCodeE @4376
    _ZN5CORBA7Any_var5_retnEv @4377
    _ZN5CORBA7Any_varC1EPNS_3AnyE @4378
    _ZN5CORBA7Any_varC1Ev @4379
    _ZN5CORBA7Any_varD1Ev @4380
    _ZN5CORBA7Any_varaSEPNS_3AnyE @4381
    _ZN5CORBA7BAD_QOSC1ERKS0_ @4382
    _ZN5CORBA7BAD_QOSC1EmNS_16CompletionStatusE @4383
    _ZN5CORBA7CharSeqC1ERKS0_ @4384
    _ZN5CORBA7CharSeqC1Em @4385
    _ZN5CORBA7CharSeqC1Ev @4386
    _ZN5CORBA7CharSeqD1Ev @4387
    _ZN5CORBA7Context10_duplicateEPS0_ @4388
    _ZN5CORBA7Context11PR_is_validEPS0_ @4389
    _ZN5CORBA7Context13filterContextEPS0_PKPKci @4390
    _ZN5CORBA7Context14marshalContextEPS0_PKPKciR9cdrStream @4391
    _ZN5CORBA7Context16unmarshalContextER9cdrStream @4392
    _ZN5CORBA7Context4_nilEv @4393
    _ZN5CORBA7Context8PR_magicE @4394 DATA
    _ZN5CORBA7ContextC2Ev @4395
    _ZN5CORBA7ContextD0Ev @4396
    _ZN5CORBA7ContextD1Ev @4397
    _ZN5CORBA7ContextD2Ev @4398
    _ZN5CORBA7EnumDef10_PD_repoIdE @4399 DATA
    _ZN5CORBA7EnumDef10_duplicateEPNS_15_objref_EnumDefE @4400
    _ZN5CORBA7EnumDef14_marshalObjRefEPNS_15_objref_EnumDefER9cdrStream @4401
    _ZN5CORBA7EnumDef16_unmarshalObjRefER9cdrStream @4402
    _ZN5CORBA7EnumDef17_unchecked_narrowEPNS_6ObjectE @4403
    _ZN5CORBA7EnumDef4_nilEv @4404
    _ZN5CORBA7EnumDef7_narrowEPNS_6ObjectE @4405
    _ZN5CORBA7IDLType10_PD_repoIdE @4406 DATA
    _ZN5CORBA7IDLType10_duplicateEPNS_15_objref_IDLTypeE @4407
    _ZN5CORBA7IDLType14_marshalObjRefEPNS_15_objref_IDLTypeER9cdrStream @4408
    _ZN5CORBA7IDLType16_unmarshalObjRefER9cdrStream @4409
    _ZN5CORBA7IDLType17_unchecked_narrowEPNS_6ObjectE @4410
    _ZN5CORBA7IDLType4_nilEv @4411
    _ZN5CORBA7IDLType7_narrowEPNS_6ObjectE @4412
    _ZN5CORBA7LongSeqC1ERKS0_ @4413
    _ZN5CORBA7LongSeqC1Em @4414
    _ZN5CORBA7LongSeqC1Ev @4415
    _ZN5CORBA7LongSeqD1Ev @4416
    _ZN5CORBA7MARSHALC1ERKS0_ @4417
    _ZN5CORBA7MARSHALC1EmNS_16CompletionStatusE @4418
    _ZN5CORBA7Request10_duplicateEPS0_ @4419
    _ZN5CORBA7Request11PR_is_validEPS0_ @4420
    _ZN5CORBA7Request4_nilEv @4421
    _ZN5CORBA7Request8PR_magicE @4422 DATA
    _ZN5CORBA7RequestC2Ev @4423
    _ZN5CORBA7RequestD0Ev @4424
    _ZN5CORBA7RequestD1Ev @4425
    _ZN5CORBA7RequestD2Ev @4426
    _ZN5CORBA7TIMEOUTC1ERKS0_ @4427
    _ZN5CORBA7TIMEOUTC1EmNS_16CompletionStatusE @4428
    _ZN5CORBA7UNKNOWNC1ERKS0_ @4429
    _ZN5CORBA7UNKNOWNC1EmNS_16CompletionStatusE @4430
    _ZN5CORBA7_tc_anyE @4431 DATA
    _ZN5CORBA7add_refEPNS_9ValueBaseE @4432
    _ZN5CORBA7releaseEPNS_10NamedValueE @4433
    _ZN5CORBA7releaseEPNS_11ContextListE @4434
    _ZN5CORBA7releaseEPNS_11EnvironmentE @4435
    _ZN5CORBA7releaseEPNS_12AbstractBaseE @4436
    _ZN5CORBA7releaseEPNS_13ExceptionListE @4437
    _ZN5CORBA7releaseEPNS_6NVListE @4438
    _ZN5CORBA7releaseEPNS_6ObjectE @4439
    _ZN5CORBA7releaseEPNS_7ContextE @4440
    _ZN5CORBA7releaseEPNS_7RequestE @4441
    _ZN5CORBA7releaseEPNS_8TypeCodeE @4442
    _ZN5CORBA8AliasDef10_PD_repoIdE @4443 DATA
    _ZN5CORBA8AliasDef10_duplicateEPNS_16_objref_AliasDefE @4444
    _ZN5CORBA8AliasDef14_marshalObjRefEPNS_16_objref_AliasDefER9cdrStream @4445
    _ZN5CORBA8AliasDef16_unmarshalObjRefER9cdrStream @4446
    _ZN5CORBA8AliasDef17_unchecked_narrowEPNS_6ObjectE @4447
    _ZN5CORBA8AliasDef4_nilEv @4448
    _ZN5CORBA8AliasDef7_narrowEPNS_6ObjectE @4449
    _ZN5CORBA8ArrayDef10_PD_repoIdE @4450 DATA
    _ZN5CORBA8ArrayDef10_duplicateEPNS_16_objref_ArrayDefE @4451
    _ZN5CORBA8ArrayDef14_marshalObjRefEPNS_16_objref_ArrayDefER9cdrStream @4452
    _ZN5CORBA8ArrayDef16_unmarshalObjRefER9cdrStream @4453
    _ZN5CORBA8ArrayDef17_unchecked_narrowEPNS_6ObjectE @4454
    _ZN5CORBA8ArrayDef4_nilEv @4455
    _ZN5CORBA8ArrayDef7_narrowEPNS_6ObjectE @4456
    _ZN5CORBA8FREE_MEMC1ERKS0_ @4457
    _ZN5CORBA8FREE_MEMC1EmNS_16CompletionStatusE @4458
    _ZN5CORBA8FixedDef10_PD_repoIdE @4459 DATA
    _ZN5CORBA8FixedDef10_duplicateEPNS_16_objref_FixedDefE @4460
    _ZN5CORBA8FixedDef14_marshalObjRefEPNS_16_objref_FixedDefER9cdrStream @4461
    _ZN5CORBA8FixedDef16_unmarshalObjRefER9cdrStream @4462
    _ZN5CORBA8FixedDef17_unchecked_narrowEPNS_6ObjectE @4463
    _ZN5CORBA8FixedDef4_nilEv @4464
    _ZN5CORBA8FixedDef7_narrowEPNS_6ObjectE @4465
    _ZN5CORBA8FloatSeqC1ERKS0_ @4466
    _ZN5CORBA8FloatSeqC1Em @4467
    _ZN5CORBA8FloatSeqC1Ev @4468
    _ZN5CORBA8FloatSeqD1Ev @4469
    _ZN5CORBA8INTERNALC1ERKS0_ @4470
    _ZN5CORBA8INTERNALC1EmNS_16CompletionStatusE @4471
    _ZN5CORBA8INV_FLAGC1ERKS0_ @4472
    _ZN5CORBA8INV_FLAGC1EmNS_16CompletionStatusE @4473
    _ZN5CORBA8IRObject10_PD_repoIdE @4474 DATA
    _ZN5CORBA8IRObject10_duplicateEPNS_16_objref_IRObjectE @4475
    _ZN5CORBA8IRObject14_marshalObjRefEPNS_16_objref_IRObjectER9cdrStream @4476
    _ZN5CORBA8IRObject16_unmarshalObjRefER9cdrStream @4477
    _ZN5CORBA8IRObject17_unchecked_narrowEPNS_6ObjectE @4478
    _ZN5CORBA8IRObject4_nilEv @4479
    _ZN5CORBA8IRObject7_narrowEPNS_6ObjectE @4480
    _ZN5CORBA8OctetSeqC1ERKS0_ @4481
    _ZN5CORBA8OctetSeqC1Em @4482
    _ZN5CORBA8OctetSeqC1Ev @4483
    _ZN5CORBA8OctetSeqD1Ev @4484
    _ZN5CORBA8ShortSeqC1ERKS0_ @4485
    _ZN5CORBA8ShortSeqC1Em @4486
    _ZN5CORBA8ShortSeqC1Ev @4487
    _ZN5CORBA8ShortSeqD1Ev @4488
    _ZN5CORBA8TypeCode10NP_enum_tcEPKcS2_RKNS_13EnumMemberSeqE @4489
    _ZN5CORBA8TypeCode10PR_char_tcEv @4490
    _ZN5CORBA8TypeCode10PR_enum_tcEPKcS2_PS2_mPNS0_8_TrackerE @4491
    _ZN5CORBA8TypeCode10PR_long_tcEv @4492
    _ZN5CORBA8TypeCode10PR_null_tcEv @4493
    _ZN5CORBA8TypeCode10PR_void_tcEv @4494
    _ZN5CORBA8TypeCode10_duplicateEPS0_ @4495
    _ZN5CORBA8TypeCode11NP_alias_tcEPKcS2_PS0_ @4496
    _ZN5CORBA8TypeCode11NP_array_tcEmPS0_ @4497
    _ZN5CORBA8TypeCode11NP_fixed_tcEts @4498
    _ZN5CORBA8TypeCode11NP_value_tcEPKcS2_sPS0_RKNS_14ValueMemberSeqE @4499
    _ZN5CORBA8TypeCode11PR_alias_tcEPKcS2_PS0_PNS0_8_TrackerE @4500
    _ZN5CORBA8TypeCode11PR_array_tcEmPS0_PNS0_8_TrackerE @4501
    _ZN5CORBA8TypeCode11PR_fixed_tcEttPNS0_8_TrackerE @4502
    _ZN5CORBA8TypeCode11PR_float_tcEv @4503
    _ZN5CORBA8TypeCode11PR_is_validEPS0_ @4504
    _ZN5CORBA8TypeCode11PR_octet_tcEv @4505
    _ZN5CORBA8TypeCode11PR_short_tcEv @4506
    _ZN5CORBA8TypeCode11PR_ulong_tcEv @4507
    _ZN5CORBA8TypeCode11PR_union_tcEPKcS2_PS0_PKNS_14PR_unionMemberEmlPNS0_8_TrackerE @4508
    _ZN5CORBA8TypeCode11PR_value_tcEPKcS2_sPS0_PKNS_14PR_valueMemberEmPNS0_8_TrackerE @4509
    _ZN5CORBA8TypeCode11PR_wchar_tcEv @4510
    _ZN5CORBA8TypeCode12NP_string_tcEm @4511
    _ZN5CORBA8TypeCode12PR_Object_tcEv @4512
    _ZN5CORBA8TypeCode12PR_double_tcEv @4513
    _ZN5CORBA8TypeCode12PR_string_tcEmPNS0_8_TrackerE @4514
    _ZN5CORBA8TypeCode12PR_string_tcEv @4515
    _ZN5CORBA8TypeCode12PR_struct_tcEPKcS2_PKNS_15PR_structMemberEmPNS0_8_TrackerE @4516
    _ZN5CORBA8TypeCode12PR_ushort_tcEv @4517
    _ZN5CORBA8TypeCode13NP_wstring_tcEm @4518
    _ZN5CORBA8TypeCode13PR_boolean_tcEv @4519
    _ZN5CORBA8TypeCode13PR_forward_tcEPKcPNS0_8_TrackerE @4520
    _ZN5CORBA8TypeCode13PR_wstring_tcEmPNS0_8_TrackerE @4521
    _ZN5CORBA8TypeCode13PR_wstring_tcEv @4522
    _ZN5CORBA8TypeCode14NP_sequence_tcEmPS0_ @4523
    _ZN5CORBA8TypeCode14PR_TypeCode_tcEv @4524
    _ZN5CORBA8TypeCode14PR_longlong_tcEv @4525
    _ZN5CORBA8TypeCode14PR_sequence_tcEmPS0_PNS0_8_TrackerE @4526
    _ZN5CORBA8TypeCode15NP_interface_tcEPKcS2_ @4527
    _ZN5CORBA8TypeCode15NP_recursive_tcEPKc @4528
    _ZN5CORBA8TypeCode15NP_value_box_tcEPKcS2_PS0_ @4529
    _ZN5CORBA8TypeCode15PR_Principal_tcEv @4530
    _ZN5CORBA8TypeCode15PR_exception_tcEPKcS2_PKNS_15PR_structMemberEmPNS0_8_TrackerE @4531
    _ZN5CORBA8TypeCode15PR_interface_tcEPKcS2_PNS0_8_TrackerE @4532
    _ZN5CORBA8TypeCode15PR_ulonglong_tcEv @4533
    _ZN5CORBA8TypeCode15PR_value_box_tcEPKcS2_PS0_PNS0_8_TrackerE @4534
    _ZN5CORBA8TypeCode15marshalTypeCodeEPS0_R9cdrStream @4535
    _ZN5CORBA8TypeCode16PR_longdouble_tcEv @4536
    _ZN5CORBA8TypeCode17unmarshalTypeCodeER9cdrStream @4537
    _ZN5CORBA8TypeCode21PR_local_interface_tcEPKcS2_PNS0_8_TrackerE @4538
    _ZN5CORBA8TypeCode24NP_recursive_sequence_tcEmm @4539
    _ZN5CORBA8TypeCode24PR_abstract_interface_tcEPKcS2_PNS0_8_TrackerE @4540
    _ZN5CORBA8TypeCode24PR_recursive_sequence_tcEmmPNS0_8_TrackerE @4541
    _ZN5CORBA8TypeCode4_nilEv @4542
    _ZN5CORBA8TypeCode6Bounds10_PD_repoIdE @4543 DATA
    _ZN5CORBA8TypeCode6Bounds13insertToAnyFnE @4544 DATA
    _ZN5CORBA8TypeCode6Bounds16insertToAnyFnNCPE @4545 DATA
    _ZN5CORBA8TypeCode6Bounds9_downcastEPKNS_9ExceptionE @4546
    _ZN5CORBA8TypeCode6Bounds9_downcastEPNS_9ExceptionE @4547
    _ZN5CORBA8TypeCode6BoundsC1ERKS1_ @4548
    _ZN5CORBA8TypeCode6BoundsC1Ev @4549
    _ZN5CORBA8TypeCode6BoundsD0Ev @4550
    _ZN5CORBA8TypeCode6BoundsD1Ev @4551
    _ZN5CORBA8TypeCode6BoundsD2Ev @4552
    _ZN5CORBA8TypeCode6BoundslSER9cdrStream @4553
    _ZN5CORBA8TypeCode7BadKind10_PD_repoIdE @4554 DATA
    _ZN5CORBA8TypeCode7BadKind13insertToAnyFnE @4555 DATA
    _ZN5CORBA8TypeCode7BadKind16insertToAnyFnNCPE @4556 DATA
    _ZN5CORBA8TypeCode7BadKind9_downcastEPKNS_9ExceptionE @4557
    _ZN5CORBA8TypeCode7BadKind9_downcastEPNS_9ExceptionE @4558
    _ZN5CORBA8TypeCode7BadKindC1ERKS1_ @4559
    _ZN5CORBA8TypeCode7BadKindC1Ev @4560
    _ZN5CORBA8TypeCode7BadKindD0Ev @4561
    _ZN5CORBA8TypeCode7BadKindD1Ev @4562
    _ZN5CORBA8TypeCode7BadKindD2Ev @4563
    _ZN5CORBA8TypeCode7BadKindlSER9cdrStream @4564
    _ZN5CORBA8TypeCode8PR_magicE @4565 DATA
    _ZN5CORBA8TypeCode8_Tracker3addEPS0_ @4566
    _ZN5CORBA8TypeCode8_TrackerC1EPKc @4567
    _ZN5CORBA8TypeCode8_TrackerD1Ev @4568
    _ZN5CORBA8TypeCode8_TrackerD2Ev @4569
    _ZN5CORBA8TypeCode9PR_any_tcEv @4570
    _ZN5CORBA8TypeCodeC1Ev @4571
    _ZN5CORBA8TypeCodeC2Ev @4572
    _ZN5CORBA8TypeCodeD0Ev @4573
    _ZN5CORBA8TypeCodeD1Ev @4574
    _ZN5CORBA8TypeCodeD2Ev @4575
    _ZN5CORBA8ULongSeqC1ERKS0_ @4576
    _ZN5CORBA8ULongSeqC1Em @4577
    _ZN5CORBA8ULongSeqC1Ev @4578
    _ZN5CORBA8ULongSeqD1Ev @4579
    _ZN5CORBA8UnionDef10_PD_repoIdE @4580 DATA
    _ZN5CORBA8UnionDef10_duplicateEPNS_16_objref_UnionDefE @4581
    _ZN5CORBA8UnionDef14_marshalObjRefEPNS_16_objref_UnionDefER9cdrStream @4582
    _ZN5CORBA8UnionDef16_unmarshalObjRefER9cdrStream @4583
    _ZN5CORBA8UnionDef17_unchecked_narrowEPNS_6ObjectE @4584
    _ZN5CORBA8UnionDef4_nilEv @4585
    _ZN5CORBA8UnionDef7_narrowEPNS_6ObjectE @4586
    _ZN5CORBA8ValueDef10_PD_repoIdE @4587 DATA
    _ZN5CORBA8ValueDef10_duplicateEPNS_16_objref_ValueDefE @4588
    _ZN5CORBA8ValueDef14_marshalObjRefEPNS_16_objref_ValueDefER9cdrStream @4589
    _ZN5CORBA8ValueDef16_unmarshalObjRefER9cdrStream @4590
    _ZN5CORBA8ValueDef17_unchecked_narrowEPNS_6ObjectE @4591
    _ZN5CORBA8ValueDef20FullValueDescriptionC1ERKS1_ @4592
    _ZN5CORBA8ValueDef20FullValueDescriptionC1Ev @4593
    _ZN5CORBA8ValueDef20FullValueDescriptionD1Ev @4594
    _ZN5CORBA8ValueDef20FullValueDescriptionlSER9cdrStream @4595
    _ZN5CORBA8ValueDef24_tc_FullValueDescriptionE @4596 DATA
    _ZN5CORBA8ValueDef4_nilEv @4597
    _ZN5CORBA8ValueDef7_narrowEPNS_6ObjectE @4598
    _ZN5CORBA8WCharSeqC1ERKS0_ @4599
    _ZN5CORBA8WCharSeqC1Em @4600
    _ZN5CORBA8WCharSeqC1Ev @4601
    _ZN5CORBA8WCharSeqD1Ev @4602
    _ZN5CORBA8_tc_charE @4603 DATA
    _ZN5CORBA8_tc_longE @4604 DATA
    _ZN5CORBA8_tc_nullE @4605 DATA
    _ZN5CORBA8_tc_voidE @4606 DATA
    _ZN5CORBA9BAD_PARAMC1ERKS0_ @4607
    _ZN5CORBA9BAD_PARAMC1EmNS_16CompletionStatusE @4608
    _ZN5CORBA9Contained10_PD_repoIdE @4609 DATA
    _ZN5CORBA9Contained10_duplicateEPNS_17_objref_ContainedE @4610
    _ZN5CORBA9Contained11DescriptionC1ERKS1_ @4611
    _ZN5CORBA9Contained11DescriptionC1Ev @4612
    _ZN5CORBA9Contained11DescriptionD1Ev @4613
    _ZN5CORBA9Contained11DescriptionlSER9cdrStream @4614
    _ZN5CORBA9Contained14_marshalObjRefEPNS_17_objref_ContainedER9cdrStream @4615
    _ZN5CORBA9Contained15_tc_DescriptionE @4616 DATA
    _ZN5CORBA9Contained16_unmarshalObjRefER9cdrStream @4617
    _ZN5CORBA9Contained17_unchecked_narrowEPNS_6ObjectE @4618
    _ZN5CORBA9Contained4_nilEv @4619
    _ZN5CORBA9Contained7_narrowEPNS_6ObjectE @4620
    _ZN5CORBA9Container10_PD_repoIdE @4621 DATA
    _ZN5CORBA9Container10_duplicateEPNS_17_objref_ContainerE @4622
    _ZN5CORBA9Container11DescriptionC1ERKS1_ @4623
    _ZN5CORBA9Container11DescriptionC1Ev @4624
    _ZN5CORBA9Container11DescriptionD1Ev @4625
    _ZN5CORBA9Container11DescriptionaSERKS1_ @4626
    _ZN5CORBA9Container11DescriptionlSER9cdrStream @4627
    _ZN5CORBA9Container14DescriptionSeqC1ERKS1_ @4628
    _ZN5CORBA9Container14DescriptionSeqC1Ev @4629
    _ZN5CORBA9Container14DescriptionSeqD1Ev @4630
    _ZN5CORBA9Container14_marshalObjRefEPNS_17_objref_ContainerER9cdrStream @4631
    _ZN5CORBA9Container15_tc_DescriptionE @4632 DATA
    _ZN5CORBA9Container16_unmarshalObjRefER9cdrStream @4633
    _ZN5CORBA9Container17_unchecked_narrowEPNS_6ObjectE @4634
    _ZN5CORBA9Container18DescriptionSeq_var5_retnEv @4635
    _ZN5CORBA9Container18DescriptionSeq_varC1Ev @4636
    _ZN5CORBA9Container18DescriptionSeq_varD1Ev @4637
    _ZN5CORBA9Container18DescriptionSeq_varaSEPNS0_14DescriptionSeqE @4638
    _ZN5CORBA9Container18_tc_DescriptionSeqE @4639 DATA
    _ZN5CORBA9Container4_nilEv @4640
    _ZN5CORBA9Container7_narrowEPNS_6ObjectE @4641
    _ZN5CORBA9DoubleSeqC1ERKS0_ @4642
    _ZN5CORBA9DoubleSeqC1Em @4643
    _ZN5CORBA9DoubleSeqC1Ev @4644
    _ZN5CORBA9DoubleSeqD1Ev @4645
    _ZN5CORBA9Exception11PR_is_validEPS0_ @4646
    _ZN5CORBA9ExceptionC2ERKS0_ @4647
    _ZN5CORBA9ExceptionC2Ev @4648
    _ZN5CORBA9ExceptionaSERKS0_ @4649
    _ZN5CORBA9IMP_LIMITC1ERKS0_ @4650
    _ZN5CORBA9IMP_LIMITC1EmNS_16CompletionStatusE @4651
    _ZN5CORBA9INV_IDENTC1ERKS0_ @4652
    _ZN5CORBA9INV_IDENTC1EmNS_16CompletionStatusE @4653
    _ZN5CORBA9ModuleDef10_PD_repoIdE @4654 DATA
    _ZN5CORBA9ModuleDef10_duplicateEPNS_17_objref_ModuleDefE @4655
    _ZN5CORBA9ModuleDef14_marshalObjRefEPNS_17_objref_ModuleDefER9cdrStream @4656
    _ZN5CORBA9ModuleDef16_unmarshalObjRefER9cdrStream @4657
    _ZN5CORBA9ModuleDef17_unchecked_narrowEPNS_6ObjectE @4658
    _ZN5CORBA9ModuleDef4_nilEv @4659
    _ZN5CORBA9ModuleDef7_narrowEPNS_6ObjectE @4660
    _ZN5CORBA9NO_MEMORYC1ERKS0_ @4661
    _ZN5CORBA9NO_MEMORYC1EmNS_16CompletionStatusE @4662
    _ZN5CORBA9NativeDef10_PD_repoIdE @4663 DATA
    _ZN5CORBA9NativeDef10_duplicateEPNS_17_objref_NativeDefE @4664
    _ZN5CORBA9NativeDef14_marshalObjRefEPNS_17_objref_NativeDefER9cdrStream @4665
    _ZN5CORBA9NativeDef16_unmarshalObjRefER9cdrStream @4666
    _ZN5CORBA9NativeDef17_unchecked_narrowEPNS_6ObjectE @4667
    _ZN5CORBA9NativeDef4_nilEv @4668
    _ZN5CORBA9NativeDef7_narrowEPNS_6ObjectE @4669
    _ZN5CORBA9StringDef10_PD_repoIdE @4670 DATA
    _ZN5CORBA9StringDef10_duplicateEPNS_17_objref_StringDefE @4671
    _ZN5CORBA9StringDef14_marshalObjRefEPNS_17_objref_StringDefER9cdrStream @4672
    _ZN5CORBA9StringDef16_unmarshalObjRefER9cdrStream @4673
    _ZN5CORBA9StringDef17_unchecked_narrowEPNS_6ObjectE @4674
    _ZN5CORBA9StringDef4_nilEv @4675
    _ZN5CORBA9StringDef7_narrowEPNS_6ObjectE @4676
    _ZN5CORBA9StringSeqC1ERKS0_ @4677
    _ZN5CORBA9StringSeqC1Ev @4678
    _ZN5CORBA9StringSeqD1Ev @4679
    _ZN5CORBA9StructDef10_PD_repoIdE @4680 DATA
    _ZN5CORBA9StructDef10_duplicateEPNS_17_objref_StructDefE @4681
    _ZN5CORBA9StructDef14_marshalObjRefEPNS_17_objref_StructDefER9cdrStream @4682
    _ZN5CORBA9StructDef16_unmarshalObjRefER9cdrStream @4683
    _ZN5CORBA9StructDef17_unchecked_narrowEPNS_6ObjectE @4684
    _ZN5CORBA9StructDef4_nilEv @4685
    _ZN5CORBA9StructDef7_narrowEPNS_6ObjectE @4686
    _ZN5CORBA9TRANSIENTC1ERKS0_ @4687
    _ZN5CORBA9TRANSIENTC1EmNS_16CompletionStatusE @4688
    _ZN5CORBA9UShortSeqC1ERKS0_ @4689
    _ZN5CORBA9UShortSeqC1Em @4690
    _ZN5CORBA9UShortSeqC1Ev @4691
    _ZN5CORBA9UShortSeqD1Ev @4692
    _ZN5CORBA9ValueBase10_PD_repoIdE @4693 DATA
    _ZN5CORBA9ValueBase11_NP_marshalEPS0_R9cdrStream @4694
    _ZN5CORBA9ValueBase11_ptrToValueEPKc @4695
    _ZN5CORBA9ValueBase13_NP_unmarshalER9cdrStream @4696
    _ZN5CORBA9ValueBase9_PR_magicE @4697 DATA
    _ZN5CORBA9ValueBase9_downcastEPS0_ @4698
    _ZN5CORBA9ValueBaseC1ERKS0_ @4699
    _ZN5CORBA9ValueBaseC1Ev @4700
    _ZN5CORBA9ValueBaseC2ERKS0_ @4701
    _ZN5CORBA9ValueBaseC2Ev @4702
    _ZN5CORBA9ValueBaseD0Ev @4703
    _ZN5CORBA9ValueBaseD1Ev @4704
    _ZN5CORBA9ValueBaseD2Ev @4705
    _ZN5CORBA9_tc_floatE @4706 DATA
    _ZN5CORBA9_tc_octetE @4707 DATA
    _ZN5CORBA9_tc_shortE @4708 DATA
    _ZN5CORBA9_tc_ulongE @4709 DATA
    _ZN5CORBA9_tc_wcharE @4710 DATA
    _ZN63_0RL_insertToAny_Singleton__cCosNaming_mNamingContext_mNotEmptyC1Ev @4711
    _ZN63_0RL_insertToAny_Singleton__cCosNaming_mNamingContext_mNotFoundC1Ev @4712
    _ZN63_0RL_insertToAny_Singleton__cPortableServer_mPOA_mInvalidPolicyC1Ev @4713
    _ZN66_0RL_insertToAny_Singleton__cCosNaming_mNamingContext_mInvalidNameC1Ev @4714
    _ZN67_0RL_insertToAny_Singleton__cCosNaming_mNamingContext_mAlreadyBoundC1Ev @4715
    _ZN68_0RL_insertToAny_Singleton__cCosNaming_mNamingContext_mCannotProceedC1Ev @4716
    _ZN72_0RL_insertToAny_Singleton__cCosNaming_mNamingContextExt_mInvalidAddressC1Ev @4717
    _ZN7omniORB14fatalExceptionD1Ev @4718
    _ZN7omniORB4logsEmPKc @4719
    _ZN7omniORB6loggerlsEb @4720
    _ZN8omniTaskC2ENS_8CategoryE @4721
    _ZN8omniTaskD0Ev @4722
    _ZN8omniTaskD1Ev @4723
    _ZN8omniTaskD2Ev @4724
    _ZN9CosNaming11BindingListC1ERKS0_ @4725
    _ZN9CosNaming11BindingListC1Ev @4726
    _ZN9CosNaming11BindingListD1Ev @4727
    _ZN9CosNaming11_tc_BindingE @4728 DATA
    _ZN9CosNaming11_tc_IstringE @4729 DATA
    _ZN9CosNaming13NameComponentC1ERKS0_ @4730
    _ZN9CosNaming13NameComponentC1Ev @4731
    _ZN9CosNaming13NameComponentD1Ev @4732
    _ZN9CosNaming13NameComponentaSERKS0_ @4733
    _ZN9CosNaming13NamingContext11InvalidNameC1Ev @4734
    _ZN9CosNaming13NamingContext11InvalidNamelSER9cdrStream @4735
    _ZN9CosNaming13NamingContext12AlreadyBoundC1Ev @4736
    _ZN9CosNaming13NamingContext12AlreadyBoundlSER9cdrStream @4737
    _ZN9CosNaming13NamingContext12_tc_NotEmptyE @4738 DATA
    _ZN9CosNaming13NamingContext12_tc_NotFoundE @4739 DATA
    _ZN9CosNaming13NamingContext13CannotProceedC1Ev @4740
    _ZN9CosNaming13NamingContext15_tc_InvalidNameE @4741 DATA
    _ZN9CosNaming13NamingContext16_tc_AlreadyBoundE @4742 DATA
    _ZN9CosNaming13NamingContext17_tc_CannotProceedE @4743 DATA
    _ZN9CosNaming13NamingContext18_tc_NotFoundReasonE @4744 DATA
    _ZN9CosNaming13NamingContext8NotEmptyC1Ev @4745
    _ZN9CosNaming13NamingContext8NotEmptylSER9cdrStream @4746
    _ZN9CosNaming13NamingContext8NotFoundC1Ev @4747
    _ZN9CosNaming15_tc_BindingListE @4748 DATA
    _ZN9CosNaming15_tc_BindingTypeE @4749 DATA
    _ZN9CosNaming16NamingContextExt11_tc_AddressE @4750 DATA
    _ZN9CosNaming16NamingContextExt13_tc_URLStringE @4751 DATA
    _ZN9CosNaming16NamingContextExt14InvalidAddressC1Ev @4752
    _ZN9CosNaming16NamingContextExt14InvalidAddresslSER9cdrStream @4753
    _ZN9CosNaming16NamingContextExt14_tc_StringNameE @4754 DATA
    _ZN9CosNaming16NamingContextExt18_tc_InvalidAddressE @4755 DATA
    _ZN9CosNaming17_tc_NameComponentE @4756 DATA
    _ZN9CosNaming17_tc_NamingContextE @4757 DATA
    _ZN9CosNaming19_tc_BindingIteratorE @4758 DATA
    _ZN9CosNaming20_tc_NamingContextExtE @4759 DATA
    _ZN9CosNaming4NameC1ERKS0_ @4760
    _ZN9CosNaming4NameC1Ev @4761
    _ZN9CosNaming4NameD1Ev @4762
    _ZN9CosNaming4NameaSERKS0_ @4763
    _ZN9CosNaming7BindingC1ERKS0_ @4764
    _ZN9CosNaming7BindingC1Ev @4765
    _ZN9CosNaming7BindingD1Ev @4766
    _ZN9CosNaming7BindingaSERKS0_ @4767
    _ZN9CosNaming8_tc_NameE @4768 DATA
    _ZN9POA_CORBA10RepositoryD0Ev @4769
    _ZN9POA_CORBA10RepositoryD1Ev @4770
    _ZN9POA_CORBA10RepositoryD2Ev @4771
    _ZN9POA_CORBA10TypedefDefD0Ev @4772
    _ZN9POA_CORBA10TypedefDefD1Ev @4773
    _ZN9POA_CORBA10TypedefDefD2Ev @4774
    _ZN9POA_CORBA10WstringDefD0Ev @4775
    _ZN9POA_CORBA10WstringDefD1Ev @4776
    _ZN9POA_CORBA10WstringDefD2Ev @4777
    _ZN9POA_CORBA11ConstantDefD0Ev @4778
    _ZN9POA_CORBA11ConstantDefD1Ev @4779
    _ZN9POA_CORBA11ConstantDefD2Ev @4780
    _ZN9POA_CORBA11SequenceDefD0Ev @4781
    _ZN9POA_CORBA11SequenceDefD1Ev @4782
    _ZN9POA_CORBA11SequenceDefD2Ev @4783
    _ZN9POA_CORBA11ValueBoxDefD0Ev @4784
    _ZN9POA_CORBA11ValueBoxDefD1Ev @4785
    _ZN9POA_CORBA11ValueBoxDefD2Ev @4786
    _ZN9POA_CORBA12AttributeDefD0Ev @4787
    _ZN9POA_CORBA12AttributeDefD1Ev @4788
    _ZN9POA_CORBA12AttributeDefD2Ev @4789
    _ZN9POA_CORBA12ExceptionDefD0Ev @4790
    _ZN9POA_CORBA12ExceptionDefD1Ev @4791
    _ZN9POA_CORBA12ExceptionDefD2Ev @4792
    _ZN9POA_CORBA12InterfaceDefD0Ev @4793
    _ZN9POA_CORBA12InterfaceDefD1Ev @4794
    _ZN9POA_CORBA12InterfaceDefD2Ev @4795
    _ZN9POA_CORBA12OperationDefD0Ev @4796
    _ZN9POA_CORBA12OperationDefD1Ev @4797
    _ZN9POA_CORBA12OperationDefD2Ev @4798
    _ZN9POA_CORBA12PrimitiveDefD0Ev @4799
    _ZN9POA_CORBA12PrimitiveDefD1Ev @4800
    _ZN9POA_CORBA12PrimitiveDefD2Ev @4801
    _ZN9POA_CORBA14ValueMemberDefD0Ev @4802
    _ZN9POA_CORBA14ValueMemberDefD1Ev @4803
    _ZN9POA_CORBA14ValueMemberDefD2Ev @4804
    _ZN9POA_CORBA20AbstractInterfaceDefD0Ev @4805
    _ZN9POA_CORBA20AbstractInterfaceDefD1Ev @4806
    _ZN9POA_CORBA20AbstractInterfaceDefD2Ev @4807
    _ZN9POA_CORBA7EnumDefD0Ev @4808
    _ZN9POA_CORBA7EnumDefD1Ev @4809
    _ZN9POA_CORBA7EnumDefD2Ev @4810
    _ZN9POA_CORBA7IDLTypeD0Ev @4811
    _ZN9POA_CORBA7IDLTypeD1Ev @4812
    _ZN9POA_CORBA7IDLTypeD2Ev @4813
    _ZN9POA_CORBA8AliasDefD0Ev @4814
    _ZN9POA_CORBA8AliasDefD1Ev @4815
    _ZN9POA_CORBA8AliasDefD2Ev @4816
    _ZN9POA_CORBA8ArrayDefD0Ev @4817
    _ZN9POA_CORBA8ArrayDefD1Ev @4818
    _ZN9POA_CORBA8ArrayDefD2Ev @4819
    _ZN9POA_CORBA8FixedDefD0Ev @4820
    _ZN9POA_CORBA8FixedDefD1Ev @4821
    _ZN9POA_CORBA8FixedDefD2Ev @4822
    _ZN9POA_CORBA8IRObjectD0Ev @4823
    _ZN9POA_CORBA8IRObjectD1Ev @4824
    _ZN9POA_CORBA8IRObjectD2Ev @4825
    _ZN9POA_CORBA8UnionDefD0Ev @4826
    _ZN9POA_CORBA8UnionDefD1Ev @4827
    _ZN9POA_CORBA8UnionDefD2Ev @4828
    _ZN9POA_CORBA8ValueDefD0Ev @4829
    _ZN9POA_CORBA8ValueDefD1Ev @4830
    _ZN9POA_CORBA8ValueDefD2Ev @4831
    _ZN9POA_CORBA9ContainedD0Ev @4832
    _ZN9POA_CORBA9ContainedD1Ev @4833
    _ZN9POA_CORBA9ContainedD2Ev @4834
    _ZN9POA_CORBA9ContainerD0Ev @4835
    _ZN9POA_CORBA9ContainerD1Ev @4836
    _ZN9POA_CORBA9ContainerD2Ev @4837
    _ZN9POA_CORBA9ModuleDefD0Ev @4838
    _ZN9POA_CORBA9ModuleDefD1Ev @4839
    _ZN9POA_CORBA9ModuleDefD2Ev @4840
    _ZN9POA_CORBA9NativeDefD0Ev @4841
    _ZN9POA_CORBA9NativeDefD1Ev @4842
    _ZN9POA_CORBA9NativeDefD2Ev @4843
    _ZN9POA_CORBA9StringDefD0Ev @4844
    _ZN9POA_CORBA9StringDefD1Ev @4845
    _ZN9POA_CORBA9StringDefD2Ev @4846
    _ZN9POA_CORBA9StructDefD0Ev @4847
    _ZN9POA_CORBA9StructDefD1Ev @4848
    _ZN9POA_CORBA9StructDefD2Ev @4849
    _ZN9cdrStream10alignInputEN4omni11alignment_tE @4850
    _ZN9cdrStream11alignOutputEN4omni11alignment_tE @4851
    _ZN9cdrStream11marshalCharEh @4852
    _ZN9cdrStream12marshalOctetEh @4853
    _ZN9cdrStream12marshalWCharEw @4854
    _ZN9cdrStream12valueTrackerEPN4omni23ValueIndirectionTrackerE @4855
    _ZN9cdrStream13marshalStringEPKci @4856
    _ZN9cdrStream13unmarshalCharEv @4857
    _ZN9cdrStream14marshalBooleanEb @4858
    _ZN9cdrStream14marshalWStringEPKwi @4859
    _ZN9cdrStream14unmarshalOctetEv @4860
    _ZN9cdrStream14unmarshalWCharEv @4861
    _ZN9cdrStream15unmarshalStringEi @4862
    _ZN9cdrStream16unmarshalBooleanEv @4863
    _ZN9cdrStream16unmarshalWStringEi @4864
    _ZNK10DynamicAny13DynAnyFactory20InconsistentTypeCode10_NP_repoIdEPi @4865
    _ZNK10DynamicAny13DynAnyFactory20InconsistentTypeCode10_NP_typeIdEv @4866
    _ZNK10DynamicAny13DynAnyFactory20InconsistentTypeCode11_NP_marshalER9cdrStream @4867
    _ZNK10DynamicAny13DynAnyFactory20InconsistentTypeCode13_NP_duplicateEv @4868
    _ZNK10DynamicAny13DynAnyFactory20InconsistentTypeCode6_raiseEv @4869
    _ZNK10DynamicAny13DynAnyFactory20InconsistentTypeCoderSER9cdrStream @4870
    _ZNK10DynamicAny6DynAny12InvalidValue10_NP_repoIdEPi @4871
    _ZNK10DynamicAny6DynAny12InvalidValue10_NP_typeIdEv @4872
    _ZNK10DynamicAny6DynAny12InvalidValue11_NP_marshalER9cdrStream @4873
    _ZNK10DynamicAny6DynAny12InvalidValue13_NP_duplicateEv @4874
    _ZNK10DynamicAny6DynAny12InvalidValue6_raiseEv @4875
    _ZNK10DynamicAny6DynAny12InvalidValuerSER9cdrStream @4876
    _ZNK10DynamicAny6DynAny12TypeMismatch10_NP_repoIdEPi @4877
    _ZNK10DynamicAny6DynAny12TypeMismatch10_NP_typeIdEv @4878
    _ZNK10DynamicAny6DynAny12TypeMismatch11_NP_marshalER9cdrStream @4879
    _ZNK10DynamicAny6DynAny12TypeMismatch13_NP_duplicateEv @4880
    _ZNK10DynamicAny6DynAny12TypeMismatch6_raiseEv @4881
    _ZNK10DynamicAny6DynAny12TypeMismatchrSER9cdrStream @4882
    _ZNK10omniObjRef18_mostDerivedRepoIdEv @4883
    _ZNK10omnivectorIPN4omni14DynAnyImplBaseEE4sizeEv @4884
    _ZNK10omnivectorIPN4omni14DynAnyImplBaseEE8capacityEv @4885
    _ZNK12omniTypedefs16ValueBaseSeq_varcvRNS_12ValueBaseSeqEEv @4886
    _ZNK14omniCallHandle14operation_nameEv @4887
    _ZNK14omniCallHandle5iop_sEv @4888
    _ZNK14omniCallHandle9call_descEv @4889
    _ZNK15_CORBA_SequenceIN10DynamicAny13NameValuePairEE6lengthEv @4890
    _ZNK15_CORBA_SequenceIN10DynamicAny13NameValuePairEEixEm @4891
    _ZNK15_CORBA_SequenceIN10DynamicAny14NameDynAnyPairEE6lengthEv @4892
    _ZNK15_CORBA_SequenceIN10DynamicAny14NameDynAnyPairEEixEm @4893
    _ZNK15_CORBA_SequenceIN5CORBA11UnionMemberEE6lengthEv @4894
    _ZNK15_CORBA_SequenceIN5CORBA11UnionMemberEEixEm @4895
    _ZNK15_CORBA_SequenceIN5CORBA11ValueMemberEE6lengthEv @4896
    _ZNK15_CORBA_SequenceIN5CORBA11ValueMemberEEixEm @4897
    _ZNK15_CORBA_SequenceIN5CORBA12StructMemberEE6lengthEv @4898
    _ZNK15_CORBA_SequenceIN5CORBA12StructMemberEEixEm @4899
    _ZNK15_CORBA_SequenceIN5CORBA15TypeCode_memberEE6lengthEv @4900
    _ZNK15_CORBA_SequenceIN5CORBA3AnyEE6lengthEv @4901
    _ZNK15_CORBA_SequenceIN5CORBA3AnyEEixEm @4902
    _ZNK15_CORBA_SequenceIbE6lengthEv @4903
    _ZNK15_CORBA_SequenceIbE7NP_dataEv @4904
    _ZNK15_CORBA_SequenceIdE6lengthEv @4905
    _ZNK15_CORBA_SequenceIdE7NP_dataEv @4906
    _ZNK15_CORBA_SequenceIeE6lengthEv @4907
    _ZNK15_CORBA_SequenceIeE7NP_dataEv @4908
    _ZNK15_CORBA_SequenceIfE6lengthEv @4909
    _ZNK15_CORBA_SequenceIfE7NP_dataEv @4910
    _ZNK15_CORBA_SequenceIhE6lengthEv @4911
    _ZNK15_CORBA_SequenceIhE7NP_dataEv @4912
    _ZNK15_CORBA_SequenceIlE6lengthEv @4913
    _ZNK15_CORBA_SequenceIlE7NP_dataEv @4914
    _ZNK15_CORBA_SequenceImE6lengthEv @4915
    _ZNK15_CORBA_SequenceImE7NP_dataEv @4916
    _ZNK15_CORBA_SequenceIsE6lengthEv @4917
    _ZNK15_CORBA_SequenceIsE7NP_dataEv @4918
    _ZNK15_CORBA_SequenceItE6lengthEv @4919
    _ZNK15_CORBA_SequenceItE7NP_dataEv @4920
    _ZNK15_CORBA_SequenceIwE6lengthEv @4921
    _ZNK15_CORBA_SequenceIwE7NP_dataEv @4922
    _ZNK15_CORBA_SequenceIxE6lengthEv @4923
    _ZNK15_CORBA_SequenceIxE7NP_dataEv @4924
    _ZNK15_CORBA_SequenceIyE6lengthEv @4925
    _ZNK15_CORBA_SequenceIyE7NP_dataEv @4926
    _ZNK17_CORBA_ObjRef_VarIN5CORBA15_objref_EnumDefENS0_14EnumDef_HelperEEcvPS1_Ev @4927
    _ZNK17_CORBA_ObjRef_VarIN5CORBA15_objref_IDLTypeENS0_14IDLType_HelperEE2inEv @4928
    _ZNK17_CORBA_ObjRef_VarIN5CORBA15_objref_IDLTypeENS0_14IDLType_HelperEEcvPS1_Ev @4929
    _ZNK17_CORBA_ObjRef_VarIN5CORBA16_objref_AliasDefENS0_15AliasDef_HelperEEcvPS1_Ev @4930
    _ZNK17_CORBA_ObjRef_VarIN5CORBA16_objref_ArrayDefENS0_15ArrayDef_HelperEEcvPS1_Ev @4931
    _ZNK17_CORBA_ObjRef_VarIN5CORBA16_objref_FixedDefENS0_15FixedDef_HelperEEcvPS1_Ev @4932
    _ZNK17_CORBA_ObjRef_VarIN5CORBA16_objref_UnionDefENS0_15UnionDef_HelperEEcvPS1_Ev @4933
    _ZNK17_CORBA_ObjRef_VarIN5CORBA16_objref_ValueDefENS0_15ValueDef_HelperEE2inEv @4934
    _ZNK17_CORBA_ObjRef_VarIN5CORBA16_objref_ValueDefENS0_15ValueDef_HelperEEcvPS1_Ev @4935
    _ZNK17_CORBA_ObjRef_VarIN5CORBA17_objref_ContainedENS0_16Contained_HelperEEcvPS1_Ev @4936
    _ZNK17_CORBA_ObjRef_VarIN5CORBA17_objref_ContainerENS0_16Container_HelperEE2inEv @4937
    _ZNK17_CORBA_ObjRef_VarIN5CORBA17_objref_ContainerENS0_16Container_HelperEEcvPS1_Ev @4938
    _ZNK17_CORBA_ObjRef_VarIN5CORBA17_objref_ModuleDefENS0_16ModuleDef_HelperEEcvPS1_Ev @4939
    _ZNK17_CORBA_ObjRef_VarIN5CORBA17_objref_NativeDefENS0_16NativeDef_HelperEEcvPS1_Ev @4940
    _ZNK17_CORBA_ObjRef_VarIN5CORBA17_objref_StringDefENS0_16StringDef_HelperEEcvPS1_Ev @4941
    _ZNK17_CORBA_ObjRef_VarIN5CORBA17_objref_StructDefENS0_16StructDef_HelperEEcvPS1_Ev @4942
    _ZNK17_CORBA_ObjRef_VarIN5CORBA18_objref_RepositoryENS0_17Repository_HelperEEcvPS1_Ev @4943
    _ZNK17_CORBA_ObjRef_VarIN5CORBA18_objref_WstringDefENS0_17WstringDef_HelperEEcvPS1_Ev @4944
    _ZNK17_CORBA_ObjRef_VarIN5CORBA19_objref_ConstantDefENS0_18ConstantDef_HelperEEcvPS1_Ev @4945
    _ZNK17_CORBA_ObjRef_VarIN5CORBA19_objref_SequenceDefENS0_18SequenceDef_HelperEEcvPS1_Ev @4946
    _ZNK17_CORBA_ObjRef_VarIN5CORBA19_objref_ValueBoxDefENS0_18ValueBoxDef_HelperEEcvPS1_Ev @4947
    _ZNK17_CORBA_ObjRef_VarIN5CORBA20_objref_AttributeDefENS0_19AttributeDef_HelperEEcvPS1_Ev @4948
    _ZNK17_CORBA_ObjRef_VarIN5CORBA20_objref_ExceptionDefENS0_19ExceptionDef_HelperEEcvPS1_Ev @4949
    _ZNK17_CORBA_ObjRef_VarIN5CORBA20_objref_InterfaceDefENS0_19InterfaceDef_HelperEEcvPS1_Ev @4950
    _ZNK17_CORBA_ObjRef_VarIN5CORBA20_objref_OperationDefENS0_19OperationDef_HelperEEcvPS1_Ev @4951
    _ZNK17_CORBA_ObjRef_VarIN5CORBA20_objref_PrimitiveDefENS0_19PrimitiveDef_HelperEEcvPS1_Ev @4952
    _ZNK17_CORBA_ObjRef_VarIN5CORBA22_objref_ValueMemberDefENS0_21ValueMemberDef_HelperEEcvPS1_Ev @4953
    _ZNK17_CORBA_ObjRef_VarIN5CORBA28_objref_AbstractInterfaceDefENS0_27AbstractInterfaceDef_HelperEEcvPS1_Ev @4954
    _ZNK17_CORBA_String_var2inEv @4955
    _ZNK17_CORBA_String_varcvPKcEv @4956
    _ZNK17omniLocalIdentity7servantEv @4957
    _ZNK18omniCallDescriptor2opEv @4958
    _ZNK18omniCallDescriptor9is_upcallEv @4959
    _ZNK20_CORBA_ObjRef_MemberIN5CORBA15_objref_IDLTypeENS0_14IDLType_HelperEEcvPS1_Ev @4960
    _ZNK20_CORBA_ObjRef_MemberIN5CORBA17_objref_ContainedENS0_16Contained_HelperEEcvPS1_Ev @4961
    _ZNK20_CORBA_PseudoObj_VarIN10DynamicAny6DynAnyEEcvPS1_Ev @4962
    _ZNK20_CORBA_PseudoObj_VarIN10DynamicAny6DynAnyEEptEv @4963
    _ZNK20_CORBA_PseudoObj_VarIN5CORBA10NamedValueEEcvPS1_Ev @4964
    _ZNK20_CORBA_PseudoObj_VarIN5CORBA10NamedValueEEptEv @4965
    _ZNK20_CORBA_PseudoObj_VarIN5CORBA11ContextListEEcvPS1_Ev @4966
    _ZNK20_CORBA_PseudoObj_VarIN5CORBA11EnvironmentEEcvPS1_Ev @4967
    _ZNK20_CORBA_PseudoObj_VarIN5CORBA11EnvironmentEEptEv @4968
    _ZNK20_CORBA_PseudoObj_VarIN5CORBA13ExceptionListEEcvPS1_Ev @4969
    _ZNK20_CORBA_PseudoObj_VarIN5CORBA13ExceptionListEEptEv @4970
    _ZNK20_CORBA_PseudoObj_VarIN5CORBA6NVListEEcvPS1_Ev @4971
    _ZNK20_CORBA_PseudoObj_VarIN5CORBA6NVListEEptEv @4972
    _ZNK20_CORBA_PseudoObj_VarIN5CORBA7ContextEEcvPS1_Ev @4973
    _ZNK20_CORBA_Sequence_CharrSER9cdrStream @4974
    _ZNK20_CORBA_String_membercvPKcEv @4975
    _ZNK20_CORBA_Value_ElementIN5CORBA9ValueBaseENS0_16ValueBase_HelperEEcvPS1_Ev @4976
    _ZNK21_CORBA_ObjRef_ElementIN10DynamicAny6DynAnyENS0_13DynAny_HelperEEcvPS1_Ev @4977
    _ZNK21_CORBA_ObjRef_ElementIN10DynamicAny6DynAnyENS0_13DynAny_HelperEEptEv @4978
    _ZNK21_CORBA_Sequence_OctetrSER9cdrStream @4979
    _ZNK21_CORBA_Sequence_ValueIN5CORBA9ValueBaseE20_CORBA_Value_ElementIS1_NS0_16ValueBase_HelperEES3_E6lengthEv @4980
    _ZNK21_CORBA_Sequence_ValueIN5CORBA9ValueBaseE20_CORBA_Value_ElementIS1_NS0_16ValueBase_HelperEES3_E7NP_dataEv @4981
    _ZNK21_CORBA_Sequence_ValueIN5CORBA9ValueBaseE20_CORBA_Value_ElementIS1_NS0_16ValueBase_HelperEES3_EixEm @4982
    _ZNK21_CORBA_Sequence_WCharrSER9cdrStream @4983
    _ZNK21_CORBA_String_elementcvPKcEv @4984
    _ZNK22_CORBA_Sequence_ObjRefIN10DynamicAny6DynAnyE21_CORBA_ObjRef_ElementIS1_NS0_13DynAny_HelperEES3_E6lengthEv @4985
    _ZNK22_CORBA_Sequence_ObjRefIN10DynamicAny6DynAnyE21_CORBA_ObjRef_ElementIS1_NS0_13DynAny_HelperEES3_EixEm @4986
    _ZNK22_CORBA_Sequence_ObjRefIN5CORBA16_objref_ValueDefE21_CORBA_ObjRef_ElementIS1_NS0_15ValueDef_HelperEES3_EixEm @4987
    _ZNK22_CORBA_Sequence_ObjRefIN5CORBA16_objref_ValueDefE21_CORBA_ObjRef_ElementIS1_NS0_15ValueDef_HelperEES3_ErSER9cdrStream @4988
    _ZNK22_CORBA_Sequence_ObjRefIN5CORBA17_objref_ContainedE21_CORBA_ObjRef_ElementIS1_NS0_16Contained_HelperEES3_EixEm @4989
    _ZNK22_CORBA_Sequence_ObjRefIN5CORBA17_objref_ContainedE21_CORBA_ObjRef_ElementIS1_NS0_16Contained_HelperEES3_ErSER9cdrStream @4990
    _ZNK22_CORBA_Sequence_ObjRefIN5CORBA20_objref_ExceptionDefE21_CORBA_ObjRef_ElementIS1_NS0_19ExceptionDef_HelperEES3_EixEm @4991
    _ZNK22_CORBA_Sequence_ObjRefIN5CORBA20_objref_ExceptionDefE21_CORBA_ObjRef_ElementIS1_NS0_19ExceptionDef_HelperEES3_ErSER9cdrStream @4992
    _ZNK22_CORBA_Sequence_ObjRefIN5CORBA20_objref_InterfaceDefE21_CORBA_ObjRef_ElementIS1_NS0_19InterfaceDef_HelperEES3_EixEm @4993
    _ZNK22_CORBA_Sequence_ObjRefIN5CORBA20_objref_InterfaceDefE21_CORBA_ObjRef_ElementIS1_NS0_19InterfaceDef_HelperEES3_ErSER9cdrStream @4994
    _ZNK22_CORBA_Sequence_ObjRefIN5CORBA28_objref_AbstractInterfaceDefE21_CORBA_ObjRef_ElementIS1_NS0_27AbstractInterfaceDef_HelperEES3_EixEm @4995
    _ZNK22_CORBA_Sequence_ObjRefIN5CORBA28_objref_AbstractInterfaceDefE21_CORBA_ObjRef_ElementIS1_NS0_27AbstractInterfaceDef_HelperEES3_ErSER9cdrStream @4996
    _ZNK22_CORBA_Sequence_String10get_bufferEv @4997
    _ZNK22_CORBA_Sequence_String6lengthEv @4998
    _ZNK22_CORBA_Sequence_String7maximumEv @4999
    _ZNK22_CORBA_Sequence_StringixEm @5000
    _ZNK23_CORBA_PseudoObj_MemberIN10DynamicAny6DynAnyE20_CORBA_PseudoObj_VarIS1_EEcvPS1_Ev @5001
    _ZNK23_CORBA_PseudoObj_MemberIN10DynamicAny6DynAnyE20_CORBA_PseudoObj_VarIS1_EEptEv @5002
    _ZNK23_CORBA_PseudoObj_MemberIN5CORBA7RequestE20_CORBA_PseudoObj_VarIS1_EEcvPS1_Ev @5003
    _ZNK23_CORBA_PseudoObj_MemberIN5CORBA7RequestE20_CORBA_PseudoObj_VarIS1_EEptEv @5004
    _ZNK23_CORBA_Sequence_BooleanrSER9cdrStream @5005
    _ZNK23_CORBA_Sequence_WStringixEm @5006
    _ZNK25_CORBA_Unbounded_SequenceIN5CORBA11InitializerEErSER9cdrStream @5007
    _ZNK25_CORBA_Unbounded_SequenceIN5CORBA11UnionMemberEErSER9cdrStream @5008
    _ZNK25_CORBA_Unbounded_SequenceIN5CORBA11ValueMemberEErSER9cdrStream @5009
    _ZNK25_CORBA_Unbounded_SequenceIN5CORBA12StructMemberEErSER9cdrStream @5010
    _ZNK25_CORBA_Unbounded_SequenceIN5CORBA20AttributeDescriptionEErSER9cdrStream @5011
    _ZNK25_CORBA_Unbounded_SequenceIN5CORBA20ExceptionDescriptionEErSER9cdrStream @5012
    _ZNK25_CORBA_Unbounded_SequenceIN5CORBA20OperationDescriptionEErSER9cdrStream @5013
    _ZNK25_CORBA_Unbounded_SequenceIN5CORBA20ParameterDescriptionEErSER9cdrStream @5014
    _ZNK25_CORBA_Unbounded_SequenceIN5CORBA3AnyEErSER9cdrStream @5015
    _ZNK25_CORBA_Unbounded_SequenceIN5CORBA9Container11DescriptionEErSER9cdrStream @5016
    _ZNK25_CORBA_Unbounded_SequenceIN9CosNaming13NameComponentEErSER9cdrStream @5017
    _ZNK25_CORBA_Unbounded_SequenceIN9CosNaming7BindingEErSER9cdrStream @5018
    _ZNK25_CORBA_Unbounded_SequenceIdErSER9cdrStream @5019
    _ZNK25_CORBA_Unbounded_SequenceIeErSER9cdrStream @5020
    _ZNK25_CORBA_Unbounded_SequenceIfErSER9cdrStream @5021
    _ZNK25_CORBA_Unbounded_SequenceIlErSER9cdrStream @5022
    _ZNK25_CORBA_Unbounded_SequenceImErSER9cdrStream @5023
    _ZNK25_CORBA_Unbounded_SequenceIsErSER9cdrStream @5024
    _ZNK25_CORBA_Unbounded_SequenceItErSER9cdrStream @5025
    _ZNK25_CORBA_Unbounded_SequenceIxErSER9cdrStream @5026
    _ZNK25_CORBA_Unbounded_SequenceIyErSER9cdrStream @5027
    _ZNK27_CORBA_PseudoValue_SequenceIN4omni11ContextImpl5EntryEE6lengthEv @5028
    _ZNK27_CORBA_PseudoValue_SequenceIN4omni11ContextImpl5EntryEE7maximumEv @5029
    _ZNK27_CORBA_PseudoValue_SequenceIN4omni11ContextImpl5EntryEEixEm @5030
    _ZNK27_CORBA_PseudoValue_SequenceIN4omni14TypeCode_union13TcUnionMemberEE6lengthEv @5031
    _ZNK27_CORBA_PseudoValue_SequenceIN4omni14TypeCode_union13TcUnionMemberEEixEm @5032
    _ZNK27_CORBA_PseudoValue_SequenceIPN5CORBA10NamedValueEE6lengthEv @5033
    _ZNK27_CORBA_PseudoValue_SequenceIPN5CORBA10NamedValueEE7maximumEv @5034
    _ZNK27_CORBA_PseudoValue_SequenceIPN5CORBA8TypeCodeEE6lengthEv @5035
    _ZNK27_CORBA_PseudoValue_SequenceIPN5CORBA8TypeCodeEE7maximumEv @5036
    _ZNK27_CORBA_PseudoValue_SequenceIPcE6lengthEv @5037
    _ZNK27_CORBA_PseudoValue_SequenceIPcE7maximumEv @5038
    _ZNK30_CORBA_ConstrType_Variable_VarIN5CORBA12InterfaceDef24FullInterfaceDescriptionEEcvRS2_Ev @5039
    _ZNK30_CORBA_ConstrType_Variable_VarIN5CORBA8ValueDef20FullValueDescriptionEEcvRS2_Ev @5040
    _ZNK30_CORBA_ConstrType_Variable_VarIN5CORBA9Contained11DescriptionEEcvRS2_Ev @5041
    _ZNK32_CORBA_Pseudo_Unbounded_SequenceIN5CORBA7RequestE23_CORBA_PseudoObj_MemberIS1_20_CORBA_PseudoObj_VarIS1_EEE6lengthEv @5042
    _ZNK32_CORBA_Pseudo_Unbounded_SequenceIN5CORBA7RequestE23_CORBA_PseudoObj_MemberIS1_20_CORBA_PseudoObj_VarIS1_EEEixEm @5043
    _ZNK42_CORBA_Unbounded_Sequence_w_FixSizeElementIdLi8ELi8EErSER9cdrStream @5044
    _ZNK42_CORBA_Unbounded_Sequence_w_FixSizeElementIfLi4ELi4EErSER9cdrStream @5045
    _ZNK42_CORBA_Unbounded_Sequence_w_FixSizeElementIlLi4ELi4EErSER9cdrStream @5046
    _ZNK42_CORBA_Unbounded_Sequence_w_FixSizeElementImLi4ELi4EErSER9cdrStream @5047
    _ZNK42_CORBA_Unbounded_Sequence_w_FixSizeElementIsLi2ELi2EErSER9cdrStream @5048
    _ZNK42_CORBA_Unbounded_Sequence_w_FixSizeElementItLi2ELi2EErSER9cdrStream @5049
    _ZNK42_CORBA_Unbounded_Sequence_w_FixSizeElementIxLi8ELi8EErSER9cdrStream @5050
    _ZNK42_CORBA_Unbounded_Sequence_w_FixSizeElementIyLi8ELi8EErSER9cdrStream @5051
    _ZNK4omni10DynAnyImpl11NP_nodetypeEv @5052
    _ZNK4omni10DynAnyImpl7isValidEv @5053
    _ZNK4omni10NVListImpl5countEv @5054
    _ZNK4omni10NVListImpl9NP_is_nilEv @5055
    _ZNK4omni10omniNilEnv9NP_is_nilEv @5056
    _ZNK4omni10omniNilEnv9exceptionEv @5057
    _ZNK4omni11ContextImpl12context_nameEv @5058
    _ZNK4omni11ContextImpl12matchPatternEPKcRmS3_ @5059
    _ZNK4omni11ContextImpl6parentEv @5060
    _ZNK4omni11ContextImpl9NP_is_nilEv @5061
    _ZNK4omni11DynEnumImpl11NP_nodetypeEv @5062
    _ZNK4omni11DynEnumImpl8actualTcEv @5063
    _ZNK4omni11RequestImpl3ctxEv @5064
    _ZNK4omni11RequestImpl6targetEv @5065
    _ZNK4omni11RequestImpl9NP_is_nilEv @5066
    _ZNK4omni11RequestImpl9operationEv @5067
    _ZNK4omni12DynArrayImpl11NP_nodetypeEv @5068
    _ZNK4omni12DynFixedImpl11NP_nodetypeEv @5069
    _ZNK4omni12DynFixedImpl8actualTcEv @5070
    _ZNK4omni12DynUnionDisc11NP_nodetypeEv @5071
    _ZNK4omni12DynUnionImpl11NP_nodetypeEv @5072
    _ZNK4omni12DynUnionImpl8actualTcEv @5073
    _ZNK4omni12DynValueImpl11NP_nodetypeEv @5074
    _ZNK4omni12UnknownValue10_NP_customEv @5075
    _ZNK4omni12UnknownValue16_NP_repositoryIdERm @5076
    _ZNK4omni12UnknownValue16_NP_repositoryIdEv @5077
    _ZNK4omni12UnknownValue17_PR_marshal_stateER9cdrStream @5078
    _ZNK4omni12UnknownValue18_NP_truncatableIdsEv @5079
    _ZNK4omni13DynStructImpl11NP_nodetypeEv @5080
    _ZNK4omni13TypeCode_base12NP_parameterEl @5081
    _ZNK4omni13TypeCode_base14NP_fixed_scaleEv @5082
    _ZNK4omni13TypeCode_base14NP_member_nameEm @5083
    _ZNK4omni13TypeCode_base14NP_member_typeEm @5084
    _ZNK4omni13TypeCode_base14NP_param_countEv @5085
    _ZNK4omni13TypeCode_base14alignmentTableEv @5086
    _ZNK4omni13TypeCode_base15NP_content_typeEv @5087
    _ZNK4omni13TypeCode_base15NP_fixed_digitsEv @5088
    _ZNK4omni13TypeCode_base15NP_member_countEv @5089
    _ZNK4omni13TypeCode_base15NP_member_labelEm @5090
    _ZNK4omni13TypeCode_base16NP_default_indexEv @5091
    _ZNK4omni13TypeCode_base16NP_extendedEqualEPKS0_bPKNS_17TypeCode_pairlistE @5092
    _ZNK4omni13TypeCode_base16NP_type_modifierEv @5093
    _ZNK4omni13TypeCode_base20NP_member_visibilityEm @5094
    _ZNK4omni13TypeCode_base21NP_concrete_base_typeEv @5095
    _ZNK4omni13TypeCode_base21NP_discriminator_typeEv @5096
    _ZNK4omni13TypeCode_base22NP_marshalSimpleParamsER9cdrStreamPNS_20TypeCode_offsetTableE @5097
    _ZNK4omni13TypeCode_base23NP_marshalComplexParamsER9cdrStreamPNS_20TypeCode_offsetTableE @5098
    _ZNK4omni13TypeCode_base5NP_idEv @5099
    _ZNK4omni13TypeCode_base7NP_kindEv @5100
    _ZNK4omni13TypeCode_base7NP_nameEv @5101
    _ZNK4omni13TypeCode_base8NP_equalEPKS0_bPKNS_17TypeCode_pairlistE @5102
    _ZNK4omni13TypeCode_base9NP_is_nilEv @5103
    _ZNK4omni13TypeCode_base9NP_lengthEv @5104
    _ZNK4omni13TypeCode_enum12NP_parameterEl @5105
    _ZNK4omni13TypeCode_enum14NP_member_nameEm @5106
    _ZNK4omni13TypeCode_enum14NP_param_countEv @5107
    _ZNK4omni13TypeCode_enum15NP_member_countEv @5108
    _ZNK4omni13TypeCode_enum15NP_member_indexEPKc @5109
    _ZNK4omni13TypeCode_enum16NP_extendedEqualEPKNS_13TypeCode_baseEbPKNS_17TypeCode_pairlistE @5110
    _ZNK4omni13TypeCode_enum23NP_marshalComplexParamsER9cdrStreamPNS_20TypeCode_offsetTableE @5111
    _ZNK4omni13TypeCode_enum5NP_idEv @5112
    _ZNK4omni13TypeCode_enum7NP_nameEv @5113
    _ZNK4omni13omniNilCtList5countEv @5114
    _ZNK4omni13omniNilCtList9NP_is_nilEv @5115
    _ZNK4omni13omniNilDynAny11NP_nodetypeEv @5116
    _ZNK4omni13omniNilDynAny4typeEv @5117
    _ZNK4omni13omniNilExList5countEv @5118
    _ZNK4omni13omniNilExList9NP_is_nilEv @5119
    _ZNK4omni13omniNilNVList5countEv @5120
    _ZNK4omni13omniNilNVList9NP_is_nilEv @5121
    _ZNK4omni14DynAnyImplBase2tcEv @5122
    _ZNK4omni14DynAnyImplBase4typeEv @5123
    _ZNK4omni14DynAnyImplBase6tckindEv @5124
    _ZNK4omni14DynAnyImplBase7is_rootEv @5125
    _ZNK4omni14DynAnyImplBase8actualTcEv @5126
    _ZNK4omni14DynAnyImplBase9destroyedEv @5127
    _ZNK4omni14NamedValueImpl4nameEv @5128
    _ZNK4omni14NamedValueImpl5flagsEv @5129
    _ZNK4omni14NamedValueImpl5valueEv @5130
    _ZNK4omni14NamedValueImpl9NP_is_nilEv @5131
    _ZNK4omni14TypeCode_alias12NP_parameterEl @5132
    _ZNK4omni14TypeCode_alias14NP_param_countEv @5133
    _ZNK4omni14TypeCode_alias15NP_content_typeEv @5134
    _ZNK4omni14TypeCode_alias16NP_extendedEqualEPKNS_13TypeCode_baseEbPKNS_17TypeCode_pairlistE @5135
    _ZNK4omni14TypeCode_alias23NP_marshalComplexParamsER9cdrStreamPNS_20TypeCode_offsetTableE @5136
    _ZNK4omni14TypeCode_alias5NP_idEv @5137
    _ZNK4omni14TypeCode_alias7NP_nameEv @5138
    _ZNK4omni14TypeCode_array12NP_parameterEl @5139
    _ZNK4omni14TypeCode_array14NP_param_countEv @5140
    _ZNK4omni14TypeCode_array15NP_content_typeEv @5141
    _ZNK4omni14TypeCode_array16NP_extendedEqualEPKNS_13TypeCode_baseEbPKNS_17TypeCode_pairlistE @5142
    _ZNK4omni14TypeCode_array23NP_marshalComplexParamsER9cdrStreamPNS_20TypeCode_offsetTableE @5143
    _ZNK4omni14TypeCode_array9NP_lengthEv @5144
    _ZNK4omni14TypeCode_fixed14NP_fixed_scaleEv @5145
    _ZNK4omni14TypeCode_fixed15NP_fixed_digitsEv @5146
    _ZNK4omni14TypeCode_fixed16NP_extendedEqualEPKNS_13TypeCode_baseEbPKNS_17TypeCode_pairlistE @5147
    _ZNK4omni14TypeCode_fixed22NP_marshalSimpleParamsER9cdrStreamPNS_20TypeCode_offsetTableE @5148
    _ZNK4omni14TypeCode_union12NP_parameterEl @5149
    _ZNK4omni14TypeCode_union14NP_member_nameEm @5150
    _ZNK4omni14TypeCode_union14NP_member_typeEm @5151
    _ZNK4omni14TypeCode_union14NP_param_countEv @5152
    _ZNK4omni14TypeCode_union15NP_member_countEv @5153
    _ZNK4omni14TypeCode_union15NP_member_labelEm @5154
    _ZNK4omni14TypeCode_union16NP_default_indexEv @5155
    _ZNK4omni14TypeCode_union16NP_extendedEqualEPKNS_13TypeCode_baseEbPKNS_17TypeCode_pairlistE @5156
    _ZNK4omni14TypeCode_union19NP_member_label_valEm @5157
    _ZNK4omni14TypeCode_union21NP_discriminator_typeEv @5158
    _ZNK4omni14TypeCode_union23NP_marshalComplexParamsER9cdrStreamPNS_20TypeCode_offsetTableE @5159
    _ZNK4omni14TypeCode_union27NP_index_from_discriminatorEy @5160
    _ZNK4omni14TypeCode_union5NP_idEv @5161
    _ZNK4omni14TypeCode_union7NP_nameEv @5162
    _ZNK4omni14TypeCode_value14NP_member_nameEm @5163
    _ZNK4omni14TypeCode_value14NP_member_typeEm @5164
    _ZNK4omni14TypeCode_value15NP_member_countEv @5165
    _ZNK4omni14TypeCode_value16NP_extendedEqualEPKNS_13TypeCode_baseEbPKNS_17TypeCode_pairlistE @5166
    _ZNK4omni14TypeCode_value16NP_paramListTypeEv @5167
    _ZNK4omni14TypeCode_value16NP_type_modifierEv @5168
    _ZNK4omni14TypeCode_value20NP_member_visibilityEm @5169
    _ZNK4omni14TypeCode_value21NP_concrete_base_typeEv @5170
    _ZNK4omni14TypeCode_value23NP_marshalComplexParamsER9cdrStreamPNS_20TypeCode_offsetTableE @5171
    _ZNK4omni14TypeCode_value5NP_idEv @5172
    _ZNK4omni14TypeCode_value7NP_nameEv @5173
    _ZNK4omni14omniNilContext12context_nameEv @5174
    _ZNK4omni14omniNilContext6parentEv @5175
    _ZNK4omni14omniNilContext9NP_is_nilEv @5176
    _ZNK4omni14omniNilRequest3ctxEv @5177
    _ZNK4omni14omniNilRequest6targetEv @5178
    _ZNK4omni14omniNilRequest9NP_is_nilEv @5179
    _ZNK4omni14omniNilRequest9operationEv @5180
    _ZNK4omni15ContextListImpl5countEv @5181
    _ZNK4omni15ContextListImpl9NP_is_nilEv @5182
    _ZNK4omni15DynSequenceImpl11NP_nodetypeEv @5183
    _ZNK4omni15DynValueBoxImpl11NP_nodetypeEv @5184
    _ZNK4omni15TypeCode_except12NP_parameterEl @5185
    _ZNK4omni15TypeCode_except14NP_member_nameEm @5186
    _ZNK4omni15TypeCode_except14NP_member_typeEm @5187
    _ZNK4omni15TypeCode_except14NP_param_countEv @5188
    _ZNK4omni15TypeCode_except15NP_member_countEv @5189
    _ZNK4omni15TypeCode_except16NP_extendedEqualEPKNS_13TypeCode_baseEbPKNS_17TypeCode_pairlistE @5190
    _ZNK4omni15TypeCode_except23NP_marshalComplexParamsER9cdrStreamPNS_20TypeCode_offsetTableE @5191
    _ZNK4omni15TypeCode_except5NP_idEv @5192
    _ZNK4omni15TypeCode_except7NP_nameEv @5193
    _ZNK4omni15TypeCode_objref12NP_parameterEl @5194
    _ZNK4omni15TypeCode_objref14NP_param_countEv @5195
    _ZNK4omni15TypeCode_objref16NP_extendedEqualEPKNS_13TypeCode_baseEbPKNS_17TypeCode_pairlistE @5196
    _ZNK4omni15TypeCode_objref16NP_paramListTypeEv @5197
    _ZNK4omni15TypeCode_objref23NP_marshalComplexParamsER9cdrStreamPNS_20TypeCode_offsetTableE @5198
    _ZNK4omni15TypeCode_objref5NP_idEv @5199
    _ZNK4omni15TypeCode_objref7NP_nameEv @5200
    _ZNK4omni15TypeCode_string12NP_parameterEl @5201
    _ZNK4omni15TypeCode_string14NP_param_countEv @5202
    _ZNK4omni15TypeCode_string16NP_extendedEqualEPKNS_13TypeCode_baseEbPKNS_17TypeCode_pairlistE @5203
    _ZNK4omni15TypeCode_string22NP_marshalSimpleParamsER9cdrStreamPNS_20TypeCode_offsetTableE @5204
    _ZNK4omni15TypeCode_string9NP_lengthEv @5205
    _ZNK4omni15TypeCode_struct12NP_parameterEl @5206
    _ZNK4omni15TypeCode_struct14NP_member_nameEm @5207
    _ZNK4omni15TypeCode_struct14NP_member_typeEm @5208
    _ZNK4omni15TypeCode_struct14NP_param_countEv @5209
    _ZNK4omni15TypeCode_struct15NP_member_countEv @5210
    _ZNK4omni15TypeCode_struct16NP_extendedEqualEPKNS_13TypeCode_baseEbPKNS_17TypeCode_pairlistE @5211
    _ZNK4omni15TypeCode_struct23NP_marshalComplexParamsER9cdrStreamPNS_20TypeCode_offsetTableE @5212
    _ZNK4omni15TypeCode_struct5NP_idEv @5213
    _ZNK4omni15TypeCode_struct7NP_nameEv @5214
    _ZNK4omni16DynAnyConstrBase18canAppendComponentEj @5215
    _ZNK4omni16DynUnionEnumDisc11NP_nodetypeEv @5216
    _ZNK4omni16DynUnionEnumDisc8actualTcEv @5217
    _ZNK4omni16TypeCode_wstring12NP_parameterEl @5218
    _ZNK4omni16TypeCode_wstring14NP_param_countEv @5219
    _ZNK4omni16TypeCode_wstring16NP_extendedEqualEPKNS_13TypeCode_baseEbPKNS_17TypeCode_pairlistE @5220
    _ZNK4omni16TypeCode_wstring22NP_marshalSimpleParamsER9cdrStreamPNS_20TypeCode_offsetTableE @5221
    _ZNK4omni16TypeCode_wstring9NP_lengthEv @5222
    _ZNK4omni17ExceptionListImpl5countEv @5223
    _ZNK4omni17ExceptionListImpl9NP_is_nilEv @5224
    _ZNK4omni17TypeCode_indirect12NP_parameterEl @5225
    _ZNK4omni17TypeCode_indirect14NP_fixed_scaleEv @5226
    _ZNK4omni17TypeCode_indirect14NP_member_nameEm @5227
    _ZNK4omni17TypeCode_indirect14NP_member_typeEm @5228
    _ZNK4omni17TypeCode_indirect14NP_param_countEv @5229
    _ZNK4omni17TypeCode_indirect15NP_content_typeEv @5230
    _ZNK4omni17TypeCode_indirect15NP_fixed_digitsEv @5231
    _ZNK4omni17TypeCode_indirect15NP_member_countEv @5232
    _ZNK4omni17TypeCode_indirect15NP_member_labelEm @5233
    _ZNK4omni17TypeCode_indirect16NP_default_indexEv @5234
    _ZNK4omni17TypeCode_indirect16NP_extendedEqualEPKNS_13TypeCode_baseEbPKNS_17TypeCode_pairlistE @5235
    _ZNK4omni17TypeCode_indirect16NP_type_modifierEv @5236
    _ZNK4omni17TypeCode_indirect20NP_member_visibilityEm @5237
    _ZNK4omni17TypeCode_indirect21NP_concrete_base_typeEv @5238
    _ZNK4omni17TypeCode_indirect21NP_discriminator_typeEv @5239
    _ZNK4omni17TypeCode_indirect22NP_marshalSimpleParamsER9cdrStreamPNS_20TypeCode_offsetTableE @5240
    _ZNK4omni17TypeCode_indirect23NP_marshalComplexParamsER9cdrStreamPNS_20TypeCode_offsetTableE @5241
    _ZNK4omni17TypeCode_indirect5NP_idEv @5242
    _ZNK4omni17TypeCode_indirect7NP_nameEv @5243
    _ZNK4omni17TypeCode_indirect9NP_lengthEv @5244
    _ZNK4omni17TypeCode_sequence12NP_parameterEl @5245
    _ZNK4omni17TypeCode_sequence14NP_param_countEv @5246
    _ZNK4omni17TypeCode_sequence15NP_content_typeEv @5247
    _ZNK4omni17TypeCode_sequence16NP_extendedEqualEPKNS_13TypeCode_baseEbPKNS_17TypeCode_pairlistE @5248
    _ZNK4omni17TypeCode_sequence16NP_paramListTypeEv @5249
    _ZNK4omni17TypeCode_sequence22PR_content_is_assignedEv @5250
    _ZNK4omni17TypeCode_sequence23NP_marshalComplexParamsER9cdrStreamPNS_20TypeCode_offsetTableE @5251
    _ZNK4omni17TypeCode_sequence9NP_lengthEv @5252
    _ZNK4omni18TypeCode_value_box15NP_content_typeEv @5253
    _ZNK4omni18TypeCode_value_box16NP_extendedEqualEPKNS_13TypeCode_baseEbPKNS_17TypeCode_pairlistE @5254
    _ZNK4omni18TypeCode_value_box16NP_paramListTypeEv @5255
    _ZNK4omni18TypeCode_value_box23NP_marshalComplexParamsER9cdrStreamPNS_20TypeCode_offsetTableE @5256
    _ZNK4omni18TypeCode_value_box5NP_idEv @5257
    _ZNK4omni18TypeCode_value_box7NP_nameEv @5258
    _ZNK4omni19TypeCode_alignTable15has_only_simpleEv @5259
    _ZNK4omni19TypeCode_alignTable5i_ownEj @5260
    _ZNK4omni19TypeCode_alignTable7entriesEv @5261
    _ZNK4omni19TypeCode_alignTable9is_simpleEv @5262
    _ZNK4omni19TypeCode_alignTableixEj @5263
    _ZNK4omni20FromAnyUserException10_NP_repoIdEPi @5264
    _ZNK4omni20FromAnyUserException10_NP_typeIdEv @5265
    _ZNK4omni20FromAnyUserException11_NP_marshalER9cdrStream @5266
    _ZNK4omni20FromAnyUserException13_NP_duplicateEv @5267
    _ZNK4omni20FromAnyUserException6_raiseEv @5268
    _ZNK4omni9omniNilNV4nameEv @5269
    _ZNK4omni9omniNilNV5flagsEv @5270
    _ZNK4omni9omniNilNV5valueEv @5271
    _ZNK4omni9omniNilNV9NP_is_nilEv @5272
    _ZNK5CORBA10Object_varcvPNS_6ObjectEEv @5273
    _ZNK5CORBA10Object_varptEv @5274
    _ZNK5CORBA11ContextList6Bounds10_NP_repoIdEPi @5275
    _ZNK5CORBA11ContextList6Bounds10_NP_typeIdEv @5276
    _ZNK5CORBA11ContextList6Bounds11_NP_marshalER9cdrStream @5277
    _ZNK5CORBA11ContextList6Bounds13_NP_duplicateEv @5278
    _ZNK5CORBA11ContextList6Bounds6_raiseEv @5279
    _ZNK5CORBA11ContextList6BoundsrSER9cdrStream @5280
    _ZNK5CORBA11Environment9NP_is_nilEv @5281
    _ZNK5CORBA11Environment9exceptionEv @5282
    _ZNK5CORBA11InitializerrSER9cdrStream @5283
    _ZNK5CORBA11PolicyError10_NP_repoIdEPi @5284
    _ZNK5CORBA11PolicyError10_NP_typeIdEv @5285
    _ZNK5CORBA11PolicyError11_NP_marshalER9cdrStream @5286
    _ZNK5CORBA11PolicyError13_NP_duplicateEv @5287
    _ZNK5CORBA11PolicyError6_raiseEv @5288
    _ZNK5CORBA11PolicyErrorrSER9cdrStream @5289
    _ZNK5CORBA11StringValue10_NP_customEv @5290
    _ZNK5CORBA11StringValue16_NP_repositoryIdERm @5291
    _ZNK5CORBA11StringValue16_NP_repositoryIdEv @5292
    _ZNK5CORBA11StringValue17_PR_marshal_stateER9cdrStream @5293
    _ZNK5CORBA11StringValue18_NP_truncatableIdsEv @5294
    _ZNK5CORBA11StringValue7_NP_boxEv @5295
    _ZNK5CORBA11UnionMemberrSER9cdrStream @5296
    _ZNK5CORBA11ValueMemberrSER9cdrStream @5297
    _ZNK5CORBA12AbstractBase10_NP_is_nilEv @5298
    _ZNK5CORBA12InterfaceDef24FullInterfaceDescriptionrSER9cdrStream @5299
    _ZNK5CORBA12StructMemberrSER9cdrStream @5300
    _ZNK5CORBA12TypeCode_var2inEv @5301
    _ZNK5CORBA12TypeCode_varcvPNS_8TypeCodeEEv @5302
    _ZNK5CORBA12TypeCode_varptEv @5303
    _ZNK5CORBA12WStringValue10_NP_customEv @5304
    _ZNK5CORBA12WStringValue16_NP_repositoryIdERm @5305
    _ZNK5CORBA12WStringValue16_NP_repositoryIdEv @5306
    _ZNK5CORBA12WStringValue17_PR_marshal_stateER9cdrStream @5307
    _ZNK5CORBA12WStringValue18_NP_truncatableIdsEv @5308
    _ZNK5CORBA12WStringValue7_NP_boxEv @5309
    _ZNK5CORBA12_pof_EnumDef4is_aEPKc @5310
    _ZNK5CORBA12_pof_IDLType4is_aEPKc @5311
    _ZNK5CORBA13ExceptionList6Bounds10_NP_repoIdEPi @5312
    _ZNK5CORBA13ExceptionList6Bounds10_NP_typeIdEv @5313
    _ZNK5CORBA13ExceptionList6Bounds11_NP_marshalER9cdrStream @5314
    _ZNK5CORBA13ExceptionList6Bounds13_NP_duplicateEv @5315
    _ZNK5CORBA13ExceptionList6Bounds6_raiseEv @5316
    _ZNK5CORBA13ExceptionList6BoundsrSER9cdrStream @5317
    _ZNK5CORBA13Object_MemberrSER9cdrStream @5318
    _ZNK5CORBA13ValueBase_var2inEv @5319
    _ZNK5CORBA13ValueBase_varcvPNS_9ValueBaseEEv @5320
    _ZNK5CORBA13ValueBase_varptEv @5321
    _ZNK5CORBA13_pof_AliasDef4is_aEPKc @5322
    _ZNK5CORBA13_pof_ArrayDef4is_aEPKc @5323
    _ZNK5CORBA13_pof_FixedDef4is_aEPKc @5324
    _ZNK5CORBA13_pof_IRObject4is_aEPKc @5325
    _ZNK5CORBA13_pof_UnionDef4is_aEPKc @5326
    _ZNK5CORBA13_pof_ValueDef4is_aEPKc @5327
    _ZNK5CORBA14_pof_Contained4is_aEPKc @5328
    _ZNK5CORBA14_pof_Container4is_aEPKc @5329
    _ZNK5CORBA14_pof_ModuleDef4is_aEPKc @5330
    _ZNK5CORBA14_pof_NativeDef4is_aEPKc @5331
    _ZNK5CORBA14_pof_StringDef4is_aEPKc @5332
    _ZNK5CORBA14_pof_StructDef4is_aEPKc @5333
    _ZNK5CORBA15SystemException5minorEv @5334
    _ZNK5CORBA15SystemException9completedEv @5335
    _ZNK5CORBA15TypeCode_membercvPNS_8TypeCodeEEv @5336
    _ZNK5CORBA15TypeCode_memberptEv @5337
    _ZNK5CORBA15TypeCode_memberrSER9cdrStream @5338
    _ZNK5CORBA15TypeDescriptionrSER9cdrStream @5339
    _ZNK5CORBA15ValueDefSeq_var2inEv @5340
    _ZNK5CORBA15ValueDefSeq_varcvRNS_11ValueDefSeqEEv @5341
    _ZNK5CORBA15_pof_Repository4is_aEPKc @5342
    _ZNK5CORBA15_pof_TypedefDef4is_aEPKc @5343
    _ZNK5CORBA15_pof_WstringDef4is_aEPKc @5344
    _ZNK5CORBA16ContainedSeq_varcvRNS_12ContainedSeqEEv @5345
    _ZNK5CORBA16ContextIdSeq_var2inEv @5346
    _ZNK5CORBA16ContextIdSeq_varcvRNS_12ContextIdSeqEEv @5347
    _ZNK5CORBA16ValueDescriptionrSER9cdrStream @5348
    _ZNK5CORBA16WrongTransaction10_NP_repoIdEPi @5349
    _ZNK5CORBA16WrongTransaction10_NP_typeIdEv @5350
    _ZNK5CORBA16WrongTransaction11_NP_marshalER9cdrStream @5351
    _ZNK5CORBA16WrongTransaction13_NP_duplicateEv @5352
    _ZNK5CORBA16WrongTransaction6_raiseEv @5353
    _ZNK5CORBA16WrongTransactionrSER9cdrStream @5354
    _ZNK5CORBA16_pof_ConstantDef4is_aEPKc @5355
    _ZNK5CORBA16_pof_SequenceDef4is_aEPKc @5356
    _ZNK5CORBA16_pof_ValueBoxDef4is_aEPKc @5357
    _ZNK5CORBA17EnumMemberSeq_var2inEv @5358
    _ZNK5CORBA17EnumMemberSeq_varcvRNS_13EnumMemberSeqEEv @5359
    _ZNK5CORBA17ModuleDescriptionrSER9cdrStream @5360
    _ZNK5CORBA17_pof_AttributeDef4is_aEPKc @5361
    _ZNK5CORBA17_pof_ExceptionDef4is_aEPKc @5362
    _ZNK5CORBA17_pof_InterfaceDef4is_aEPKc @5363
    _ZNK5CORBA17_pof_OperationDef4is_aEPKc @5364
    _ZNK5CORBA17_pof_PrimitiveDef4is_aEPKc @5365
    _ZNK5CORBA18InitializerSeq_var2inEv @5366
    _ZNK5CORBA18InitializerSeq_varcvRNS_14InitializerSeqEEv @5367
    _ZNK5CORBA18UnionMemberSeq_var2inEv @5368
    _ZNK5CORBA18UnionMemberSeq_varcvRNS_14UnionMemberSeqEEv @5369
    _ZNK5CORBA19ConstantDescriptionrSER9cdrStream @5370
    _ZNK5CORBA19ExceptionDefSeq_var2inEv @5371
    _ZNK5CORBA19ExceptionDefSeq_varcvRNS_15ExceptionDefSeqEEv @5372
    _ZNK5CORBA19InterfaceDefSeq_var2inEv @5373
    _ZNK5CORBA19InterfaceDefSeq_varcvRNS_15InterfaceDefSeqEEv @5374
    _ZNK5CORBA19StructMemberSeq_var2inEv @5375
    _ZNK5CORBA19StructMemberSeq_varcvRNS_15StructMemberSeqEEv @5376
    _ZNK5CORBA19_pof_ValueMemberDef4is_aEPKc @5377
    _ZNK5CORBA20AttributeDescriptionrSER9cdrStream @5378
    _ZNK5CORBA20ExceptionDescriptionrSER9cdrStream @5379
    _ZNK5CORBA20InterfaceDescriptionrSER9cdrStream @5380
    _ZNK5CORBA20OperationDescriptionrSER9cdrStream @5381
    _ZNK5CORBA20ParameterDescriptionrSER9cdrStream @5382
    _ZNK5CORBA20UnknownUserException10_NP_repoIdEPi @5383
    _ZNK5CORBA20UnknownUserException10_NP_typeIdEv @5384
    _ZNK5CORBA20UnknownUserException11_NP_marshalER9cdrStream @5385
    _ZNK5CORBA20UnknownUserException13_NP_duplicateEv @5386
    _ZNK5CORBA20UnknownUserException6_raiseEv @5387
    _ZNK5CORBA21ParDescriptionSeq_var2inEv @5388
    _ZNK5CORBA21ParDescriptionSeq_varcvRNS_17ParDescriptionSeqEEv @5389
    _ZNK5CORBA24_omni_AbstractBaseObjref10_NP_is_nilEv @5390
    _ZNK5CORBA25_pof_AbstractInterfaceDef4is_aEPKc @5391
    _ZNK5CORBA27AbstractInterfaceDefSeq_var2inEv @5392
    _ZNK5CORBA27AbstractInterfaceDefSeq_varcvRNS_23AbstractInterfaceDefSeqEEv @5393
    _ZNK5CORBA3Any10PR_extractEPNS_8TypeCodeEPFvR9cdrStreamRPvEPFvS4_S5_EPFvS5_ES6_ @5394
    _ZNK5CORBA3Any10PR_extractEPNS_8TypeCodeEPFvR9cdrStreamRPvES5_ @5395
    _ZNK5CORBA3Any15PR_streamToReadEv @5396
    _ZNK5CORBA3Any18NP_marshalDataOnlyER9cdrStream @5397
    _ZNK5CORBA3Any4typeEv @5398
    _ZNK5CORBA3Any5valueEv @5399
    _ZNK5CORBA3AnyrSENS0_10to_booleanE @5400
    _ZNK5CORBA3AnyrSENS0_10to_wstringE @5401
    _ZNK5CORBA3AnyrSENS0_16to_abstract_baseE @5402
    _ZNK5CORBA3AnyrSENS0_7to_charE @5403
    _ZNK5CORBA3AnyrSENS0_8to_fixedE @5404
    _ZNK5CORBA3AnyrSENS0_8to_octetE @5405
    _ZNK5CORBA3AnyrSENS0_8to_valueE @5406
    _ZNK5CORBA3AnyrSENS0_8to_wcharE @5407
    _ZNK5CORBA3AnyrSENS0_9to_objectE @5408
    _ZNK5CORBA3AnyrSENS0_9to_stringE @5409
    _ZNK5CORBA3AnyrSER9cdrStream @5410
    _ZNK5CORBA3AnyrSERPKNS_15SystemExceptionE @5411
    _ZNK5CORBA3AnyrSERPKS0_ @5412
    _ZNK5CORBA3AnyrSERPKc @5413
    _ZNK5CORBA3AnyrSERPKw @5414
    _ZNK5CORBA3AnyrSERPNS_6ObjectE @5415
    _ZNK5CORBA3AnyrSERPNS_8TypeCodeE @5416
    _ZNK5CORBA3AnyrSERPS0_ @5417
    _ZNK5CORBA3AnyrSERS0_ @5418
    _ZNK5CORBA3AnyrSERd @5419
    _ZNK5CORBA3AnyrSERe @5420
    _ZNK5CORBA3AnyrSERf @5421
    _ZNK5CORBA3AnyrSERl @5422
    _ZNK5CORBA3AnyrSERm @5423
    _ZNK5CORBA3AnyrSERs @5424
    _ZNK5CORBA3AnyrSERt @5425
    _ZNK5CORBA3AnyrSERx @5426
    _ZNK5CORBA3AnyrSERy @5427
    _ZNK5CORBA3ORB20InconsistentTypeCode10_NP_repoIdEPi @5428
    _ZNK5CORBA3ORB20InconsistentTypeCode10_NP_typeIdEv @5429
    _ZNK5CORBA3ORB20InconsistentTypeCode11_NP_marshalER9cdrStream @5430
    _ZNK5CORBA3ORB20InconsistentTypeCode13_NP_duplicateEv @5431
    _ZNK5CORBA3ORB20InconsistentTypeCode6_raiseEv @5432
    _ZNK5CORBA3ORB20InconsistentTypeCoderSER9cdrStream @5433
    _ZNK5CORBA6NVList6Bounds10_NP_repoIdEPi @5434
    _ZNK5CORBA6NVList6Bounds10_NP_typeIdEv @5435
    _ZNK5CORBA6NVList6Bounds11_NP_marshalER9cdrStream @5436
    _ZNK5CORBA6NVList6Bounds13_NP_duplicateEv @5437
    _ZNK5CORBA6NVList6Bounds6_raiseEv @5438
    _ZNK5CORBA6NVList6BoundsrSER9cdrStream @5439
    _ZNK5CORBA6Object10_NP_is_nilEv @5440
    _ZNK5CORBA6Object13_NP_is_pseudoEv @5441
    _ZNK5CORBA7Any_var2inEv @5442
    _ZNK5CORBA7Any_varcvRNS_3AnyEEv @5443
    _ZNK5CORBA7Any_varptEv @5444
    _ZNK5CORBA7Any_varrSENS_3Any8to_valueE @5445
    _ZNK5CORBA8TypeCode10equivalentEPS0_ @5446
    _ZNK5CORBA8TypeCode11fixed_scaleEv @5447
    _ZNK5CORBA8TypeCode11member_nameEm @5448
    _ZNK5CORBA8TypeCode11member_typeEm @5449
    _ZNK5CORBA8TypeCode11param_countEv @5450
    _ZNK5CORBA8TypeCode12content_typeEv @5451
    _ZNK5CORBA8TypeCode12fixed_digitsEv @5452
    _ZNK5CORBA8TypeCode12member_countEv @5453
    _ZNK5CORBA8TypeCode12member_labelEm @5454
    _ZNK5CORBA8TypeCode13default_indexEv @5455
    _ZNK5CORBA8TypeCode13type_modifierEv @5456
    _ZNK5CORBA8TypeCode17member_visibilityEm @5457
    _ZNK5CORBA8TypeCode18concrete_base_typeEv @5458
    _ZNK5CORBA8TypeCode18discriminator_typeEv @5459
    _ZNK5CORBA8TypeCode20get_compact_typecodeEv @5460
    _ZNK5CORBA8TypeCode2idEv @5461
    _ZNK5CORBA8TypeCode4kindEv @5462
    _ZNK5CORBA8TypeCode4nameEv @5463
    _ZNK5CORBA8TypeCode5equalEPS0_ @5464
    _ZNK5CORBA8TypeCode6Bounds10_NP_repoIdEPi @5465
    _ZNK5CORBA8TypeCode6Bounds10_NP_typeIdEv @5466
    _ZNK5CORBA8TypeCode6Bounds11_NP_marshalER9cdrStream @5467
    _ZNK5CORBA8TypeCode6Bounds13_NP_duplicateEv @5468
    _ZNK5CORBA8TypeCode6Bounds6_raiseEv @5469
    _ZNK5CORBA8TypeCode6BoundsrSER9cdrStream @5470
    _ZNK5CORBA8TypeCode6lengthEv @5471
    _ZNK5CORBA8TypeCode7BadKind10_NP_repoIdEPi @5472
    _ZNK5CORBA8TypeCode7BadKind10_NP_typeIdEv @5473
    _ZNK5CORBA8TypeCode7BadKind11_NP_marshalER9cdrStream @5474
    _ZNK5CORBA8TypeCode7BadKind13_NP_duplicateEv @5475
    _ZNK5CORBA8TypeCode7BadKind6_raiseEv @5476
    _ZNK5CORBA8TypeCode7BadKindrSER9cdrStream @5477
    _ZNK5CORBA8TypeCode9NP_is_nilEv @5478
    _ZNK5CORBA8TypeCode9parameterEl @5479
    _ZNK5CORBA8ValueDef20FullValueDescriptionrSER9cdrStream @5480
    _ZNK5CORBA9Contained11DescriptionrSER9cdrStream @5481
    _ZNK5CORBA9Container11DescriptionrSER9cdrStream @5482
    _ZNK5CORBA9Container18DescriptionSeq_varcvRNS0_14DescriptionSeqEEv @5483
    _ZNK5CORBA9Exception13insertToAnyFnEv @5484
    _ZNK5CORBA9Exception16insertToAnyFnNCPEv @5485
    _ZNK5CORBA9ValueBase7_NP_boxEv @5486
    _ZNK9CosNaming13NamingContext11InvalidNamerSER9cdrStream @5487
    _ZNK9CosNaming13NamingContext12AlreadyBoundrSER9cdrStream @5488
    _ZNK9CosNaming13NamingContext8NotEmptyrSER9cdrStream @5489
    _ZNK9CosNaming16NamingContextExt14InvalidAddressrSER9cdrStream @5490
    _ZNK9cdrStream12valueTrackerEv @5491
    _ZNK9cdrStream17marshal_byte_swapEv @5492
    _ZNK9cdrStream19unmarshal_byte_swapEv @5493
    _ZNK9cdrStream5TCS_CEv @5494
    _ZNK9cdrStream5TCS_WEv @5495
    _ZTCN10DynamicAny11DynValueBoxE0_NS_14DynValueCommonE @5496 DATA
    _ZTCN10DynamicAny8DynValueE0_NS_14DynValueCommonE @5497 DATA
    _ZTCN14PortableServer17ValueRefCountBaseE12_NS_11ServantBaseE @5498 DATA
    _ZTCN14PortableServer21DynamicImplementationE4_NS_11ServantBaseE @5499 DATA
    _ZTCN4omni10DynAnyImplE0_NS_14DynAnyImplBaseE @5500 DATA
    _ZTCN4omni11DynEnumImplE0_NS_10DynAnyImplE @5501 DATA
    _ZTCN4omni11DynEnumImplE0_NS_14DynAnyImplBaseE @5502 DATA
    _ZTCN4omni11DynEnumImplE108_N10DynamicAny7DynEnumE @5503 DATA
    _ZTCN4omni12DynArrayImplE0_NS_14DynAnyImplBaseE @5504 DATA
    _ZTCN4omni12DynArrayImplE0_NS_16DynAnyConstrBaseE @5505 DATA
    _ZTCN4omni12DynArrayImplE144_N10DynamicAny8DynArrayE @5506 DATA
    _ZTCN4omni12DynFixedImplE0_NS_10DynAnyImplE @5507 DATA
    _ZTCN4omni12DynFixedImplE0_NS_14DynAnyImplBaseE @5508 DATA
    _ZTCN4omni12DynFixedImplE108_N10DynamicAny8DynFixedE @5509 DATA
    _ZTCN4omni12DynUnionDiscE0_NS_10DynAnyImplE @5510 DATA
    _ZTCN4omni12DynUnionDiscE0_NS_14DynAnyImplBaseE @5511 DATA
    _ZTCN4omni12DynUnionImplE0_NS_14DynAnyImplBaseE @5512 DATA
    _ZTCN4omni12DynUnionImplE108_N10DynamicAny8DynUnionE @5513 DATA
    _ZTCN4omni12DynValueImplE0_NS_14DynAnyImplBaseE @5514 DATA
    _ZTCN4omni12DynValueImplE0_NS_16DynAnyConstrBaseE @5515 DATA
    _ZTCN4omni12DynValueImplE144_N10DynamicAny14DynValueCommonE @5516 DATA
    _ZTCN4omni12DynValueImplE144_N10DynamicAny8DynValueE @5517 DATA
    _ZTCN4omni12UnknownValueE104_N5CORBA24DefaultValueRefCountBaseE @5518 DATA
    _ZTCN4omni13DynStructImplE0_NS_14DynAnyImplBaseE @5519 DATA
    _ZTCN4omni13DynStructImplE0_NS_16DynAnyConstrBaseE @5520 DATA
    _ZTCN4omni13DynStructImplE144_N10DynamicAny9DynStructE @5521 DATA
    _ZTCN4omni14omniNilDynEnumE0_NS_13omniNilDynAnyE @5522 DATA
    _ZTCN4omni14omniNilDynEnumE4_N10DynamicAny7DynEnumE @5523 DATA
    _ZTCN4omni15DynSequenceImplE0_NS_14DynAnyImplBaseE @5524 DATA
    _ZTCN4omni15DynSequenceImplE0_NS_16DynAnyConstrBaseE @5525 DATA
    _ZTCN4omni15DynSequenceImplE144_N10DynamicAny11DynSequenceE @5526 DATA
    _ZTCN4omni15DynValueBoxImplE0_NS_14DynAnyImplBaseE @5527 DATA
    _ZTCN4omni15DynValueBoxImplE0_NS_16DynAnyConstrBaseE @5528 DATA
    _ZTCN4omni15DynValueBoxImplE144_N10DynamicAny11DynValueBoxE @5529 DATA
    _ZTCN4omni15DynValueBoxImplE144_N10DynamicAny14DynValueCommonE @5530 DATA
    _ZTCN4omni15omniNilDynArrayE0_NS_13omniNilDynAnyE @5531 DATA
    _ZTCN4omni15omniNilDynArrayE4_N10DynamicAny8DynArrayE @5532 DATA
    _ZTCN4omni15omniNilDynFixedE0_NS_13omniNilDynAnyE @5533 DATA
    _ZTCN4omni15omniNilDynFixedE4_N10DynamicAny8DynFixedE @5534 DATA
    _ZTCN4omni15omniNilDynUnionE0_NS_13omniNilDynAnyE @5535 DATA
    _ZTCN4omni15omniNilDynUnionE4_N10DynamicAny8DynUnionE @5536 DATA
    _ZTCN4omni15omniNilDynValueE0_NS_13omniNilDynAnyE @5537 DATA
    _ZTCN4omni15omniNilDynValueE4_N10DynamicAny14DynValueCommonE @5538 DATA
    _ZTCN4omni15omniNilDynValueE4_N10DynamicAny8DynValueE @5539 DATA
    _ZTCN4omni16DynAnyConstrBaseE0_NS_14DynAnyImplBaseE @5540 DATA
    _ZTCN4omni16DynUnionEnumDiscE0_NS_10DynAnyImplE @5541 DATA
    _ZTCN4omni16DynUnionEnumDiscE0_NS_12DynUnionDiscE @5542 DATA
    _ZTCN4omni16DynUnionEnumDiscE0_NS_14DynAnyImplBaseE @5543 DATA
    _ZTCN4omni16DynUnionEnumDiscE112_N10DynamicAny7DynEnumE @5544 DATA
    _ZTCN4omni16omniNilDynStructE0_NS_13omniNilDynAnyE @5545 DATA
    _ZTCN4omni16omniNilDynStructE4_N10DynamicAny9DynStructE @5546 DATA
    _ZTCN4omni18omniNilDynSequenceE0_NS_13omniNilDynAnyE @5547 DATA
    _ZTCN4omni18omniNilDynSequenceE4_N10DynamicAny11DynSequenceE @5548 DATA
    _ZTCN4omni18omniNilDynValueBoxE0_NS_13omniNilDynAnyE @5549 DATA
    _ZTCN4omni18omniNilDynValueBoxE4_N10DynamicAny11DynValueBoxE @5550 DATA
    _ZTCN4omni18omniNilDynValueBoxE4_N10DynamicAny14DynValueCommonE @5551 DATA
    _ZTCN4omni21omniNilDynValueCommonE0_NS_13omniNilDynAnyE @5552 DATA
    _ZTCN4omni21omniNilDynValueCommonE4_N10DynamicAny14DynValueCommonE @5553 DATA
    _ZTCN5CORBA11StringValueE0_NS_24DefaultValueRefCountBaseE @5554 DATA
    _ZTCN5CORBA12WStringValueE0_NS_24DefaultValueRefCountBaseE @5555 DATA
    _ZTCN5CORBA13_impl_EnumDefE0_NS_14_impl_IRObjectE @5556 DATA
    _ZTCN5CORBA13_impl_EnumDefE0_NS_15_impl_ContainedE @5557 DATA
    _ZTCN5CORBA13_impl_EnumDefE0_NS_16_impl_TypedefDefE @5558 DATA
    _ZTCN5CORBA13_impl_EnumDefE20_NS_13_impl_IDLTypeE @5559 DATA
    _ZTCN5CORBA13_impl_IDLTypeE0_NS_14_impl_IRObjectE @5560 DATA
    _ZTCN5CORBA14_impl_AliasDefE0_NS_14_impl_IRObjectE @5561 DATA
    _ZTCN5CORBA14_impl_AliasDefE0_NS_15_impl_ContainedE @5562 DATA
    _ZTCN5CORBA14_impl_AliasDefE0_NS_16_impl_TypedefDefE @5563 DATA
    _ZTCN5CORBA14_impl_AliasDefE20_NS_13_impl_IDLTypeE @5564 DATA
    _ZTCN5CORBA14_impl_ArrayDefE0_NS_13_impl_IDLTypeE @5565 DATA
    _ZTCN5CORBA14_impl_ArrayDefE0_NS_14_impl_IRObjectE @5566 DATA
    _ZTCN5CORBA14_impl_FixedDefE0_NS_13_impl_IDLTypeE @5567 DATA
    _ZTCN5CORBA14_impl_FixedDefE0_NS_14_impl_IRObjectE @5568 DATA
    _ZTCN5CORBA14_impl_UnionDefE0_NS_14_impl_IRObjectE @5569 DATA
    _ZTCN5CORBA14_impl_UnionDefE0_NS_15_impl_ContainedE @5570 DATA
    _ZTCN5CORBA14_impl_UnionDefE0_NS_16_impl_TypedefDefE @5571 DATA
    _ZTCN5CORBA14_impl_UnionDefE20_NS_13_impl_IDLTypeE @5572 DATA
    _ZTCN5CORBA14_impl_UnionDefE24_NS_15_impl_ContainerE @5573 DATA
    _ZTCN5CORBA14_impl_ValueDefE0_NS_14_impl_IRObjectE @5574 DATA
    _ZTCN5CORBA14_impl_ValueDefE0_NS_15_impl_ContainerE @5575 DATA
    _ZTCN5CORBA14_impl_ValueDefE20_NS_15_impl_ContainedE @5576 DATA
    _ZTCN5CORBA14_impl_ValueDefE24_NS_13_impl_IDLTypeE @5577 DATA
    _ZTCN5CORBA15_impl_ContainedE0_NS_14_impl_IRObjectE @5578 DATA
    _ZTCN5CORBA15_impl_ContainerE0_NS_14_impl_IRObjectE @5579 DATA
    _ZTCN5CORBA15_impl_ModuleDefE0_NS_14_impl_IRObjectE @5580 DATA
    _ZTCN5CORBA15_impl_ModuleDefE0_NS_15_impl_ContainerE @5581 DATA
    _ZTCN5CORBA15_impl_ModuleDefE20_NS_15_impl_ContainedE @5582 DATA
    _ZTCN5CORBA15_impl_NativeDefE0_NS_14_impl_IRObjectE @5583 DATA
    _ZTCN5CORBA15_impl_NativeDefE0_NS_15_impl_ContainedE @5584 DATA
    _ZTCN5CORBA15_impl_NativeDefE0_NS_16_impl_TypedefDefE @5585 DATA
    _ZTCN5CORBA15_impl_NativeDefE20_NS_13_impl_IDLTypeE @5586 DATA
    _ZTCN5CORBA15_impl_StringDefE0_NS_13_impl_IDLTypeE @5587 DATA
    _ZTCN5CORBA15_impl_StringDefE0_NS_14_impl_IRObjectE @5588 DATA
    _ZTCN5CORBA15_impl_StructDefE0_NS_14_impl_IRObjectE @5589 DATA
    _ZTCN5CORBA15_impl_StructDefE0_NS_15_impl_ContainedE @5590 DATA
    _ZTCN5CORBA15_impl_StructDefE0_NS_16_impl_TypedefDefE @5591 DATA
    _ZTCN5CORBA15_impl_StructDefE20_NS_13_impl_IDLTypeE @5592 DATA
    _ZTCN5CORBA15_impl_StructDefE24_NS_15_impl_ContainerE @5593 DATA
    _ZTCN5CORBA15_objref_EnumDefE0_NS_16_objref_IRObjectE @5594 DATA
    _ZTCN5CORBA15_objref_EnumDefE0_NS_17_objref_ContainedE @5595 DATA
    _ZTCN5CORBA15_objref_EnumDefE0_NS_18_objref_TypedefDefE @5596 DATA
    _ZTCN5CORBA15_objref_EnumDefE60_NS_15_objref_IDLTypeE @5597 DATA
    _ZTCN5CORBA15_objref_IDLTypeE0_NS_16_objref_IRObjectE @5598 DATA
    _ZTCN5CORBA16_impl_RepositoryE0_NS_14_impl_IRObjectE @5599 DATA
    _ZTCN5CORBA16_impl_RepositoryE0_NS_15_impl_ContainerE @5600 DATA
    _ZTCN5CORBA16_impl_TypedefDefE0_NS_14_impl_IRObjectE @5601 DATA
    _ZTCN5CORBA16_impl_TypedefDefE0_NS_15_impl_ContainedE @5602 DATA
    _ZTCN5CORBA16_impl_TypedefDefE20_NS_13_impl_IDLTypeE @5603 DATA
    _ZTCN5CORBA16_impl_WstringDefE0_NS_13_impl_IDLTypeE @5604 DATA
    _ZTCN5CORBA16_impl_WstringDefE0_NS_14_impl_IRObjectE @5605 DATA
    _ZTCN5CORBA16_objref_AliasDefE0_NS_16_objref_IRObjectE @5606 DATA
    _ZTCN5CORBA16_objref_AliasDefE0_NS_17_objref_ContainedE @5607 DATA
    _ZTCN5CORBA16_objref_AliasDefE0_NS_18_objref_TypedefDefE @5608 DATA
    _ZTCN5CORBA16_objref_AliasDefE60_NS_15_objref_IDLTypeE @5609 DATA
    _ZTCN5CORBA16_objref_ArrayDefE0_NS_15_objref_IDLTypeE @5610 DATA
    _ZTCN5CORBA16_objref_ArrayDefE0_NS_16_objref_IRObjectE @5611 DATA
    _ZTCN5CORBA16_objref_FixedDefE0_NS_15_objref_IDLTypeE @5612 DATA
    _ZTCN5CORBA16_objref_FixedDefE0_NS_16_objref_IRObjectE @5613 DATA
    _ZTCN5CORBA16_objref_UnionDefE0_NS_16_objref_IRObjectE @5614 DATA
    _ZTCN5CORBA16_objref_UnionDefE0_NS_17_objref_ContainedE @5615 DATA
    _ZTCN5CORBA16_objref_UnionDefE0_NS_18_objref_TypedefDefE @5616 DATA
    _ZTCN5CORBA16_objref_UnionDefE60_NS_15_objref_IDLTypeE @5617 DATA
    _ZTCN5CORBA16_objref_UnionDefE64_NS_17_objref_ContainerE @5618 DATA
    _ZTCN5CORBA16_objref_ValueDefE0_NS_16_objref_IRObjectE @5619 DATA
    _ZTCN5CORBA16_objref_ValueDefE0_NS_17_objref_ContainerE @5620 DATA
    _ZTCN5CORBA16_objref_ValueDefE60_NS_17_objref_ContainedE @5621 DATA
    _ZTCN5CORBA16_objref_ValueDefE64_NS_15_objref_IDLTypeE @5622 DATA
    _ZTCN5CORBA17_impl_ConstantDefE0_NS_14_impl_IRObjectE @5623 DATA
    _ZTCN5CORBA17_impl_ConstantDefE0_NS_15_impl_ContainedE @5624 DATA
    _ZTCN5CORBA17_impl_SequenceDefE0_NS_13_impl_IDLTypeE @5625 DATA
    _ZTCN5CORBA17_impl_SequenceDefE0_NS_14_impl_IRObjectE @5626 DATA
    _ZTCN5CORBA17_impl_ValueBoxDefE0_NS_14_impl_IRObjectE @5627 DATA
    _ZTCN5CORBA17_impl_ValueBoxDefE0_NS_15_impl_ContainedE @5628 DATA
    _ZTCN5CORBA17_impl_ValueBoxDefE0_NS_16_impl_TypedefDefE @5629 DATA
    _ZTCN5CORBA17_impl_ValueBoxDefE20_NS_13_impl_IDLTypeE @5630 DATA
    _ZTCN5CORBA17_objref_ContainedE0_NS_16_objref_IRObjectE @5631 DATA
    _ZTCN5CORBA17_objref_ContainerE0_NS_16_objref_IRObjectE @5632 DATA
    _ZTCN5CORBA17_objref_ModuleDefE0_NS_16_objref_IRObjectE @5633 DATA
    _ZTCN5CORBA17_objref_ModuleDefE0_NS_17_objref_ContainerE @5634 DATA
    _ZTCN5CORBA17_objref_ModuleDefE60_NS_17_objref_ContainedE @5635 DATA
    _ZTCN5CORBA17_objref_NativeDefE0_NS_16_objref_IRObjectE @5636 DATA
    _ZTCN5CORBA17_objref_NativeDefE0_NS_17_objref_ContainedE @5637 DATA
    _ZTCN5CORBA17_objref_NativeDefE0_NS_18_objref_TypedefDefE @5638 DATA
    _ZTCN5CORBA17_objref_NativeDefE60_NS_15_objref_IDLTypeE @5639 DATA
    _ZTCN5CORBA17_objref_StringDefE0_NS_15_objref_IDLTypeE @5640 DATA
    _ZTCN5CORBA17_objref_StringDefE0_NS_16_objref_IRObjectE @5641 DATA
    _ZTCN5CORBA17_objref_StructDefE0_NS_16_objref_IRObjectE @5642 DATA
    _ZTCN5CORBA17_objref_StructDefE0_NS_17_objref_ContainedE @5643 DATA
    _ZTCN5CORBA17_objref_StructDefE0_NS_18_objref_TypedefDefE @5644 DATA
    _ZTCN5CORBA17_objref_StructDefE60_NS_15_objref_IDLTypeE @5645 DATA
    _ZTCN5CORBA17_objref_StructDefE64_NS_17_objref_ContainerE @5646 DATA
    _ZTCN5CORBA18_impl_AttributeDefE0_NS_14_impl_IRObjectE @5647 DATA
    _ZTCN5CORBA18_impl_AttributeDefE0_NS_15_impl_ContainedE @5648 DATA
    _ZTCN5CORBA18_impl_ExceptionDefE0_NS_14_impl_IRObjectE @5649 DATA
    _ZTCN5CORBA18_impl_ExceptionDefE0_NS_15_impl_ContainedE @5650 DATA
    _ZTCN5CORBA18_impl_ExceptionDefE20_NS_15_impl_ContainerE @5651 DATA
    _ZTCN5CORBA18_impl_InterfaceDefE0_NS_14_impl_IRObjectE @5652 DATA
    _ZTCN5CORBA18_impl_InterfaceDefE0_NS_15_impl_ContainerE @5653 DATA
    _ZTCN5CORBA18_impl_InterfaceDefE20_NS_15_impl_ContainedE @5654 DATA
    _ZTCN5CORBA18_impl_InterfaceDefE24_NS_13_impl_IDLTypeE @5655 DATA
    _ZTCN5CORBA18_impl_OperationDefE0_NS_14_impl_IRObjectE @5656 DATA
    _ZTCN5CORBA18_impl_OperationDefE0_NS_15_impl_ContainedE @5657 DATA
    _ZTCN5CORBA18_impl_PrimitiveDefE0_NS_13_impl_IDLTypeE @5658 DATA
    _ZTCN5CORBA18_impl_PrimitiveDefE0_NS_14_impl_IRObjectE @5659 DATA
    _ZTCN5CORBA18_objref_RepositoryE0_NS_16_objref_IRObjectE @5660 DATA
    _ZTCN5CORBA18_objref_RepositoryE0_NS_17_objref_ContainerE @5661 DATA
    _ZTCN5CORBA18_objref_TypedefDefE0_NS_16_objref_IRObjectE @5662 DATA
    _ZTCN5CORBA18_objref_TypedefDefE0_NS_17_objref_ContainedE @5663 DATA
    _ZTCN5CORBA18_objref_TypedefDefE60_NS_15_objref_IDLTypeE @5664 DATA
    _ZTCN5CORBA18_objref_WstringDefE0_NS_15_objref_IDLTypeE @5665 DATA
    _ZTCN5CORBA18_objref_WstringDefE0_NS_16_objref_IRObjectE @5666 DATA
    _ZTCN5CORBA19_objref_ConstantDefE0_NS_16_objref_IRObjectE @5667 DATA
    _ZTCN5CORBA19_objref_ConstantDefE0_NS_17_objref_ContainedE @5668 DATA
    _ZTCN5CORBA19_objref_SequenceDefE0_NS_15_objref_IDLTypeE @5669 DATA
    _ZTCN5CORBA19_objref_SequenceDefE0_NS_16_objref_IRObjectE @5670 DATA
    _ZTCN5CORBA19_objref_ValueBoxDefE0_NS_16_objref_IRObjectE @5671 DATA
    _ZTCN5CORBA19_objref_ValueBoxDefE0_NS_17_objref_ContainedE @5672 DATA
    _ZTCN5CORBA19_objref_ValueBoxDefE0_NS_18_objref_TypedefDefE @5673 DATA
    _ZTCN5CORBA19_objref_ValueBoxDefE60_NS_15_objref_IDLTypeE @5674 DATA
    _ZTCN5CORBA20_impl_ValueMemberDefE0_NS_14_impl_IRObjectE @5675 DATA
    _ZTCN5CORBA20_impl_ValueMemberDefE0_NS_15_impl_ContainedE @5676 DATA
    _ZTCN5CORBA20_objref_AttributeDefE0_NS_16_objref_IRObjectE @5677 DATA
    _ZTCN5CORBA20_objref_AttributeDefE0_NS_17_objref_ContainedE @5678 DATA
    _ZTCN5CORBA20_objref_ExceptionDefE0_NS_16_objref_IRObjectE @5679 DATA
    _ZTCN5CORBA20_objref_ExceptionDefE0_NS_17_objref_ContainedE @5680 DATA
    _ZTCN5CORBA20_objref_ExceptionDefE60_NS_17_objref_ContainerE @5681 DATA
    _ZTCN5CORBA20_objref_InterfaceDefE0_NS_16_objref_IRObjectE @5682 DATA
    _ZTCN5CORBA20_objref_InterfaceDefE0_NS_17_objref_ContainerE @5683 DATA
    _ZTCN5CORBA20_objref_InterfaceDefE60_NS_17_objref_ContainedE @5684 DATA
    _ZTCN5CORBA20_objref_InterfaceDefE64_NS_15_objref_IDLTypeE @5685 DATA
    _ZTCN5CORBA20_objref_OperationDefE0_NS_16_objref_IRObjectE @5686 DATA
    _ZTCN5CORBA20_objref_OperationDefE0_NS_17_objref_ContainedE @5687 DATA
    _ZTCN5CORBA20_objref_PrimitiveDefE0_NS_15_objref_IDLTypeE @5688 DATA
    _ZTCN5CORBA20_objref_PrimitiveDefE0_NS_16_objref_IRObjectE @5689 DATA
    _ZTCN5CORBA22_objref_ValueMemberDefE0_NS_16_objref_IRObjectE @5690 DATA
    _ZTCN5CORBA22_objref_ValueMemberDefE0_NS_17_objref_ContainedE @5691 DATA
    _ZTCN5CORBA26_impl_AbstractInterfaceDefE0_NS_14_impl_IRObjectE @5692 DATA
    _ZTCN5CORBA26_impl_AbstractInterfaceDefE0_NS_15_impl_ContainerE @5693 DATA
    _ZTCN5CORBA26_impl_AbstractInterfaceDefE0_NS_18_impl_InterfaceDefE @5694 DATA
    _ZTCN5CORBA26_impl_AbstractInterfaceDefE20_NS_15_impl_ContainedE @5695 DATA
    _ZTCN5CORBA26_impl_AbstractInterfaceDefE24_NS_13_impl_IDLTypeE @5696 DATA
    _ZTCN5CORBA28_objref_AbstractInterfaceDefE0_NS_16_objref_IRObjectE @5697 DATA
    _ZTCN5CORBA28_objref_AbstractInterfaceDefE0_NS_17_objref_ContainerE @5698 DATA
    _ZTCN5CORBA28_objref_AbstractInterfaceDefE0_NS_20_objref_InterfaceDefE @5699 DATA
    _ZTCN5CORBA28_objref_AbstractInterfaceDefE60_NS_17_objref_ContainedE @5700 DATA
    _ZTCN5CORBA28_objref_AbstractInterfaceDefE64_NS_15_objref_IDLTypeE @5701 DATA
    _ZTCN9POA_CORBA10RepositoryE0_N5CORBA14_impl_IRObjectE @5702 DATA
    _ZTCN9POA_CORBA10RepositoryE0_N5CORBA15_impl_ContainerE @5703 DATA
    _ZTCN9POA_CORBA10RepositoryE0_N5CORBA16_impl_RepositoryE @5704 DATA
    _ZTCN9POA_CORBA10RepositoryE20_NS_9ContainerE @5705 DATA
    _ZTCN9POA_CORBA10RepositoryE24_NS_8IRObjectE @5706 DATA
    _ZTCN9POA_CORBA10RepositoryE28_N14PortableServer11ServantBaseE @5707 DATA
    _ZTCN9POA_CORBA10TypedefDefE0_N5CORBA14_impl_IRObjectE @5708 DATA
    _ZTCN9POA_CORBA10TypedefDefE0_N5CORBA15_impl_ContainedE @5709 DATA
    _ZTCN9POA_CORBA10TypedefDefE0_N5CORBA16_impl_TypedefDefE @5710 DATA
    _ZTCN9POA_CORBA10TypedefDefE20_NS_9ContainedE @5711 DATA
    _ZTCN9POA_CORBA10TypedefDefE24_NS_8IRObjectE @5712 DATA
    _ZTCN9POA_CORBA10TypedefDefE28_N14PortableServer11ServantBaseE @5713 DATA
    _ZTCN9POA_CORBA10TypedefDefE36_N5CORBA13_impl_IDLTypeE @5714 DATA
    _ZTCN9POA_CORBA10TypedefDefE36_NS_7IDLTypeE @5715 DATA
    _ZTCN9POA_CORBA10WstringDefE0_N5CORBA13_impl_IDLTypeE @5716 DATA
    _ZTCN9POA_CORBA10WstringDefE0_N5CORBA14_impl_IRObjectE @5717 DATA
    _ZTCN9POA_CORBA10WstringDefE0_N5CORBA16_impl_WstringDefE @5718 DATA
    _ZTCN9POA_CORBA10WstringDefE20_NS_7IDLTypeE @5719 DATA
    _ZTCN9POA_CORBA10WstringDefE24_NS_8IRObjectE @5720 DATA
    _ZTCN9POA_CORBA10WstringDefE28_N14PortableServer11ServantBaseE @5721 DATA
    _ZTCN9POA_CORBA11ConstantDefE0_N5CORBA14_impl_IRObjectE @5722 DATA
    _ZTCN9POA_CORBA11ConstantDefE0_N5CORBA15_impl_ContainedE @5723 DATA
    _ZTCN9POA_CORBA11ConstantDefE0_N5CORBA17_impl_ConstantDefE @5724 DATA
    _ZTCN9POA_CORBA11ConstantDefE20_NS_9ContainedE @5725 DATA
    _ZTCN9POA_CORBA11ConstantDefE24_NS_8IRObjectE @5726 DATA
    _ZTCN9POA_CORBA11ConstantDefE28_N14PortableServer11ServantBaseE @5727 DATA
    _ZTCN9POA_CORBA11SequenceDefE0_N5CORBA13_impl_IDLTypeE @5728 DATA
    _ZTCN9POA_CORBA11SequenceDefE0_N5CORBA14_impl_IRObjectE @5729 DATA
    _ZTCN9POA_CORBA11SequenceDefE0_N5CORBA17_impl_SequenceDefE @5730 DATA
    _ZTCN9POA_CORBA11SequenceDefE20_NS_7IDLTypeE @5731 DATA
    _ZTCN9POA_CORBA11SequenceDefE24_NS_8IRObjectE @5732 DATA
    _ZTCN9POA_CORBA11SequenceDefE28_N14PortableServer11ServantBaseE @5733 DATA
    _ZTCN9POA_CORBA11ValueBoxDefE0_N5CORBA14_impl_IRObjectE @5734 DATA
    _ZTCN9POA_CORBA11ValueBoxDefE0_N5CORBA15_impl_ContainedE @5735 DATA
    _ZTCN9POA_CORBA11ValueBoxDefE0_N5CORBA16_impl_TypedefDefE @5736 DATA
    _ZTCN9POA_CORBA11ValueBoxDefE0_N5CORBA17_impl_ValueBoxDefE @5737 DATA
    _ZTCN9POA_CORBA11ValueBoxDefE20_NS_10TypedefDefE @5738 DATA
    _ZTCN9POA_CORBA11ValueBoxDefE24_NS_9ContainedE @5739 DATA
    _ZTCN9POA_CORBA11ValueBoxDefE28_NS_8IRObjectE @5740 DATA
    _ZTCN9POA_CORBA11ValueBoxDefE32_N14PortableServer11ServantBaseE @5741 DATA
    _ZTCN9POA_CORBA11ValueBoxDefE40_N5CORBA13_impl_IDLTypeE @5742 DATA
    _ZTCN9POA_CORBA11ValueBoxDefE40_NS_7IDLTypeE @5743 DATA
    _ZTCN9POA_CORBA12AttributeDefE0_N5CORBA14_impl_IRObjectE @5744 DATA
    _ZTCN9POA_CORBA12AttributeDefE0_N5CORBA15_impl_ContainedE @5745 DATA
    _ZTCN9POA_CORBA12AttributeDefE0_N5CORBA18_impl_AttributeDefE @5746 DATA
    _ZTCN9POA_CORBA12AttributeDefE20_NS_9ContainedE @5747 DATA
    _ZTCN9POA_CORBA12AttributeDefE24_NS_8IRObjectE @5748 DATA
    _ZTCN9POA_CORBA12AttributeDefE28_N14PortableServer11ServantBaseE @5749 DATA
    _ZTCN9POA_CORBA12ExceptionDefE0_N5CORBA14_impl_IRObjectE @5750 DATA
    _ZTCN9POA_CORBA12ExceptionDefE0_N5CORBA15_impl_ContainedE @5751 DATA
    _ZTCN9POA_CORBA12ExceptionDefE0_N5CORBA18_impl_ExceptionDefE @5752 DATA
    _ZTCN9POA_CORBA12ExceptionDefE20_NS_9ContainedE @5753 DATA
    _ZTCN9POA_CORBA12ExceptionDefE24_NS_8IRObjectE @5754 DATA
    _ZTCN9POA_CORBA12ExceptionDefE28_N14PortableServer11ServantBaseE @5755 DATA
    _ZTCN9POA_CORBA12ExceptionDefE36_N5CORBA15_impl_ContainerE @5756 DATA
    _ZTCN9POA_CORBA12ExceptionDefE36_NS_9ContainerE @5757 DATA
    _ZTCN9POA_CORBA12InterfaceDefE0_N5CORBA14_impl_IRObjectE @5758 DATA
    _ZTCN9POA_CORBA12InterfaceDefE0_N5CORBA15_impl_ContainerE @5759 DATA
    _ZTCN9POA_CORBA12InterfaceDefE0_N5CORBA18_impl_InterfaceDefE @5760 DATA
    _ZTCN9POA_CORBA12InterfaceDefE20_NS_9ContainerE @5761 DATA
    _ZTCN9POA_CORBA12InterfaceDefE24_NS_8IRObjectE @5762 DATA
    _ZTCN9POA_CORBA12InterfaceDefE28_N14PortableServer11ServantBaseE @5763 DATA
    _ZTCN9POA_CORBA12InterfaceDefE36_N5CORBA15_impl_ContainedE @5764 DATA
    _ZTCN9POA_CORBA12InterfaceDefE36_NS_9ContainedE @5765 DATA
    _ZTCN9POA_CORBA12InterfaceDefE40_N5CORBA13_impl_IDLTypeE @5766 DATA
    _ZTCN9POA_CORBA12InterfaceDefE40_NS_7IDLTypeE @5767 DATA
    _ZTCN9POA_CORBA12OperationDefE0_N5CORBA14_impl_IRObjectE @5768 DATA
    _ZTCN9POA_CORBA12OperationDefE0_N5CORBA15_impl_ContainedE @5769 DATA
    _ZTCN9POA_CORBA12OperationDefE0_N5CORBA18_impl_OperationDefE @5770 DATA
    _ZTCN9POA_CORBA12OperationDefE20_NS_9ContainedE @5771 DATA
    _ZTCN9POA_CORBA12OperationDefE24_NS_8IRObjectE @5772 DATA
    _ZTCN9POA_CORBA12OperationDefE28_N14PortableServer11ServantBaseE @5773 DATA
    _ZTCN9POA_CORBA12PrimitiveDefE0_N5CORBA13_impl_IDLTypeE @5774 DATA
    _ZTCN9POA_CORBA12PrimitiveDefE0_N5CORBA14_impl_IRObjectE @5775 DATA
    _ZTCN9POA_CORBA12PrimitiveDefE0_N5CORBA18_impl_PrimitiveDefE @5776 DATA
    _ZTCN9POA_CORBA12PrimitiveDefE20_NS_7IDLTypeE @5777 DATA
    _ZTCN9POA_CORBA12PrimitiveDefE24_NS_8IRObjectE @5778 DATA
    _ZTCN9POA_CORBA12PrimitiveDefE28_N14PortableServer11ServantBaseE @5779 DATA
    _ZTCN9POA_CORBA14ValueMemberDefE0_N5CORBA14_impl_IRObjectE @5780 DATA
    _ZTCN9POA_CORBA14ValueMemberDefE0_N5CORBA15_impl_ContainedE @5781 DATA
    _ZTCN9POA_CORBA14ValueMemberDefE0_N5CORBA20_impl_ValueMemberDefE @5782 DATA
    _ZTCN9POA_CORBA14ValueMemberDefE20_NS_9ContainedE @5783 DATA
    _ZTCN9POA_CORBA14ValueMemberDefE24_NS_8IRObjectE @5784 DATA
    _ZTCN9POA_CORBA14ValueMemberDefE28_N14PortableServer11ServantBaseE @5785 DATA
    _ZTCN9POA_CORBA20AbstractInterfaceDefE0_N5CORBA14_impl_IRObjectE @5786 DATA
    _ZTCN9POA_CORBA20AbstractInterfaceDefE0_N5CORBA15_impl_ContainerE @5787 DATA
    _ZTCN9POA_CORBA20AbstractInterfaceDefE0_N5CORBA18_impl_InterfaceDefE @5788 DATA
    _ZTCN9POA_CORBA20AbstractInterfaceDefE0_N5CORBA26_impl_AbstractInterfaceDefE @5789 DATA
    _ZTCN9POA_CORBA20AbstractInterfaceDefE20_NS_12InterfaceDefE @5790 DATA
    _ZTCN9POA_CORBA20AbstractInterfaceDefE24_NS_9ContainerE @5791 DATA
    _ZTCN9POA_CORBA20AbstractInterfaceDefE28_NS_8IRObjectE @5792 DATA
    _ZTCN9POA_CORBA20AbstractInterfaceDefE32_N14PortableServer11ServantBaseE @5793 DATA
    _ZTCN9POA_CORBA20AbstractInterfaceDefE40_N5CORBA15_impl_ContainedE @5794 DATA
    _ZTCN9POA_CORBA20AbstractInterfaceDefE40_NS_9ContainedE @5795 DATA
    _ZTCN9POA_CORBA20AbstractInterfaceDefE44_N5CORBA13_impl_IDLTypeE @5796 DATA
    _ZTCN9POA_CORBA20AbstractInterfaceDefE44_NS_7IDLTypeE @5797 DATA
    _ZTCN9POA_CORBA7EnumDefE0_N5CORBA13_impl_EnumDefE @5798 DATA
    _ZTCN9POA_CORBA7EnumDefE0_N5CORBA14_impl_IRObjectE @5799 DATA
    _ZTCN9POA_CORBA7EnumDefE0_N5CORBA15_impl_ContainedE @5800 DATA
    _ZTCN9POA_CORBA7EnumDefE0_N5CORBA16_impl_TypedefDefE @5801 DATA
    _ZTCN9POA_CORBA7EnumDefE20_NS_10TypedefDefE @5802 DATA
    _ZTCN9POA_CORBA7EnumDefE24_NS_9ContainedE @5803 DATA
    _ZTCN9POA_CORBA7EnumDefE28_NS_8IRObjectE @5804 DATA
    _ZTCN9POA_CORBA7EnumDefE32_N14PortableServer11ServantBaseE @5805 DATA
    _ZTCN9POA_CORBA7EnumDefE40_N5CORBA13_impl_IDLTypeE @5806 DATA
    _ZTCN9POA_CORBA7EnumDefE40_NS_7IDLTypeE @5807 DATA
    _ZTCN9POA_CORBA7IDLTypeE0_N5CORBA13_impl_IDLTypeE @5808 DATA
    _ZTCN9POA_CORBA7IDLTypeE0_N5CORBA14_impl_IRObjectE @5809 DATA
    _ZTCN9POA_CORBA7IDLTypeE20_NS_8IRObjectE @5810 DATA
    _ZTCN9POA_CORBA7IDLTypeE24_N14PortableServer11ServantBaseE @5811 DATA
    _ZTCN9POA_CORBA8AliasDefE0_N5CORBA14_impl_AliasDefE @5812 DATA
    _ZTCN9POA_CORBA8AliasDefE0_N5CORBA14_impl_IRObjectE @5813 DATA
    _ZTCN9POA_CORBA8AliasDefE0_N5CORBA15_impl_ContainedE @5814 DATA
    _ZTCN9POA_CORBA8AliasDefE0_N5CORBA16_impl_TypedefDefE @5815 DATA
    _ZTCN9POA_CORBA8AliasDefE20_NS_10TypedefDefE @5816 DATA
    _ZTCN9POA_CORBA8AliasDefE24_NS_9ContainedE @5817 DATA
    _ZTCN9POA_CORBA8AliasDefE28_NS_8IRObjectE @5818 DATA
    _ZTCN9POA_CORBA8AliasDefE32_N14PortableServer11ServantBaseE @5819 DATA
    _ZTCN9POA_CORBA8AliasDefE40_N5CORBA13_impl_IDLTypeE @5820 DATA
    _ZTCN9POA_CORBA8AliasDefE40_NS_7IDLTypeE @5821 DATA
    _ZTCN9POA_CORBA8ArrayDefE0_N5CORBA13_impl_IDLTypeE @5822 DATA
    _ZTCN9POA_CORBA8ArrayDefE0_N5CORBA14_impl_ArrayDefE @5823 DATA
    _ZTCN9POA_CORBA8ArrayDefE0_N5CORBA14_impl_IRObjectE @5824 DATA
    _ZTCN9POA_CORBA8ArrayDefE20_NS_7IDLTypeE @5825 DATA
    _ZTCN9POA_CORBA8ArrayDefE24_NS_8IRObjectE @5826 DATA
    _ZTCN9POA_CORBA8ArrayDefE28_N14PortableServer11ServantBaseE @5827 DATA
    _ZTCN9POA_CORBA8FixedDefE0_N5CORBA13_impl_IDLTypeE @5828 DATA
    _ZTCN9POA_CORBA8FixedDefE0_N5CORBA14_impl_FixedDefE @5829 DATA
    _ZTCN9POA_CORBA8FixedDefE0_N5CORBA14_impl_IRObjectE @5830 DATA
    _ZTCN9POA_CORBA8FixedDefE20_NS_7IDLTypeE @5831 DATA
    _ZTCN9POA_CORBA8FixedDefE24_NS_8IRObjectE @5832 DATA
    _ZTCN9POA_CORBA8FixedDefE28_N14PortableServer11ServantBaseE @5833 DATA
    _ZTCN9POA_CORBA8IRObjectE0_N5CORBA14_impl_IRObjectE @5834 DATA
    _ZTCN9POA_CORBA8IRObjectE20_N14PortableServer11ServantBaseE @5835 DATA
    _ZTCN9POA_CORBA8UnionDefE0_N5CORBA14_impl_IRObjectE @5836 DATA
    _ZTCN9POA_CORBA8UnionDefE0_N5CORBA14_impl_UnionDefE @5837 DATA
    _ZTCN9POA_CORBA8UnionDefE0_N5CORBA15_impl_ContainedE @5838 DATA
    _ZTCN9POA_CORBA8UnionDefE0_N5CORBA16_impl_TypedefDefE @5839 DATA
    _ZTCN9POA_CORBA8UnionDefE20_NS_10TypedefDefE @5840 DATA
    _ZTCN9POA_CORBA8UnionDefE24_NS_9ContainedE @5841 DATA
    _ZTCN9POA_CORBA8UnionDefE28_NS_8IRObjectE @5842 DATA
    _ZTCN9POA_CORBA8UnionDefE32_N14PortableServer11ServantBaseE @5843 DATA
    _ZTCN9POA_CORBA8UnionDefE40_N5CORBA13_impl_IDLTypeE @5844 DATA
    _ZTCN9POA_CORBA8UnionDefE40_NS_7IDLTypeE @5845 DATA
    _ZTCN9POA_CORBA8UnionDefE44_N5CORBA15_impl_ContainerE @5846 DATA
    _ZTCN9POA_CORBA8UnionDefE44_NS_9ContainerE @5847 DATA
    _ZTCN9POA_CORBA8ValueDefE0_N5CORBA14_impl_IRObjectE @5848 DATA
    _ZTCN9POA_CORBA8ValueDefE0_N5CORBA14_impl_ValueDefE @5849 DATA
    _ZTCN9POA_CORBA8ValueDefE0_N5CORBA15_impl_ContainerE @5850 DATA
    _ZTCN9POA_CORBA8ValueDefE20_NS_9ContainerE @5851 DATA
    _ZTCN9POA_CORBA8ValueDefE24_NS_8IRObjectE @5852 DATA
    _ZTCN9POA_CORBA8ValueDefE28_N14PortableServer11ServantBaseE @5853 DATA
    _ZTCN9POA_CORBA8ValueDefE36_N5CORBA15_impl_ContainedE @5854 DATA
    _ZTCN9POA_CORBA8ValueDefE36_NS_9ContainedE @5855 DATA
    _ZTCN9POA_CORBA8ValueDefE40_N5CORBA13_impl_IDLTypeE @5856 DATA
    _ZTCN9POA_CORBA8ValueDefE40_NS_7IDLTypeE @5857 DATA
    _ZTCN9POA_CORBA9ContainedE0_N5CORBA14_impl_IRObjectE @5858 DATA
    _ZTCN9POA_CORBA9ContainedE0_N5CORBA15_impl_ContainedE @5859 DATA
    _ZTCN9POA_CORBA9ContainedE20_NS_8IRObjectE @5860 DATA
    _ZTCN9POA_CORBA9ContainedE24_N14PortableServer11ServantBaseE @5861 DATA
    _ZTCN9POA_CORBA9ContainerE0_N5CORBA14_impl_IRObjectE @5862 DATA
    _ZTCN9POA_CORBA9ContainerE0_N5CORBA15_impl_ContainerE @5863 DATA
    _ZTCN9POA_CORBA9ContainerE20_NS_8IRObjectE @5864 DATA
    _ZTCN9POA_CORBA9ContainerE24_N14PortableServer11ServantBaseE @5865 DATA
    _ZTCN9POA_CORBA9ModuleDefE0_N5CORBA14_impl_IRObjectE @5866 DATA
    _ZTCN9POA_CORBA9ModuleDefE0_N5CORBA15_impl_ContainerE @5867 DATA
    _ZTCN9POA_CORBA9ModuleDefE0_N5CORBA15_impl_ModuleDefE @5868 DATA
    _ZTCN9POA_CORBA9ModuleDefE20_NS_9ContainerE @5869 DATA
    _ZTCN9POA_CORBA9ModuleDefE24_NS_8IRObjectE @5870 DATA
    _ZTCN9POA_CORBA9ModuleDefE28_N14PortableServer11ServantBaseE @5871 DATA
    _ZTCN9POA_CORBA9ModuleDefE36_N5CORBA15_impl_ContainedE @5872 DATA
    _ZTCN9POA_CORBA9ModuleDefE36_NS_9ContainedE @5873 DATA
    _ZTCN9POA_CORBA9NativeDefE0_N5CORBA14_impl_IRObjectE @5874 DATA
    _ZTCN9POA_CORBA9NativeDefE0_N5CORBA15_impl_ContainedE @5875 DATA
    _ZTCN9POA_CORBA9NativeDefE0_N5CORBA15_impl_NativeDefE @5876 DATA
    _ZTCN9POA_CORBA9NativeDefE0_N5CORBA16_impl_TypedefDefE @5877 DATA
    _ZTCN9POA_CORBA9NativeDefE20_NS_10TypedefDefE @5878 DATA
    _ZTCN9POA_CORBA9NativeDefE24_NS_9ContainedE @5879 DATA
    _ZTCN9POA_CORBA9NativeDefE28_NS_8IRObjectE @5880 DATA
    _ZTCN9POA_CORBA9NativeDefE32_N14PortableServer11ServantBaseE @5881 DATA
    _ZTCN9POA_CORBA9NativeDefE40_N5CORBA13_impl_IDLTypeE @5882 DATA
    _ZTCN9POA_CORBA9NativeDefE40_NS_7IDLTypeE @5883 DATA
    _ZTCN9POA_CORBA9StringDefE0_N5CORBA13_impl_IDLTypeE @5884 DATA
    _ZTCN9POA_CORBA9StringDefE0_N5CORBA14_impl_IRObjectE @5885 DATA
    _ZTCN9POA_CORBA9StringDefE0_N5CORBA15_impl_StringDefE @5886 DATA
    _ZTCN9POA_CORBA9StringDefE20_NS_7IDLTypeE @5887 DATA
    _ZTCN9POA_CORBA9StringDefE24_NS_8IRObjectE @5888 DATA
    _ZTCN9POA_CORBA9StringDefE28_N14PortableServer11ServantBaseE @5889 DATA
    _ZTCN9POA_CORBA9StructDefE0_N5CORBA14_impl_IRObjectE @5890 DATA
    _ZTCN9POA_CORBA9StructDefE0_N5CORBA15_impl_ContainedE @5891 DATA
    _ZTCN9POA_CORBA9StructDefE0_N5CORBA15_impl_StructDefE @5892 DATA
    _ZTCN9POA_CORBA9StructDefE0_N5CORBA16_impl_TypedefDefE @5893 DATA
    _ZTCN9POA_CORBA9StructDefE20_NS_10TypedefDefE @5894 DATA
    _ZTCN9POA_CORBA9StructDefE24_NS_9ContainedE @5895 DATA
    _ZTCN9POA_CORBA9StructDefE28_NS_8IRObjectE @5896 DATA
    _ZTCN9POA_CORBA9StructDefE32_N14PortableServer11ServantBaseE @5897 DATA
    _ZTCN9POA_CORBA9StructDefE40_N5CORBA13_impl_IDLTypeE @5898 DATA
    _ZTCN9POA_CORBA9StructDefE40_NS_7IDLTypeE @5899 DATA
    _ZTCN9POA_CORBA9StructDefE44_N5CORBA15_impl_ContainerE @5900 DATA
    _ZTCN9POA_CORBA9StructDefE44_NS_9ContainerE @5901 DATA
    _ZTI10omniObjRef @5902 DATA
    _ZTI11omniServant @5903 DATA
    _ZTI12omniTaskLink @5904 DATA
    _ZTI15cdrMemoryStream @5905 DATA
    _ZTI18cdrAnyMemoryStream @5906 DATA
    _ZTI18omniCallDescriptor @5907 DATA
    _ZTI27_0RL_CORBA_StringValue_init @5908 DATA
    _ZTI28_0RL_CORBA_WStringValue_init @5909 DATA
    _ZTI33_0RL_cd_7963219A43724A61_00000000 @5910 DATA
    _ZTI33_0RL_cd_7963219A43724A61_01000000 @5911 DATA
    _ZTI33_0RL_cd_7963219A43724A61_04000000 @5912 DATA
    _ZTI33_0RL_cd_7963219A43724A61_06000000 @5913 DATA
    _ZTI33_0RL_cd_7963219A43724A61_08000000 @5914 DATA
    _ZTI33_0RL_cd_7963219A43724A61_12000000 @5915 DATA
    _ZTI33_0RL_cd_7963219A43724A61_13000000 @5916 DATA
    _ZTI33_0RL_cd_7963219A43724A61_15000000 @5917 DATA
    _ZTI33_0RL_cd_7963219A43724A61_19000000 @5918 DATA
    _ZTI33_0RL_cd_7963219A43724A61_1a000000 @5919 DATA
    _ZTI33_0RL_cd_7963219A43724A61_1b000000 @5920 DATA
    _ZTI33_0RL_cd_7963219A43724A61_20000000 @5921 DATA
    _ZTI33_0RL_cd_7963219A43724A61_24000000 @5922 DATA
    _ZTI33_0RL_cd_7963219A43724A61_26000000 @5923 DATA
    _ZTI33_0RL_cd_7963219A43724A61_28000000 @5924 DATA
    _ZTI33_0RL_cd_7963219A43724A61_31000000 @5925 DATA
    _ZTI33_0RL_cd_7963219A43724A61_32000000 @5926 DATA
    _ZTI33_0RL_cd_7963219A43724A61_33000000 @5927 DATA
    _ZTI33_0RL_cd_7963219A43724A61_39000000 @5928 DATA
    _ZTI33_0RL_cd_7963219A43724A61_3b000000 @5929 DATA
    _ZTI33_0RL_cd_7963219A43724A61_40000000 @5930 DATA
    _ZTI33_0RL_cd_7963219A43724A61_44000000 @5931 DATA
    _ZTI33_0RL_cd_7963219A43724A61_46000000 @5932 DATA
    _ZTI33_0RL_cd_7963219A43724A61_51000000 @5933 DATA
    _ZTI33_0RL_cd_7963219A43724A61_52000000 @5934 DATA
    _ZTI33_0RL_cd_7963219A43724A61_53000000 @5935 DATA
    _ZTI33_0RL_cd_7963219A43724A61_59000000 @5936 DATA
    _ZTI33_0RL_cd_7963219A43724A61_5b000000 @5937 DATA
    _ZTI33_0RL_cd_7963219A43724A61_60000000 @5938 DATA
    _ZTI33_0RL_cd_7963219A43724A61_65000000 @5939 DATA
    _ZTI33_0RL_cd_7963219A43724A61_71000000 @5940 DATA
    _ZTI33_0RL_cd_7963219A43724A61_72000000 @5941 DATA
    _ZTI33_0RL_cd_7963219A43724A61_74000000 @5942 DATA
    _ZTI33_0RL_cd_7963219A43724A61_78000000 @5943 DATA
    _ZTI33_0RL_cd_7963219A43724A61_79000000 @5944 DATA
    _ZTI33_0RL_cd_7963219A43724A61_7b000000 @5945 DATA
    _ZTI33_0RL_cd_7963219A43724A61_80000000 @5946 DATA
    _ZTI33_0RL_cd_7963219A43724A61_83000000 @5947 DATA
    _ZTI33_0RL_cd_7963219A43724A61_85000000 @5948 DATA
    _ZTI33_0RL_cd_7963219A43724A61_86000000 @5949 DATA
    _ZTI33_0RL_cd_7963219A43724A61_91000000 @5950 DATA
    _ZTI33_0RL_cd_7963219A43724A61_92000000 @5951 DATA
    _ZTI33_0RL_cd_7963219A43724A61_94000000 @5952 DATA
    _ZTI33_0RL_cd_7963219A43724A61_98000000 @5953 DATA
    _ZTI33_0RL_cd_7963219A43724A61_99000000 @5954 DATA
    _ZTI33_0RL_cd_7963219A43724A61_9a000000 @5955 DATA
    _ZTI33_0RL_cd_7963219A43724A61_9b000000 @5956 DATA
    _ZTI33_0RL_cd_7963219A43724A61_a0000000 @5957 DATA
    _ZTI33_0RL_cd_7963219A43724A61_a3000000 @5958 DATA
    _ZTI33_0RL_cd_7963219A43724A61_a5000000 @5959 DATA
    _ZTI33_0RL_cd_7963219A43724A61_a6000000 @5960 DATA
    _ZTI33_0RL_cd_7963219A43724A61_b1000000 @5961 DATA
    _ZTI33_0RL_cd_7963219A43724A61_b2000000 @5962 DATA
    _ZTI33_0RL_cd_7963219A43724A61_b4000000 @5963 DATA
    _ZTI33_0RL_cd_7963219A43724A61_b8000000 @5964 DATA
    _ZTI33_0RL_cd_7963219A43724A61_b9000000 @5965 DATA
    _ZTI33_0RL_cd_7963219A43724A61_ba000000 @5966 DATA
    _ZTI33_0RL_cd_7963219A43724A61_bb000000 @5967 DATA
    _ZTI33_0RL_cd_7963219A43724A61_c3000000 @5968 DATA
    _ZTI33_0RL_cd_7963219A43724A61_c5000000 @5969 DATA
    _ZTI33_0RL_cd_7963219A43724A61_c6000000 @5970 DATA
    _ZTI33_0RL_cd_7963219A43724A61_d1000000 @5971 DATA
    _ZTI33_0RL_cd_7963219A43724A61_d2000000 @5972 DATA
    _ZTI33_0RL_cd_7963219A43724A61_d4000000 @5973 DATA
    _ZTI33_0RL_cd_7963219A43724A61_d8000000 @5974 DATA
    _ZTI33_0RL_cd_7963219A43724A61_d9000000 @5975 DATA
    _ZTI33_0RL_cd_7963219A43724A61_db000000 @5976 DATA
    _ZTI33_0RL_cd_7963219A43724A61_e3000000 @5977 DATA
    _ZTI33_0RL_cd_7963219A43724A61_e6000000 @5978 DATA
    _ZTI33_0RL_cd_7963219A43724A61_f1000000 @5979 DATA
    _ZTI33_0RL_cd_7963219A43724A61_f2000000 @5980 DATA
    _ZTI33_0RL_cd_7963219A43724A61_f4000000 @5981 DATA
    _ZTI33_0RL_cd_7963219A43724A61_f8000000 @5982 DATA
    _ZTI33_0RL_cd_7963219A43724A61_f9000000 @5983 DATA
    _ZTI33_0RL_cd_7963219A43724A61_fb000000 @5984 DATA
    _ZTI8omniTask @5985 DATA
    _ZTI9cdrStream @5986 DATA
    _ZTIN10DynamicAny11DynSequenceE @5987 DATA
    _ZTIN10DynamicAny11DynValueBoxE @5988 DATA
    _ZTIN10DynamicAny13DynAnyFactory20InconsistentTypeCodeE @5989 DATA
    _ZTIN10DynamicAny13DynAnyFactoryE @5990 DATA
    _ZTIN10DynamicAny14DynValueCommonE @5991 DATA
    _ZTIN10DynamicAny6DynAny12InvalidValueE @5992 DATA
    _ZTIN10DynamicAny6DynAny12TypeMismatchE @5993 DATA
    _ZTIN10DynamicAny6DynAnyE @5994 DATA
    _ZTIN10DynamicAny7DynEnumE @5995 DATA
    _ZTIN10DynamicAny8DynArrayE @5996 DATA
    _ZTIN10DynamicAny8DynFixedE @5997 DATA
    _ZTIN10DynamicAny8DynUnionE @5998 DATA
    _ZTIN10DynamicAny8DynValueE @5999 DATA
    _ZTIN10DynamicAny9DynStructE @6000 DATA
    _ZTIN14PortableServer11ServantBaseE @6001 DATA
    _ZTIN14PortableServer17ValueRefCountBaseE @6002 DATA
    _ZTIN14PortableServer21DynamicImplementationE @6003 DATA
    _ZTIN14PortableServer3POA11WrongPolicyE @6004 DATA
    _ZTIN4omni10DynAnyImplE @6005 DATA
    _ZTIN4omni10NVListImplE @6006 DATA
    _ZTIN4omni10omniNilEnvE @6007 DATA
    _ZTIN4omni11ContextImplE @6008 DATA
    _ZTIN4omni11DynEnumImplE @6009 DATA
    _ZTIN4omni11RequestImplE @6010 DATA
    _ZTIN4omni12DynArrayImplE @6011 DATA
    _ZTIN4omni12DynFixedImplE @6012 DATA
    _ZTIN4omni12DynUnionDiscE @6013 DATA
    _ZTIN4omni12DynUnionImplE @6014 DATA
    _ZTIN4omni12DynValueImplE @6015 DATA
    _ZTIN4omni12UnknownValueE @6016 DATA
    _ZTIN4omni13DynStructImplE @6017 DATA
    _ZTIN4omni13PseudoObjBaseE @6018 DATA
    _ZTIN4omni13TypeCode_baseE @6019 DATA
    _ZTIN4omni13TypeCode_enumE @6020 DATA
    _ZTIN4omni13omniNilCtListE @6021 DATA
    _ZTIN4omni13omniNilDynAnyE @6022 DATA
    _ZTIN4omni13omniNilExListE @6023 DATA
    _ZTIN4omni13omniNilNVListE @6024 DATA
    _ZTIN4omni14DynAnyImplBaseE @6025 DATA
    _ZTIN4omni14NamedValueImplE @6026 DATA
    _ZTIN4omni14TypeCode_aliasE @6027 DATA
    _ZTIN4omni14TypeCode_arrayE @6028 DATA
    _ZTIN4omni14TypeCode_fixedE @6029 DATA
    _ZTIN4omni14TypeCode_unionE @6030 DATA
    _ZTIN4omni14TypeCode_valueE @6031 DATA
    _ZTIN4omni14omniNilContextE @6032 DATA
    _ZTIN4omni14omniNilDynEnumE @6033 DATA
    _ZTIN4omni14omniNilRequestE @6034 DATA
    _ZTIN4omni15ContextListImplE @6035 DATA
    _ZTIN4omni15DeferredRequestE @6036 DATA
    _ZTIN4omni15DynSequenceImplE @6037 DATA
    _ZTIN4omni15DynValueBoxImplE @6038 DATA
    _ZTIN4omni15EnvironmentImplE @6039 DATA
    _ZTIN4omni15TypeCode_exceptE @6040 DATA
    _ZTIN4omni15TypeCode_objrefE @6041 DATA
    _ZTIN4omni15TypeCode_stringE @6042 DATA
    _ZTIN4omni15TypeCode_structE @6043 DATA
    _ZTIN4omni15omniInitialiserE @6044 DATA
    _ZTIN4omni15omniNilDynArrayE @6045 DATA
    _ZTIN4omni15omniNilDynFixedE @6046 DATA
    _ZTIN4omni15omniNilDynUnionE @6047 DATA
    _ZTIN4omni15omniNilDynValueE @6048 DATA
    _ZTIN4omni16DynAnyConstrBaseE @6049 DATA
    _ZTIN4omni16DynUnionEnumDiscE @6050 DATA
    _ZTIN4omni16TypeCode_wstringE @6051 DATA
    _ZTIN4omni16omniNilDynStructE @6052 DATA
    _ZTIN4omni17DynAnyFactoryImplE @6053 DATA
    _ZTIN4omni17ExceptionListImplE @6054 DATA
    _ZTIN4omni17InputValueTrackerE @6055 DATA
    _ZTIN4omni17TypeCode_indirectE @6056 DATA
    _ZTIN4omni17TypeCode_sequenceE @6057 DATA
    _ZTIN4omni17omniServerRequestE @6058 DATA
    _ZTIN4omni17omniTrackedObjectE @6059 DATA
    _ZTIN4omni18OutputValueTrackerE @6060 DATA
    _ZTIN4omni18TypeCode_value_boxE @6061 DATA
    _ZTIN4omni18omniNilDynSequenceE @6062 DATA
    _ZTIN4omni18omniNilDynValueBoxE @6063 DATA
    _ZTIN4omni18proxyObjectFactoryE @6064 DATA
    _ZTIN4omni20FromAnyUserExceptionE @6065 DATA
    _ZTIN4omni20omniNilDynAnyFactoryE @6066 DATA
    _ZTIN4omni21omniNilDynValueCommonE @6067 DATA
    _ZTIN4omni21omniNilTypeCodeHolderE @6068 DATA
    _ZTIN4omni22omniTypeCodeCollectionE @6069 DATA
    _ZTIN4omni23ValueIndirectionTrackerE @6070 DATA
    _ZTIN4omni23omni_dynAny_initialiserE @6071 DATA
    _ZTIN4omni24TypeCode_local_interfaceE @6072 DATA
    _ZTIN4omni25omni_RequestImpl_callDescE @6073 DATA
    _ZTIN4omni27TypeCode_abstract_interfaceE @6074 DATA
    _ZTIN4omni27serverRequestCallDescriptorE @6075 DATA
    _ZTIN4omni29omni_valueFactory_initialiserE @6076 DATA
    _ZTIN4omni9omniNilNVE @6077 DATA
    _ZTIN5CORBA10NamedValueE @6078 DATA
    _ZTIN5CORBA11ContextList6BoundsE @6079 DATA
    _ZTIN5CORBA11ContextListE @6080 DATA
    _ZTIN5CORBA11EnvironmentE @6081 DATA
    _ZTIN5CORBA11PolicyErrorE @6082 DATA
    _ZTIN5CORBA11StringValueE @6083 DATA
    _ZTIN5CORBA12AbstractBaseE @6084 DATA
    _ZTIN5CORBA12NO_IMPLEMENTE @6085 DATA
    _ZTIN5CORBA12WStringValueE @6086 DATA
    _ZTIN5CORBA12_pof_EnumDefE @6087 DATA
    _ZTIN5CORBA12_pof_IDLTypeE @6088 DATA
    _ZTIN5CORBA13ExceptionList6BoundsE @6089 DATA
    _ZTIN5CORBA13ExceptionListE @6090 DATA
    _ZTIN5CORBA13ServerRequestE @6091 DATA
    _ZTIN5CORBA13UserExceptionE @6092 DATA
    _ZTIN5CORBA13_impl_EnumDefE @6093 DATA
    _ZTIN5CORBA13_impl_IDLTypeE @6094 DATA
    _ZTIN5CORBA13_pof_AliasDefE @6095 DATA
    _ZTIN5CORBA13_pof_ArrayDefE @6096 DATA
    _ZTIN5CORBA13_pof_FixedDefE @6097 DATA
    _ZTIN5CORBA13_pof_IRObjectE @6098 DATA
    _ZTIN5CORBA13_pof_UnionDefE @6099 DATA
    _ZTIN5CORBA13_pof_ValueDefE @6100 DATA
    _ZTIN5CORBA14_impl_AliasDefE @6101 DATA
    _ZTIN5CORBA14_impl_ArrayDefE @6102 DATA
    _ZTIN5CORBA14_impl_FixedDefE @6103 DATA
    _ZTIN5CORBA14_impl_IRObjectE @6104 DATA
    _ZTIN5CORBA14_impl_UnionDefE @6105 DATA
    _ZTIN5CORBA14_impl_ValueDefE @6106 DATA
    _ZTIN5CORBA14_pof_ContainedE @6107 DATA
    _ZTIN5CORBA14_pof_ContainerE @6108 DATA
    _ZTIN5CORBA14_pof_ModuleDefE @6109 DATA
    _ZTIN5CORBA14_pof_NativeDefE @6110 DATA
    _ZTIN5CORBA14_pof_StringDefE @6111 DATA
    _ZTIN5CORBA14_pof_StructDefE @6112 DATA
    _ZTIN5CORBA15DATA_CONVERSIONE @6113 DATA
    _ZTIN5CORBA15SystemExceptionE @6114 DATA
    _ZTIN5CORBA15_impl_ContainedE @6115 DATA
    _ZTIN5CORBA15_impl_ContainerE @6116 DATA
    _ZTIN5CORBA15_impl_ModuleDefE @6117 DATA
    _ZTIN5CORBA15_impl_NativeDefE @6118 DATA
    _ZTIN5CORBA15_impl_StringDefE @6119 DATA
    _ZTIN5CORBA15_impl_StructDefE @6120 DATA
    _ZTIN5CORBA15_objref_EnumDefE @6121 DATA
    _ZTIN5CORBA15_objref_IDLTypeE @6122 DATA
    _ZTIN5CORBA15_pof_RepositoryE @6123 DATA
    _ZTIN5CORBA15_pof_TypedefDefE @6124 DATA
    _ZTIN5CORBA15_pof_WstringDefE @6125 DATA
    _ZTIN5CORBA16ValueFactoryBaseE @6126 DATA
    _ZTIN5CORBA16WrongTransactionE @6127 DATA
    _ZTIN5CORBA16_impl_RepositoryE @6128 DATA
    _ZTIN5CORBA16_impl_TypedefDefE @6129 DATA
    _ZTIN5CORBA16_impl_WstringDefE @6130 DATA
    _ZTIN5CORBA16_objref_AliasDefE @6131 DATA
    _ZTIN5CORBA16_objref_ArrayDefE @6132 DATA
    _ZTIN5CORBA16_objref_FixedDefE @6133 DATA
    _ZTIN5CORBA16_objref_IRObjectE @6134 DATA
    _ZTIN5CORBA16_objref_UnionDefE @6135 DATA
    _ZTIN5CORBA16_objref_ValueDefE @6136 DATA
    _ZTIN5CORBA16_pof_ConstantDefE @6137 DATA
    _ZTIN5CORBA16_pof_SequenceDefE @6138 DATA
    _ZTIN5CORBA16_pof_ValueBoxDefE @6139 DATA
    _ZTIN5CORBA17_impl_ConstantDefE @6140 DATA
    _ZTIN5CORBA17_impl_SequenceDefE @6141 DATA
    _ZTIN5CORBA17_impl_ValueBoxDefE @6142 DATA
    _ZTIN5CORBA17_objref_ContainedE @6143 DATA
    _ZTIN5CORBA17_objref_ContainerE @6144 DATA
    _ZTIN5CORBA17_objref_ModuleDefE @6145 DATA
    _ZTIN5CORBA17_objref_NativeDefE @6146 DATA
    _ZTIN5CORBA17_objref_StringDefE @6147 DATA
    _ZTIN5CORBA17_objref_StructDefE @6148 DATA
    _ZTIN5CORBA17_pof_AttributeDefE @6149 DATA
    _ZTIN5CORBA17_pof_ExceptionDefE @6150 DATA
    _ZTIN5CORBA17_pof_InterfaceDefE @6151 DATA
    _ZTIN5CORBA17_pof_OperationDefE @6152 DATA
    _ZTIN5CORBA17_pof_PrimitiveDefE @6153 DATA
    _ZTIN5CORBA18_impl_AttributeDefE @6154 DATA
    _ZTIN5CORBA18_impl_ExceptionDefE @6155 DATA
    _ZTIN5CORBA18_impl_InterfaceDefE @6156 DATA
    _ZTIN5CORBA18_impl_OperationDefE @6157 DATA
    _ZTIN5CORBA18_impl_PrimitiveDefE @6158 DATA
    _ZTIN5CORBA18_objref_RepositoryE @6159 DATA
    _ZTIN5CORBA18_objref_TypedefDefE @6160 DATA
    _ZTIN5CORBA18_objref_WstringDefE @6161 DATA
    _ZTIN5CORBA19_objref_ConstantDefE @6162 DATA
    _ZTIN5CORBA19_objref_SequenceDefE @6163 DATA
    _ZTIN5CORBA19_objref_ValueBoxDefE @6164 DATA
    _ZTIN5CORBA19_pof_ValueMemberDefE @6165 DATA
    _ZTIN5CORBA20UnknownUserExceptionE @6166 DATA
    _ZTIN5CORBA20_impl_ValueMemberDefE @6167 DATA
    _ZTIN5CORBA20_objref_AttributeDefE @6168 DATA
    _ZTIN5CORBA20_objref_ExceptionDefE @6169 DATA
    _ZTIN5CORBA20_objref_InterfaceDefE @6170 DATA
    _ZTIN5CORBA20_objref_OperationDefE @6171 DATA
    _ZTIN5CORBA20_objref_PrimitiveDefE @6172 DATA
    _ZTIN5CORBA22_objref_ValueMemberDefE @6173 DATA
    _ZTIN5CORBA24DefaultValueRefCountBaseE @6174 DATA
    _ZTIN5CORBA24_omni_AbstractBaseObjrefE @6175 DATA
    _ZTIN5CORBA25_pof_AbstractInterfaceDefE @6176 DATA
    _ZTIN5CORBA26_impl_AbstractInterfaceDefE @6177 DATA
    _ZTIN5CORBA28_objref_AbstractInterfaceDefE @6178 DATA
    _ZTIN5CORBA3ORB20InconsistentTypeCodeE @6179 DATA
    _ZTIN5CORBA6NVList6BoundsE @6180 DATA
    _ZTIN5CORBA6NVListE @6181 DATA
    _ZTIN5CORBA6ObjectE @6182 DATA
    _ZTIN5CORBA7ContextE @6183 DATA
    _ZTIN5CORBA7MARSHALE @6184 DATA
    _ZTIN5CORBA7RequestE @6185 DATA
    _ZTIN5CORBA8TypeCode6BoundsE @6186 DATA
    _ZTIN5CORBA8TypeCode7BadKindE @6187 DATA
    _ZTIN5CORBA8TypeCodeE @6188 DATA
    _ZTIN5CORBA9BAD_PARAME @6189 DATA
    _ZTIN5CORBA9ExceptionE @6190 DATA
    _ZTIN5CORBA9ValueBaseE @6191 DATA
    _ZTIN7omniORB14fatalExceptionE @6192 DATA
    _ZTIN9POA_CORBA10RepositoryE @6193 DATA
    _ZTIN9POA_CORBA10TypedefDefE @6194 DATA
    _ZTIN9POA_CORBA10WstringDefE @6195 DATA
    _ZTIN9POA_CORBA11ConstantDefE @6196 DATA
    _ZTIN9POA_CORBA11SequenceDefE @6197 DATA
    _ZTIN9POA_CORBA11ValueBoxDefE @6198 DATA
    _ZTIN9POA_CORBA12AttributeDefE @6199 DATA
    _ZTIN9POA_CORBA12ExceptionDefE @6200 DATA
    _ZTIN9POA_CORBA12InterfaceDefE @6201 DATA
    _ZTIN9POA_CORBA12OperationDefE @6202 DATA
    _ZTIN9POA_CORBA12PrimitiveDefE @6203 DATA
    _ZTIN9POA_CORBA14ValueMemberDefE @6204 DATA
    _ZTIN9POA_CORBA20AbstractInterfaceDefE @6205 DATA
    _ZTIN9POA_CORBA7EnumDefE @6206 DATA
    _ZTIN9POA_CORBA7IDLTypeE @6207 DATA
    _ZTIN9POA_CORBA8AliasDefE @6208 DATA
    _ZTIN9POA_CORBA8ArrayDefE @6209 DATA
    _ZTIN9POA_CORBA8FixedDefE @6210 DATA
    _ZTIN9POA_CORBA8IRObjectE @6211 DATA
    _ZTIN9POA_CORBA8UnionDefE @6212 DATA
    _ZTIN9POA_CORBA8ValueDefE @6213 DATA
    _ZTIN9POA_CORBA9ContainedE @6214 DATA
    _ZTIN9POA_CORBA9ContainerE @6215 DATA
    _ZTIN9POA_CORBA9ModuleDefE @6216 DATA
    _ZTIN9POA_CORBA9NativeDefE @6217 DATA
    _ZTIN9POA_CORBA9StringDefE @6218 DATA
    _ZTIN9POA_CORBA9StructDefE @6219 DATA
    _ZTS10omniObjRef @6220 DATA
    _ZTS11omniServant @6221 DATA
    _ZTS12omniTaskLink @6222 DATA
    _ZTS15cdrMemoryStream @6223 DATA
    _ZTS18cdrAnyMemoryStream @6224 DATA
    _ZTS18omniCallDescriptor @6225 DATA
    _ZTS27_0RL_CORBA_StringValue_init @6226 DATA
    _ZTS28_0RL_CORBA_WStringValue_init @6227 DATA
    _ZTS33_0RL_cd_7963219A43724A61_00000000 @6228 DATA
    _ZTS33_0RL_cd_7963219A43724A61_01000000 @6229 DATA
    _ZTS33_0RL_cd_7963219A43724A61_04000000 @6230 DATA
    _ZTS33_0RL_cd_7963219A43724A61_06000000 @6231 DATA
    _ZTS33_0RL_cd_7963219A43724A61_08000000 @6232 DATA
    _ZTS33_0RL_cd_7963219A43724A61_12000000 @6233 DATA
    _ZTS33_0RL_cd_7963219A43724A61_13000000 @6234 DATA
    _ZTS33_0RL_cd_7963219A43724A61_15000000 @6235 DATA
    _ZTS33_0RL_cd_7963219A43724A61_19000000 @6236 DATA
    _ZTS33_0RL_cd_7963219A43724A61_1a000000 @6237 DATA
    _ZTS33_0RL_cd_7963219A43724A61_1b000000 @6238 DATA
    _ZTS33_0RL_cd_7963219A43724A61_20000000 @6239 DATA
    _ZTS33_0RL_cd_7963219A43724A61_24000000 @6240 DATA
    _ZTS33_0RL_cd_7963219A43724A61_26000000 @6241 DATA
    _ZTS33_0RL_cd_7963219A43724A61_28000000 @6242 DATA
    _ZTS33_0RL_cd_7963219A43724A61_31000000 @6243 DATA
    _ZTS33_0RL_cd_7963219A43724A61_32000000 @6244 DATA
    _ZTS33_0RL_cd_7963219A43724A61_33000000 @6245 DATA
    _ZTS33_0RL_cd_7963219A43724A61_39000000 @6246 DATA
    _ZTS33_0RL_cd_7963219A43724A61_3b000000 @6247 DATA
    _ZTS33_0RL_cd_7963219A43724A61_40000000 @6248 DATA
    _ZTS33_0RL_cd_7963219A43724A61_44000000 @6249 DATA
    _ZTS33_0RL_cd_7963219A43724A61_46000000 @6250 DATA
    _ZTS33_0RL_cd_7963219A43724A61_51000000 @6251 DATA
    _ZTS33_0RL_cd_7963219A43724A61_52000000 @6252 DATA
    _ZTS33_0RL_cd_7963219A43724A61_53000000 @6253 DATA
    _ZTS33_0RL_cd_7963219A43724A61_59000000 @6254 DATA
    _ZTS33_0RL_cd_7963219A43724A61_5b000000 @6255 DATA
    _ZTS33_0RL_cd_7963219A43724A61_60000000 @6256 DATA
    _ZTS33_0RL_cd_7963219A43724A61_65000000 @6257 DATA
    _ZTS33_0RL_cd_7963219A43724A61_71000000 @6258 DATA
    _ZTS33_0RL_cd_7963219A43724A61_72000000 @6259 DATA
    _ZTS33_0RL_cd_7963219A43724A61_74000000 @6260 DATA
    _ZTS33_0RL_cd_7963219A43724A61_78000000 @6261 DATA
    _ZTS33_0RL_cd_7963219A43724A61_79000000 @6262 DATA
    _ZTS33_0RL_cd_7963219A43724A61_7b000000 @6263 DATA
    _ZTS33_0RL_cd_7963219A43724A61_80000000 @6264 DATA
    _ZTS33_0RL_cd_7963219A43724A61_83000000 @6265 DATA
    _ZTS33_0RL_cd_7963219A43724A61_85000000 @6266 DATA
    _ZTS33_0RL_cd_7963219A43724A61_86000000 @6267 DATA
    _ZTS33_0RL_cd_7963219A43724A61_91000000 @6268 DATA
    _ZTS33_0RL_cd_7963219A43724A61_92000000 @6269 DATA
    _ZTS33_0RL_cd_7963219A43724A61_94000000 @6270 DATA
    _ZTS33_0RL_cd_7963219A43724A61_98000000 @6271 DATA
    _ZTS33_0RL_cd_7963219A43724A61_99000000 @6272 DATA
    _ZTS33_0RL_cd_7963219A43724A61_9a000000 @6273 DATA
    _ZTS33_0RL_cd_7963219A43724A61_9b000000 @6274 DATA
    _ZTS33_0RL_cd_7963219A43724A61_a0000000 @6275 DATA
    _ZTS33_0RL_cd_7963219A43724A61_a3000000 @6276 DATA
    _ZTS33_0RL_cd_7963219A43724A61_a5000000 @6277 DATA
    _ZTS33_0RL_cd_7963219A43724A61_a6000000 @6278 DATA
    _ZTS33_0RL_cd_7963219A43724A61_b1000000 @6279 DATA
    _ZTS33_0RL_cd_7963219A43724A61_b2000000 @6280 DATA
    _ZTS33_0RL_cd_7963219A43724A61_b4000000 @6281 DATA
    _ZTS33_0RL_cd_7963219A43724A61_b8000000 @6282 DATA
    _ZTS33_0RL_cd_7963219A43724A61_b9000000 @6283 DATA
    _ZTS33_0RL_cd_7963219A43724A61_ba000000 @6284 DATA
    _ZTS33_0RL_cd_7963219A43724A61_bb000000 @6285 DATA
    _ZTS33_0RL_cd_7963219A43724A61_c3000000 @6286 DATA
    _ZTS33_0RL_cd_7963219A43724A61_c5000000 @6287 DATA
    _ZTS33_0RL_cd_7963219A43724A61_c6000000 @6288 DATA
    _ZTS33_0RL_cd_7963219A43724A61_d1000000 @6289 DATA
    _ZTS33_0RL_cd_7963219A43724A61_d2000000 @6290 DATA
    _ZTS33_0RL_cd_7963219A43724A61_d4000000 @6291 DATA
    _ZTS33_0RL_cd_7963219A43724A61_d8000000 @6292 DATA
    _ZTS33_0RL_cd_7963219A43724A61_d9000000 @6293 DATA
    _ZTS33_0RL_cd_7963219A43724A61_db000000 @6294 DATA
    _ZTS33_0RL_cd_7963219A43724A61_e3000000 @6295 DATA
    _ZTS33_0RL_cd_7963219A43724A61_e6000000 @6296 DATA
    _ZTS33_0RL_cd_7963219A43724A61_f1000000 @6297 DATA
    _ZTS33_0RL_cd_7963219A43724A61_f2000000 @6298 DATA
    _ZTS33_0RL_cd_7963219A43724A61_f4000000 @6299 DATA
    _ZTS33_0RL_cd_7963219A43724A61_f8000000 @6300 DATA
    _ZTS33_0RL_cd_7963219A43724A61_f9000000 @6301 DATA
    _ZTS33_0RL_cd_7963219A43724A61_fb000000 @6302 DATA
    _ZTS8omniTask @6303 DATA
    _ZTS9cdrStream @6304 DATA
    _ZTSN10DynamicAny11DynSequenceE @6305 DATA
    _ZTSN10DynamicAny11DynValueBoxE @6306 DATA
    _ZTSN10DynamicAny13DynAnyFactory20InconsistentTypeCodeE @6307 DATA
    _ZTSN10DynamicAny13DynAnyFactoryE @6308 DATA
    _ZTSN10DynamicAny14DynValueCommonE @6309 DATA
    _ZTSN10DynamicAny6DynAny12InvalidValueE @6310 DATA
    _ZTSN10DynamicAny6DynAny12TypeMismatchE @6311 DATA
    _ZTSN10DynamicAny6DynAnyE @6312 DATA
    _ZTSN10DynamicAny7DynEnumE @6313 DATA
    _ZTSN10DynamicAny8DynArrayE @6314 DATA
    _ZTSN10DynamicAny8DynFixedE @6315 DATA
    _ZTSN10DynamicAny8DynUnionE @6316 DATA
    _ZTSN10DynamicAny8DynValueE @6317 DATA
    _ZTSN10DynamicAny9DynStructE @6318 DATA
    _ZTSN14PortableServer11ServantBaseE @6319 DATA
    _ZTSN14PortableServer17ValueRefCountBaseE @6320 DATA
    _ZTSN14PortableServer21DynamicImplementationE @6321 DATA
    _ZTSN14PortableServer3POA11WrongPolicyE @6322 DATA
    _ZTSN4omni10DynAnyImplE @6323 DATA
    _ZTSN4omni10NVListImplE @6324 DATA
    _ZTSN4omni10omniNilEnvE @6325 DATA
    _ZTSN4omni11ContextImplE @6326 DATA
    _ZTSN4omni11DynEnumImplE @6327 DATA
    _ZTSN4omni11RequestImplE @6328 DATA
    _ZTSN4omni12DynArrayImplE @6329 DATA
    _ZTSN4omni12DynFixedImplE @6330 DATA
    _ZTSN4omni12DynUnionDiscE @6331 DATA
    _ZTSN4omni12DynUnionImplE @6332 DATA
    _ZTSN4omni12DynValueImplE @6333 DATA
    _ZTSN4omni12UnknownValueE @6334 DATA
    _ZTSN4omni13DynStructImplE @6335 DATA
    _ZTSN4omni13PseudoObjBaseE @6336 DATA
    _ZTSN4omni13TypeCode_baseE @6337 DATA
    _ZTSN4omni13TypeCode_enumE @6338 DATA
    _ZTSN4omni13omniNilCtListE @6339 DATA
    _ZTSN4omni13omniNilDynAnyE @6340 DATA
    _ZTSN4omni13omniNilExListE @6341 DATA
    _ZTSN4omni13omniNilNVListE @6342 DATA
    _ZTSN4omni14DynAnyImplBaseE @6343 DATA
    _ZTSN4omni14NamedValueImplE @6344 DATA
    _ZTSN4omni14TypeCode_aliasE @6345 DATA
    _ZTSN4omni14TypeCode_arrayE @6346 DATA
    _ZTSN4omni14TypeCode_fixedE @6347 DATA
    _ZTSN4omni14TypeCode_unionE @6348 DATA
    _ZTSN4omni14TypeCode_valueE @6349 DATA
    _ZTSN4omni14omniNilContextE @6350 DATA
    _ZTSN4omni14omniNilDynEnumE @6351 DATA
    _ZTSN4omni14omniNilRequestE @6352 DATA
    _ZTSN4omni15ContextListImplE @6353 DATA
    _ZTSN4omni15DeferredRequestE @6354 DATA
    _ZTSN4omni15DynSequenceImplE @6355 DATA
    _ZTSN4omni15DynValueBoxImplE @6356 DATA
    _ZTSN4omni15EnvironmentImplE @6357 DATA
    _ZTSN4omni15TypeCode_exceptE @6358 DATA
    _ZTSN4omni15TypeCode_objrefE @6359 DATA
    _ZTSN4omni15TypeCode_stringE @6360 DATA
    _ZTSN4omni15TypeCode_structE @6361 DATA
    _ZTSN4omni15omniInitialiserE @6362 DATA
    _ZTSN4omni15omniNilDynArrayE @6363 DATA
    _ZTSN4omni15omniNilDynFixedE @6364 DATA
    _ZTSN4omni15omniNilDynUnionE @6365 DATA
    _ZTSN4omni15omniNilDynValueE @6366 DATA
    _ZTSN4omni16DynAnyConstrBaseE @6367 DATA
    _ZTSN4omni16DynUnionEnumDiscE @6368 DATA
    _ZTSN4omni16TypeCode_wstringE @6369 DATA
    _ZTSN4omni16omniNilDynStructE @6370 DATA
    _ZTSN4omni17DynAnyFactoryImplE @6371 DATA
    _ZTSN4omni17ExceptionListImplE @6372 DATA
    _ZTSN4omni17InputValueTrackerE @6373 DATA
    _ZTSN4omni17TypeCode_indirectE @6374 DATA
    _ZTSN4omni17TypeCode_sequenceE @6375 DATA
    _ZTSN4omni17omniServerRequestE @6376 DATA
    _ZTSN4omni17omniTrackedObjectE @6377 DATA
    _ZTSN4omni18OutputValueTrackerE @6378 DATA
    _ZTSN4omni18TypeCode_value_boxE @6379 DATA
    _ZTSN4omni18omniNilDynSequenceE @6380 DATA
    _ZTSN4omni18omniNilDynValueBoxE @6381 DATA
    _ZTSN4omni18proxyObjectFactoryE @6382 DATA
    _ZTSN4omni20FromAnyUserExceptionE @6383 DATA
    _ZTSN4omni20omniNilDynAnyFactoryE @6384 DATA
    _ZTSN4omni21omniNilDynValueCommonE @6385 DATA
    _ZTSN4omni21omniNilTypeCodeHolderE @6386 DATA
    _ZTSN4omni22omniTypeCodeCollectionE @6387 DATA
    _ZTSN4omni23ValueIndirectionTrackerE @6388 DATA
    _ZTSN4omni23omni_dynAny_initialiserE @6389 DATA
    _ZTSN4omni24TypeCode_local_interfaceE @6390 DATA
    _ZTSN4omni25omni_RequestImpl_callDescE @6391 DATA
    _ZTSN4omni27TypeCode_abstract_interfaceE @6392 DATA
    _ZTSN4omni27serverRequestCallDescriptorE @6393 DATA
    _ZTSN4omni29omni_valueFactory_initialiserE @6394 DATA
    _ZTSN4omni9omniNilNVE @6395 DATA
    _ZTSN5CORBA10NamedValueE @6396 DATA
    _ZTSN5CORBA11ContextList6BoundsE @6397 DATA
    _ZTSN5CORBA11ContextListE @6398 DATA
    _ZTSN5CORBA11EnvironmentE @6399 DATA
    _ZTSN5CORBA11PolicyErrorE @6400 DATA
    _ZTSN5CORBA11StringValueE @6401 DATA
    _ZTSN5CORBA12AbstractBaseE @6402 DATA
    _ZTSN5CORBA12NO_IMPLEMENTE @6403 DATA
    _ZTSN5CORBA12WStringValueE @6404 DATA
    _ZTSN5CORBA12_pof_EnumDefE @6405 DATA
    _ZTSN5CORBA12_pof_IDLTypeE @6406 DATA
    _ZTSN5CORBA13ExceptionList6BoundsE @6407 DATA
    _ZTSN5CORBA13ExceptionListE @6408 DATA
    _ZTSN5CORBA13ServerRequestE @6409 DATA
    _ZTSN5CORBA13UserExceptionE @6410 DATA
    _ZTSN5CORBA13_impl_EnumDefE @6411 DATA
    _ZTSN5CORBA13_impl_IDLTypeE @6412 DATA
    _ZTSN5CORBA13_pof_AliasDefE @6413 DATA
    _ZTSN5CORBA13_pof_ArrayDefE @6414 DATA
    _ZTSN5CORBA13_pof_FixedDefE @6415 DATA
    _ZTSN5CORBA13_pof_IRObjectE @6416 DATA
    _ZTSN5CORBA13_pof_UnionDefE @6417 DATA
    _ZTSN5CORBA13_pof_ValueDefE @6418 DATA
    _ZTSN5CORBA14_impl_AliasDefE @6419 DATA
    _ZTSN5CORBA14_impl_ArrayDefE @6420 DATA
    _ZTSN5CORBA14_impl_FixedDefE @6421 DATA
    _ZTSN5CORBA14_impl_IRObjectE @6422 DATA
    _ZTSN5CORBA14_impl_UnionDefE @6423 DATA
    _ZTSN5CORBA14_impl_ValueDefE @6424 DATA
    _ZTSN5CORBA14_pof_ContainedE @6425 DATA
    _ZTSN5CORBA14_pof_ContainerE @6426 DATA
    _ZTSN5CORBA14_pof_ModuleDefE @6427 DATA
    _ZTSN5CORBA14_pof_NativeDefE @6428 DATA
    _ZTSN5CORBA14_pof_StringDefE @6429 DATA
    _ZTSN5CORBA14_pof_StructDefE @6430 DATA
    _ZTSN5CORBA15DATA_CONVERSIONE @6431 DATA
    _ZTSN5CORBA15SystemExceptionE @6432 DATA
    _ZTSN5CORBA15_impl_ContainedE @6433 DATA
    _ZTSN5CORBA15_impl_ContainerE @6434 DATA
    _ZTSN5CORBA15_impl_ModuleDefE @6435 DATA
    _ZTSN5CORBA15_impl_NativeDefE @6436 DATA
    _ZTSN5CORBA15_impl_StringDefE @6437 DATA
    _ZTSN5CORBA15_impl_StructDefE @6438 DATA
    _ZTSN5CORBA15_objref_EnumDefE @6439 DATA
    _ZTSN5CORBA15_objref_IDLTypeE @6440 DATA
    _ZTSN5CORBA15_pof_RepositoryE @6441 DATA
    _ZTSN5CORBA15_pof_TypedefDefE @6442 DATA
    _ZTSN5CORBA15_pof_WstringDefE @6443 DATA
    _ZTSN5CORBA16ValueFactoryBaseE @6444 DATA
    _ZTSN5CORBA16WrongTransactionE @6445 DATA
    _ZTSN5CORBA16_impl_RepositoryE @6446 DATA
    _ZTSN5CORBA16_impl_TypedefDefE @6447 DATA
    _ZTSN5CORBA16_impl_WstringDefE @6448 DATA
    _ZTSN5CORBA16_objref_AliasDefE @6449 DATA
    _ZTSN5CORBA16_objref_ArrayDefE @6450 DATA
    _ZTSN5CORBA16_objref_FixedDefE @6451 DATA
    _ZTSN5CORBA16_objref_IRObjectE @6452 DATA
    _ZTSN5CORBA16_objref_UnionDefE @6453 DATA
    _ZTSN5CORBA16_objref_ValueDefE @6454 DATA
    _ZTSN5CORBA16_pof_ConstantDefE @6455 DATA
    _ZTSN5CORBA16_pof_SequenceDefE @6456 DATA
    _ZTSN5CORBA16_pof_ValueBoxDefE @6457 DATA
    _ZTSN5CORBA17_impl_ConstantDefE @6458 DATA
    _ZTSN5CORBA17_impl_SequenceDefE @6459 DATA
    _ZTSN5CORBA17_impl_ValueBoxDefE @6460 DATA
    _ZTSN5CORBA17_objref_ContainedE @6461 DATA
    _ZTSN5CORBA17_objref_ContainerE @6462 DATA
    _ZTSN5CORBA17_objref_ModuleDefE @6463 DATA
    _ZTSN5CORBA17_objref_NativeDefE @6464 DATA
    _ZTSN5CORBA17_objref_StringDefE @6465 DATA
    _ZTSN5CORBA17_objref_StructDefE @6466 DATA
    _ZTSN5CORBA17_pof_AttributeDefE @6467 DATA
    _ZTSN5CORBA17_pof_ExceptionDefE @6468 DATA
    _ZTSN5CORBA17_pof_InterfaceDefE @6469 DATA
    _ZTSN5CORBA17_pof_OperationDefE @6470 DATA
    _ZTSN5CORBA17_pof_PrimitiveDefE @6471 DATA
    _ZTSN5CORBA18_impl_AttributeDefE @6472 DATA
    _ZTSN5CORBA18_impl_ExceptionDefE @6473 DATA
    _ZTSN5CORBA18_impl_InterfaceDefE @6474 DATA
    _ZTSN5CORBA18_impl_OperationDefE @6475 DATA
    _ZTSN5CORBA18_impl_PrimitiveDefE @6476 DATA
    _ZTSN5CORBA18_objref_RepositoryE @6477 DATA
    _ZTSN5CORBA18_objref_TypedefDefE @6478 DATA
    _ZTSN5CORBA18_objref_WstringDefE @6479 DATA
    _ZTSN5CORBA19_objref_ConstantDefE @6480 DATA
    _ZTSN5CORBA19_objref_SequenceDefE @6481 DATA
    _ZTSN5CORBA19_objref_ValueBoxDefE @6482 DATA
    _ZTSN5CORBA19_pof_ValueMemberDefE @6483 DATA
    _ZTSN5CORBA20UnknownUserExceptionE @6484 DATA
    _ZTSN5CORBA20_impl_ValueMemberDefE @6485 DATA
    _ZTSN5CORBA20_objref_AttributeDefE @6486 DATA
    _ZTSN5CORBA20_objref_ExceptionDefE @6487 DATA
    _ZTSN5CORBA20_objref_InterfaceDefE @6488 DATA
    _ZTSN5CORBA20_objref_OperationDefE @6489 DATA
    _ZTSN5CORBA20_objref_PrimitiveDefE @6490 DATA
    _ZTSN5CORBA22_objref_ValueMemberDefE @6491 DATA
    _ZTSN5CORBA24DefaultValueRefCountBaseE @6492 DATA
    _ZTSN5CORBA24_omni_AbstractBaseObjrefE @6493 DATA
    _ZTSN5CORBA25_pof_AbstractInterfaceDefE @6494 DATA
    _ZTSN5CORBA26_impl_AbstractInterfaceDefE @6495 DATA
    _ZTSN5CORBA28_objref_AbstractInterfaceDefE @6496 DATA
    _ZTSN5CORBA3ORB20InconsistentTypeCodeE @6497 DATA
    _ZTSN5CORBA6NVList6BoundsE @6498 DATA
    _ZTSN5CORBA6NVListE @6499 DATA
    _ZTSN5CORBA6ObjectE @6500 DATA
    _ZTSN5CORBA7ContextE @6501 DATA
    _ZTSN5CORBA7MARSHALE @6502 DATA
    _ZTSN5CORBA7RequestE @6503 DATA
    _ZTSN5CORBA8TypeCode6BoundsE @6504 DATA
    _ZTSN5CORBA8TypeCode7BadKindE @6505 DATA
    _ZTSN5CORBA8TypeCodeE @6506 DATA
    _ZTSN5CORBA9BAD_PARAME @6507 DATA
    _ZTSN5CORBA9ExceptionE @6508 DATA
    _ZTSN5CORBA9ValueBaseE @6509 DATA
    _ZTSN7omniORB14fatalExceptionE @6510 DATA
    _ZTSN9POA_CORBA10RepositoryE @6511 DATA
    _ZTSN9POA_CORBA10TypedefDefE @6512 DATA
    _ZTSN9POA_CORBA10WstringDefE @6513 DATA
    _ZTSN9POA_CORBA11ConstantDefE @6514 DATA
    _ZTSN9POA_CORBA11SequenceDefE @6515 DATA
    _ZTSN9POA_CORBA11ValueBoxDefE @6516 DATA
    _ZTSN9POA_CORBA12AttributeDefE @6517 DATA
    _ZTSN9POA_CORBA12ExceptionDefE @6518 DATA
    _ZTSN9POA_CORBA12InterfaceDefE @6519 DATA
    _ZTSN9POA_CORBA12OperationDefE @6520 DATA
    _ZTSN9POA_CORBA12PrimitiveDefE @6521 DATA
    _ZTSN9POA_CORBA14ValueMemberDefE @6522 DATA
    _ZTSN9POA_CORBA20AbstractInterfaceDefE @6523 DATA
    _ZTSN9POA_CORBA7EnumDefE @6524 DATA
    _ZTSN9POA_CORBA7IDLTypeE @6525 DATA
    _ZTSN9POA_CORBA8AliasDefE @6526 DATA
    _ZTSN9POA_CORBA8ArrayDefE @6527 DATA
    _ZTSN9POA_CORBA8FixedDefE @6528 DATA
    _ZTSN9POA_CORBA8IRObjectE @6529 DATA
    _ZTSN9POA_CORBA8UnionDefE @6530 DATA
    _ZTSN9POA_CORBA8ValueDefE @6531 DATA
    _ZTSN9POA_CORBA9ContainedE @6532 DATA
    _ZTSN9POA_CORBA9ContainerE @6533 DATA
    _ZTSN9POA_CORBA9ModuleDefE @6534 DATA
    _ZTSN9POA_CORBA9NativeDefE @6535 DATA
    _ZTSN9POA_CORBA9StringDefE @6536 DATA
    _ZTSN9POA_CORBA9StructDefE @6537 DATA
    _ZTTN10DynamicAny11DynSequenceE @6538 DATA
    _ZTTN10DynamicAny11DynValueBoxE @6539 DATA
    _ZTTN10DynamicAny14DynValueCommonE @6540 DATA
    _ZTTN10DynamicAny7DynEnumE @6541 DATA
    _ZTTN10DynamicAny8DynArrayE @6542 DATA
    _ZTTN10DynamicAny8DynFixedE @6543 DATA
    _ZTTN10DynamicAny8DynUnionE @6544 DATA
    _ZTTN10DynamicAny8DynValueE @6545 DATA
    _ZTTN10DynamicAny9DynStructE @6546 DATA
    _ZTTN14PortableServer17ValueRefCountBaseE @6547 DATA
    _ZTTN14PortableServer21DynamicImplementationE @6548 DATA
    _ZTTN4omni10DynAnyImplE @6549 DATA
    _ZTTN4omni11DynEnumImplE @6550 DATA
    _ZTTN4omni12DynArrayImplE @6551 DATA
    _ZTTN4omni12DynFixedImplE @6552 DATA
    _ZTTN4omni12DynUnionDiscE @6553 DATA
    _ZTTN4omni12DynUnionImplE @6554 DATA
    _ZTTN4omni12DynValueImplE @6555 DATA
    _ZTTN4omni12UnknownValueE @6556 DATA
    _ZTTN4omni13DynStructImplE @6557 DATA
    _ZTTN4omni13omniNilDynAnyE @6558 DATA
    _ZTTN4omni14DynAnyImplBaseE @6559 DATA
    _ZTTN4omni14omniNilDynEnumE @6560 DATA
    _ZTTN4omni15DynSequenceImplE @6561 DATA
    _ZTTN4omni15DynValueBoxImplE @6562 DATA
    _ZTTN4omni15omniNilDynArrayE @6563 DATA
    _ZTTN4omni15omniNilDynFixedE @6564 DATA
    _ZTTN4omni15omniNilDynUnionE @6565 DATA
    _ZTTN4omni15omniNilDynValueE @6566 DATA
    _ZTTN4omni16DynAnyConstrBaseE @6567 DATA
    _ZTTN4omni16DynUnionEnumDiscE @6568 DATA
    _ZTTN4omni16omniNilDynStructE @6569 DATA
    _ZTTN4omni18omniNilDynSequenceE @6570 DATA
    _ZTTN4omni18omniNilDynValueBoxE @6571 DATA
    _ZTTN4omni20omniNilDynAnyFactoryE @6572 DATA
    _ZTTN4omni21omniNilDynValueCommonE @6573 DATA
    _ZTTN5CORBA11StringValueE @6574 DATA
    _ZTTN5CORBA12WStringValueE @6575 DATA
    _ZTTN5CORBA13_impl_EnumDefE @6576 DATA
    _ZTTN5CORBA13_impl_IDLTypeE @6577 DATA
    _ZTTN5CORBA14_impl_AliasDefE @6578 DATA
    _ZTTN5CORBA14_impl_ArrayDefE @6579 DATA
    _ZTTN5CORBA14_impl_FixedDefE @6580 DATA
    _ZTTN5CORBA14_impl_IRObjectE @6581 DATA
    _ZTTN5CORBA14_impl_UnionDefE @6582 DATA
    _ZTTN5CORBA14_impl_ValueDefE @6583 DATA
    _ZTTN5CORBA15_impl_ContainedE @6584 DATA
    _ZTTN5CORBA15_impl_ContainerE @6585 DATA
    _ZTTN5CORBA15_impl_ModuleDefE @6586 DATA
    _ZTTN5CORBA15_impl_NativeDefE @6587 DATA
    _ZTTN5CORBA15_impl_StringDefE @6588 DATA
    _ZTTN5CORBA15_impl_StructDefE @6589 DATA
    _ZTTN5CORBA15_objref_EnumDefE @6590 DATA
    _ZTTN5CORBA15_objref_IDLTypeE @6591 DATA
    _ZTTN5CORBA16_impl_RepositoryE @6592 DATA
    _ZTTN5CORBA16_impl_TypedefDefE @6593 DATA
    _ZTTN5CORBA16_impl_WstringDefE @6594 DATA
    _ZTTN5CORBA16_objref_AliasDefE @6595 DATA
    _ZTTN5CORBA16_objref_ArrayDefE @6596 DATA
    _ZTTN5CORBA16_objref_FixedDefE @6597 DATA
    _ZTTN5CORBA16_objref_IRObjectE @6598 DATA
    _ZTTN5CORBA16_objref_UnionDefE @6599 DATA
    _ZTTN5CORBA16_objref_ValueDefE @6600 DATA
    _ZTTN5CORBA17_impl_ConstantDefE @6601 DATA
    _ZTTN5CORBA17_impl_SequenceDefE @6602 DATA
    _ZTTN5CORBA17_impl_ValueBoxDefE @6603 DATA
    _ZTTN5CORBA17_objref_ContainedE @6604 DATA
    _ZTTN5CORBA17_objref_ContainerE @6605 DATA
    _ZTTN5CORBA17_objref_ModuleDefE @6606 DATA
    _ZTTN5CORBA17_objref_NativeDefE @6607 DATA
    _ZTTN5CORBA17_objref_StringDefE @6608 DATA
    _ZTTN5CORBA17_objref_StructDefE @6609 DATA
    _ZTTN5CORBA18_impl_AttributeDefE @6610 DATA
    _ZTTN5CORBA18_impl_ExceptionDefE @6611 DATA
    _ZTTN5CORBA18_impl_InterfaceDefE @6612 DATA
    _ZTTN5CORBA18_impl_OperationDefE @6613 DATA
    _ZTTN5CORBA18_impl_PrimitiveDefE @6614 DATA
    _ZTTN5CORBA18_objref_RepositoryE @6615 DATA
    _ZTTN5CORBA18_objref_TypedefDefE @6616 DATA
    _ZTTN5CORBA18_objref_WstringDefE @6617 DATA
    _ZTTN5CORBA19_objref_ConstantDefE @6618 DATA
    _ZTTN5CORBA19_objref_SequenceDefE @6619 DATA
    _ZTTN5CORBA19_objref_ValueBoxDefE @6620 DATA
    _ZTTN5CORBA20_impl_ValueMemberDefE @6621 DATA
    _ZTTN5CORBA20_objref_AttributeDefE @6622 DATA
    _ZTTN5CORBA20_objref_ExceptionDefE @6623 DATA
    _ZTTN5CORBA20_objref_InterfaceDefE @6624 DATA
    _ZTTN5CORBA20_objref_OperationDefE @6625 DATA
    _ZTTN5CORBA20_objref_PrimitiveDefE @6626 DATA
    _ZTTN5CORBA22_objref_ValueMemberDefE @6627 DATA
    _ZTTN5CORBA24DefaultValueRefCountBaseE @6628 DATA
    _ZTTN5CORBA24_omni_AbstractBaseObjrefE @6629 DATA
    _ZTTN5CORBA26_impl_AbstractInterfaceDefE @6630 DATA
    _ZTTN5CORBA28_objref_AbstractInterfaceDefE @6631 DATA
    _ZTTN9POA_CORBA10RepositoryE @6632 DATA
    _ZTTN9POA_CORBA10TypedefDefE @6633 DATA
    _ZTTN9POA_CORBA10WstringDefE @6634 DATA
    _ZTTN9POA_CORBA11ConstantDefE @6635 DATA
    _ZTTN9POA_CORBA11SequenceDefE @6636 DATA
    _ZTTN9POA_CORBA11ValueBoxDefE @6637 DATA
    _ZTTN9POA_CORBA12AttributeDefE @6638 DATA
    _ZTTN9POA_CORBA12ExceptionDefE @6639 DATA
    _ZTTN9POA_CORBA12InterfaceDefE @6640 DATA
    _ZTTN9POA_CORBA12OperationDefE @6641 DATA
    _ZTTN9POA_CORBA12PrimitiveDefE @6642 DATA
    _ZTTN9POA_CORBA14ValueMemberDefE @6643 DATA
    _ZTTN9POA_CORBA20AbstractInterfaceDefE @6644 DATA
    _ZTTN9POA_CORBA7EnumDefE @6645 DATA
    _ZTTN9POA_CORBA7IDLTypeE @6646 DATA
    _ZTTN9POA_CORBA8AliasDefE @6647 DATA
    _ZTTN9POA_CORBA8ArrayDefE @6648 DATA
    _ZTTN9POA_CORBA8FixedDefE @6649 DATA
    _ZTTN9POA_CORBA8IRObjectE @6650 DATA
    _ZTTN9POA_CORBA8UnionDefE @6651 DATA
    _ZTTN9POA_CORBA8ValueDefE @6652 DATA
    _ZTTN9POA_CORBA9ContainedE @6653 DATA
    _ZTTN9POA_CORBA9ContainerE @6654 DATA
    _ZTTN9POA_CORBA9ModuleDefE @6655 DATA
    _ZTTN9POA_CORBA9NativeDefE @6656 DATA
    _ZTTN9POA_CORBA9StringDefE @6657 DATA
    _ZTTN9POA_CORBA9StructDefE @6658 DATA
    _ZTV18cdrAnyMemoryStream @6659 DATA
    _ZTV27_0RL_CORBA_StringValue_init @6660 DATA
    _ZTV28_0RL_CORBA_WStringValue_init @6661 DATA
    _ZTV33_0RL_cd_7963219A43724A61_00000000 @6662 DATA
    _ZTV33_0RL_cd_7963219A43724A61_01000000 @6663 DATA
    _ZTV33_0RL_cd_7963219A43724A61_04000000 @6664 DATA
    _ZTV33_0RL_cd_7963219A43724A61_06000000 @6665 DATA
    _ZTV33_0RL_cd_7963219A43724A61_08000000 @6666 DATA
    _ZTV33_0RL_cd_7963219A43724A61_12000000 @6667 DATA
    _ZTV33_0RL_cd_7963219A43724A61_13000000 @6668 DATA
    _ZTV33_0RL_cd_7963219A43724A61_15000000 @6669 DATA
    _ZTV33_0RL_cd_7963219A43724A61_19000000 @6670 DATA
    _ZTV33_0RL_cd_7963219A43724A61_1a000000 @6671 DATA
    _ZTV33_0RL_cd_7963219A43724A61_1b000000 @6672 DATA
    _ZTV33_0RL_cd_7963219A43724A61_20000000 @6673 DATA
    _ZTV33_0RL_cd_7963219A43724A61_24000000 @6674 DATA
    _ZTV33_0RL_cd_7963219A43724A61_26000000 @6675 DATA
    _ZTV33_0RL_cd_7963219A43724A61_28000000 @6676 DATA
    _ZTV33_0RL_cd_7963219A43724A61_31000000 @6677 DATA
    _ZTV33_0RL_cd_7963219A43724A61_32000000 @6678 DATA
    _ZTV33_0RL_cd_7963219A43724A61_33000000 @6679 DATA
    _ZTV33_0RL_cd_7963219A43724A61_39000000 @6680 DATA
    _ZTV33_0RL_cd_7963219A43724A61_3b000000 @6681 DATA
    _ZTV33_0RL_cd_7963219A43724A61_40000000 @6682 DATA
    _ZTV33_0RL_cd_7963219A43724A61_44000000 @6683 DATA
    _ZTV33_0RL_cd_7963219A43724A61_46000000 @6684 DATA
    _ZTV33_0RL_cd_7963219A43724A61_51000000 @6685 DATA
    _ZTV33_0RL_cd_7963219A43724A61_52000000 @6686 DATA
    _ZTV33_0RL_cd_7963219A43724A61_53000000 @6687 DATA
    _ZTV33_0RL_cd_7963219A43724A61_59000000 @6688 DATA
    _ZTV33_0RL_cd_7963219A43724A61_5b000000 @6689 DATA
    _ZTV33_0RL_cd_7963219A43724A61_60000000 @6690 DATA
    _ZTV33_0RL_cd_7963219A43724A61_65000000 @6691 DATA
    _ZTV33_0RL_cd_7963219A43724A61_71000000 @6692 DATA
    _ZTV33_0RL_cd_7963219A43724A61_72000000 @6693 DATA
    _ZTV33_0RL_cd_7963219A43724A61_74000000 @6694 DATA
    _ZTV33_0RL_cd_7963219A43724A61_78000000 @6695 DATA
    _ZTV33_0RL_cd_7963219A43724A61_79000000 @6696 DATA
    _ZTV33_0RL_cd_7963219A43724A61_7b000000 @6697 DATA
    _ZTV33_0RL_cd_7963219A43724A61_80000000 @6698 DATA
    _ZTV33_0RL_cd_7963219A43724A61_83000000 @6699 DATA
    _ZTV33_0RL_cd_7963219A43724A61_85000000 @6700 DATA
    _ZTV33_0RL_cd_7963219A43724A61_86000000 @6701 DATA
    _ZTV33_0RL_cd_7963219A43724A61_91000000 @6702 DATA
    _ZTV33_0RL_cd_7963219A43724A61_92000000 @6703 DATA
    _ZTV33_0RL_cd_7963219A43724A61_94000000 @6704 DATA
    _ZTV33_0RL_cd_7963219A43724A61_98000000 @6705 DATA
    _ZTV33_0RL_cd_7963219A43724A61_99000000 @6706 DATA
    _ZTV33_0RL_cd_7963219A43724A61_9a000000 @6707 DATA
    _ZTV33_0RL_cd_7963219A43724A61_9b000000 @6708 DATA
    _ZTV33_0RL_cd_7963219A43724A61_a0000000 @6709 DATA
    _ZTV33_0RL_cd_7963219A43724A61_a3000000 @6710 DATA
    _ZTV33_0RL_cd_7963219A43724A61_a5000000 @6711 DATA
    _ZTV33_0RL_cd_7963219A43724A61_a6000000 @6712 DATA
    _ZTV33_0RL_cd_7963219A43724A61_b1000000 @6713 DATA
    _ZTV33_0RL_cd_7963219A43724A61_b2000000 @6714 DATA
    _ZTV33_0RL_cd_7963219A43724A61_b4000000 @6715 DATA
    _ZTV33_0RL_cd_7963219A43724A61_b8000000 @6716 DATA
    _ZTV33_0RL_cd_7963219A43724A61_b9000000 @6717 DATA
    _ZTV33_0RL_cd_7963219A43724A61_ba000000 @6718 DATA
    _ZTV33_0RL_cd_7963219A43724A61_bb000000 @6719 DATA
    _ZTV33_0RL_cd_7963219A43724A61_c3000000 @6720 DATA
    _ZTV33_0RL_cd_7963219A43724A61_c5000000 @6721 DATA
    _ZTV33_0RL_cd_7963219A43724A61_c6000000 @6722 DATA
    _ZTV33_0RL_cd_7963219A43724A61_d1000000 @6723 DATA
    _ZTV33_0RL_cd_7963219A43724A61_d2000000 @6724 DATA
    _ZTV33_0RL_cd_7963219A43724A61_d4000000 @6725 DATA
    _ZTV33_0RL_cd_7963219A43724A61_d8000000 @6726 DATA
    _ZTV33_0RL_cd_7963219A43724A61_d9000000 @6727 DATA
    _ZTV33_0RL_cd_7963219A43724A61_db000000 @6728 DATA
    _ZTV33_0RL_cd_7963219A43724A61_e3000000 @6729 DATA
    _ZTV33_0RL_cd_7963219A43724A61_e6000000 @6730 DATA
    _ZTV33_0RL_cd_7963219A43724A61_f1000000 @6731 DATA
    _ZTV33_0RL_cd_7963219A43724A61_f2000000 @6732 DATA
    _ZTV33_0RL_cd_7963219A43724A61_f4000000 @6733 DATA
    _ZTV33_0RL_cd_7963219A43724A61_f8000000 @6734 DATA
    _ZTV33_0RL_cd_7963219A43724A61_f9000000 @6735 DATA
    _ZTV33_0RL_cd_7963219A43724A61_fb000000 @6736 DATA
    _ZTV8omniTask @6737 DATA
    _ZTVN10DynamicAny11DynSequenceE @6738 DATA
    _ZTVN10DynamicAny11DynValueBoxE @6739 DATA
    _ZTVN10DynamicAny13DynAnyFactory20InconsistentTypeCodeE @6740 DATA
    _ZTVN10DynamicAny13DynAnyFactoryE @6741 DATA
    _ZTVN10DynamicAny14DynValueCommonE @6742 DATA
    _ZTVN10DynamicAny6DynAny12InvalidValueE @6743 DATA
    _ZTVN10DynamicAny6DynAny12TypeMismatchE @6744 DATA
    _ZTVN10DynamicAny6DynAnyE @6745 DATA
    _ZTVN10DynamicAny7DynEnumE @6746 DATA
    _ZTVN10DynamicAny8DynArrayE @6747 DATA
    _ZTVN10DynamicAny8DynFixedE @6748 DATA
    _ZTVN10DynamicAny8DynUnionE @6749 DATA
    _ZTVN10DynamicAny8DynValueE @6750 DATA
    _ZTVN10DynamicAny9DynStructE @6751 DATA
    _ZTVN14PortableServer17ValueRefCountBaseE @6752 DATA
    _ZTVN14PortableServer21DynamicImplementationE @6753 DATA
    _ZTVN4omni10DynAnyImplE @6754 DATA
    _ZTVN4omni10NVListImplE @6755 DATA
    _ZTVN4omni10omniNilEnvE @6756 DATA
    _ZTVN4omni11ContextImplE @6757 DATA
    _ZTVN4omni11DynEnumImplE @6758 DATA
    _ZTVN4omni11RequestImplE @6759 DATA
    _ZTVN4omni12DynArrayImplE @6760 DATA
    _ZTVN4omni12DynFixedImplE @6761 DATA
    _ZTVN4omni12DynUnionDiscE @6762 DATA
    _ZTVN4omni12DynUnionImplE @6763 DATA
    _ZTVN4omni12DynValueImplE @6764 DATA
    _ZTVN4omni12UnknownValueE @6765 DATA
    _ZTVN4omni13DynStructImplE @6766 DATA
    _ZTVN4omni13PseudoObjBaseE @6767 DATA
    _ZTVN4omni13TypeCode_baseE @6768 DATA
    _ZTVN4omni13TypeCode_enumE @6769 DATA
    _ZTVN4omni13omniNilCtListE @6770 DATA
    _ZTVN4omni13omniNilDynAnyE @6771 DATA
    _ZTVN4omni13omniNilExListE @6772 DATA
    _ZTVN4omni13omniNilNVListE @6773 DATA
    _ZTVN4omni14DynAnyImplBaseE @6774 DATA
    _ZTVN4omni14NamedValueImplE @6775 DATA
    _ZTVN4omni14TypeCode_aliasE @6776 DATA
    _ZTVN4omni14TypeCode_arrayE @6777 DATA
    _ZTVN4omni14TypeCode_fixedE @6778 DATA
    _ZTVN4omni14TypeCode_unionE @6779 DATA
    _ZTVN4omni14TypeCode_valueE @6780 DATA
    _ZTVN4omni14omniNilContextE @6781 DATA
    _ZTVN4omni14omniNilDynEnumE @6782 DATA
    _ZTVN4omni14omniNilRequestE @6783 DATA
    _ZTVN4omni15ContextListImplE @6784 DATA
    _ZTVN4omni15DeferredRequestE @6785 DATA
    _ZTVN4omni15DynSequenceImplE @6786 DATA
    _ZTVN4omni15DynValueBoxImplE @6787 DATA
    _ZTVN4omni15EnvironmentImplE @6788 DATA
    _ZTVN4omni15TypeCode_exceptE @6789 DATA
    _ZTVN4omni15TypeCode_objrefE @6790 DATA
    _ZTVN4omni15TypeCode_stringE @6791 DATA
    _ZTVN4omni15TypeCode_structE @6792 DATA
    _ZTVN4omni15omniInitialiserE @6793 DATA
    _ZTVN4omni15omniNilDynArrayE @6794 DATA
    _ZTVN4omni15omniNilDynFixedE @6795 DATA
    _ZTVN4omni15omniNilDynUnionE @6796 DATA
    _ZTVN4omni15omniNilDynValueE @6797 DATA
    _ZTVN4omni16DynAnyConstrBaseE @6798 DATA
    _ZTVN4omni16DynUnionEnumDiscE @6799 DATA
    _ZTVN4omni16TypeCode_wstringE @6800 DATA
    _ZTVN4omni16omniNilDynStructE @6801 DATA
    _ZTVN4omni17DynAnyFactoryImplE @6802 DATA
    _ZTVN4omni17ExceptionListImplE @6803 DATA
    _ZTVN4omni17InputValueTrackerE @6804 DATA
    _ZTVN4omni17TypeCode_indirectE @6805 DATA
    _ZTVN4omni17TypeCode_sequenceE @6806 DATA
    _ZTVN4omni17omniServerRequestE @6807 DATA
    _ZTVN4omni17omniTrackedObjectE @6808 DATA
    _ZTVN4omni18OutputValueTrackerE @6809 DATA
    _ZTVN4omni18TypeCode_value_boxE @6810 DATA
    _ZTVN4omni18omniNilDynSequenceE @6811 DATA
    _ZTVN4omni18omniNilDynValueBoxE @6812 DATA
    _ZTVN4omni20FromAnyUserExceptionE @6813 DATA
    _ZTVN4omni20omniNilDynAnyFactoryE @6814 DATA
    _ZTVN4omni21omniNilDynValueCommonE @6815 DATA
    _ZTVN4omni21omniNilTypeCodeHolderE @6816 DATA
    _ZTVN4omni22omniTypeCodeCollectionE @6817 DATA
    _ZTVN4omni23omni_dynAny_initialiserE @6818 DATA
    _ZTVN4omni24TypeCode_local_interfaceE @6819 DATA
    _ZTVN4omni25omni_RequestImpl_callDescE @6820 DATA
    _ZTVN4omni27TypeCode_abstract_interfaceE @6821 DATA
    _ZTVN4omni27serverRequestCallDescriptorE @6822 DATA
    _ZTVN4omni29omni_valueFactory_initialiserE @6823 DATA
    _ZTVN4omni9omniNilNVE @6824 DATA
    _ZTVN5CORBA10NamedValueE @6825 DATA
    _ZTVN5CORBA11ContextList6BoundsE @6826 DATA
    _ZTVN5CORBA11ContextListE @6827 DATA
    _ZTVN5CORBA11EnvironmentE @6828 DATA
    _ZTVN5CORBA11PolicyErrorE @6829 DATA
    _ZTVN5CORBA11StringValueE @6830 DATA
    _ZTVN5CORBA12AbstractBaseE @6831 DATA
    _ZTVN5CORBA12WStringValueE @6832 DATA
    _ZTVN5CORBA12_pof_EnumDefE @6833 DATA
    _ZTVN5CORBA12_pof_IDLTypeE @6834 DATA
    _ZTVN5CORBA13ExceptionList6BoundsE @6835 DATA
    _ZTVN5CORBA13ExceptionListE @6836 DATA
    _ZTVN5CORBA13ServerRequestE @6837 DATA
    _ZTVN5CORBA13_impl_EnumDefE @6838 DATA
    _ZTVN5CORBA13_impl_IDLTypeE @6839 DATA
    _ZTVN5CORBA13_pof_AliasDefE @6840 DATA
    _ZTVN5CORBA13_pof_ArrayDefE @6841 DATA
    _ZTVN5CORBA13_pof_FixedDefE @6842 DATA
    _ZTVN5CORBA13_pof_IRObjectE @6843 DATA
    _ZTVN5CORBA13_pof_UnionDefE @6844 DATA
    _ZTVN5CORBA13_pof_ValueDefE @6845 DATA
    _ZTVN5CORBA14_impl_AliasDefE @6846 DATA
    _ZTVN5CORBA14_impl_ArrayDefE @6847 DATA
    _ZTVN5CORBA14_impl_FixedDefE @6848 DATA
    _ZTVN5CORBA14_impl_IRObjectE @6849 DATA
    _ZTVN5CORBA14_impl_UnionDefE @6850 DATA
    _ZTVN5CORBA14_impl_ValueDefE @6851 DATA
    _ZTVN5CORBA14_pof_ContainedE @6852 DATA
    _ZTVN5CORBA14_pof_ContainerE @6853 DATA
    _ZTVN5CORBA14_pof_ModuleDefE @6854 DATA
    _ZTVN5CORBA14_pof_NativeDefE @6855 DATA
    _ZTVN5CORBA14_pof_StringDefE @6856 DATA
    _ZTVN5CORBA14_pof_StructDefE @6857 DATA
    _ZTVN5CORBA15_impl_ContainedE @6858 DATA
    _ZTVN5CORBA15_impl_ContainerE @6859 DATA
    _ZTVN5CORBA15_impl_ModuleDefE @6860 DATA
    _ZTVN5CORBA15_impl_NativeDefE @6861 DATA
    _ZTVN5CORBA15_impl_StringDefE @6862 DATA
    _ZTVN5CORBA15_impl_StructDefE @6863 DATA
    _ZTVN5CORBA15_objref_EnumDefE @6864 DATA
    _ZTVN5CORBA15_objref_IDLTypeE @6865 DATA
    _ZTVN5CORBA15_pof_RepositoryE @6866 DATA
    _ZTVN5CORBA15_pof_TypedefDefE @6867 DATA
    _ZTVN5CORBA15_pof_WstringDefE @6868 DATA
    _ZTVN5CORBA16ValueFactoryBaseE @6869 DATA
    _ZTVN5CORBA16WrongTransactionE @6870 DATA
    _ZTVN5CORBA16_impl_RepositoryE @6871 DATA
    _ZTVN5CORBA16_impl_TypedefDefE @6872 DATA
    _ZTVN5CORBA16_impl_WstringDefE @6873 DATA
    _ZTVN5CORBA16_objref_AliasDefE @6874 DATA
    _ZTVN5CORBA16_objref_ArrayDefE @6875 DATA
    _ZTVN5CORBA16_objref_FixedDefE @6876 DATA
    _ZTVN5CORBA16_objref_IRObjectE @6877 DATA
    _ZTVN5CORBA16_objref_UnionDefE @6878 DATA
    _ZTVN5CORBA16_objref_ValueDefE @6879 DATA
    _ZTVN5CORBA16_pof_ConstantDefE @6880 DATA
    _ZTVN5CORBA16_pof_SequenceDefE @6881 DATA
    _ZTVN5CORBA16_pof_ValueBoxDefE @6882 DATA
    _ZTVN5CORBA17_impl_ConstantDefE @6883 DATA
    _ZTVN5CORBA17_impl_SequenceDefE @6884 DATA
    _ZTVN5CORBA17_impl_ValueBoxDefE @6885 DATA
    _ZTVN5CORBA17_objref_ContainedE @6886 DATA
    _ZTVN5CORBA17_objref_ContainerE @6887 DATA
    _ZTVN5CORBA17_objref_ModuleDefE @6888 DATA
    _ZTVN5CORBA17_objref_NativeDefE @6889 DATA
    _ZTVN5CORBA17_objref_StringDefE @6890 DATA
    _ZTVN5CORBA17_objref_StructDefE @6891 DATA
    _ZTVN5CORBA17_pof_AttributeDefE @6892 DATA
    _ZTVN5CORBA17_pof_ExceptionDefE @6893 DATA
    _ZTVN5CORBA17_pof_InterfaceDefE @6894 DATA
    _ZTVN5CORBA17_pof_OperationDefE @6895 DATA
    _ZTVN5CORBA17_pof_PrimitiveDefE @6896 DATA
    _ZTVN5CORBA18_impl_AttributeDefE @6897 DATA
    _ZTVN5CORBA18_impl_ExceptionDefE @6898 DATA
    _ZTVN5CORBA18_impl_InterfaceDefE @6899 DATA
    _ZTVN5CORBA18_impl_OperationDefE @6900 DATA
    _ZTVN5CORBA18_impl_PrimitiveDefE @6901 DATA
    _ZTVN5CORBA18_objref_RepositoryE @6902 DATA
    _ZTVN5CORBA18_objref_TypedefDefE @6903 DATA
    _ZTVN5CORBA18_objref_WstringDefE @6904 DATA
    _ZTVN5CORBA19_objref_ConstantDefE @6905 DATA
    _ZTVN5CORBA19_objref_SequenceDefE @6906 DATA
    _ZTVN5CORBA19_objref_ValueBoxDefE @6907 DATA
    _ZTVN5CORBA19_pof_ValueMemberDefE @6908 DATA
    _ZTVN5CORBA20UnknownUserExceptionE @6909 DATA
    _ZTVN5CORBA20_impl_ValueMemberDefE @6910 DATA
    _ZTVN5CORBA20_objref_AttributeDefE @6911 DATA
    _ZTVN5CORBA20_objref_ExceptionDefE @6912 DATA
    _ZTVN5CORBA20_objref_InterfaceDefE @6913 DATA
    _ZTVN5CORBA20_objref_OperationDefE @6914 DATA
    _ZTVN5CORBA20_objref_PrimitiveDefE @6915 DATA
    _ZTVN5CORBA22_objref_ValueMemberDefE @6916 DATA
    _ZTVN5CORBA24DefaultValueRefCountBaseE @6917 DATA
    _ZTVN5CORBA24_omni_AbstractBaseObjrefE @6918 DATA
    _ZTVN5CORBA25_pof_AbstractInterfaceDefE @6919 DATA
    _ZTVN5CORBA26_impl_AbstractInterfaceDefE @6920 DATA
    _ZTVN5CORBA28_objref_AbstractInterfaceDefE @6921 DATA
    _ZTVN5CORBA3ORB20InconsistentTypeCodeE @6922 DATA
    _ZTVN5CORBA6NVList6BoundsE @6923 DATA
    _ZTVN5CORBA6NVListE @6924 DATA
    _ZTVN5CORBA7ContextE @6925 DATA
    _ZTVN5CORBA7RequestE @6926 DATA
    _ZTVN5CORBA8TypeCode6BoundsE @6927 DATA
    _ZTVN5CORBA8TypeCode7BadKindE @6928 DATA
    _ZTVN5CORBA8TypeCodeE @6929 DATA
    _ZTVN5CORBA9ValueBaseE @6930 DATA
    _ZTVN9POA_CORBA10RepositoryE @6931 DATA
    _ZTVN9POA_CORBA10TypedefDefE @6932 DATA
    _ZTVN9POA_CORBA10WstringDefE @6933 DATA
    _ZTVN9POA_CORBA11ConstantDefE @6934 DATA
    _ZTVN9POA_CORBA11SequenceDefE @6935 DATA
    _ZTVN9POA_CORBA11ValueBoxDefE @6936 DATA
    _ZTVN9POA_CORBA12AttributeDefE @6937 DATA
    _ZTVN9POA_CORBA12ExceptionDefE @6938 DATA
    _ZTVN9POA_CORBA12InterfaceDefE @6939 DATA
    _ZTVN9POA_CORBA12OperationDefE @6940 DATA
    _ZTVN9POA_CORBA12PrimitiveDefE @6941 DATA
    _ZTVN9POA_CORBA14ValueMemberDefE @6942 DATA
    _ZTVN9POA_CORBA20AbstractInterfaceDefE @6943 DATA
    _ZTVN9POA_CORBA7EnumDefE @6944 DATA
    _ZTVN9POA_CORBA7IDLTypeE @6945 DATA
    _ZTVN9POA_CORBA8AliasDefE @6946 DATA
    _ZTVN9POA_CORBA8ArrayDefE @6947 DATA
    _ZTVN9POA_CORBA8FixedDefE @6948 DATA
    _ZTVN9POA_CORBA8IRObjectE @6949 DATA
    _ZTVN9POA_CORBA8UnionDefE @6950 DATA
    _ZTVN9POA_CORBA8ValueDefE @6951 DATA
    _ZTVN9POA_CORBA9ContainedE @6952 DATA
    _ZTVN9POA_CORBA9ContainerE @6953 DATA
    _ZTVN9POA_CORBA9ModuleDefE @6954 DATA
    _ZTVN9POA_CORBA9NativeDefE @6955 DATA
    _ZTVN9POA_CORBA9StringDefE @6956 DATA
    _ZTVN9POA_CORBA9StructDefE @6957 DATA
    _ZThn108_N4omni11DynEnumImpl12_ptrToObjRefEPKc @6958
    _ZThn108_N4omni11DynEnumImpl12get_as_ulongEv @6959
    _ZThn108_N4omni11DynEnumImpl12set_as_ulongEm @6960
    _ZThn108_N4omni11DynEnumImpl13get_as_stringEv @6961
    _ZThn108_N4omni11DynEnumImpl13set_as_stringEPKc @6962
    _ZThn108_N4omni11DynEnumImplD0Ev @6963
    _ZThn108_N4omni11DynEnumImplD1Ev @6964
    _ZThn108_N4omni12DynFixedImpl12_ptrToObjRefEPKc @6965
    _ZThn108_N4omni12DynFixedImpl9get_valueEv @6966
    _ZThn108_N4omni12DynFixedImpl9set_valueEPKc @6967
    _ZThn108_N4omni12DynFixedImplD0Ev @6968
    _ZThn108_N4omni12DynFixedImplD1Ev @6969
    _ZThn108_N4omni12DynUnionImpl11member_kindEv @6970
    _ZThn108_N4omni12DynUnionImpl11member_nameEv @6971
    _ZThn108_N4omni12DynUnionImpl12_ptrToObjRefEPKc @6972
    _ZThn108_N4omni12DynUnionImpl17get_discriminatorEv @6973
    _ZThn108_N4omni12DynUnionImpl17set_discriminatorEPN10DynamicAny6DynAnyE @6974
    _ZThn108_N4omni12DynUnionImpl18discriminator_kindEv @6975
    _ZThn108_N4omni12DynUnionImpl20has_no_active_memberEv @6976
    _ZThn108_N4omni12DynUnionImpl21set_to_default_memberEv @6977
    _ZThn108_N4omni12DynUnionImpl23set_to_no_active_memberEv @6978
    _ZThn108_N4omni12DynUnionImpl24is_set_to_default_memberEv @6979
    _ZThn108_N4omni12DynUnionImpl6memberEv @6980
    _ZThn108_N4omni12DynUnionImplD0Ev @6981
    _ZThn108_N4omni12DynUnionImplD1Ev @6982
    _ZThn112_N4omni16DynUnionEnumDisc12_ptrToObjRefEPKc @6983
    _ZThn112_N4omni16DynUnionEnumDisc12get_as_ulongEv @6984
    _ZThn112_N4omni16DynUnionEnumDisc12set_as_ulongEm @6985
    _ZThn112_N4omni16DynUnionEnumDisc13get_as_stringEv @6986
    _ZThn112_N4omni16DynUnionEnumDisc13set_as_stringEPKc @6987
    _ZThn112_N4omni16DynUnionEnumDiscD0Ev @6988
    _ZThn112_N4omni16DynUnionEnumDiscD1Ev @6989
    _ZThn144_N4omni12DynArrayImpl12_ptrToObjRefEPKc @6990
    _ZThn144_N4omni12DynArrayImpl12get_elementsEv @6991
    _ZThn144_N4omni12DynArrayImpl12set_elementsERKN10DynamicAny6AnySeqE @6992
    _ZThn144_N4omni12DynArrayImpl23get_elements_as_dyn_anyEv @6993
    _ZThn144_N4omni12DynArrayImpl23set_elements_as_dyn_anyERKN10DynamicAny9DynAnySeqE @6994
    _ZThn144_N4omni12DynArrayImplD0Ev @6995
    _ZThn144_N4omni12DynArrayImplD1Ev @6996
    _ZThn144_N4omni12DynValueImpl11get_membersEv @6997
    _ZThn144_N4omni12DynValueImpl11set_membersERKN10DynamicAny16NameValuePairSeqE @6998
    _ZThn144_N4omni12DynValueImpl12_ptrToObjRefEPKc @6999
    _ZThn144_N4omni12DynValueImpl19current_member_kindEv @7000
    _ZThn144_N4omni12DynValueImpl19current_member_nameEv @7001
    _ZThn144_N4omni12DynValueImpl22get_members_as_dyn_anyEv @7002
    _ZThn144_N4omni12DynValueImpl22set_members_as_dyn_anyERKN10DynamicAny17NameDynAnyPairSeqE @7003
    _ZThn144_N4omni12DynValueImplD0Ev @7004
    _ZThn144_N4omni12DynValueImplD1Ev @7005
    _ZThn144_N4omni13DynStructImpl11get_membersEv @7006
    _ZThn144_N4omni13DynStructImpl11set_membersERKN10DynamicAny16NameValuePairSeqE @7007
    _ZThn144_N4omni13DynStructImpl12_ptrToObjRefEPKc @7008
    _ZThn144_N4omni13DynStructImpl19current_member_kindEv @7009
    _ZThn144_N4omni13DynStructImpl19current_member_nameEv @7010
    _ZThn144_N4omni13DynStructImpl22get_members_as_dyn_anyEv @7011
    _ZThn144_N4omni13DynStructImpl22set_members_as_dyn_anyERKN10DynamicAny17NameDynAnyPairSeqE @7012
    _ZThn144_N4omni13DynStructImplD0Ev @7013
    _ZThn144_N4omni13DynStructImplD1Ev @7014
    _ZThn144_N4omni15DynSequenceImpl10get_lengthEv @7015
    _ZThn144_N4omni15DynSequenceImpl10set_lengthEm @7016
    _ZThn144_N4omni15DynSequenceImpl12_ptrToObjRefEPKc @7017
    _ZThn144_N4omni15DynSequenceImpl12get_elementsEv @7018
    _ZThn144_N4omni15DynSequenceImpl12set_elementsERKN10DynamicAny6AnySeqE @7019
    _ZThn144_N4omni15DynSequenceImpl23get_elements_as_dyn_anyEv @7020
    _ZThn144_N4omni15DynSequenceImpl23set_elements_as_dyn_anyERKN10DynamicAny9DynAnySeqE @7021
    _ZThn144_N4omni15DynSequenceImplD0Ev @7022
    _ZThn144_N4omni15DynSequenceImplD1Ev @7023
    _ZThn144_N4omni15DynValueBoxImpl12_ptrToObjRefEPKc @7024
    _ZThn144_N4omni15DynValueBoxImpl15get_boxed_valueEv @7025
    _ZThn144_N4omni15DynValueBoxImpl15set_boxed_valueERKN5CORBA3AnyE @7026
    _ZThn144_N4omni15DynValueBoxImpl26get_boxed_value_as_dyn_anyEv @7027
    _ZThn144_N4omni15DynValueBoxImpl26set_boxed_value_as_dyn_anyEPN10DynamicAny6DynAnyE @7028
    _ZThn144_N4omni15DynValueBoxImplD0Ev @7029
    _ZThn144_N4omni15DynValueBoxImplD1Ev @7030
    _ZThn16_N4omni10omniNilEnvD0Ev @7031
    _ZThn16_N4omni10omniNilEnvD1Ev @7032
    _ZThn16_N4omni15EnvironmentImplD0Ev @7033
    _ZThn16_N4omni15EnvironmentImplD1Ev @7034
    _ZThn4_N4omni14omniNilDynEnum12_ptrToObjRefEPKc @7035
    _ZThn4_N4omni14omniNilDynEnum12get_as_ulongEv @7036
    _ZThn4_N4omni14omniNilDynEnum12set_as_ulongEm @7037
    _ZThn4_N4omni14omniNilDynEnum13get_as_stringEv @7038
    _ZThn4_N4omni14omniNilDynEnum13set_as_stringEPKc @7039
    _ZThn4_N4omni14omniNilDynEnumD0Ev @7040
    _ZThn4_N4omni14omniNilDynEnumD1Ev @7041
    _ZThn4_N4omni15omniNilDynArray12_ptrToObjRefEPKc @7042
    _ZThn4_N4omni15omniNilDynArray12get_elementsEv @7043
    _ZThn4_N4omni15omniNilDynArray12set_elementsERKN10DynamicAny6AnySeqE @7044
    _ZThn4_N4omni15omniNilDynArray23get_elements_as_dyn_anyEv @7045
    _ZThn4_N4omni15omniNilDynArray23set_elements_as_dyn_anyERKN10DynamicAny9DynAnySeqE @7046
    _ZThn4_N4omni15omniNilDynArrayD0Ev @7047
    _ZThn4_N4omni15omniNilDynArrayD1Ev @7048
    _ZThn4_N4omni15omniNilDynFixed12_ptrToObjRefEPKc @7049
    _ZThn4_N4omni15omniNilDynFixed9get_valueEv @7050
    _ZThn4_N4omni15omniNilDynFixed9set_valueEPKc @7051
    _ZThn4_N4omni15omniNilDynFixedD0Ev @7052
    _ZThn4_N4omni15omniNilDynFixedD1Ev @7053
    _ZThn4_N4omni15omniNilDynUnion11member_kindEv @7054
    _ZThn4_N4omni15omniNilDynUnion11member_nameEv @7055
    _ZThn4_N4omni15omniNilDynUnion12_ptrToObjRefEPKc @7056
    _ZThn4_N4omni15omniNilDynUnion17get_discriminatorEv @7057
    _ZThn4_N4omni15omniNilDynUnion17set_discriminatorEPN10DynamicAny6DynAnyE @7058
    _ZThn4_N4omni15omniNilDynUnion18discriminator_kindEv @7059
    _ZThn4_N4omni15omniNilDynUnion20has_no_active_memberEv @7060
    _ZThn4_N4omni15omniNilDynUnion21set_to_default_memberEv @7061
    _ZThn4_N4omni15omniNilDynUnion23set_to_no_active_memberEv @7062
    _ZThn4_N4omni15omniNilDynUnion24is_set_to_default_memberEv @7063
    _ZThn4_N4omni15omniNilDynUnion6memberEv @7064
    _ZThn4_N4omni15omniNilDynUnionD0Ev @7065
    _ZThn4_N4omni15omniNilDynUnionD1Ev @7066
    _ZThn4_N4omni15omniNilDynValue11get_membersEv @7067
    _ZThn4_N4omni15omniNilDynValue11set_membersERKN10DynamicAny16NameValuePairSeqE @7068
    _ZThn4_N4omni15omniNilDynValue12_ptrToObjRefEPKc @7069
    _ZThn4_N4omni15omniNilDynValue19current_member_kindEv @7070
    _ZThn4_N4omni15omniNilDynValue19current_member_nameEv @7071
    _ZThn4_N4omni15omniNilDynValue22get_members_as_dyn_anyEv @7072
    _ZThn4_N4omni15omniNilDynValue22set_members_as_dyn_anyERKN10DynamicAny17NameDynAnyPairSeqE @7073
    _ZThn4_N4omni15omniNilDynValueD0Ev @7074
    _ZThn4_N4omni15omniNilDynValueD1Ev @7075
    _ZThn4_N4omni16omniNilDynStruct11get_membersEv @7076
    _ZThn4_N4omni16omniNilDynStruct11set_membersERKN10DynamicAny16NameValuePairSeqE @7077
    _ZThn4_N4omni16omniNilDynStruct12_ptrToObjRefEPKc @7078
    _ZThn4_N4omni16omniNilDynStruct19current_member_kindEv @7079
    _ZThn4_N4omni16omniNilDynStruct19current_member_nameEv @7080
    _ZThn4_N4omni16omniNilDynStruct22get_members_as_dyn_anyEv @7081
    _ZThn4_N4omni16omniNilDynStruct22set_members_as_dyn_anyERKN10DynamicAny17NameDynAnyPairSeqE @7082
    _ZThn4_N4omni16omniNilDynStructD0Ev @7083
    _ZThn4_N4omni16omniNilDynStructD1Ev @7084
    _ZThn4_N4omni18omniNilDynSequence10get_lengthEv @7085
    _ZThn4_N4omni18omniNilDynSequence10set_lengthEm @7086
    _ZThn4_N4omni18omniNilDynSequence12_ptrToObjRefEPKc @7087
    _ZThn4_N4omni18omniNilDynSequence12get_elementsEv @7088
    _ZThn4_N4omni18omniNilDynSequence12set_elementsERKN10DynamicAny6AnySeqE @7089
    _ZThn4_N4omni18omniNilDynSequence23get_elements_as_dyn_anyEv @7090
    _ZThn4_N4omni18omniNilDynSequence23set_elements_as_dyn_anyERKN10DynamicAny9DynAnySeqE @7091
    _ZThn4_N4omni18omniNilDynSequenceD0Ev @7092
    _ZThn4_N4omni18omniNilDynSequenceD1Ev @7093
    _ZThn4_N4omni18omniNilDynValueBox12_ptrToObjRefEPKc @7094
    _ZThn4_N4omni18omniNilDynValueBox15get_boxed_valueEv @7095
    _ZThn4_N4omni18omniNilDynValueBox15set_boxed_valueERKN5CORBA3AnyE @7096
    _ZThn4_N4omni18omniNilDynValueBox26get_boxed_value_as_dyn_anyEv @7097
    _ZThn4_N4omni18omniNilDynValueBox26set_boxed_value_as_dyn_anyEPN10DynamicAny6DynAnyE @7098
    _ZThn4_N4omni18omniNilDynValueBoxD0Ev @7099
    _ZThn4_N4omni18omniNilDynValueBoxD1Ev @7100
    _ZThn4_N4omni21omniNilDynValueCommon11set_to_nullEv @7101
    _ZThn4_N4omni21omniNilDynValueCommon12_ptrToObjRefEPKc @7102
    _ZThn4_N4omni21omniNilDynValueCommon12set_to_valueEv @7103
    _ZThn4_N4omni21omniNilDynValueCommon7is_nullEv @7104
    _ZThn4_N4omni21omniNilDynValueCommonD0Ev @7105
    _ZThn4_N4omni21omniNilDynValueCommonD1Ev @7106
    _ZThn8_N4omni10NVListImplD0Ev @7107
    _ZThn8_N4omni10NVListImplD1Ev @7108
    _ZThn8_N4omni11RequestImplD0Ev @7109
    _ZThn8_N4omni11RequestImplD1Ev @7110
    _ZThn8_N4omni13omniNilCtListD0Ev @7111
    _ZThn8_N4omni13omniNilCtListD1Ev @7112
    _ZThn8_N4omni13omniNilExListD0Ev @7113
    _ZThn8_N4omni13omniNilExListD1Ev @7114
    _ZThn8_N4omni13omniNilNVListD0Ev @7115
    _ZThn8_N4omni13omniNilNVListD1Ev @7116
    _ZThn8_N4omni14NamedValueImplD0Ev @7117
    _ZThn8_N4omni14NamedValueImplD1Ev @7118
    _ZThn8_N4omni14omniNilContextD0Ev @7119
    _ZThn8_N4omni14omniNilContextD1Ev @7120
    _ZThn8_N4omni14omniNilRequestD0Ev @7121
    _ZThn8_N4omni14omniNilRequestD1Ev @7122
    _ZThn8_N4omni15ContextListImplD0Ev @7123
    _ZThn8_N4omni15ContextListImplD1Ev @7124
    _ZThn8_N4omni17ExceptionListImplD0Ev @7125
    _ZThn8_N4omni17ExceptionListImplD1Ev @7126
    _ZThn8_N4omni9omniNilNVD0Ev @7127
    _ZThn8_N4omni9omniNilNVD1Ev @7128
    _ZTv0_n100_N4omni10DynAnyImpl16insert_referenceEPN5CORBA6ObjectE @7129
    _ZTv0_n100_N4omni12DynUnionDisc16insert_referenceEPN5CORBA6ObjectE @7130
    _ZTv0_n100_N4omni12DynUnionImpl16insert_referenceEPN5CORBA6ObjectE @7131
    _ZTv0_n100_N4omni13omniNilDynAny16insert_referenceEPN5CORBA6ObjectE @7132
    _ZTv0_n100_N4omni16DynAnyConstrBase16insert_referenceEPN5CORBA6ObjectE @7133
    _ZTv0_n104_N4omni10DynAnyImpl15insert_typecodeEPN5CORBA8TypeCodeE @7134
    _ZTv0_n104_N4omni12DynUnionDisc15insert_typecodeEPN5CORBA8TypeCodeE @7135
    _ZTv0_n104_N4omni12DynUnionImpl15insert_typecodeEPN5CORBA8TypeCodeE @7136
    _ZTv0_n104_N4omni13omniNilDynAny15insert_typecodeEPN5CORBA8TypeCodeE @7137
    _ZTv0_n104_N4omni16DynAnyConstrBase15insert_typecodeEPN5CORBA8TypeCodeE @7138
    _ZTv0_n108_N4omni10DynAnyImpl15insert_longlongEx @7139
    _ZTv0_n108_N4omni12DynUnionDisc15insert_longlongEx @7140
    _ZTv0_n108_N4omni12DynUnionImpl15insert_longlongEx @7141
    _ZTv0_n108_N4omni13omniNilDynAny15insert_longlongEx @7142
    _ZTv0_n108_N4omni16DynAnyConstrBase15insert_longlongEx @7143
    _ZTv0_n112_N4omni10DynAnyImpl16insert_ulonglongEy @7144
    _ZTv0_n112_N4omni12DynUnionDisc16insert_ulonglongEy @7145
    _ZTv0_n112_N4omni12DynUnionImpl16insert_ulonglongEy @7146
    _ZTv0_n112_N4omni13omniNilDynAny16insert_ulonglongEy @7147
    _ZTv0_n112_N4omni16DynAnyConstrBase16insert_ulonglongEy @7148
    _ZTv0_n116_N4omni10DynAnyImpl17insert_longdoubleEe @7149
    _ZTv0_n116_N4omni12DynUnionDisc17insert_longdoubleEe @7150
    _ZTv0_n116_N4omni12DynUnionImpl17insert_longdoubleEe @7151
    _ZTv0_n116_N4omni13omniNilDynAny17insert_longdoubleEe @7152
    _ZTv0_n116_N4omni16DynAnyConstrBase17insert_longdoubleEe @7153
    _ZTv0_n120_N4omni10DynAnyImpl12insert_wcharEw @7154
    _ZTv0_n120_N4omni12DynUnionDisc12insert_wcharEw @7155
    _ZTv0_n120_N4omni12DynUnionImpl12insert_wcharEw @7156
    _ZTv0_n120_N4omni13omniNilDynAny12insert_wcharEw @7157
    _ZTv0_n120_N4omni16DynAnyConstrBase12insert_wcharEw @7158
    _ZTv0_n124_N4omni10DynAnyImpl14insert_wstringEPKw @7159
    _ZTv0_n124_N4omni12DynUnionDisc14insert_wstringEPKw @7160
    _ZTv0_n124_N4omni12DynUnionImpl14insert_wstringEPKw @7161
    _ZTv0_n124_N4omni13omniNilDynAny14insert_wstringEPKw @7162
    _ZTv0_n124_N4omni16DynAnyConstrBase14insert_wstringEPKw @7163
    _ZTv0_n128_N4omni10DynAnyImpl10insert_anyERKN5CORBA3AnyE @7164
    _ZTv0_n128_N4omni12DynUnionDisc10insert_anyERKN5CORBA3AnyE @7165
    _ZTv0_n128_N4omni12DynUnionImpl10insert_anyERKN5CORBA3AnyE @7166
    _ZTv0_n128_N4omni13omniNilDynAny10insert_anyERKN5CORBA3AnyE @7167
    _ZTv0_n128_N4omni16DynAnyConstrBase10insert_anyERKN5CORBA3AnyE @7168
    _ZTv0_n12_N10DynamicAny11DynSequenceD0Ev @7169
    _ZTv0_n12_N10DynamicAny11DynSequenceD1Ev @7170
    _ZTv0_n12_N10DynamicAny11DynValueBoxD0Ev @7171
    _ZTv0_n12_N10DynamicAny11DynValueBoxD1Ev @7172
    _ZTv0_n12_N10DynamicAny14DynValueCommonD0Ev @7173
    _ZTv0_n12_N10DynamicAny14DynValueCommonD1Ev @7174
    _ZTv0_n12_N10DynamicAny7DynEnumD0Ev @7175
    _ZTv0_n12_N10DynamicAny7DynEnumD1Ev @7176
    _ZTv0_n12_N10DynamicAny8DynArrayD0Ev @7177
    _ZTv0_n12_N10DynamicAny8DynArrayD1Ev @7178
    _ZTv0_n12_N10DynamicAny8DynFixedD0Ev @7179
    _ZTv0_n12_N10DynamicAny8DynFixedD1Ev @7180
    _ZTv0_n12_N10DynamicAny8DynUnionD0Ev @7181
    _ZTv0_n12_N10DynamicAny8DynUnionD1Ev @7182
    _ZTv0_n12_N10DynamicAny8DynValueD0Ev @7183
    _ZTv0_n12_N10DynamicAny8DynValueD1Ev @7184
    _ZTv0_n12_N10DynamicAny9DynStructD0Ev @7185
    _ZTv0_n12_N10DynamicAny9DynStructD1Ev @7186
    _ZTv0_n12_N14PortableServer17ValueRefCountBase8_add_refEv @7187
    _ZTv0_n12_N14PortableServer17ValueRefCountBaseD0Ev @7188
    _ZTv0_n12_N14PortableServer17ValueRefCountBaseD1Ev @7189
    _ZTv0_n12_N14PortableServer21DynamicImplementationD0Ev @7190
    _ZTv0_n12_N14PortableServer21DynamicImplementationD1Ev @7191
    _ZTv0_n12_N4omni10DynAnyImplD0Ev @7192
    _ZTv0_n12_N4omni10DynAnyImplD1Ev @7193
    _ZTv0_n12_N4omni11DynEnumImplD0Ev @7194
    _ZTv0_n12_N4omni11DynEnumImplD1Ev @7195
    _ZTv0_n12_N4omni12DynArrayImplD0Ev @7196
    _ZTv0_n12_N4omni12DynArrayImplD1Ev @7197
    _ZTv0_n12_N4omni12DynFixedImplD0Ev @7198
    _ZTv0_n12_N4omni12DynFixedImplD1Ev @7199
    _ZTv0_n12_N4omni12DynUnionDiscD0Ev @7200
    _ZTv0_n12_N4omni12DynUnionDiscD1Ev @7201
    _ZTv0_n12_N4omni12DynUnionImplD0Ev @7202
    _ZTv0_n12_N4omni12DynUnionImplD1Ev @7203
    _ZTv0_n12_N4omni12DynValueImplD0Ev @7204
    _ZTv0_n12_N4omni12DynValueImplD1Ev @7205
    _ZTv0_n12_N4omni13DynStructImplD0Ev @7206
    _ZTv0_n12_N4omni13DynStructImplD1Ev @7207
    _ZTv0_n12_N4omni13omniNilDynAnyD0Ev @7208
    _ZTv0_n12_N4omni13omniNilDynAnyD1Ev @7209
    _ZTv0_n12_N4omni14DynAnyImplBaseD0Ev @7210
    _ZTv0_n12_N4omni14DynAnyImplBaseD1Ev @7211
    _ZTv0_n12_N4omni14omniNilDynEnumD0Ev @7212
    _ZTv0_n12_N4omni14omniNilDynEnumD1Ev @7213
    _ZTv0_n12_N4omni15DynSequenceImplD0Ev @7214
    _ZTv0_n12_N4omni15DynSequenceImplD1Ev @7215
    _ZTv0_n12_N4omni15DynValueBoxImplD0Ev @7216
    _ZTv0_n12_N4omni15DynValueBoxImplD1Ev @7217
    _ZTv0_n12_N4omni15omniNilDynArrayD0Ev @7218
    _ZTv0_n12_N4omni15omniNilDynArrayD1Ev @7219
    _ZTv0_n12_N4omni15omniNilDynFixedD0Ev @7220
    _ZTv0_n12_N4omni15omniNilDynFixedD1Ev @7221
    _ZTv0_n12_N4omni15omniNilDynUnionD0Ev @7222
    _ZTv0_n12_N4omni15omniNilDynUnionD1Ev @7223
    _ZTv0_n12_N4omni15omniNilDynValueD0Ev @7224
    _ZTv0_n12_N4omni15omniNilDynValueD1Ev @7225
    _ZTv0_n12_N4omni16DynAnyConstrBaseD0Ev @7226
    _ZTv0_n12_N4omni16DynAnyConstrBaseD1Ev @7227
    _ZTv0_n12_N4omni16DynUnionEnumDiscD0Ev @7228
    _ZTv0_n12_N4omni16DynUnionEnumDiscD1Ev @7229
    _ZTv0_n12_N4omni16omniNilDynStructD0Ev @7230
    _ZTv0_n12_N4omni16omniNilDynStructD1Ev @7231
    _ZTv0_n12_N4omni18omniNilDynSequenceD0Ev @7232
    _ZTv0_n12_N4omni18omniNilDynSequenceD1Ev @7233
    _ZTv0_n12_N4omni18omniNilDynValueBoxD0Ev @7234
    _ZTv0_n12_N4omni18omniNilDynValueBoxD1Ev @7235
    _ZTv0_n12_N4omni20omniNilDynAnyFactoryD0Ev @7236
    _ZTv0_n12_N4omni20omniNilDynAnyFactoryD1Ev @7237
    _ZTv0_n12_N4omni21omniNilDynValueCommonD0Ev @7238
    _ZTv0_n12_N4omni21omniNilDynValueCommonD1Ev @7239
    _ZTv0_n12_N5CORBA13_impl_EnumDefD0Ev @7240
    _ZTv0_n12_N5CORBA13_impl_EnumDefD1Ev @7241
    _ZTv0_n12_N5CORBA13_impl_IDLTypeD0Ev @7242
    _ZTv0_n12_N5CORBA13_impl_IDLTypeD1Ev @7243
    _ZTv0_n12_N5CORBA14_impl_AliasDefD0Ev @7244
    _ZTv0_n12_N5CORBA14_impl_AliasDefD1Ev @7245
    _ZTv0_n12_N5CORBA14_impl_ArrayDefD0Ev @7246
    _ZTv0_n12_N5CORBA14_impl_ArrayDefD1Ev @7247
    _ZTv0_n12_N5CORBA14_impl_FixedDefD0Ev @7248
    _ZTv0_n12_N5CORBA14_impl_FixedDefD1Ev @7249
    _ZTv0_n12_N5CORBA14_impl_IRObjectD0Ev @7250
    _ZTv0_n12_N5CORBA14_impl_IRObjectD1Ev @7251
    _ZTv0_n12_N5CORBA14_impl_UnionDefD0Ev @7252
    _ZTv0_n12_N5CORBA14_impl_UnionDefD1Ev @7253
    _ZTv0_n12_N5CORBA14_impl_ValueDefD0Ev @7254
    _ZTv0_n12_N5CORBA14_impl_ValueDefD1Ev @7255
    _ZTv0_n12_N5CORBA15_impl_ContainedD0Ev @7256
    _ZTv0_n12_N5CORBA15_impl_ContainedD1Ev @7257
    _ZTv0_n12_N5CORBA15_impl_ContainerD0Ev @7258
    _ZTv0_n12_N5CORBA15_impl_ContainerD1Ev @7259
    _ZTv0_n12_N5CORBA15_impl_ModuleDefD0Ev @7260
    _ZTv0_n12_N5CORBA15_impl_ModuleDefD1Ev @7261
    _ZTv0_n12_N5CORBA15_impl_NativeDefD0Ev @7262
    _ZTv0_n12_N5CORBA15_impl_NativeDefD1Ev @7263
    _ZTv0_n12_N5CORBA15_impl_StringDefD0Ev @7264
    _ZTv0_n12_N5CORBA15_impl_StringDefD1Ev @7265
    _ZTv0_n12_N5CORBA15_impl_StructDefD0Ev @7266
    _ZTv0_n12_N5CORBA15_impl_StructDefD1Ev @7267
    _ZTv0_n12_N5CORBA15_objref_EnumDef12_ptrToObjRefEPKc @7268
    _ZTv0_n12_N5CORBA15_objref_EnumDefD0Ev @7269
    _ZTv0_n12_N5CORBA15_objref_EnumDefD1Ev @7270
    _ZTv0_n12_N5CORBA15_objref_IDLType12_ptrToObjRefEPKc @7271
    _ZTv0_n12_N5CORBA15_objref_IDLTypeD0Ev @7272
    _ZTv0_n12_N5CORBA15_objref_IDLTypeD1Ev @7273
    _ZTv0_n12_N5CORBA16_impl_RepositoryD0Ev @7274
    _ZTv0_n12_N5CORBA16_impl_RepositoryD1Ev @7275
    _ZTv0_n12_N5CORBA16_impl_TypedefDefD0Ev @7276
    _ZTv0_n12_N5CORBA16_impl_TypedefDefD1Ev @7277
    _ZTv0_n12_N5CORBA16_impl_WstringDefD0Ev @7278
    _ZTv0_n12_N5CORBA16_impl_WstringDefD1Ev @7279
    _ZTv0_n12_N5CORBA16_objref_AliasDef12_ptrToObjRefEPKc @7280
    _ZTv0_n12_N5CORBA16_objref_AliasDefD0Ev @7281
    _ZTv0_n12_N5CORBA16_objref_AliasDefD1Ev @7282
    _ZTv0_n12_N5CORBA16_objref_ArrayDef12_ptrToObjRefEPKc @7283
    _ZTv0_n12_N5CORBA16_objref_ArrayDefD0Ev @7284
    _ZTv0_n12_N5CORBA16_objref_ArrayDefD1Ev @7285
    _ZTv0_n12_N5CORBA16_objref_FixedDef12_ptrToObjRefEPKc @7286
    _ZTv0_n12_N5CORBA16_objref_FixedDefD0Ev @7287
    _ZTv0_n12_N5CORBA16_objref_FixedDefD1Ev @7288
    _ZTv0_n12_N5CORBA16_objref_IRObject12_ptrToObjRefEPKc @7289
    _ZTv0_n12_N5CORBA16_objref_IRObjectD0Ev @7290
    _ZTv0_n12_N5CORBA16_objref_IRObjectD1Ev @7291
    _ZTv0_n12_N5CORBA16_objref_UnionDef12_ptrToObjRefEPKc @7292
    _ZTv0_n12_N5CORBA16_objref_UnionDefD0Ev @7293
    _ZTv0_n12_N5CORBA16_objref_UnionDefD1Ev @7294
    _ZTv0_n12_N5CORBA16_objref_ValueDef12_ptrToObjRefEPKc @7295
    _ZTv0_n12_N5CORBA16_objref_ValueDefD0Ev @7296
    _ZTv0_n12_N5CORBA16_objref_ValueDefD1Ev @7297
    _ZTv0_n12_N5CORBA17_impl_ConstantDefD0Ev @7298
    _ZTv0_n12_N5CORBA17_impl_ConstantDefD1Ev @7299
    _ZTv0_n12_N5CORBA17_impl_SequenceDefD0Ev @7300
    _ZTv0_n12_N5CORBA17_impl_SequenceDefD1Ev @7301
    _ZTv0_n12_N5CORBA17_impl_ValueBoxDefD0Ev @7302
    _ZTv0_n12_N5CORBA17_impl_ValueBoxDefD1Ev @7303
    _ZTv0_n12_N5CORBA17_objref_Contained12_ptrToObjRefEPKc @7304
    _ZTv0_n12_N5CORBA17_objref_ContainedD0Ev @7305
    _ZTv0_n12_N5CORBA17_objref_ContainedD1Ev @7306
    _ZTv0_n12_N5CORBA17_objref_Container12_ptrToObjRefEPKc @7307
    _ZTv0_n12_N5CORBA17_objref_ContainerD0Ev @7308
    _ZTv0_n12_N5CORBA17_objref_ContainerD1Ev @7309
    _ZTv0_n12_N5CORBA17_objref_ModuleDef12_ptrToObjRefEPKc @7310
    _ZTv0_n12_N5CORBA17_objref_ModuleDefD0Ev @7311
    _ZTv0_n12_N5CORBA17_objref_ModuleDefD1Ev @7312
    _ZTv0_n12_N5CORBA17_objref_NativeDef12_ptrToObjRefEPKc @7313
    _ZTv0_n12_N5CORBA17_objref_NativeDefD0Ev @7314
    _ZTv0_n12_N5CORBA17_objref_NativeDefD1Ev @7315
    _ZTv0_n12_N5CORBA17_objref_StringDef12_ptrToObjRefEPKc @7316
    _ZTv0_n12_N5CORBA17_objref_StringDefD0Ev @7317
    _ZTv0_n12_N5CORBA17_objref_StringDefD1Ev @7318
    _ZTv0_n12_N5CORBA17_objref_StructDef12_ptrToObjRefEPKc @7319
    _ZTv0_n12_N5CORBA17_objref_StructDefD0Ev @7320
    _ZTv0_n12_N5CORBA17_objref_StructDefD1Ev @7321
    _ZTv0_n12_N5CORBA18_impl_AttributeDefD0Ev @7322
    _ZTv0_n12_N5CORBA18_impl_AttributeDefD1Ev @7323
    _ZTv0_n12_N5CORBA18_impl_ExceptionDefD0Ev @7324
    _ZTv0_n12_N5CORBA18_impl_ExceptionDefD1Ev @7325
    _ZTv0_n12_N5CORBA18_impl_InterfaceDefD0Ev @7326
    _ZTv0_n12_N5CORBA18_impl_InterfaceDefD1Ev @7327
    _ZTv0_n12_N5CORBA18_impl_OperationDefD0Ev @7328
    _ZTv0_n12_N5CORBA18_impl_OperationDefD1Ev @7329
    _ZTv0_n12_N5CORBA18_impl_PrimitiveDefD0Ev @7330
    _ZTv0_n12_N5CORBA18_impl_PrimitiveDefD1Ev @7331
    _ZTv0_n12_N5CORBA18_objref_Repository12_ptrToObjRefEPKc @7332
    _ZTv0_n12_N5CORBA18_objref_RepositoryD0Ev @7333
    _ZTv0_n12_N5CORBA18_objref_RepositoryD1Ev @7334
    _ZTv0_n12_N5CORBA18_objref_TypedefDef12_ptrToObjRefEPKc @7335
    _ZTv0_n12_N5CORBA18_objref_TypedefDefD0Ev @7336
    _ZTv0_n12_N5CORBA18_objref_TypedefDefD1Ev @7337
    _ZTv0_n12_N5CORBA18_objref_WstringDef12_ptrToObjRefEPKc @7338
    _ZTv0_n12_N5CORBA18_objref_WstringDefD0Ev @7339
    _ZTv0_n12_N5CORBA18_objref_WstringDefD1Ev @7340
    _ZTv0_n12_N5CORBA19_objref_ConstantDef12_ptrToObjRefEPKc @7341
    _ZTv0_n12_N5CORBA19_objref_ConstantDefD0Ev @7342
    _ZTv0_n12_N5CORBA19_objref_ConstantDefD1Ev @7343
    _ZTv0_n12_N5CORBA19_objref_SequenceDef12_ptrToObjRefEPKc @7344
    _ZTv0_n12_N5CORBA19_objref_SequenceDefD0Ev @7345
    _ZTv0_n12_N5CORBA19_objref_SequenceDefD1Ev @7346
    _ZTv0_n12_N5CORBA19_objref_ValueBoxDef12_ptrToObjRefEPKc @7347
    _ZTv0_n12_N5CORBA19_objref_ValueBoxDefD0Ev @7348
    _ZTv0_n12_N5CORBA19_objref_ValueBoxDefD1Ev @7349
    _ZTv0_n12_N5CORBA20_impl_ValueMemberDefD0Ev @7350
    _ZTv0_n12_N5CORBA20_impl_ValueMemberDefD1Ev @7351
    _ZTv0_n12_N5CORBA20_objref_AttributeDef12_ptrToObjRefEPKc @7352
    _ZTv0_n12_N5CORBA20_objref_AttributeDefD0Ev @7353
    _ZTv0_n12_N5CORBA20_objref_AttributeDefD1Ev @7354
    _ZTv0_n12_N5CORBA20_objref_ExceptionDef12_ptrToObjRefEPKc @7355
    _ZTv0_n12_N5CORBA20_objref_ExceptionDefD0Ev @7356
    _ZTv0_n12_N5CORBA20_objref_ExceptionDefD1Ev @7357
    _ZTv0_n12_N5CORBA20_objref_InterfaceDef12_ptrToObjRefEPKc @7358
    _ZTv0_n12_N5CORBA20_objref_InterfaceDefD0Ev @7359
    _ZTv0_n12_N5CORBA20_objref_InterfaceDefD1Ev @7360
    _ZTv0_n12_N5CORBA20_objref_OperationDef12_ptrToObjRefEPKc @7361
    _ZTv0_n12_N5CORBA20_objref_OperationDefD0Ev @7362
    _ZTv0_n12_N5CORBA20_objref_OperationDefD1Ev @7363
    _ZTv0_n12_N5CORBA20_objref_PrimitiveDef12_ptrToObjRefEPKc @7364
    _ZTv0_n12_N5CORBA20_objref_PrimitiveDefD0Ev @7365
    _ZTv0_n12_N5CORBA20_objref_PrimitiveDefD1Ev @7366
    _ZTv0_n12_N5CORBA22_objref_ValueMemberDef12_ptrToObjRefEPKc @7367
    _ZTv0_n12_N5CORBA22_objref_ValueMemberDefD0Ev @7368
    _ZTv0_n12_N5CORBA22_objref_ValueMemberDefD1Ev @7369
    _ZTv0_n12_N5CORBA24DefaultValueRefCountBase8_add_refEv @7370
    _ZTv0_n12_N5CORBA24_omni_AbstractBaseObjrefD0Ev @7371
    _ZTv0_n12_N5CORBA24_omni_AbstractBaseObjrefD1Ev @7372
    _ZTv0_n12_N5CORBA26_impl_AbstractInterfaceDefD0Ev @7373
    _ZTv0_n12_N5CORBA26_impl_AbstractInterfaceDefD1Ev @7374
    _ZTv0_n12_N5CORBA28_objref_AbstractInterfaceDef12_ptrToObjRefEPKc @7375
    _ZTv0_n12_N5CORBA28_objref_AbstractInterfaceDefD0Ev @7376
    _ZTv0_n12_N5CORBA28_objref_AbstractInterfaceDefD1Ev @7377
    _ZTv0_n12_N9POA_CORBA10RepositoryD0Ev @7378
    _ZTv0_n12_N9POA_CORBA10RepositoryD1Ev @7379
    _ZTv0_n12_N9POA_CORBA10TypedefDefD0Ev @7380
    _ZTv0_n12_N9POA_CORBA10TypedefDefD1Ev @7381
    _ZTv0_n12_N9POA_CORBA10WstringDefD0Ev @7382
    _ZTv0_n12_N9POA_CORBA10WstringDefD1Ev @7383
    _ZTv0_n12_N9POA_CORBA11ConstantDefD0Ev @7384
    _ZTv0_n12_N9POA_CORBA11ConstantDefD1Ev @7385
    _ZTv0_n12_N9POA_CORBA11SequenceDefD0Ev @7386
    _ZTv0_n12_N9POA_CORBA11SequenceDefD1Ev @7387
    _ZTv0_n12_N9POA_CORBA11ValueBoxDefD0Ev @7388
    _ZTv0_n12_N9POA_CORBA11ValueBoxDefD1Ev @7389
    _ZTv0_n12_N9POA_CORBA12AttributeDefD0Ev @7390
    _ZTv0_n12_N9POA_CORBA12AttributeDefD1Ev @7391
    _ZTv0_n12_N9POA_CORBA12ExceptionDefD0Ev @7392
    _ZTv0_n12_N9POA_CORBA12ExceptionDefD1Ev @7393
    _ZTv0_n12_N9POA_CORBA12InterfaceDefD0Ev @7394
    _ZTv0_n12_N9POA_CORBA12InterfaceDefD1Ev @7395
    _ZTv0_n12_N9POA_CORBA12OperationDefD0Ev @7396
    _ZTv0_n12_N9POA_CORBA12OperationDefD1Ev @7397
    _ZTv0_n12_N9POA_CORBA12PrimitiveDefD0Ev @7398
    _ZTv0_n12_N9POA_CORBA12PrimitiveDefD1Ev @7399
    _ZTv0_n12_N9POA_CORBA14ValueMemberDefD0Ev @7400
    _ZTv0_n12_N9POA_CORBA14ValueMemberDefD1Ev @7401
    _ZTv0_n12_N9POA_CORBA20AbstractInterfaceDefD0Ev @7402
    _ZTv0_n12_N9POA_CORBA20AbstractInterfaceDefD1Ev @7403
    _ZTv0_n12_N9POA_CORBA7EnumDefD0Ev @7404
    _ZTv0_n12_N9POA_CORBA7EnumDefD1Ev @7405
    _ZTv0_n12_N9POA_CORBA7IDLTypeD0Ev @7406
    _ZTv0_n12_N9POA_CORBA7IDLTypeD1Ev @7407
    _ZTv0_n12_N9POA_CORBA8AliasDefD0Ev @7408
    _ZTv0_n12_N9POA_CORBA8AliasDefD1Ev @7409
    _ZTv0_n12_N9POA_CORBA8ArrayDefD0Ev @7410
    _ZTv0_n12_N9POA_CORBA8ArrayDefD1Ev @7411
    _ZTv0_n12_N9POA_CORBA8FixedDefD0Ev @7412
    _ZTv0_n12_N9POA_CORBA8FixedDefD1Ev @7413
    _ZTv0_n12_N9POA_CORBA8IRObjectD0Ev @7414
    _ZTv0_n12_N9POA_CORBA8IRObjectD1Ev @7415
    _ZTv0_n12_N9POA_CORBA8UnionDefD0Ev @7416
    _ZTv0_n12_N9POA_CORBA8UnionDefD1Ev @7417
    _ZTv0_n12_N9POA_CORBA8ValueDefD0Ev @7418
    _ZTv0_n12_N9POA_CORBA8ValueDefD1Ev @7419
    _ZTv0_n12_N9POA_CORBA9ContainedD0Ev @7420
    _ZTv0_n12_N9POA_CORBA9ContainedD1Ev @7421
    _ZTv0_n12_N9POA_CORBA9ContainerD0Ev @7422
    _ZTv0_n12_N9POA_CORBA9ContainerD1Ev @7423
    _ZTv0_n12_N9POA_CORBA9ModuleDefD0Ev @7424
    _ZTv0_n12_N9POA_CORBA9ModuleDefD1Ev @7425
    _ZTv0_n12_N9POA_CORBA9NativeDefD0Ev @7426
    _ZTv0_n12_N9POA_CORBA9NativeDefD1Ev @7427
    _ZTv0_n12_N9POA_CORBA9StringDefD0Ev @7428
    _ZTv0_n12_N9POA_CORBA9StringDefD1Ev @7429
    _ZTv0_n12_N9POA_CORBA9StructDefD0Ev @7430
    _ZTv0_n12_N9POA_CORBA9StructDefD1Ev @7431
    _ZTv0_n132_N4omni10DynAnyImpl14insert_dyn_anyEPN10DynamicAny6DynAnyE @7432
    _ZTv0_n132_N4omni12DynUnionDisc14insert_dyn_anyEPN10DynamicAny6DynAnyE @7433
    _ZTv0_n132_N4omni12DynUnionImpl14insert_dyn_anyEPN10DynamicAny6DynAnyE @7434
    _ZTv0_n132_N4omni13omniNilDynAny14insert_dyn_anyEPN10DynamicAny6DynAnyE @7435
    _ZTv0_n132_N4omni16DynAnyConstrBase14insert_dyn_anyEPN10DynamicAny6DynAnyE @7436
    _ZTv0_n136_N4omni10DynAnyImpl10insert_valEPN5CORBA9ValueBaseE @7437
    _ZTv0_n136_N4omni12DynUnionDisc10insert_valEPN5CORBA9ValueBaseE @7438
    _ZTv0_n136_N4omni12DynUnionImpl10insert_valEPN5CORBA9ValueBaseE @7439
    _ZTv0_n136_N4omni13omniNilDynAny10insert_valEPN5CORBA9ValueBaseE @7440
    _ZTv0_n136_N4omni16DynAnyConstrBase10insert_valEPN5CORBA9ValueBaseE @7441
    _ZTv0_n140_N4omni10DynAnyImpl15insert_abstractEPN5CORBA12AbstractBaseE @7442
    _ZTv0_n140_N4omni12DynUnionDisc15insert_abstractEPN5CORBA12AbstractBaseE @7443
    _ZTv0_n140_N4omni12DynUnionImpl15insert_abstractEPN5CORBA12AbstractBaseE @7444
    _ZTv0_n140_N4omni13omniNilDynAny15insert_abstractEPN5CORBA12AbstractBaseE @7445
    _ZTv0_n140_N4omni16DynAnyConstrBase15insert_abstractEPN5CORBA12AbstractBaseE @7446
    _ZTv0_n144_N4omni10DynAnyImpl11get_booleanEv @7447
    _ZTv0_n144_N4omni12DynUnionImpl11get_booleanEv @7448
    _ZTv0_n144_N4omni13omniNilDynAny11get_booleanEv @7449
    _ZTv0_n144_N4omni16DynAnyConstrBase11get_booleanEv @7450
    _ZTv0_n148_N4omni10DynAnyImpl9get_octetEv @7451
    _ZTv0_n148_N4omni12DynUnionImpl9get_octetEv @7452
    _ZTv0_n148_N4omni13omniNilDynAny9get_octetEv @7453
    _ZTv0_n148_N4omni16DynAnyConstrBase9get_octetEv @7454
    _ZTv0_n152_N4omni10DynAnyImpl8get_charEv @7455
    _ZTv0_n152_N4omni12DynUnionImpl8get_charEv @7456
    _ZTv0_n152_N4omni13omniNilDynAny8get_charEv @7457
    _ZTv0_n152_N4omni16DynAnyConstrBase8get_charEv @7458
    _ZTv0_n156_N4omni10DynAnyImpl9get_shortEv @7459
    _ZTv0_n156_N4omni12DynUnionImpl9get_shortEv @7460
    _ZTv0_n156_N4omni13omniNilDynAny9get_shortEv @7461
    _ZTv0_n156_N4omni16DynAnyConstrBase9get_shortEv @7462
    _ZTv0_n160_N4omni10DynAnyImpl10get_ushortEv @7463
    _ZTv0_n160_N4omni12DynUnionImpl10get_ushortEv @7464
    _ZTv0_n160_N4omni13omniNilDynAny10get_ushortEv @7465
    _ZTv0_n160_N4omni16DynAnyConstrBase10get_ushortEv @7466
    _ZTv0_n164_N4omni10DynAnyImpl8get_longEv @7467
    _ZTv0_n164_N4omni12DynUnionImpl8get_longEv @7468
    _ZTv0_n164_N4omni13omniNilDynAny8get_longEv @7469
    _ZTv0_n164_N4omni16DynAnyConstrBase8get_longEv @7470
    _ZTv0_n168_N4omni10DynAnyImpl9get_ulongEv @7471
    _ZTv0_n168_N4omni12DynUnionImpl9get_ulongEv @7472
    _ZTv0_n168_N4omni13omniNilDynAny9get_ulongEv @7473
    _ZTv0_n168_N4omni16DynAnyConstrBase9get_ulongEv @7474
    _ZTv0_n16_N14PortableServer17ValueRefCountBase11_remove_refEv @7475
    _ZTv0_n16_N14PortableServer17ValueRefCountBaseD0Ev @7476
    _ZTv0_n16_N14PortableServer17ValueRefCountBaseD1Ev @7477
    _ZTv0_n16_N14PortableServer21DynamicImplementationD0Ev @7478
    _ZTv0_n16_N14PortableServer21DynamicImplementationD1Ev @7479
    _ZTv0_n16_N4omni12DynValueImpl7is_nullEv @7480
    _ZTv0_n16_N4omni15DynValueBoxImpl7is_nullEv @7481
    _ZTv0_n16_N4omni15omniNilDynValue7is_nullEv @7482
    _ZTv0_n16_N4omni18omniNilDynValueBox7is_nullEv @7483
    _ZTv0_n16_N5CORBA13_impl_EnumDef15_ptrToInterfaceEPKc @7484
    _ZTv0_n16_N5CORBA13_impl_EnumDefD0Ev @7485
    _ZTv0_n16_N5CORBA13_impl_EnumDefD1Ev @7486
    _ZTv0_n16_N5CORBA13_impl_IDLType15_ptrToInterfaceEPKc @7487
    _ZTv0_n16_N5CORBA13_impl_IDLTypeD0Ev @7488
    _ZTv0_n16_N5CORBA13_impl_IDLTypeD1Ev @7489
    _ZTv0_n16_N5CORBA14_impl_AliasDef15_ptrToInterfaceEPKc @7490
    _ZTv0_n16_N5CORBA14_impl_AliasDefD0Ev @7491
    _ZTv0_n16_N5CORBA14_impl_AliasDefD1Ev @7492
    _ZTv0_n16_N5CORBA14_impl_ArrayDef15_ptrToInterfaceEPKc @7493
    _ZTv0_n16_N5CORBA14_impl_ArrayDefD0Ev @7494
    _ZTv0_n16_N5CORBA14_impl_ArrayDefD1Ev @7495
    _ZTv0_n16_N5CORBA14_impl_FixedDef15_ptrToInterfaceEPKc @7496
    _ZTv0_n16_N5CORBA14_impl_FixedDefD0Ev @7497
    _ZTv0_n16_N5CORBA14_impl_FixedDefD1Ev @7498
    _ZTv0_n16_N5CORBA14_impl_IRObject15_ptrToInterfaceEPKc @7499
    _ZTv0_n16_N5CORBA14_impl_UnionDef15_ptrToInterfaceEPKc @7500
    _ZTv0_n16_N5CORBA14_impl_UnionDefD0Ev @7501
    _ZTv0_n16_N5CORBA14_impl_UnionDefD1Ev @7502
    _ZTv0_n16_N5CORBA14_impl_ValueDef15_ptrToInterfaceEPKc @7503
    _ZTv0_n16_N5CORBA14_impl_ValueDefD0Ev @7504
    _ZTv0_n16_N5CORBA14_impl_ValueDefD1Ev @7505
    _ZTv0_n16_N5CORBA15_impl_Contained15_ptrToInterfaceEPKc @7506
    _ZTv0_n16_N5CORBA15_impl_ContainedD0Ev @7507
    _ZTv0_n16_N5CORBA15_impl_ContainedD1Ev @7508
    _ZTv0_n16_N5CORBA15_impl_Container15_ptrToInterfaceEPKc @7509
    _ZTv0_n16_N5CORBA15_impl_ContainerD0Ev @7510
    _ZTv0_n16_N5CORBA15_impl_ContainerD1Ev @7511
    _ZTv0_n16_N5CORBA15_impl_ModuleDef15_ptrToInterfaceEPKc @7512
    _ZTv0_n16_N5CORBA15_impl_ModuleDefD0Ev @7513
    _ZTv0_n16_N5CORBA15_impl_ModuleDefD1Ev @7514
    _ZTv0_n16_N5CORBA15_impl_NativeDef15_ptrToInterfaceEPKc @7515
    _ZTv0_n16_N5CORBA15_impl_NativeDefD0Ev @7516
    _ZTv0_n16_N5CORBA15_impl_NativeDefD1Ev @7517
    _ZTv0_n16_N5CORBA15_impl_StringDef15_ptrToInterfaceEPKc @7518
    _ZTv0_n16_N5CORBA15_impl_StringDefD0Ev @7519
    _ZTv0_n16_N5CORBA15_impl_StringDefD1Ev @7520
    _ZTv0_n16_N5CORBA15_impl_StructDef15_ptrToInterfaceEPKc @7521
    _ZTv0_n16_N5CORBA15_impl_StructDefD0Ev @7522
    _ZTv0_n16_N5CORBA15_impl_StructDefD1Ev @7523
    _ZTv0_n16_N5CORBA16_impl_Repository15_ptrToInterfaceEPKc @7524
    _ZTv0_n16_N5CORBA16_impl_RepositoryD0Ev @7525
    _ZTv0_n16_N5CORBA16_impl_RepositoryD1Ev @7526
    _ZTv0_n16_N5CORBA16_impl_TypedefDef15_ptrToInterfaceEPKc @7527
    _ZTv0_n16_N5CORBA16_impl_TypedefDefD0Ev @7528
    _ZTv0_n16_N5CORBA16_impl_TypedefDefD1Ev @7529
    _ZTv0_n16_N5CORBA16_impl_WstringDef15_ptrToInterfaceEPKc @7530
    _ZTv0_n16_N5CORBA16_impl_WstringDefD0Ev @7531
    _ZTv0_n16_N5CORBA16_impl_WstringDefD1Ev @7532
    _ZTv0_n16_N5CORBA17_impl_ConstantDef15_ptrToInterfaceEPKc @7533
    _ZTv0_n16_N5CORBA17_impl_ConstantDefD0Ev @7534
    _ZTv0_n16_N5CORBA17_impl_ConstantDefD1Ev @7535
    _ZTv0_n16_N5CORBA17_impl_SequenceDef15_ptrToInterfaceEPKc @7536
    _ZTv0_n16_N5CORBA17_impl_SequenceDefD0Ev @7537
    _ZTv0_n16_N5CORBA17_impl_SequenceDefD1Ev @7538
    _ZTv0_n16_N5CORBA17_impl_ValueBoxDef15_ptrToInterfaceEPKc @7539
    _ZTv0_n16_N5CORBA17_impl_ValueBoxDefD0Ev @7540
    _ZTv0_n16_N5CORBA17_impl_ValueBoxDefD1Ev @7541
    _ZTv0_n16_N5CORBA18_impl_AttributeDef15_ptrToInterfaceEPKc @7542
    _ZTv0_n16_N5CORBA18_impl_AttributeDefD0Ev @7543
    _ZTv0_n16_N5CORBA18_impl_AttributeDefD1Ev @7544
    _ZTv0_n16_N5CORBA18_impl_ExceptionDef15_ptrToInterfaceEPKc @7545
    _ZTv0_n16_N5CORBA18_impl_ExceptionDefD0Ev @7546
    _ZTv0_n16_N5CORBA18_impl_ExceptionDefD1Ev @7547
    _ZTv0_n16_N5CORBA18_impl_InterfaceDef15_ptrToInterfaceEPKc @7548
    _ZTv0_n16_N5CORBA18_impl_InterfaceDefD0Ev @7549
    _ZTv0_n16_N5CORBA18_impl_InterfaceDefD1Ev @7550
    _ZTv0_n16_N5CORBA18_impl_OperationDef15_ptrToInterfaceEPKc @7551
    _ZTv0_n16_N5CORBA18_impl_OperationDefD0Ev @7552
    _ZTv0_n16_N5CORBA18_impl_OperationDefD1Ev @7553
    _ZTv0_n16_N5CORBA18_impl_PrimitiveDef15_ptrToInterfaceEPKc @7554
    _ZTv0_n16_N5CORBA18_impl_PrimitiveDefD0Ev @7555
    _ZTv0_n16_N5CORBA18_impl_PrimitiveDefD1Ev @7556
    _ZTv0_n16_N5CORBA20_impl_ValueMemberDef15_ptrToInterfaceEPKc @7557
    _ZTv0_n16_N5CORBA20_impl_ValueMemberDefD0Ev @7558
    _ZTv0_n16_N5CORBA20_impl_ValueMemberDefD1Ev @7559
    _ZTv0_n16_N5CORBA24DefaultValueRefCountBase11_remove_refEv @7560
    _ZTv0_n16_N5CORBA26_impl_AbstractInterfaceDef15_ptrToInterfaceEPKc @7561
    _ZTv0_n16_N5CORBA26_impl_AbstractInterfaceDefD0Ev @7562
    _ZTv0_n16_N5CORBA26_impl_AbstractInterfaceDefD1Ev @7563
    _ZTv0_n16_N9POA_CORBA10RepositoryD0Ev @7564
    _ZTv0_n16_N9POA_CORBA10RepositoryD1Ev @7565
    _ZTv0_n16_N9POA_CORBA10TypedefDefD0Ev @7566
    _ZTv0_n16_N9POA_CORBA10TypedefDefD1Ev @7567
    _ZTv0_n16_N9POA_CORBA10WstringDefD0Ev @7568
    _ZTv0_n16_N9POA_CORBA10WstringDefD1Ev @7569
    _ZTv0_n16_N9POA_CORBA11ConstantDefD0Ev @7570
    _ZTv0_n16_N9POA_CORBA11ConstantDefD1Ev @7571
    _ZTv0_n16_N9POA_CORBA11SequenceDefD0Ev @7572
    _ZTv0_n16_N9POA_CORBA11SequenceDefD1Ev @7573
    _ZTv0_n16_N9POA_CORBA11ValueBoxDefD0Ev @7574
    _ZTv0_n16_N9POA_CORBA11ValueBoxDefD1Ev @7575
    _ZTv0_n16_N9POA_CORBA12AttributeDefD0Ev @7576
    _ZTv0_n16_N9POA_CORBA12AttributeDefD1Ev @7577
    _ZTv0_n16_N9POA_CORBA12ExceptionDefD0Ev @7578
    _ZTv0_n16_N9POA_CORBA12ExceptionDefD1Ev @7579
    _ZTv0_n16_N9POA_CORBA12InterfaceDefD0Ev @7580
    _ZTv0_n16_N9POA_CORBA12InterfaceDefD1Ev @7581
    _ZTv0_n16_N9POA_CORBA12OperationDefD0Ev @7582
    _ZTv0_n16_N9POA_CORBA12OperationDefD1Ev @7583
    _ZTv0_n16_N9POA_CORBA12PrimitiveDefD0Ev @7584
    _ZTv0_n16_N9POA_CORBA12PrimitiveDefD1Ev @7585
    _ZTv0_n16_N9POA_CORBA14ValueMemberDefD0Ev @7586
    _ZTv0_n16_N9POA_CORBA14ValueMemberDefD1Ev @7587
    _ZTv0_n16_N9POA_CORBA20AbstractInterfaceDefD0Ev @7588
    _ZTv0_n16_N9POA_CORBA20AbstractInterfaceDefD1Ev @7589
    _ZTv0_n16_N9POA_CORBA7EnumDefD0Ev @7590
    _ZTv0_n16_N9POA_CORBA7EnumDefD1Ev @7591
    _ZTv0_n16_N9POA_CORBA7IDLTypeD0Ev @7592
    _ZTv0_n16_N9POA_CORBA7IDLTypeD1Ev @7593
    _ZTv0_n16_N9POA_CORBA8AliasDefD0Ev @7594
    _ZTv0_n16_N9POA_CORBA8AliasDefD1Ev @7595
    _ZTv0_n16_N9POA_CORBA8ArrayDefD0Ev @7596
    _ZTv0_n16_N9POA_CORBA8ArrayDefD1Ev @7597
    _ZTv0_n16_N9POA_CORBA8FixedDefD0Ev @7598
    _ZTv0_n16_N9POA_CORBA8FixedDefD1Ev @7599
    _ZTv0_n16_N9POA_CORBA8IRObjectD0Ev @7600
    _ZTv0_n16_N9POA_CORBA8IRObjectD1Ev @7601
    _ZTv0_n16_N9POA_CORBA8UnionDefD0Ev @7602
    _ZTv0_n16_N9POA_CORBA8UnionDefD1Ev @7603
    _ZTv0_n16_N9POA_CORBA8ValueDefD0Ev @7604
    _ZTv0_n16_N9POA_CORBA8ValueDefD1Ev @7605
    _ZTv0_n16_N9POA_CORBA9ContainedD0Ev @7606
    _ZTv0_n16_N9POA_CORBA9ContainedD1Ev @7607
    _ZTv0_n16_N9POA_CORBA9ContainerD0Ev @7608
    _ZTv0_n16_N9POA_CORBA9ContainerD1Ev @7609
    _ZTv0_n16_N9POA_CORBA9ModuleDefD0Ev @7610
    _ZTv0_n16_N9POA_CORBA9ModuleDefD1Ev @7611
    _ZTv0_n16_N9POA_CORBA9NativeDefD0Ev @7612
    _ZTv0_n16_N9POA_CORBA9NativeDefD1Ev @7613
    _ZTv0_n16_N9POA_CORBA9StringDefD0Ev @7614
    _ZTv0_n16_N9POA_CORBA9StringDefD1Ev @7615
    _ZTv0_n16_N9POA_CORBA9StructDefD0Ev @7616
    _ZTv0_n16_N9POA_CORBA9StructDefD1Ev @7617
    _ZTv0_n16_NK5CORBA24_omni_AbstractBaseObjref10_NP_is_nilEv @7618
    _ZTv0_n172_N4omni10DynAnyImpl9get_floatEv @7619
    _ZTv0_n172_N4omni12DynUnionImpl9get_floatEv @7620
    _ZTv0_n172_N4omni13omniNilDynAny9get_floatEv @7621
    _ZTv0_n172_N4omni16DynAnyConstrBase9get_floatEv @7622
    _ZTv0_n176_N4omni10DynAnyImpl10get_doubleEv @7623
    _ZTv0_n176_N4omni12DynUnionImpl10get_doubleEv @7624
    _ZTv0_n176_N4omni13omniNilDynAny10get_doubleEv @7625
    _ZTv0_n176_N4omni16DynAnyConstrBase10get_doubleEv @7626
    _ZTv0_n180_N4omni10DynAnyImpl10get_stringEv @7627
    _ZTv0_n180_N4omni12DynUnionImpl10get_stringEv @7628
    _ZTv0_n180_N4omni13omniNilDynAny10get_stringEv @7629
    _ZTv0_n180_N4omni16DynAnyConstrBase10get_stringEv @7630
    _ZTv0_n184_N4omni10DynAnyImpl13get_referenceEv @7631
    _ZTv0_n184_N4omni12DynUnionImpl13get_referenceEv @7632
    _ZTv0_n184_N4omni13omniNilDynAny13get_referenceEv @7633
    _ZTv0_n184_N4omni16DynAnyConstrBase13get_referenceEv @7634
    _ZTv0_n188_N4omni10DynAnyImpl12get_typecodeEv @7635
    _ZTv0_n188_N4omni12DynUnionImpl12get_typecodeEv @7636
    _ZTv0_n188_N4omni13omniNilDynAny12get_typecodeEv @7637
    _ZTv0_n188_N4omni16DynAnyConstrBase12get_typecodeEv @7638
    _ZTv0_n192_N4omni10DynAnyImpl12get_longlongEv @7639
    _ZTv0_n192_N4omni12DynUnionImpl12get_longlongEv @7640
    _ZTv0_n192_N4omni13omniNilDynAny12get_longlongEv @7641
    _ZTv0_n192_N4omni16DynAnyConstrBase12get_longlongEv @7642
    _ZTv0_n196_N4omni10DynAnyImpl13get_ulonglongEv @7643
    _ZTv0_n196_N4omni12DynUnionImpl13get_ulonglongEv @7644
    _ZTv0_n196_N4omni13omniNilDynAny13get_ulonglongEv @7645
    _ZTv0_n196_N4omni16DynAnyConstrBase13get_ulonglongEv @7646
    _ZTv0_n200_N4omni10DynAnyImpl14get_longdoubleEv @7647
    _ZTv0_n200_N4omni12DynUnionImpl14get_longdoubleEv @7648
    _ZTv0_n200_N4omni13omniNilDynAny14get_longdoubleEv @7649
    _ZTv0_n200_N4omni16DynAnyConstrBase14get_longdoubleEv @7650
    _ZTv0_n204_N4omni10DynAnyImpl9get_wcharEv @7651
    _ZTv0_n204_N4omni12DynUnionImpl9get_wcharEv @7652
    _ZTv0_n204_N4omni13omniNilDynAny9get_wcharEv @7653
    _ZTv0_n204_N4omni16DynAnyConstrBase9get_wcharEv @7654
    _ZTv0_n208_N4omni10DynAnyImpl11get_wstringEv @7655
    _ZTv0_n208_N4omni12DynUnionImpl11get_wstringEv @7656
    _ZTv0_n208_N4omni13omniNilDynAny11get_wstringEv @7657
    _ZTv0_n208_N4omni16DynAnyConstrBase11get_wstringEv @7658
    _ZTv0_n20_N4omni11DynEnumImpl16_NP_incrRefCountEv @7659
    _ZTv0_n20_N4omni12DynArrayImpl16_NP_incrRefCountEv @7660
    _ZTv0_n20_N4omni12DynFixedImpl16_NP_incrRefCountEv @7661
    _ZTv0_n20_N4omni12DynUnionImpl16_NP_incrRefCountEv @7662
    _ZTv0_n20_N4omni12DynValueImpl11set_to_nullEv @7663
    _ZTv0_n20_N4omni12DynValueImpl16_NP_incrRefCountEv @7664
    _ZTv0_n20_N4omni12UnknownValue11_copy_valueEv @7665
    _ZTv0_n20_N4omni13DynStructImpl16_NP_incrRefCountEv @7666
    _ZTv0_n20_N4omni13omniNilDynAny16_NP_incrRefCountEv @7667
    _ZTv0_n20_N4omni14DynAnyImplBase16_NP_incrRefCountEv @7668
    _ZTv0_n20_N4omni15DynSequenceImpl16_NP_incrRefCountEv @7669
    _ZTv0_n20_N4omni15DynValueBoxImpl11set_to_nullEv @7670
    _ZTv0_n20_N4omni15DynValueBoxImpl16_NP_incrRefCountEv @7671
    _ZTv0_n20_N4omni15omniNilDynValue11set_to_nullEv @7672
    _ZTv0_n20_N4omni16DynUnionEnumDisc16_NP_incrRefCountEv @7673
    _ZTv0_n20_N4omni18omniNilDynValueBox11set_to_nullEv @7674
    _ZTv0_n20_N5CORBA11StringValue11_copy_valueEv @7675
    _ZTv0_n20_N5CORBA12WStringValue11_copy_valueEv @7676
    _ZTv0_n20_N5CORBA15_objref_EnumDefD0Ev @7677
    _ZTv0_n20_N5CORBA15_objref_EnumDefD1Ev @7678
    _ZTv0_n20_N5CORBA15_objref_IDLTypeD0Ev @7679
    _ZTv0_n20_N5CORBA15_objref_IDLTypeD1Ev @7680
    _ZTv0_n20_N5CORBA16_objref_AliasDefD0Ev @7681
    _ZTv0_n20_N5CORBA16_objref_AliasDefD1Ev @7682
    _ZTv0_n20_N5CORBA16_objref_ArrayDefD0Ev @7683
    _ZTv0_n20_N5CORBA16_objref_ArrayDefD1Ev @7684
    _ZTv0_n20_N5CORBA16_objref_FixedDefD0Ev @7685
    _ZTv0_n20_N5CORBA16_objref_FixedDefD1Ev @7686
    _ZTv0_n20_N5CORBA16_objref_UnionDefD0Ev @7687
    _ZTv0_n20_N5CORBA16_objref_UnionDefD1Ev @7688
    _ZTv0_n20_N5CORBA16_objref_ValueDefD0Ev @7689
    _ZTv0_n20_N5CORBA16_objref_ValueDefD1Ev @7690
    _ZTv0_n20_N5CORBA17_objref_ContainedD0Ev @7691
    _ZTv0_n20_N5CORBA17_objref_ContainedD1Ev @7692
    _ZTv0_n20_N5CORBA17_objref_ContainerD0Ev @7693
    _ZTv0_n20_N5CORBA17_objref_ContainerD1Ev @7694
    _ZTv0_n20_N5CORBA17_objref_ModuleDefD0Ev @7695
    _ZTv0_n20_N5CORBA17_objref_ModuleDefD1Ev @7696
    _ZTv0_n20_N5CORBA17_objref_NativeDefD0Ev @7697
    _ZTv0_n20_N5CORBA17_objref_NativeDefD1Ev @7698
    _ZTv0_n20_N5CORBA17_objref_StringDefD0Ev @7699
    _ZTv0_n20_N5CORBA17_objref_StringDefD1Ev @7700
    _ZTv0_n20_N5CORBA17_objref_StructDefD0Ev @7701
    _ZTv0_n20_N5CORBA17_objref_StructDefD1Ev @7702
    _ZTv0_n20_N5CORBA18_objref_RepositoryD0Ev @7703
    _ZTv0_n20_N5CORBA18_objref_RepositoryD1Ev @7704
    _ZTv0_n20_N5CORBA18_objref_TypedefDefD0Ev @7705
    _ZTv0_n20_N5CORBA18_objref_TypedefDefD1Ev @7706
    _ZTv0_n20_N5CORBA18_objref_WstringDefD0Ev @7707
    _ZTv0_n20_N5CORBA18_objref_WstringDefD1Ev @7708
    _ZTv0_n20_N5CORBA19_objref_ConstantDefD0Ev @7709
    _ZTv0_n20_N5CORBA19_objref_ConstantDefD1Ev @7710
    _ZTv0_n20_N5CORBA19_objref_SequenceDefD0Ev @7711
    _ZTv0_n20_N5CORBA19_objref_SequenceDefD1Ev @7712
    _ZTv0_n20_N5CORBA19_objref_ValueBoxDefD0Ev @7713
    _ZTv0_n20_N5CORBA19_objref_ValueBoxDefD1Ev @7714
    _ZTv0_n20_N5CORBA20_objref_AttributeDefD0Ev @7715
    _ZTv0_n20_N5CORBA20_objref_AttributeDefD1Ev @7716
    _ZTv0_n20_N5CORBA20_objref_ExceptionDefD0Ev @7717
    _ZTv0_n20_N5CORBA20_objref_ExceptionDefD1Ev @7718
    _ZTv0_n20_N5CORBA20_objref_InterfaceDefD0Ev @7719
    _ZTv0_n20_N5CORBA20_objref_InterfaceDefD1Ev @7720
    _ZTv0_n20_N5CORBA20_objref_OperationDefD0Ev @7721
    _ZTv0_n20_N5CORBA20_objref_OperationDefD1Ev @7722
    _ZTv0_n20_N5CORBA20_objref_PrimitiveDefD0Ev @7723
    _ZTv0_n20_N5CORBA20_objref_PrimitiveDefD1Ev @7724
    _ZTv0_n20_N5CORBA22_objref_ValueMemberDefD0Ev @7725
    _ZTv0_n20_N5CORBA22_objref_ValueMemberDefD1Ev @7726
    _ZTv0_n20_N5CORBA24_omni_AbstractBaseObjref13_NP_to_objectEv @7727
    _ZTv0_n20_N5CORBA28_objref_AbstractInterfaceDefD0Ev @7728
    _ZTv0_n20_N5CORBA28_objref_AbstractInterfaceDefD1Ev @7729
    _ZTv0_n212_N4omni10DynAnyImpl7get_anyEv @7730
    _ZTv0_n212_N4omni12DynUnionImpl7get_anyEv @7731
    _ZTv0_n212_N4omni13omniNilDynAny7get_anyEv @7732
    _ZTv0_n212_N4omni16DynAnyConstrBase7get_anyEv @7733
    _ZTv0_n216_N4omni10DynAnyImpl11get_dyn_anyEv @7734
    _ZTv0_n216_N4omni12DynUnionImpl11get_dyn_anyEv @7735
    _ZTv0_n216_N4omni13omniNilDynAny11get_dyn_anyEv @7736
    _ZTv0_n216_N4omni16DynAnyConstrBase11get_dyn_anyEv @7737
    _ZTv0_n220_N4omni10DynAnyImpl7get_valEv @7738
    _ZTv0_n220_N4omni12DynUnionImpl7get_valEv @7739
    _ZTv0_n220_N4omni13omniNilDynAny7get_valEv @7740
    _ZTv0_n220_N4omni16DynAnyConstrBase7get_valEv @7741
    _ZTv0_n224_N4omni10DynAnyImpl12get_abstractEv @7742
    _ZTv0_n224_N4omni12DynUnionImpl12get_abstractEv @7743
    _ZTv0_n224_N4omni13omniNilDynAny12get_abstractEv @7744
    _ZTv0_n224_N4omni16DynAnyConstrBase12get_abstractEv @7745
    _ZTv0_n228_N4omni10DynAnyImpl18insert_boolean_seqERN5CORBA10BooleanSeqE @7746
    _ZTv0_n228_N4omni12DynUnionImpl18insert_boolean_seqERN5CORBA10BooleanSeqE @7747
    _ZTv0_n228_N4omni13omniNilDynAny18insert_boolean_seqERN5CORBA10BooleanSeqE @7748
    _ZTv0_n228_N4omni16DynAnyConstrBase18insert_boolean_seqERN5CORBA10BooleanSeqE @7749
    _ZTv0_n232_N4omni10DynAnyImpl16insert_octet_seqERN5CORBA8OctetSeqE @7750
    _ZTv0_n232_N4omni12DynUnionImpl16insert_octet_seqERN5CORBA8OctetSeqE @7751
    _ZTv0_n232_N4omni13omniNilDynAny16insert_octet_seqERN5CORBA8OctetSeqE @7752
    _ZTv0_n232_N4omni16DynAnyConstrBase16insert_octet_seqERN5CORBA8OctetSeqE @7753
    _ZTv0_n236_N4omni10DynAnyImpl15insert_char_seqERN5CORBA7CharSeqE @7754
    _ZTv0_n236_N4omni12DynUnionImpl15insert_char_seqERN5CORBA7CharSeqE @7755
    _ZTv0_n236_N4omni13omniNilDynAny15insert_char_seqERN5CORBA7CharSeqE @7756
    _ZTv0_n236_N4omni16DynAnyConstrBase15insert_char_seqERN5CORBA7CharSeqE @7757
    _ZTv0_n240_N4omni10DynAnyImpl16insert_short_seqERN5CORBA8ShortSeqE @7758
    _ZTv0_n240_N4omni12DynUnionImpl16insert_short_seqERN5CORBA8ShortSeqE @7759
    _ZTv0_n240_N4omni13omniNilDynAny16insert_short_seqERN5CORBA8ShortSeqE @7760
    _ZTv0_n240_N4omni16DynAnyConstrBase16insert_short_seqERN5CORBA8ShortSeqE @7761
    _ZTv0_n244_N4omni10DynAnyImpl17insert_ushort_seqERN5CORBA9UShortSeqE @7762
    _ZTv0_n244_N4omni12DynUnionImpl17insert_ushort_seqERN5CORBA9UShortSeqE @7763
    _ZTv0_n244_N4omni13omniNilDynAny17insert_ushort_seqERN5CORBA9UShortSeqE @7764
    _ZTv0_n244_N4omni16DynAnyConstrBase17insert_ushort_seqERN5CORBA9UShortSeqE @7765
    _ZTv0_n248_N4omni10DynAnyImpl15insert_long_seqERN5CORBA7LongSeqE @7766
    _ZTv0_n248_N4omni12DynUnionImpl15insert_long_seqERN5CORBA7LongSeqE @7767
    _ZTv0_n248_N4omni13omniNilDynAny15insert_long_seqERN5CORBA7LongSeqE @7768
    _ZTv0_n248_N4omni16DynAnyConstrBase15insert_long_seqERN5CORBA7LongSeqE @7769
    _ZTv0_n24_N14PortableServer17ValueRefCountBase15_refcount_valueEv @7770
    _ZTv0_n24_N4omni11DynEnumImpl16_NP_decrRefCountEv @7771
    _ZTv0_n24_N4omni12DynArrayImpl16_NP_decrRefCountEv @7772
    _ZTv0_n24_N4omni12DynFixedImpl16_NP_decrRefCountEv @7773
    _ZTv0_n24_N4omni12DynUnionImpl16_NP_decrRefCountEv @7774
    _ZTv0_n24_N4omni12DynValueImpl12set_to_valueEv @7775
    _ZTv0_n24_N4omni12DynValueImpl16_NP_decrRefCountEv @7776
    _ZTv0_n24_N4omni13DynStructImpl16_NP_decrRefCountEv @7777
    _ZTv0_n24_N4omni13omniNilDynAny16_NP_decrRefCountEv @7778
    _ZTv0_n24_N4omni14DynAnyImplBase16_NP_decrRefCountEv @7779
    _ZTv0_n24_N4omni15DynSequenceImpl16_NP_decrRefCountEv @7780
    _ZTv0_n24_N4omni15DynValueBoxImpl12set_to_valueEv @7781
    _ZTv0_n24_N4omni15DynValueBoxImpl16_NP_decrRefCountEv @7782
    _ZTv0_n24_N4omni15omniNilDynValue12set_to_valueEv @7783
    _ZTv0_n24_N4omni16DynUnionEnumDisc16_NP_decrRefCountEv @7784
    _ZTv0_n24_N4omni18omniNilDynValueBox12set_to_valueEv @7785
    _ZTv0_n24_N5CORBA13_impl_EnumDef18_mostDerivedRepoIdEv @7786
    _ZTv0_n24_N5CORBA13_impl_IDLType18_mostDerivedRepoIdEv @7787
    _ZTv0_n24_N5CORBA14_impl_AliasDef18_mostDerivedRepoIdEv @7788
    _ZTv0_n24_N5CORBA14_impl_ArrayDef18_mostDerivedRepoIdEv @7789
    _ZTv0_n24_N5CORBA14_impl_FixedDef18_mostDerivedRepoIdEv @7790
    _ZTv0_n24_N5CORBA14_impl_IRObject18_mostDerivedRepoIdEv @7791
    _ZTv0_n24_N5CORBA14_impl_UnionDef18_mostDerivedRepoIdEv @7792
    _ZTv0_n24_N5CORBA14_impl_ValueDef18_mostDerivedRepoIdEv @7793
    _ZTv0_n24_N5CORBA15_impl_Contained18_mostDerivedRepoIdEv @7794
    _ZTv0_n24_N5CORBA15_impl_Container18_mostDerivedRepoIdEv @7795
    _ZTv0_n24_N5CORBA15_impl_ModuleDef18_mostDerivedRepoIdEv @7796
    _ZTv0_n24_N5CORBA15_impl_NativeDef18_mostDerivedRepoIdEv @7797
    _ZTv0_n24_N5CORBA15_impl_StringDef18_mostDerivedRepoIdEv @7798
    _ZTv0_n24_N5CORBA15_impl_StructDef18_mostDerivedRepoIdEv @7799
    _ZTv0_n24_N5CORBA15_objref_EnumDef12_ptrToObjRefEPKc @7800
    _ZTv0_n24_N5CORBA15_objref_EnumDefD0Ev @7801
    _ZTv0_n24_N5CORBA15_objref_EnumDefD1Ev @7802
    _ZTv0_n24_N5CORBA15_objref_IDLType12_ptrToObjRefEPKc @7803
    _ZTv0_n24_N5CORBA15_objref_IDLTypeD0Ev @7804
    _ZTv0_n24_N5CORBA15_objref_IDLTypeD1Ev @7805
    _ZTv0_n24_N5CORBA16_impl_Repository18_mostDerivedRepoIdEv @7806
    _ZTv0_n24_N5CORBA16_impl_TypedefDef18_mostDerivedRepoIdEv @7807
    _ZTv0_n24_N5CORBA16_impl_WstringDef18_mostDerivedRepoIdEv @7808
    _ZTv0_n24_N5CORBA16_objref_AliasDef12_ptrToObjRefEPKc @7809
    _ZTv0_n24_N5CORBA16_objref_AliasDefD0Ev @7810
    _ZTv0_n24_N5CORBA16_objref_AliasDefD1Ev @7811
    _ZTv0_n24_N5CORBA16_objref_ArrayDef12_ptrToObjRefEPKc @7812
    _ZTv0_n24_N5CORBA16_objref_ArrayDefD0Ev @7813
    _ZTv0_n24_N5CORBA16_objref_ArrayDefD1Ev @7814
    _ZTv0_n24_N5CORBA16_objref_FixedDef12_ptrToObjRefEPKc @7815
    _ZTv0_n24_N5CORBA16_objref_FixedDefD0Ev @7816
    _ZTv0_n24_N5CORBA16_objref_FixedDefD1Ev @7817
    _ZTv0_n24_N5CORBA16_objref_IRObjectD0Ev @7818
    _ZTv0_n24_N5CORBA16_objref_IRObjectD1Ev @7819
    _ZTv0_n24_N5CORBA16_objref_UnionDef12_ptrToObjRefEPKc @7820
    _ZTv0_n24_N5CORBA16_objref_UnionDefD0Ev @7821
    _ZTv0_n24_N5CORBA16_objref_UnionDefD1Ev @7822
    _ZTv0_n24_N5CORBA16_objref_ValueDef12_ptrToObjRefEPKc @7823
    _ZTv0_n24_N5CORBA16_objref_ValueDefD0Ev @7824
    _ZTv0_n24_N5CORBA16_objref_ValueDefD1Ev @7825
    _ZTv0_n24_N5CORBA17_impl_ConstantDef18_mostDerivedRepoIdEv @7826
    _ZTv0_n24_N5CORBA17_impl_SequenceDef18_mostDerivedRepoIdEv @7827
    _ZTv0_n24_N5CORBA17_impl_ValueBoxDef18_mostDerivedRepoIdEv @7828
    _ZTv0_n24_N5CORBA17_objref_Contained12_ptrToObjRefEPKc @7829
    _ZTv0_n24_N5CORBA17_objref_ContainedD0Ev @7830
    _ZTv0_n24_N5CORBA17_objref_ContainedD1Ev @7831
    _ZTv0_n24_N5CORBA17_objref_Container12_ptrToObjRefEPKc @7832
    _ZTv0_n24_N5CORBA17_objref_ContainerD0Ev @7833
    _ZTv0_n24_N5CORBA17_objref_ContainerD1Ev @7834
    _ZTv0_n24_N5CORBA17_objref_ModuleDef12_ptrToObjRefEPKc @7835
    _ZTv0_n24_N5CORBA17_objref_ModuleDefD0Ev @7836
    _ZTv0_n24_N5CORBA17_objref_ModuleDefD1Ev @7837
    _ZTv0_n24_N5CORBA17_objref_NativeDef12_ptrToObjRefEPKc @7838
    _ZTv0_n24_N5CORBA17_objref_NativeDefD0Ev @7839
    _ZTv0_n24_N5CORBA17_objref_NativeDefD1Ev @7840
    _ZTv0_n24_N5CORBA17_objref_StringDef12_ptrToObjRefEPKc @7841
    _ZTv0_n24_N5CORBA17_objref_StringDefD0Ev @7842
    _ZTv0_n24_N5CORBA17_objref_StringDefD1Ev @7843
    _ZTv0_n24_N5CORBA17_objref_StructDef12_ptrToObjRefEPKc @7844
    _ZTv0_n24_N5CORBA17_objref_StructDefD0Ev @7845
    _ZTv0_n24_N5CORBA17_objref_StructDefD1Ev @7846
    _ZTv0_n24_N5CORBA18_impl_AttributeDef18_mostDerivedRepoIdEv @7847
    _ZTv0_n24_N5CORBA18_impl_ExceptionDef18_mostDerivedRepoIdEv @7848
    _ZTv0_n24_N5CORBA18_impl_InterfaceDef18_mostDerivedRepoIdEv @7849
    _ZTv0_n24_N5CORBA18_impl_OperationDef18_mostDerivedRepoIdEv @7850
    _ZTv0_n24_N5CORBA18_impl_PrimitiveDef18_mostDerivedRepoIdEv @7851
    _ZTv0_n24_N5CORBA18_objref_Repository12_ptrToObjRefEPKc @7852
    _ZTv0_n24_N5CORBA18_objref_RepositoryD0Ev @7853
    _ZTv0_n24_N5CORBA18_objref_RepositoryD1Ev @7854
    _ZTv0_n24_N5CORBA18_objref_TypedefDef12_ptrToObjRefEPKc @7855
    _ZTv0_n24_N5CORBA18_objref_TypedefDefD0Ev @7856
    _ZTv0_n24_N5CORBA18_objref_TypedefDefD1Ev @7857
    _ZTv0_n24_N5CORBA18_objref_WstringDef12_ptrToObjRefEPKc @7858
    _ZTv0_n24_N5CORBA18_objref_WstringDefD0Ev @7859
    _ZTv0_n24_N5CORBA18_objref_WstringDefD1Ev @7860
    _ZTv0_n24_N5CORBA19_objref_ConstantDef12_ptrToObjRefEPKc @7861
    _ZTv0_n24_N5CORBA19_objref_ConstantDefD0Ev @7862
    _ZTv0_n24_N5CORBA19_objref_ConstantDefD1Ev @7863
    _ZTv0_n24_N5CORBA19_objref_SequenceDef12_ptrToObjRefEPKc @7864
    _ZTv0_n24_N5CORBA19_objref_SequenceDefD0Ev @7865
    _ZTv0_n24_N5CORBA19_objref_SequenceDefD1Ev @7866
    _ZTv0_n24_N5CORBA19_objref_ValueBoxDef12_ptrToObjRefEPKc @7867
    _ZTv0_n24_N5CORBA19_objref_ValueBoxDefD0Ev @7868
    _ZTv0_n24_N5CORBA19_objref_ValueBoxDefD1Ev @7869
    _ZTv0_n24_N5CORBA20_impl_ValueMemberDef18_mostDerivedRepoIdEv @7870
    _ZTv0_n24_N5CORBA20_objref_AttributeDef12_ptrToObjRefEPKc @7871
    _ZTv0_n24_N5CORBA20_objref_AttributeDefD0Ev @7872
    _ZTv0_n24_N5CORBA20_objref_AttributeDefD1Ev @7873
    _ZTv0_n24_N5CORBA20_objref_ExceptionDef12_ptrToObjRefEPKc @7874
    _ZTv0_n24_N5CORBA20_objref_ExceptionDefD0Ev @7875
    _ZTv0_n24_N5CORBA20_objref_ExceptionDefD1Ev @7876
    _ZTv0_n24_N5CORBA20_objref_InterfaceDef12_ptrToObjRefEPKc @7877
    _ZTv0_n24_N5CORBA20_objref_InterfaceDefD0Ev @7878
    _ZTv0_n24_N5CORBA20_objref_InterfaceDefD1Ev @7879
    _ZTv0_n24_N5CORBA20_objref_OperationDef12_ptrToObjRefEPKc @7880
    _ZTv0_n24_N5CORBA20_objref_OperationDefD0Ev @7881
    _ZTv0_n24_N5CORBA20_objref_OperationDefD1Ev @7882
    _ZTv0_n24_N5CORBA20_objref_PrimitiveDef12_ptrToObjRefEPKc @7883
    _ZTv0_n24_N5CORBA20_objref_PrimitiveDefD0Ev @7884
    _ZTv0_n24_N5CORBA20_objref_PrimitiveDefD1Ev @7885
    _ZTv0_n24_N5CORBA22_objref_ValueMemberDef12_ptrToObjRefEPKc @7886
    _ZTv0_n24_N5CORBA22_objref_ValueMemberDefD0Ev @7887
    _ZTv0_n24_N5CORBA22_objref_ValueMemberDefD1Ev @7888
    _ZTv0_n24_N5CORBA24DefaultValueRefCountBase15_refcount_valueEv @7889
    _ZTv0_n24_N5CORBA26_impl_AbstractInterfaceDef18_mostDerivedRepoIdEv @7890
    _ZTv0_n24_N5CORBA28_objref_AbstractInterfaceDef12_ptrToObjRefEPKc @7891
    _ZTv0_n24_N5CORBA28_objref_AbstractInterfaceDefD0Ev @7892
    _ZTv0_n24_N5CORBA28_objref_AbstractInterfaceDefD1Ev @7893
    _ZTv0_n252_N4omni10DynAnyImpl16insert_ulong_seqERN5CORBA8ULongSeqE @7894
    _ZTv0_n252_N4omni12DynUnionImpl16insert_ulong_seqERN5CORBA8ULongSeqE @7895
    _ZTv0_n252_N4omni13omniNilDynAny16insert_ulong_seqERN5CORBA8ULongSeqE @7896
    _ZTv0_n252_N4omni16DynAnyConstrBase16insert_ulong_seqERN5CORBA8ULongSeqE @7897
    _ZTv0_n256_N4omni10DynAnyImpl16insert_float_seqERN5CORBA8FloatSeqE @7898
    _ZTv0_n256_N4omni12DynUnionImpl16insert_float_seqERN5CORBA8FloatSeqE @7899
    _ZTv0_n256_N4omni13omniNilDynAny16insert_float_seqERN5CORBA8FloatSeqE @7900
    _ZTv0_n256_N4omni16DynAnyConstrBase16insert_float_seqERN5CORBA8FloatSeqE @7901
    _ZTv0_n260_N4omni10DynAnyImpl17insert_double_seqERN5CORBA9DoubleSeqE @7902
    _ZTv0_n260_N4omni12DynUnionImpl17insert_double_seqERN5CORBA9DoubleSeqE @7903
    _ZTv0_n260_N4omni13omniNilDynAny17insert_double_seqERN5CORBA9DoubleSeqE @7904
    _ZTv0_n260_N4omni16DynAnyConstrBase17insert_double_seqERN5CORBA9DoubleSeqE @7905
    _ZTv0_n264_N4omni10DynAnyImpl19insert_longlong_seqERN5CORBA11LongLongSeqE @7906
    _ZTv0_n264_N4omni12DynUnionImpl19insert_longlong_seqERN5CORBA11LongLongSeqE @7907
    _ZTv0_n264_N4omni13omniNilDynAny19insert_longlong_seqERN5CORBA11LongLongSeqE @7908
    _ZTv0_n264_N4omni16DynAnyConstrBase19insert_longlong_seqERN5CORBA11LongLongSeqE @7909
    _ZTv0_n268_N4omni10DynAnyImpl20insert_ulonglong_seqERN5CORBA12ULongLongSeqE @7910
    _ZTv0_n268_N4omni12DynUnionImpl20insert_ulonglong_seqERN5CORBA12ULongLongSeqE @7911
    _ZTv0_n268_N4omni13omniNilDynAny20insert_ulonglong_seqERN5CORBA12ULongLongSeqE @7912
    _ZTv0_n268_N4omni16DynAnyConstrBase20insert_ulonglong_seqERN5CORBA12ULongLongSeqE @7913
    _ZTv0_n272_N4omni10DynAnyImpl21insert_longdouble_seqERN5CORBA13LongDoubleSeqE @7914
    _ZTv0_n272_N4omni12DynUnionImpl21insert_longdouble_seqERN5CORBA13LongDoubleSeqE @7915
    _ZTv0_n272_N4omni13omniNilDynAny21insert_longdouble_seqERN5CORBA13LongDoubleSeqE @7916
    _ZTv0_n272_N4omni16DynAnyConstrBase21insert_longdouble_seqERN5CORBA13LongDoubleSeqE @7917
    _ZTv0_n276_N4omni10DynAnyImpl16insert_wchar_seqERN5CORBA8WCharSeqE @7918
    _ZTv0_n276_N4omni12DynUnionImpl16insert_wchar_seqERN5CORBA8WCharSeqE @7919
    _ZTv0_n276_N4omni13omniNilDynAny16insert_wchar_seqERN5CORBA8WCharSeqE @7920
    _ZTv0_n276_N4omni16DynAnyConstrBase16insert_wchar_seqERN5CORBA8WCharSeqE @7921
    _ZTv0_n280_N4omni10DynAnyImpl15get_boolean_seqEv @7922
    _ZTv0_n280_N4omni12DynUnionImpl15get_boolean_seqEv @7923
    _ZTv0_n280_N4omni13omniNilDynAny15get_boolean_seqEv @7924
    _ZTv0_n280_N4omni16DynAnyConstrBase15get_boolean_seqEv @7925
    _ZTv0_n284_N4omni10DynAnyImpl13get_octet_seqEv @7926
    _ZTv0_n284_N4omni12DynUnionImpl13get_octet_seqEv @7927
    _ZTv0_n284_N4omni13omniNilDynAny13get_octet_seqEv @7928
    _ZTv0_n284_N4omni16DynAnyConstrBase13get_octet_seqEv @7929
    _ZTv0_n288_N4omni10DynAnyImpl12get_char_seqEv @7930
    _ZTv0_n288_N4omni12DynUnionImpl12get_char_seqEv @7931
    _ZTv0_n288_N4omni13omniNilDynAny12get_char_seqEv @7932
    _ZTv0_n288_N4omni16DynAnyConstrBase12get_char_seqEv @7933
    _ZTv0_n28_N10DynamicAny11DynValueBoxD0Ev @7934
    _ZTv0_n28_N10DynamicAny11DynValueBoxD1Ev @7935
    _ZTv0_n28_N10DynamicAny8DynValueD0Ev @7936
    _ZTv0_n28_N10DynamicAny8DynValueD1Ev @7937
    _ZTv0_n28_N14PortableServer17ValueRefCountBase8_add_refEv @7938
    _ZTv0_n28_N14PortableServer21DynamicImplementation5_is_aEPKc @7939
    _ZTv0_n28_N4omni10DynAnyImpl12_ptrToObjRefEPKc @7940
    _ZTv0_n28_N4omni11DynEnumImpl12_ptrToObjRefEPKc @7941
    _ZTv0_n28_N4omni12DynArrayImpl12_ptrToObjRefEPKc @7942
    _ZTv0_n28_N4omni12DynFixedImpl12_ptrToObjRefEPKc @7943
    _ZTv0_n28_N4omni12DynUnionImpl12_ptrToObjRefEPKc @7944
    _ZTv0_n28_N4omni12DynValueImpl12_ptrToObjRefEPKc @7945
    _ZTv0_n28_N4omni12DynValueImplD0Ev @7946
    _ZTv0_n28_N4omni12DynValueImplD1Ev @7947
    _ZTv0_n28_N4omni12UnknownValueD0Ev @7948
    _ZTv0_n28_N4omni12UnknownValueD1Ev @7949
    _ZTv0_n28_N4omni13DynStructImpl12_ptrToObjRefEPKc @7950
    _ZTv0_n28_N4omni13omniNilDynAny12_ptrToObjRefEPKc @7951
    _ZTv0_n28_N4omni14omniNilDynEnum12_ptrToObjRefEPKc @7952
    _ZTv0_n28_N4omni15DynSequenceImpl12_ptrToObjRefEPKc @7953
    _ZTv0_n28_N4omni15DynValueBoxImpl12_ptrToObjRefEPKc @7954
    _ZTv0_n28_N4omni15DynValueBoxImplD0Ev @7955
    _ZTv0_n28_N4omni15DynValueBoxImplD1Ev @7956
    _ZTv0_n28_N4omni15omniNilDynArray12_ptrToObjRefEPKc @7957
    _ZTv0_n28_N4omni15omniNilDynFixed12_ptrToObjRefEPKc @7958
    _ZTv0_n28_N4omni15omniNilDynUnion12_ptrToObjRefEPKc @7959
    _ZTv0_n28_N4omni15omniNilDynValue12_ptrToObjRefEPKc @7960
    _ZTv0_n28_N4omni15omniNilDynValueD0Ev @7961
    _ZTv0_n28_N4omni15omniNilDynValueD1Ev @7962
    _ZTv0_n28_N4omni16DynUnionEnumDisc12_ptrToObjRefEPKc @7963
    _ZTv0_n28_N4omni16omniNilDynStruct12_ptrToObjRefEPKc @7964
    _ZTv0_n28_N4omni18omniNilDynSequence12_ptrToObjRefEPKc @7965
    _ZTv0_n28_N4omni18omniNilDynValueBox12_ptrToObjRefEPKc @7966
    _ZTv0_n28_N4omni18omniNilDynValueBoxD0Ev @7967
    _ZTv0_n28_N4omni18omniNilDynValueBoxD1Ev @7968
    _ZTv0_n28_N4omni20omniNilDynAnyFactory12_ptrToObjRefEPKc @7969
    _ZTv0_n28_N4omni21omniNilDynValueCommon12_ptrToObjRefEPKc @7970
    _ZTv0_n28_N5CORBA13_impl_EnumDef9_dispatchER14omniCallHandle @7971
    _ZTv0_n28_N5CORBA13_impl_IDLType9_dispatchER14omniCallHandle @7972
    _ZTv0_n28_N5CORBA14_impl_AliasDef9_dispatchER14omniCallHandle @7973
    _ZTv0_n28_N5CORBA14_impl_ArrayDef9_dispatchER14omniCallHandle @7974
    _ZTv0_n28_N5CORBA14_impl_FixedDef9_dispatchER14omniCallHandle @7975
    _ZTv0_n28_N5CORBA14_impl_UnionDef9_dispatchER14omniCallHandle @7976
    _ZTv0_n28_N5CORBA14_impl_ValueDef9_dispatchER14omniCallHandle @7977
    _ZTv0_n28_N5CORBA15_impl_Contained9_dispatchER14omniCallHandle @7978
    _ZTv0_n28_N5CORBA15_impl_Container9_dispatchER14omniCallHandle @7979
    _ZTv0_n28_N5CORBA15_impl_ModuleDef9_dispatchER14omniCallHandle @7980
    _ZTv0_n28_N5CORBA15_impl_NativeDef9_dispatchER14omniCallHandle @7981
    _ZTv0_n28_N5CORBA15_impl_StringDef9_dispatchER14omniCallHandle @7982
    _ZTv0_n28_N5CORBA15_impl_StructDef9_dispatchER14omniCallHandle @7983
    _ZTv0_n28_N5CORBA15_objref_EnumDef12_ptrToObjRefEPKc @7984
    _ZTv0_n28_N5CORBA15_objref_IDLType12_ptrToObjRefEPKc @7985
    _ZTv0_n28_N5CORBA16_impl_Repository9_dispatchER14omniCallHandle @7986
    _ZTv0_n28_N5CORBA16_impl_TypedefDef9_dispatchER14omniCallHandle @7987
    _ZTv0_n28_N5CORBA16_impl_WstringDef9_dispatchER14omniCallHandle @7988
    _ZTv0_n28_N5CORBA16_objref_AliasDef12_ptrToObjRefEPKc @7989
    _ZTv0_n28_N5CORBA16_objref_ArrayDef12_ptrToObjRefEPKc @7990
    _ZTv0_n28_N5CORBA16_objref_FixedDef12_ptrToObjRefEPKc @7991
    _ZTv0_n28_N5CORBA16_objref_IRObject12_ptrToObjRefEPKc @7992
    _ZTv0_n28_N5CORBA16_objref_UnionDef12_ptrToObjRefEPKc @7993
    _ZTv0_n28_N5CORBA16_objref_ValueDef12_ptrToObjRefEPKc @7994
    _ZTv0_n28_N5CORBA17_impl_ConstantDef9_dispatchER14omniCallHandle @7995
    _ZTv0_n28_N5CORBA17_impl_SequenceDef9_dispatchER14omniCallHandle @7996
    _ZTv0_n28_N5CORBA17_impl_ValueBoxDef9_dispatchER14omniCallHandle @7997
    _ZTv0_n28_N5CORBA17_objref_Contained12_ptrToObjRefEPKc @7998
    _ZTv0_n28_N5CORBA17_objref_Container12_ptrToObjRefEPKc @7999
    _ZTv0_n28_N5CORBA17_objref_ModuleDef12_ptrToObjRefEPKc @8000
    _ZTv0_n28_N5CORBA17_objref_NativeDef12_ptrToObjRefEPKc @8001
    _ZTv0_n28_N5CORBA17_objref_StringDef12_ptrToObjRefEPKc @8002
    _ZTv0_n28_N5CORBA17_objref_StructDef12_ptrToObjRefEPKc @8003
    _ZTv0_n28_N5CORBA18_impl_AttributeDef9_dispatchER14omniCallHandle @8004
    _ZTv0_n28_N5CORBA18_impl_ExceptionDef9_dispatchER14omniCallHandle @8005
    _ZTv0_n28_N5CORBA18_impl_InterfaceDef9_dispatchER14omniCallHandle @8006
    _ZTv0_n28_N5CORBA18_impl_OperationDef9_dispatchER14omniCallHandle @8007
    _ZTv0_n28_N5CORBA18_impl_PrimitiveDef9_dispatchER14omniCallHandle @8008
    _ZTv0_n28_N5CORBA18_objref_Repository12_ptrToObjRefEPKc @8009
    _ZTv0_n28_N5CORBA18_objref_TypedefDef12_ptrToObjRefEPKc @8010
    _ZTv0_n28_N5CORBA18_objref_WstringDef12_ptrToObjRefEPKc @8011
    _ZTv0_n28_N5CORBA19_objref_ConstantDef12_ptrToObjRefEPKc @8012
    _ZTv0_n28_N5CORBA19_objref_SequenceDef12_ptrToObjRefEPKc @8013
    _ZTv0_n28_N5CORBA19_objref_ValueBoxDef12_ptrToObjRefEPKc @8014
    _ZTv0_n28_N5CORBA20_impl_ValueMemberDef9_dispatchER14omniCallHandle @8015
    _ZTv0_n28_N5CORBA20_objref_AttributeDef12_ptrToObjRefEPKc @8016
    _ZTv0_n28_N5CORBA20_objref_ExceptionDef12_ptrToObjRefEPKc @8017
    _ZTv0_n28_N5CORBA20_objref_InterfaceDef12_ptrToObjRefEPKc @8018
    _ZTv0_n28_N5CORBA20_objref_OperationDef12_ptrToObjRefEPKc @8019
    _ZTv0_n28_N5CORBA20_objref_PrimitiveDef12_ptrToObjRefEPKc @8020
    _ZTv0_n28_N5CORBA22_objref_ValueMemberDef12_ptrToObjRefEPKc @8021
    _ZTv0_n28_N5CORBA26_impl_AbstractInterfaceDef9_dispatchER14omniCallHandle @8022
    _ZTv0_n28_N5CORBA28_objref_AbstractInterfaceDef12_ptrToObjRefEPKc @8023
    _ZTv0_n28_NK4omni12UnknownValue16_NP_repositoryIdEv @8024
    _ZTv0_n28_NK5CORBA11StringValue16_NP_repositoryIdEv @8025
    _ZTv0_n28_NK5CORBA12WStringValue16_NP_repositoryIdEv @8026
    _ZTv0_n292_N4omni10DynAnyImpl13get_short_seqEv @8027
    _ZTv0_n292_N4omni12DynUnionImpl13get_short_seqEv @8028
    _ZTv0_n292_N4omni13omniNilDynAny13get_short_seqEv @8029
    _ZTv0_n292_N4omni16DynAnyConstrBase13get_short_seqEv @8030
    _ZTv0_n296_N4omni10DynAnyImpl14get_ushort_seqEv @8031
    _ZTv0_n296_N4omni12DynUnionImpl14get_ushort_seqEv @8032
    _ZTv0_n296_N4omni13omniNilDynAny14get_ushort_seqEv @8033
    _ZTv0_n296_N4omni16DynAnyConstrBase14get_ushort_seqEv @8034
    _ZTv0_n300_N4omni10DynAnyImpl12get_long_seqEv @8035
    _ZTv0_n300_N4omni12DynUnionImpl12get_long_seqEv @8036
    _ZTv0_n300_N4omni13omniNilDynAny12get_long_seqEv @8037
    _ZTv0_n300_N4omni16DynAnyConstrBase12get_long_seqEv @8038
    _ZTv0_n304_N4omni10DynAnyImpl13get_ulong_seqEv @8039
    _ZTv0_n304_N4omni12DynUnionImpl13get_ulong_seqEv @8040
    _ZTv0_n304_N4omni13omniNilDynAny13get_ulong_seqEv @8041
    _ZTv0_n304_N4omni16DynAnyConstrBase13get_ulong_seqEv @8042
    _ZTv0_n308_N4omni10DynAnyImpl13get_float_seqEv @8043
    _ZTv0_n308_N4omni12DynUnionImpl13get_float_seqEv @8044
    _ZTv0_n308_N4omni13omniNilDynAny13get_float_seqEv @8045
    _ZTv0_n308_N4omni16DynAnyConstrBase13get_float_seqEv @8046
    _ZTv0_n312_N4omni10DynAnyImpl14get_double_seqEv @8047
    _ZTv0_n312_N4omni12DynUnionImpl14get_double_seqEv @8048
    _ZTv0_n312_N4omni13omniNilDynAny14get_double_seqEv @8049
    _ZTv0_n312_N4omni16DynAnyConstrBase14get_double_seqEv @8050
    _ZTv0_n316_N4omni10DynAnyImpl16get_longlong_seqEv @8051
    _ZTv0_n316_N4omni12DynUnionImpl16get_longlong_seqEv @8052
    _ZTv0_n316_N4omni13omniNilDynAny16get_longlong_seqEv @8053
    _ZTv0_n316_N4omni16DynAnyConstrBase16get_longlong_seqEv @8054
    _ZTv0_n320_N4omni10DynAnyImpl17get_ulonglong_seqEv @8055
    _ZTv0_n320_N4omni12DynUnionImpl17get_ulonglong_seqEv @8056
    _ZTv0_n320_N4omni13omniNilDynAny17get_ulonglong_seqEv @8057
    _ZTv0_n320_N4omni16DynAnyConstrBase17get_ulonglong_seqEv @8058
    _ZTv0_n324_N4omni10DynAnyImpl18get_longdouble_seqEv @8059
    _ZTv0_n324_N4omni12DynUnionImpl18get_longdouble_seqEv @8060
    _ZTv0_n324_N4omni13omniNilDynAny18get_longdouble_seqEv @8061
    _ZTv0_n324_N4omni16DynAnyConstrBase18get_longdouble_seqEv @8062
    _ZTv0_n328_N4omni10DynAnyImpl13get_wchar_seqEv @8063
    _ZTv0_n328_N4omni12DynUnionImpl13get_wchar_seqEv @8064
    _ZTv0_n328_N4omni13omniNilDynAny13get_wchar_seqEv @8065
    _ZTv0_n328_N4omni16DynAnyConstrBase13get_wchar_seqEv @8066
    _ZTv0_n32_N14PortableServer17ValueRefCountBase11_remove_refEv @8067
    _ZTv0_n32_N4omni12DynValueImpl12_ptrToObjRefEPKc @8068
    _ZTv0_n32_N4omni15DynValueBoxImpl12_ptrToObjRefEPKc @8069
    _ZTv0_n32_N4omni15omniNilDynValue12_ptrToObjRefEPKc @8070
    _ZTv0_n32_N4omni18omniNilDynValueBox12_ptrToObjRefEPKc @8071
    _ZTv0_n32_N4omni20omniNilDynAnyFactory14create_dyn_anyERKN5CORBA3AnyE @8072
    _ZTv0_n32_N5CORBA13_impl_EnumDef15_ptrToInterfaceEPKc @8073
    _ZTv0_n32_N5CORBA13_impl_IDLType15_ptrToInterfaceEPKc @8074
    _ZTv0_n32_N5CORBA14_impl_AliasDef15_ptrToInterfaceEPKc @8075
    _ZTv0_n32_N5CORBA14_impl_ArrayDef15_ptrToInterfaceEPKc @8076
    _ZTv0_n32_N5CORBA14_impl_FixedDef15_ptrToInterfaceEPKc @8077
    _ZTv0_n32_N5CORBA14_impl_UnionDef15_ptrToInterfaceEPKc @8078
    _ZTv0_n32_N5CORBA14_impl_ValueDef15_ptrToInterfaceEPKc @8079
    _ZTv0_n32_N5CORBA15_impl_Contained15_ptrToInterfaceEPKc @8080
    _ZTv0_n32_N5CORBA15_impl_Container15_ptrToInterfaceEPKc @8081
    _ZTv0_n32_N5CORBA15_impl_ModuleDef15_ptrToInterfaceEPKc @8082
    _ZTv0_n32_N5CORBA15_impl_NativeDef15_ptrToInterfaceEPKc @8083
    _ZTv0_n32_N5CORBA15_impl_StringDef15_ptrToInterfaceEPKc @8084
    _ZTv0_n32_N5CORBA15_impl_StructDef15_ptrToInterfaceEPKc @8085
    _ZTv0_n32_N5CORBA16_impl_Repository15_ptrToInterfaceEPKc @8086
    _ZTv0_n32_N5CORBA16_impl_TypedefDef15_ptrToInterfaceEPKc @8087
    _ZTv0_n32_N5CORBA16_impl_WstringDef15_ptrToInterfaceEPKc @8088
    _ZTv0_n32_N5CORBA17_impl_ConstantDef15_ptrToInterfaceEPKc @8089
    _ZTv0_n32_N5CORBA17_impl_SequenceDef15_ptrToInterfaceEPKc @8090
    _ZTv0_n32_N5CORBA17_impl_ValueBoxDef15_ptrToInterfaceEPKc @8091
    _ZTv0_n32_N5CORBA18_impl_AttributeDef15_ptrToInterfaceEPKc @8092
    _ZTv0_n32_N5CORBA18_impl_ExceptionDef15_ptrToInterfaceEPKc @8093
    _ZTv0_n32_N5CORBA18_impl_InterfaceDef15_ptrToInterfaceEPKc @8094
    _ZTv0_n32_N5CORBA18_impl_OperationDef15_ptrToInterfaceEPKc @8095
    _ZTv0_n32_N5CORBA18_impl_PrimitiveDef15_ptrToInterfaceEPKc @8096
    _ZTv0_n32_N5CORBA20_impl_ValueMemberDef15_ptrToInterfaceEPKc @8097
    _ZTv0_n32_N5CORBA26_impl_AbstractInterfaceDef15_ptrToInterfaceEPKc @8098
    _ZTv0_n32_NK4omni12UnknownValue16_NP_repositoryIdERm @8099
    _ZTv0_n32_NK4omni13omniNilDynAny4typeEv @8100
    _ZTv0_n32_NK4omni14DynAnyImplBase4typeEv @8101
    _ZTv0_n32_NK5CORBA11StringValue16_NP_repositoryIdERm @8102
    _ZTv0_n32_NK5CORBA12WStringValue16_NP_repositoryIdERm @8103
    _ZTv0_n332_N4omni10DynAnyImpl4seekEl @8104
    _ZTv0_n332_N4omni12DynUnionImpl4seekEl @8105
    _ZTv0_n332_N4omni13omniNilDynAny4seekEl @8106
    _ZTv0_n332_N4omni16DynAnyConstrBase4seekEl @8107
    _ZTv0_n336_N4omni10DynAnyImpl6rewindEv @8108
    _ZTv0_n336_N4omni12DynUnionImpl6rewindEv @8109
    _ZTv0_n336_N4omni13omniNilDynAny6rewindEv @8110
    _ZTv0_n336_N4omni16DynAnyConstrBase6rewindEv @8111
    _ZTv0_n340_N4omni10DynAnyImpl4nextEv @8112
    _ZTv0_n340_N4omni12DynUnionImpl4nextEv @8113
    _ZTv0_n340_N4omni13omniNilDynAny4nextEv @8114
    _ZTv0_n340_N4omni16DynAnyConstrBase4nextEv @8115
    _ZTv0_n344_N4omni10DynAnyImpl15component_countEv @8116
    _ZTv0_n344_N4omni12DynUnionImpl15component_countEv @8117
    _ZTv0_n344_N4omni13omniNilDynAny15component_countEv @8118
    _ZTv0_n344_N4omni16DynAnyConstrBase15component_countEv @8119
    _ZTv0_n348_N4omni10DynAnyImpl17current_componentEv @8120
    _ZTv0_n348_N4omni12DynUnionImpl17current_componentEv @8121
    _ZTv0_n348_N4omni13omniNilDynAny17current_componentEv @8122
    _ZTv0_n348_N4omni16DynAnyConstrBase17current_componentEv @8123
    _ZTv0_n352_NK4omni10DynAnyImpl11NP_nodetypeEv @8124
    _ZTv0_n352_NK4omni11DynEnumImpl11NP_nodetypeEv @8125
    _ZTv0_n352_NK4omni12DynArrayImpl11NP_nodetypeEv @8126
    _ZTv0_n352_NK4omni12DynFixedImpl11NP_nodetypeEv @8127
    _ZTv0_n352_NK4omni12DynUnionDisc11NP_nodetypeEv @8128
    _ZTv0_n352_NK4omni12DynUnionImpl11NP_nodetypeEv @8129
    _ZTv0_n352_NK4omni12DynValueImpl11NP_nodetypeEv @8130
    _ZTv0_n352_NK4omni13DynStructImpl11NP_nodetypeEv @8131
    _ZTv0_n352_NK4omni13omniNilDynAny11NP_nodetypeEv @8132
    _ZTv0_n352_NK4omni15DynSequenceImpl11NP_nodetypeEv @8133
    _ZTv0_n352_NK4omni15DynValueBoxImpl11NP_nodetypeEv @8134
    _ZTv0_n352_NK4omni16DynUnionEnumDisc11NP_nodetypeEv @8135
    _ZTv0_n36_N14PortableServer17ValueRefCountBase15_refcount_valueEv @8136
    _ZTv0_n36_N14PortableServer21DynamicImplementation17_do_get_interfaceEv @8137
    _ZTv0_n36_N4omni10DynAnyImpl6assignEPN10DynamicAny6DynAnyE @8138
    _ZTv0_n36_N4omni12DynUnionDisc6assignEPN10DynamicAny6DynAnyE @8139
    _ZTv0_n36_N4omni12DynUnionImpl6assignEPN10DynamicAny6DynAnyE @8140
    _ZTv0_n36_N4omni13omniNilDynAny6assignEPN10DynamicAny6DynAnyE @8141
    _ZTv0_n36_N4omni16DynAnyConstrBase6assignEPN10DynamicAny6DynAnyE @8142
    _ZTv0_n36_N4omni20omniNilDynAnyFactory29create_dyn_any_from_type_codeEPN5CORBA8TypeCodeE @8143
    _ZTv0_n36_N5CORBA13_impl_EnumDef18_mostDerivedRepoIdEv @8144
    _ZTv0_n36_N5CORBA13_impl_IDLType18_mostDerivedRepoIdEv @8145
    _ZTv0_n36_N5CORBA14_impl_AliasDef18_mostDerivedRepoIdEv @8146
    _ZTv0_n36_N5CORBA14_impl_ArrayDef18_mostDerivedRepoIdEv @8147
    _ZTv0_n36_N5CORBA14_impl_FixedDef18_mostDerivedRepoIdEv @8148
    _ZTv0_n36_N5CORBA14_impl_UnionDef18_mostDerivedRepoIdEv @8149
    _ZTv0_n36_N5CORBA14_impl_ValueDef18_mostDerivedRepoIdEv @8150
    _ZTv0_n36_N5CORBA15_impl_Contained18_mostDerivedRepoIdEv @8151
    _ZTv0_n36_N5CORBA15_impl_Container18_mostDerivedRepoIdEv @8152
    _ZTv0_n36_N5CORBA15_impl_ModuleDef18_mostDerivedRepoIdEv @8153
    _ZTv0_n36_N5CORBA15_impl_NativeDef18_mostDerivedRepoIdEv @8154
    _ZTv0_n36_N5CORBA15_impl_StringDef18_mostDerivedRepoIdEv @8155
    _ZTv0_n36_N5CORBA15_impl_StructDef18_mostDerivedRepoIdEv @8156
    _ZTv0_n36_N5CORBA16_impl_Repository18_mostDerivedRepoIdEv @8157
    _ZTv0_n36_N5CORBA16_impl_TypedefDef18_mostDerivedRepoIdEv @8158
    _ZTv0_n36_N5CORBA16_impl_WstringDef18_mostDerivedRepoIdEv @8159
    _ZTv0_n36_N5CORBA17_impl_ConstantDef18_mostDerivedRepoIdEv @8160
    _ZTv0_n36_N5CORBA17_impl_SequenceDef18_mostDerivedRepoIdEv @8161
    _ZTv0_n36_N5CORBA17_impl_ValueBoxDef18_mostDerivedRepoIdEv @8162
    _ZTv0_n36_N5CORBA18_impl_AttributeDef18_mostDerivedRepoIdEv @8163
    _ZTv0_n36_N5CORBA18_impl_ExceptionDef18_mostDerivedRepoIdEv @8164
    _ZTv0_n36_N5CORBA18_impl_InterfaceDef18_mostDerivedRepoIdEv @8165
    _ZTv0_n36_N5CORBA18_impl_OperationDef18_mostDerivedRepoIdEv @8166
    _ZTv0_n36_N5CORBA18_impl_PrimitiveDef18_mostDerivedRepoIdEv @8167
    _ZTv0_n36_N5CORBA20_impl_ValueMemberDef18_mostDerivedRepoIdEv @8168
    _ZTv0_n36_N5CORBA26_impl_AbstractInterfaceDef18_mostDerivedRepoIdEv @8169
    _ZTv0_n36_NK4omni12UnknownValue18_NP_truncatableIdsEv @8170
    _ZTv0_n36_NK5CORBA11StringValue18_NP_truncatableIdsEv @8171
    _ZTv0_n36_NK5CORBA12WStringValue18_NP_truncatableIdsEv @8172
    _ZTv0_n40_N14PortableServer21DynamicImplementation17_do_get_interfaceEv @8173
    _ZTv0_n40_N14PortableServer21DynamicImplementation9_dispatchER14omniCallHandle @8174
    _ZTv0_n40_N4omni13omniNilDynAny8from_anyERKN5CORBA3AnyE @8175
    _ZTv0_n40_N4omni14DynAnyImplBase8from_anyERKN5CORBA3AnyE @8176
    _ZTv0_n40_N5CORBA13_impl_EnumDef9_dispatchER14omniCallHandle @8177
    _ZTv0_n40_N5CORBA13_impl_IDLType9_dispatchER14omniCallHandle @8178
    _ZTv0_n40_N5CORBA14_impl_AliasDef9_dispatchER14omniCallHandle @8179
    _ZTv0_n40_N5CORBA14_impl_ArrayDef9_dispatchER14omniCallHandle @8180
    _ZTv0_n40_N5CORBA14_impl_FixedDef9_dispatchER14omniCallHandle @8181
    _ZTv0_n40_N5CORBA14_impl_IRObject9_dispatchER14omniCallHandle @8182
    _ZTv0_n40_N5CORBA14_impl_UnionDef9_dispatchER14omniCallHandle @8183
    _ZTv0_n40_N5CORBA14_impl_ValueDef9_dispatchER14omniCallHandle @8184
    _ZTv0_n40_N5CORBA15_impl_Contained9_dispatchER14omniCallHandle @8185
    _ZTv0_n40_N5CORBA15_impl_Container9_dispatchER14omniCallHandle @8186
    _ZTv0_n40_N5CORBA15_impl_ModuleDef9_dispatchER14omniCallHandle @8187
    _ZTv0_n40_N5CORBA15_impl_NativeDef9_dispatchER14omniCallHandle @8188
    _ZTv0_n40_N5CORBA15_impl_StringDef9_dispatchER14omniCallHandle @8189
    _ZTv0_n40_N5CORBA15_impl_StructDef9_dispatchER14omniCallHandle @8190
    _ZTv0_n40_N5CORBA16_impl_Repository9_dispatchER14omniCallHandle @8191
    _ZTv0_n40_N5CORBA16_impl_TypedefDef9_dispatchER14omniCallHandle @8192
    _ZTv0_n40_N5CORBA16_impl_WstringDef9_dispatchER14omniCallHandle @8193
    _ZTv0_n40_N5CORBA17_impl_ConstantDef9_dispatchER14omniCallHandle @8194
    _ZTv0_n40_N5CORBA17_impl_SequenceDef9_dispatchER14omniCallHandle @8195
    _ZTv0_n40_N5CORBA17_impl_ValueBoxDef9_dispatchER14omniCallHandle @8196
    _ZTv0_n40_N5CORBA18_impl_AttributeDef9_dispatchER14omniCallHandle @8197
    _ZTv0_n40_N5CORBA18_impl_ExceptionDef9_dispatchER14omniCallHandle @8198
    _ZTv0_n40_N5CORBA18_impl_InterfaceDef9_dispatchER14omniCallHandle @8199
    _ZTv0_n40_N5CORBA18_impl_OperationDef9_dispatchER14omniCallHandle @8200
    _ZTv0_n40_N5CORBA18_impl_PrimitiveDef9_dispatchER14omniCallHandle @8201
    _ZTv0_n40_N5CORBA20_impl_ValueMemberDef9_dispatchER14omniCallHandle @8202
    _ZTv0_n40_N5CORBA26_impl_AbstractInterfaceDef9_dispatchER14omniCallHandle @8203
    _ZTv0_n40_NK4omni12UnknownValue10_NP_customEv @8204
    _ZTv0_n40_NK5CORBA11StringValue10_NP_customEv @8205
    _ZTv0_n40_NK5CORBA12WStringValue10_NP_customEv @8206
    _ZTv0_n44_N14PortableServer17ValueRefCountBase8_add_refEv @8207
    _ZTv0_n44_N4omni13omniNilDynAny6to_anyEv @8208
    _ZTv0_n44_N4omni14DynAnyImplBase6to_anyEv @8209
    _ZTv0_n44_NK5CORBA11StringValue7_NP_boxEv @8210
    _ZTv0_n44_NK5CORBA12WStringValue7_NP_boxEv @8211
    _ZTv0_n48_N14PortableServer17ValueRefCountBase11_remove_refEv @8212
    _ZTv0_n48_N4omni10DynAnyImpl5equalEPN10DynamicAny6DynAnyE @8213
    _ZTv0_n48_N4omni12DynUnionImpl5equalEPN10DynamicAny6DynAnyE @8214
    _ZTv0_n48_N4omni12UnknownValue11_ptrToValueEPKc @8215
    _ZTv0_n48_N4omni13omniNilDynAny5equalEPN10DynamicAny6DynAnyE @8216
    _ZTv0_n48_N4omni16DynAnyConstrBase5equalEPN10DynamicAny6DynAnyE @8217
    _ZTv0_n48_N5CORBA11StringValue11_ptrToValueEPKc @8218
    _ZTv0_n48_N5CORBA12WStringValue11_ptrToValueEPKc @8219
    _ZTv0_n52_N4omni13omniNilDynAny7destroyEv @8220
    _ZTv0_n52_N4omni14DynAnyImplBase7destroyEv @8221
    _ZTv0_n52_NK4omni12UnknownValue17_PR_marshal_stateER9cdrStream @8222
    _ZTv0_n52_NK5CORBA11StringValue17_PR_marshal_stateER9cdrStream @8223
    _ZTv0_n52_NK5CORBA12WStringValue17_PR_marshal_stateER9cdrStream @8224
    _ZTv0_n56_N4omni10DynAnyImpl4copyEv @8225
    _ZTv0_n56_N4omni11DynEnumImpl4copyEv @8226
    _ZTv0_n56_N4omni12DynArrayImpl4copyEv @8227
    _ZTv0_n56_N4omni12DynFixedImpl4copyEv @8228
    _ZTv0_n56_N4omni12DynUnionImpl4copyEv @8229
    _ZTv0_n56_N4omni12DynValueImpl4copyEv @8230
    _ZTv0_n56_N4omni12UnknownValue19_PR_unmarshal_stateER9cdrStream @8231
    _ZTv0_n56_N4omni13DynStructImpl4copyEv @8232
    _ZTv0_n56_N4omni13omniNilDynAny4copyEv @8233
    _ZTv0_n56_N4omni15DynSequenceImpl4copyEv @8234
    _ZTv0_n56_N4omni15DynValueBoxImpl4copyEv @8235
    _ZTv0_n56_N4omni16DynUnionEnumDisc4copyEv @8236
    _ZTv0_n56_N5CORBA11StringValue19_PR_unmarshal_stateER9cdrStream @8237
    _ZTv0_n56_N5CORBA12WStringValue19_PR_unmarshal_stateER9cdrStream @8238
    _ZTv0_n60_N14PortableServer17ValueRefCountBaseD0Ev @8239
    _ZTv0_n60_N14PortableServer17ValueRefCountBaseD1Ev @8240
    _ZTv0_n60_N4omni10DynAnyImpl14insert_booleanEb @8241
    _ZTv0_n60_N4omni12DynUnionDisc14insert_booleanEb @8242
    _ZTv0_n60_N4omni12DynUnionImpl14insert_booleanEb @8243
    _ZTv0_n60_N4omni12UnknownValueD0Ev @8244
    _ZTv0_n60_N4omni12UnknownValueD1Ev @8245
    _ZTv0_n60_N4omni13omniNilDynAny14insert_booleanEb @8246
    _ZTv0_n60_N4omni16DynAnyConstrBase14insert_booleanEb @8247
    _ZTv0_n60_N5CORBA11StringValueD0Ev @8248
    _ZTv0_n60_N5CORBA11StringValueD1Ev @8249
    _ZTv0_n60_N5CORBA12WStringValueD0Ev @8250
    _ZTv0_n60_N5CORBA12WStringValueD1Ev @8251
    _ZTv0_n60_N5CORBA24DefaultValueRefCountBaseD0Ev @8252
    _ZTv0_n60_N5CORBA24DefaultValueRefCountBaseD1Ev @8253
    _ZTv0_n64_N4omni10DynAnyImpl12insert_octetEh @8254
    _ZTv0_n64_N4omni12DynUnionDisc12insert_octetEh @8255
    _ZTv0_n64_N4omni12DynUnionImpl12insert_octetEh @8256
    _ZTv0_n64_N4omni13omniNilDynAny12insert_octetEh @8257
    _ZTv0_n64_N4omni16DynAnyConstrBase12insert_octetEh @8258
    _ZTv0_n68_N4omni10DynAnyImpl11insert_charEh @8259
    _ZTv0_n68_N4omni12DynUnionDisc11insert_charEh @8260
    _ZTv0_n68_N4omni12DynUnionImpl11insert_charEh @8261
    _ZTv0_n68_N4omni13omniNilDynAny11insert_charEh @8262
    _ZTv0_n68_N4omni16DynAnyConstrBase11insert_charEh @8263
    _ZTv0_n72_N4omni10DynAnyImpl12insert_shortEs @8264
    _ZTv0_n72_N4omni12DynUnionDisc12insert_shortEs @8265
    _ZTv0_n72_N4omni12DynUnionImpl12insert_shortEs @8266
    _ZTv0_n72_N4omni13omniNilDynAny12insert_shortEs @8267
    _ZTv0_n72_N4omni16DynAnyConstrBase12insert_shortEs @8268
    _ZTv0_n76_N4omni10DynAnyImpl13insert_ushortEt @8269
    _ZTv0_n76_N4omni12DynUnionDisc13insert_ushortEt @8270
    _ZTv0_n76_N4omni12DynUnionImpl13insert_ushortEt @8271
    _ZTv0_n76_N4omni13omniNilDynAny13insert_ushortEt @8272
    _ZTv0_n76_N4omni16DynAnyConstrBase13insert_ushortEt @8273
    _ZTv0_n80_N4omni10DynAnyImpl11insert_longEl @8274
    _ZTv0_n80_N4omni12DynUnionDisc11insert_longEl @8275
    _ZTv0_n80_N4omni12DynUnionImpl11insert_longEl @8276
    _ZTv0_n80_N4omni13omniNilDynAny11insert_longEl @8277
    _ZTv0_n80_N4omni16DynAnyConstrBase11insert_longEl @8278
    _ZTv0_n84_N4omni10DynAnyImpl12insert_ulongEm @8279
    _ZTv0_n84_N4omni12DynUnionDisc12insert_ulongEm @8280
    _ZTv0_n84_N4omni12DynUnionImpl12insert_ulongEm @8281
    _ZTv0_n84_N4omni13omniNilDynAny12insert_ulongEm @8282
    _ZTv0_n84_N4omni16DynAnyConstrBase12insert_ulongEm @8283
    _ZTv0_n88_N4omni10DynAnyImpl12insert_floatEf @8284
    _ZTv0_n88_N4omni12DynUnionDisc12insert_floatEf @8285
    _ZTv0_n88_N4omni12DynUnionImpl12insert_floatEf @8286
    _ZTv0_n88_N4omni13omniNilDynAny12insert_floatEf @8287
    _ZTv0_n88_N4omni16DynAnyConstrBase12insert_floatEf @8288
    _ZTv0_n92_N4omni10DynAnyImpl13insert_doubleEd @8289
    _ZTv0_n92_N4omni12DynUnionDisc13insert_doubleEd @8290
    _ZTv0_n92_N4omni12DynUnionImpl13insert_doubleEd @8291
    _ZTv0_n92_N4omni13omniNilDynAny13insert_doubleEd @8292
    _ZTv0_n92_N4omni16DynAnyConstrBase13insert_doubleEd @8293
    _ZTv0_n96_N4omni10DynAnyImpl13insert_stringEPKc @8294
    _ZTv0_n96_N4omni12DynUnionDisc13insert_stringEPKc @8295
    _ZTv0_n96_N4omni12DynUnionImpl13insert_stringEPKc @8296
    _ZTv0_n96_N4omni13omniNilDynAny13insert_stringEPKc @8297
    _ZTv0_n96_N4omni16DynAnyConstrBase13insert_stringEPKc @8298
    _ZlSRN14PortableServer17ThreadPolicyValueER9cdrStream @8299
    _ZlSRN14PortableServer19LifespanPolicyValueER9cdrStream @8300
    _ZlSRN14PortableServer23IdAssignmentPolicyValueER9cdrStream @8301
    _ZlSRN14PortableServer23IdUniquenessPolicyValueER9cdrStream @8302
    _ZlSRN14PortableServer27ServantRetentionPolicyValueER9cdrStream @8303
    _ZlSRN14PortableServer28RequestProcessingPolicyValueER9cdrStream @8304
    _ZlSRN14PortableServer29ImplicitActivationPolicyValueER9cdrStream @8305
    _ZlSRN5CORBA13AttributeModeER9cdrStream @8306
    _ZlSRN5CORBA13OperationModeER9cdrStream @8307
    _ZlSRN5CORBA13ParameterModeER9cdrStream @8308
    _ZlSRN5CORBA13PrimitiveKindER9cdrStream @8309
    _ZlSRN5CORBA14DefinitionKindER9cdrStream @8310
    _ZlSRN5CORBA3AnyEN14PortableServer17ThreadPolicyValueE @8311
    _ZlSRN5CORBA3AnyEN14PortableServer19LifespanPolicyValueE @8312
    _ZlSRN5CORBA3AnyEN14PortableServer23IdAssignmentPolicyValueE @8313
    _ZlSRN5CORBA3AnyEN14PortableServer23IdUniquenessPolicyValueE @8314
    _ZlSRN5CORBA3AnyEN14PortableServer27ServantRetentionPolicyValueE @8315
    _ZlSRN5CORBA3AnyEN14PortableServer28RequestProcessingPolicyValueE @8316
    _ZlSRN5CORBA3AnyEN14PortableServer29ImplicitActivationPolicyValueE @8317
    _ZlSRN5CORBA3AnyEN9CosNaming11BindingTypeE @8318
    _ZlSRN5CORBA3AnyEN9CosNaming13NamingContext14NotFoundReasonE @8319
    _ZlSRN5CORBA3AnyENS_13AttributeModeE @8320
    _ZlSRN5CORBA3AnyENS_13OperationModeE @8321
    _ZlSRN5CORBA3AnyENS_13ParameterModeE @8322
    _ZlSRN5CORBA3AnyENS_13PrimitiveKindE @8323
    _ZlSRN5CORBA3AnyENS_14DefinitionKindE @8324
    _ZlSRN5CORBA3AnyEP31_objref_CORBA_InitialReferences @8325
    _ZlSRN5CORBA3AnyEPKN10DynamicAny13DynAnyFactory20InconsistentTypeCodeE @8326
    _ZlSRN5CORBA3AnyEPKN10DynamicAny6DynAny12InvalidValueE @8327
    _ZlSRN5CORBA3AnyEPKN10DynamicAny6DynAny12TypeMismatchE @8328
    _ZlSRN5CORBA3AnyEPKN14PortableServer10POAManager15AdapterInactiveE @8329
    _ZlSRN5CORBA3AnyEPKN14PortableServer14ForwardRequestE @8330
    _ZlSRN5CORBA3AnyEPKN14PortableServer3POA11WrongPolicyE @8331
    _ZlSRN5CORBA3AnyEPKN14PortableServer3POA12WrongAdapterE @8332
    _ZlSRN5CORBA3AnyEPKN14PortableServer3POA13InvalidPolicyE @8333
    _ZlSRN5CORBA3AnyEPKN14PortableServer3POA15ObjectNotActiveE @8334
    _ZlSRN5CORBA3AnyEPKN14PortableServer3POA16ServantNotActiveE @8335
    _ZlSRN5CORBA3AnyEPKN14PortableServer3POA18AdapterNonExistentE @8336
    _ZlSRN5CORBA3AnyEPKN14PortableServer3POA19ObjectAlreadyActiveE @8337
    _ZlSRN5CORBA3AnyEPKN14PortableServer3POA20AdapterAlreadyExistsE @8338
    _ZlSRN5CORBA3AnyEPKN14PortableServer3POA20ServantAlreadyActiveE @8339
    _ZlSRN5CORBA3AnyEPKN14PortableServer3POA9NoServantE @8340
    _ZlSRN5CORBA3AnyEPKN9CosNaming13NamingContext11InvalidNameE @8341
    _ZlSRN5CORBA3AnyEPKN9CosNaming13NamingContext12AlreadyBoundE @8342
    _ZlSRN5CORBA3AnyEPKN9CosNaming13NamingContext13CannotProceedE @8343
    _ZlSRN5CORBA3AnyEPKN9CosNaming13NamingContext8NotEmptyE @8344
    _ZlSRN5CORBA3AnyEPKN9CosNaming13NamingContext8NotFoundE @8345
    _ZlSRN5CORBA3AnyEPKN9CosNaming16NamingContextExt14InvalidAddressE @8346
    _ZlSRN5CORBA3AnyEPKNS_10INITIALIZEE @8347
    _ZlSRN5CORBA3AnyEPKNS_10INTF_REPOSE @8348
    _ZlSRN5CORBA3AnyEPKNS_10INV_OBJREFE @8349
    _ZlSRN5CORBA3AnyEPKNS_10INV_POLICYE @8350
    _ZlSRN5CORBA3AnyEPKNS_11BAD_CONTEXTE @8351
    _ZlSRN5CORBA3AnyEPKNS_11ContextList6BoundsE @8352
    _ZlSRN5CORBA3AnyEPKNS_11NO_RESPONSEE @8353
    _ZlSRN5CORBA3AnyEPKNS_11OBJ_ADAPTERE @8354
    _ZlSRN5CORBA3AnyEPKNS_11PolicyErrorE @8355
    _ZlSRN5CORBA3AnyEPKNS_12BAD_TYPECODEE @8356
    _ZlSRN5CORBA3AnyEPKNS_12COMM_FAILUREE @8357
    _ZlSRN5CORBA3AnyEPKNS_12NO_IMPLEMENTE @8358
    _ZlSRN5CORBA3AnyEPKNS_12NO_RESOURCESE @8359
    _ZlSRN5CORBA3AnyEPKNS_13BAD_INV_ORDERE @8360
    _ZlSRN5CORBA3AnyEPKNS_13BAD_OPERATIONE @8361
    _ZlSRN5CORBA3AnyEPKNS_13ExceptionList6BoundsE @8362
    _ZlSRN5CORBA3AnyEPKNS_13NO_PERMISSIONE @8363
    _ZlSRN5CORBA3AnyEPKNS_13PERSIST_STOREE @8364
    _ZlSRN5CORBA3AnyEPKNS_15DATA_CONVERSIONE @8365
    _ZlSRN5CORBA3AnyEPKNS_16OBJECT_NOT_EXISTE @8366
    _ZlSRN5CORBA3AnyEPKNS_16TRANSACTION_MODEE @8367
    _ZlSRN5CORBA3AnyEPKNS_16WrongTransactionE @8368
    _ZlSRN5CORBA3AnyEPKNS_19INVALID_TRANSACTIONE @8369
    _ZlSRN5CORBA3AnyEPKNS_20CODESET_INCOMPATIBLEE @8370
    _ZlSRN5CORBA3AnyEPKNS_20TRANSACTION_REQUIREDE @8371
    _ZlSRN5CORBA3AnyEPKNS_20UnknownUserExceptionE @8372
    _ZlSRN5CORBA3AnyEPKNS_22TRANSACTION_ROLLEDBACKE @8373
    _ZlSRN5CORBA3AnyEPKNS_23TRANSACTION_UNAVAILABLEE @8374
    _ZlSRN5CORBA3AnyEPKNS_3ORB11InvalidNameE @8375
    _ZlSRN5CORBA3AnyEPKNS_3ORB20InconsistentTypeCodeE @8376
    _ZlSRN5CORBA3AnyEPKNS_6NVList6BoundsE @8377
    _ZlSRN5CORBA3AnyEPKNS_6REBINDE @8378
    _ZlSRN5CORBA3AnyEPKNS_7BAD_QOSE @8379
    _ZlSRN5CORBA3AnyEPKNS_7MARSHALE @8380
    _ZlSRN5CORBA3AnyEPKNS_7TIMEOUTE @8381
    _ZlSRN5CORBA3AnyEPKNS_7UNKNOWNE @8382
    _ZlSRN5CORBA3AnyEPKNS_8FREE_MEME @8383
    _ZlSRN5CORBA3AnyEPKNS_8INTERNALE @8384
    _ZlSRN5CORBA3AnyEPKNS_8INV_FLAGE @8385
    _ZlSRN5CORBA3AnyEPKNS_8TypeCode6BoundsE @8386
    _ZlSRN5CORBA3AnyEPKNS_8TypeCode7BadKindE @8387
    _ZlSRN5CORBA3AnyEPKNS_9BAD_PARAME @8388
    _ZlSRN5CORBA3AnyEPKNS_9ExceptionE @8389
    _ZlSRN5CORBA3AnyEPKNS_9IMP_LIMITE @8390
    _ZlSRN5CORBA3AnyEPKNS_9INV_IDENTE @8391
    _ZlSRN5CORBA3AnyEPKNS_9NO_MEMORYE @8392
    _ZlSRN5CORBA3AnyEPKNS_9TRANSIENTE @8393
    _ZlSRN5CORBA3AnyEPN23CORBA_InitialReferences9ObjIdListE @8394
    _ZlSRN5CORBA3AnyEPN9CosNaming11BindingListE @8395
    _ZlSRN5CORBA3AnyEPN9CosNaming13NameComponentE @8396
    _ZlSRN5CORBA3AnyEPN9CosNaming21_objref_NamingContextE @8397
    _ZlSRN5CORBA3AnyEPN9CosNaming23_objref_BindingIteratorE @8398
    _ZlSRN5CORBA3AnyEPN9CosNaming24_objref_NamingContextExtE @8399
    _ZlSRN5CORBA3AnyEPN9CosNaming4NameE @8400
    _ZlSRN5CORBA3AnyEPN9CosNaming7BindingE @8401
    _ZlSRN5CORBA3AnyEPNS_10BooleanSeqE @8402
    _ZlSRN5CORBA3AnyEPNS_10WStringSeqE @8403
    _ZlSRN5CORBA3AnyEPNS_11InitializerE @8404
    _ZlSRN5CORBA3AnyEPNS_11LongLongSeqE @8405
    _ZlSRN5CORBA3AnyEPNS_11StringValueE @8406
    _ZlSRN5CORBA3AnyEPNS_11UnionMemberE @8407
    _ZlSRN5CORBA3AnyEPNS_11ValueDefSeqE @8408
    _ZlSRN5CORBA3AnyEPNS_11ValueMemberE @8409
    _ZlSRN5CORBA3AnyEPNS_12ContainedSeqE @8410
    _ZlSRN5CORBA3AnyEPNS_12ContextIdSeqE @8411
    _ZlSRN5CORBA3AnyEPNS_12InterfaceDef24FullInterfaceDescriptionE @8412
    _ZlSRN5CORBA3AnyEPNS_12StructMemberE @8413
    _ZlSRN5CORBA3AnyEPNS_12ULongLongSeqE @8414
    _ZlSRN5CORBA3AnyEPNS_12WStringValueE @8415
    _ZlSRN5CORBA3AnyEPNS_13EnumMemberSeqE @8416
    _ZlSRN5CORBA3AnyEPNS_13LongDoubleSeqE @8417
    _ZlSRN5CORBA3AnyEPNS_14InitializerSeqE @8418
    _ZlSRN5CORBA3AnyEPNS_14UnionMemberSeqE @8419
    _ZlSRN5CORBA3AnyEPNS_14ValueMemberSeqE @8420
    _ZlSRN5CORBA3AnyEPNS_15ExceptionDefSeqE @8421
    _ZlSRN5CORBA3AnyEPNS_15InterfaceDefSeqE @8422
    _ZlSRN5CORBA3AnyEPNS_15RepositoryIdSeqE @8423
    _ZlSRN5CORBA3AnyEPNS_15StructMemberSeqE @8424
    _ZlSRN5CORBA3AnyEPNS_15TypeDescriptionE @8425
    _ZlSRN5CORBA3AnyEPNS_15_objref_EnumDefE @8426
    _ZlSRN5CORBA3AnyEPNS_15_objref_IDLTypeE @8427
    _ZlSRN5CORBA3AnyEPNS_16OpDescriptionSeqE @8428
    _ZlSRN5CORBA3AnyEPNS_16ValueDescriptionE @8429
    _ZlSRN5CORBA3AnyEPNS_16_objref_AliasDefE @8430
    _ZlSRN5CORBA3AnyEPNS_16_objref_ArrayDefE @8431
    _ZlSRN5CORBA3AnyEPNS_16_objref_FixedDefE @8432
    _ZlSRN5CORBA3AnyEPNS_16_objref_IRObjectE @8433
    _ZlSRN5CORBA3AnyEPNS_16_objref_UnionDefE @8434
    _ZlSRN5CORBA3AnyEPNS_16_objref_ValueDefE @8435
    _ZlSRN5CORBA3AnyEPNS_17ExcDescriptionSeqE @8436
    _ZlSRN5CORBA3AnyEPNS_17ModuleDescriptionE @8437
    _ZlSRN5CORBA3AnyEPNS_17ParDescriptionSeqE @8438
    _ZlSRN5CORBA3AnyEPNS_17_objref_ContainedE @8439
    _ZlSRN5CORBA3AnyEPNS_17_objref_ContainerE @8440
    _ZlSRN5CORBA3AnyEPNS_17_objref_ModuleDefE @8441
    _ZlSRN5CORBA3AnyEPNS_17_objref_NativeDefE @8442
    _ZlSRN5CORBA3AnyEPNS_17_objref_StringDefE @8443
    _ZlSRN5CORBA3AnyEPNS_17_objref_StructDefE @8444
    _ZlSRN5CORBA3AnyEPNS_18AttrDescriptionSeqE @8445
    _ZlSRN5CORBA3AnyEPNS_18_objref_RepositoryE @8446
    _ZlSRN5CORBA3AnyEPNS_18_objref_TypedefDefE @8447
    _ZlSRN5CORBA3AnyEPNS_18_objref_WstringDefE @8448
    _ZlSRN5CORBA3AnyEPNS_19ConstantDescriptionE @8449
    _ZlSRN5CORBA3AnyEPNS_19_objref_ConstantDefE @8450
    _ZlSRN5CORBA3AnyEPNS_19_objref_SequenceDefE @8451
    _ZlSRN5CORBA3AnyEPNS_19_objref_ValueBoxDefE @8452
    _ZlSRN5CORBA3AnyEPNS_20AttributeDescriptionE @8453
    _ZlSRN5CORBA3AnyEPNS_20ExceptionDescriptionE @8454
    _ZlSRN5CORBA3AnyEPNS_20InterfaceDescriptionE @8455
    _ZlSRN5CORBA3AnyEPNS_20OperationDescriptionE @8456
    _ZlSRN5CORBA3AnyEPNS_20ParameterDescriptionE @8457
    _ZlSRN5CORBA3AnyEPNS_20_objref_AttributeDefE @8458
    _ZlSRN5CORBA3AnyEPNS_20_objref_ExceptionDefE @8459
    _ZlSRN5CORBA3AnyEPNS_20_objref_InterfaceDefE @8460
    _ZlSRN5CORBA3AnyEPNS_20_objref_OperationDefE @8461
    _ZlSRN5CORBA3AnyEPNS_20_objref_PrimitiveDefE @8462
    _ZlSRN5CORBA3AnyEPNS_22_objref_ValueMemberDefE @8463
    _ZlSRN5CORBA3AnyEPNS_23AbstractInterfaceDefSeqE @8464
    _ZlSRN5CORBA3AnyEPNS_28_objref_AbstractInterfaceDefE @8465
    _ZlSRN5CORBA3AnyEPNS_6AnySeqE @8466
    _ZlSRN5CORBA3AnyEPNS_7CharSeqE @8467
    _ZlSRN5CORBA3AnyEPNS_7LongSeqE @8468
    _ZlSRN5CORBA3AnyEPNS_8FloatSeqE @8469
    _ZlSRN5CORBA3AnyEPNS_8OctetSeqE @8470
    _ZlSRN5CORBA3AnyEPNS_8ShortSeqE @8471
    _ZlSRN5CORBA3AnyEPNS_8ULongSeqE @8472
    _ZlSRN5CORBA3AnyEPNS_8ValueDef20FullValueDescriptionE @8473
    _ZlSRN5CORBA3AnyEPNS_8WCharSeqE @8474
    _ZlSRN5CORBA3AnyEPNS_9Contained11DescriptionE @8475
    _ZlSRN5CORBA3AnyEPNS_9Container11DescriptionE @8476
    _ZlSRN5CORBA3AnyEPNS_9Container14DescriptionSeqE @8477
    _ZlSRN5CORBA3AnyEPNS_9DoubleSeqE @8478
    _ZlSRN5CORBA3AnyEPNS_9StringSeqE @8479
    _ZlSRN5CORBA3AnyEPNS_9UShortSeqE @8480
    _ZlSRN5CORBA3AnyEPP31_objref_CORBA_InitialReferences @8481
    _ZlSRN5CORBA3AnyEPPN9CosNaming21_objref_NamingContextE @8482
    _ZlSRN5CORBA3AnyEPPN9CosNaming23_objref_BindingIteratorE @8483
    _ZlSRN5CORBA3AnyEPPN9CosNaming24_objref_NamingContextExtE @8484
    _ZlSRN5CORBA3AnyEPPNS_11StringValueE @8485
    _ZlSRN5CORBA3AnyEPPNS_12WStringValueE @8486
    _ZlSRN5CORBA3AnyEPPNS_15_objref_EnumDefE @8487
    _ZlSRN5CORBA3AnyEPPNS_15_objref_IDLTypeE @8488
    _ZlSRN5CORBA3AnyEPPNS_16_objref_AliasDefE @8489
    _ZlSRN5CORBA3AnyEPPNS_16_objref_ArrayDefE @8490
    _ZlSRN5CORBA3AnyEPPNS_16_objref_FixedDefE @8491
    _ZlSRN5CORBA3AnyEPPNS_16_objref_IRObjectE @8492
    _ZlSRN5CORBA3AnyEPPNS_16_objref_UnionDefE @8493
    _ZlSRN5CORBA3AnyEPPNS_16_objref_ValueDefE @8494
    _ZlSRN5CORBA3AnyEPPNS_17_objref_ContainedE @8495
    _ZlSRN5CORBA3AnyEPPNS_17_objref_ContainerE @8496
    _ZlSRN5CORBA3AnyEPPNS_17_objref_ModuleDefE @8497
    _ZlSRN5CORBA3AnyEPPNS_17_objref_NativeDefE @8498
    _ZlSRN5CORBA3AnyEPPNS_17_objref_StringDefE @8499
    _ZlSRN5CORBA3AnyEPPNS_17_objref_StructDefE @8500
    _ZlSRN5CORBA3AnyEPPNS_18_objref_RepositoryE @8501
    _ZlSRN5CORBA3AnyEPPNS_18_objref_TypedefDefE @8502
    _ZlSRN5CORBA3AnyEPPNS_18_objref_WstringDefE @8503
    _ZlSRN5CORBA3AnyEPPNS_19_objref_ConstantDefE @8504
    _ZlSRN5CORBA3AnyEPPNS_19_objref_SequenceDefE @8505
    _ZlSRN5CORBA3AnyEPPNS_19_objref_ValueBoxDefE @8506
    _ZlSRN5CORBA3AnyEPPNS_20_objref_AttributeDefE @8507
    _ZlSRN5CORBA3AnyEPPNS_20_objref_ExceptionDefE @8508
    _ZlSRN5CORBA3AnyEPPNS_20_objref_InterfaceDefE @8509
    _ZlSRN5CORBA3AnyEPPNS_20_objref_OperationDefE @8510
    _ZlSRN5CORBA3AnyEPPNS_20_objref_PrimitiveDefE @8511
    _ZlSRN5CORBA3AnyEPPNS_22_objref_ValueMemberDefE @8512
    _ZlSRN5CORBA3AnyEPPNS_28_objref_AbstractInterfaceDefE @8513
    _ZlSRN5CORBA3AnyERKN10DynamicAny13DynAnyFactory20InconsistentTypeCodeE @8514
    _ZlSRN5CORBA3AnyERKN10DynamicAny6DynAny12InvalidValueE @8515
    _ZlSRN5CORBA3AnyERKN10DynamicAny6DynAny12TypeMismatchE @8516
    _ZlSRN5CORBA3AnyERKN14PortableServer10POAManager15AdapterInactiveE @8517
    _ZlSRN5CORBA3AnyERKN14PortableServer14ForwardRequestE @8518
    _ZlSRN5CORBA3AnyERKN14PortableServer3POA11WrongPolicyE @8519
    _ZlSRN5CORBA3AnyERKN14PortableServer3POA12WrongAdapterE @8520
    _ZlSRN5CORBA3AnyERKN14PortableServer3POA13InvalidPolicyE @8521
    _ZlSRN5CORBA3AnyERKN14PortableServer3POA15ObjectNotActiveE @8522
    _ZlSRN5CORBA3AnyERKN14PortableServer3POA16ServantNotActiveE @8523
