EXPORTS
    _CRT_MT @1 DATA
    _ZN11POA_CosTime11TimeServiceD0Ev @2
    _ZN11POA_CosTime11TimeServiceD1Ev @3
    _ZN11POA_CosTime11TimeServiceD2Ev @4
    _ZN11POA_CosTime3TIOD0Ev @5
    _ZN11POA_CosTime3TIOD1Ev @6
    _ZN11POA_CosTime3TIOD2Ev @7
    _ZN11POA_CosTime3UTOD0Ev @8
    _ZN11POA_CosTime3UTOD1Ev @9
    _ZN11POA_CosTime3UTOD2Ev @10
    _ZN12CosEventComm12Disconnected10_PD_repoIdE @11 DATA
    _ZN12CosEventComm12Disconnected10_PD_typeIdE @12 DATA
    _ZN12CosEventComm12Disconnected13insertToAnyFnE @13 DATA
    _ZN12CosEventComm12Disconnected16insertToAnyFnNCPE @14 DATA
    _ZN12CosEventComm12Disconnected9_downcastEPKN5CORBA9ExceptionE @15
    _ZN12CosEventComm12Disconnected9_downcastEPN5CORBA9ExceptionE @16
    _ZN12CosEventComm12DisconnectedC1ERKS0_ @17
    _ZN12CosEventComm12DisconnectedC2ERKS0_ @18
    _ZN12CosEventComm12DisconnectedD0Ev @19
    _ZN12CosEventComm12DisconnectedD1Ev @20
    _ZN12CosEventComm12DisconnectedD2Ev @21
    _ZN12CosEventComm12DisconnectedaSERKS0_ @22
    _ZN12CosEventComm12PullConsumer10_PD_repoIdE @23 DATA
    _ZN12CosEventComm12PullConsumer10_duplicateEPNS_20_objref_PullConsumerE @24
    _ZN12CosEventComm12PullConsumer17_unchecked_narrowEPN5CORBA6ObjectE @25
    _ZN12CosEventComm12PullConsumer4_nilEv @26
    _ZN12CosEventComm12PullConsumer7_narrowEPN5CORBA6ObjectE @27
    _ZN12CosEventComm12PullSupplier10_PD_repoIdE @28 DATA
    _ZN12CosEventComm12PullSupplier10_duplicateEPNS_20_objref_PullSupplierE @29
    _ZN12CosEventComm12PullSupplier17_unchecked_narrowEPN5CORBA6ObjectE @30
    _ZN12CosEventComm12PullSupplier4_nilEv @31
    _ZN12CosEventComm12PullSupplier7_narrowEPN5CORBA6ObjectE @32
    _ZN12CosEventComm12PushConsumer10_PD_repoIdE @33 DATA
    _ZN12CosEventComm12PushConsumer10_duplicateEPNS_20_objref_PushConsumerE @34
    _ZN12CosEventComm12PushConsumer17_unchecked_narrowEPN5CORBA6ObjectE @35
    _ZN12CosEventComm12PushConsumer4_nilEv @36
    _ZN12CosEventComm12PushConsumer7_narrowEPN5CORBA6ObjectE @37
    _ZN12CosEventComm12PushSupplier10_PD_repoIdE @38 DATA
    _ZN12CosEventComm12PushSupplier10_duplicateEPNS_20_objref_PushSupplierE @39
    _ZN12CosEventComm12PushSupplier17_unchecked_narrowEPN5CORBA6ObjectE @40
    _ZN12CosEventComm12PushSupplier4_nilEv @41
    _ZN12CosEventComm12PushSupplier7_narrowEPN5CORBA6ObjectE @42
    _ZN12CosEventComm17_pof_PullConsumer9newObjRefEP7omniIORP12omniIdentity @43
    _ZN12CosEventComm17_pof_PullConsumerD0Ev @44
    _ZN12CosEventComm17_pof_PullConsumerD1Ev @45
    _ZN12CosEventComm17_pof_PullConsumerD2Ev @46
    _ZN12CosEventComm17_pof_PullSupplier9newObjRefEP7omniIORP12omniIdentity @47
    _ZN12CosEventComm17_pof_PullSupplierD0Ev @48
    _ZN12CosEventComm17_pof_PullSupplierD1Ev @49
    _ZN12CosEventComm17_pof_PullSupplierD2Ev @50
    _ZN12CosEventComm17_pof_PushConsumer9newObjRefEP7omniIORP12omniIdentity @51
    _ZN12CosEventComm17_pof_PushConsumerD0Ev @52
    _ZN12CosEventComm17_pof_PushConsumerD1Ev @53
    _ZN12CosEventComm17_pof_PushConsumerD2Ev @54
    _ZN12CosEventComm17_pof_PushSupplier9newObjRefEP7omniIORP12omniIdentity @55
    _ZN12CosEventComm17_pof_PushSupplierD0Ev @56
    _ZN12CosEventComm17_pof_PushSupplierD1Ev @57
    _ZN12CosEventComm17_pof_PushSupplierD2Ev @58
    _ZN12CosEventComm18_impl_PullConsumer15_ptrToInterfaceEPKc @59
    _ZN12CosEventComm18_impl_PullConsumer18_mostDerivedRepoIdEv @60
    _ZN12CosEventComm18_impl_PullConsumer9_dispatchER14omniCallHandle @61
    _ZN12CosEventComm18_impl_PullConsumerD0Ev @62
    _ZN12CosEventComm18_impl_PullConsumerD1Ev @63
    _ZN12CosEventComm18_impl_PullConsumerD2Ev @64
    _ZN12CosEventComm18_impl_PullSupplier15_ptrToInterfaceEPKc @65
    _ZN12CosEventComm18_impl_PullSupplier18_mostDerivedRepoIdEv @66
    _ZN12CosEventComm18_impl_PullSupplier9_dispatchER14omniCallHandle @67
    _ZN12CosEventComm18_impl_PullSupplierD0Ev @68
    _ZN12CosEventComm18_impl_PullSupplierD1Ev @69
    _ZN12CosEventComm18_impl_PullSupplierD2Ev @70
    _ZN12CosEventComm18_impl_PushConsumer15_ptrToInterfaceEPKc @71
    _ZN12CosEventComm18_impl_PushConsumer18_mostDerivedRepoIdEv @72
    _ZN12CosEventComm18_impl_PushConsumer9_dispatchER14omniCallHandle @73
    _ZN12CosEventComm18_impl_PushConsumerD0Ev @74
    _ZN12CosEventComm18_impl_PushConsumerD1Ev @75
    _ZN12CosEventComm18_impl_PushConsumerD2Ev @76
    _ZN12CosEventComm18_impl_PushSupplier15_ptrToInterfaceEPKc @77
    _ZN12CosEventComm18_impl_PushSupplier18_mostDerivedRepoIdEv @78
    _ZN12CosEventComm18_impl_PushSupplier9_dispatchER14omniCallHandle @79
    _ZN12CosEventComm18_impl_PushSupplierD0Ev @80
    _ZN12CosEventComm18_impl_PushSupplierD1Ev @81
    _ZN12CosEventComm18_impl_PushSupplierD2Ev @82
    _ZN12CosEventComm19PullConsumer_Helper13marshalObjRefEPNS_20_objref_PullConsumerER9cdrStream @83
    _ZN12CosEventComm19PullConsumer_Helper15unmarshalObjRefER9cdrStream @84
    _ZN12CosEventComm19PullConsumer_Helper4_nilEv @85
    _ZN12CosEventComm19PullConsumer_Helper6is_nilEPNS_20_objref_PullConsumerE @86
    _ZN12CosEventComm19PullConsumer_Helper7releaseEPNS_20_objref_PullConsumerE @87
    _ZN12CosEventComm19PullConsumer_Helper9duplicateEPNS_20_objref_PullConsumerE @88
    _ZN12CosEventComm19PullSupplier_Helper13marshalObjRefEPNS_20_objref_PullSupplierER9cdrStream @89
    _ZN12CosEventComm19PullSupplier_Helper15unmarshalObjRefER9cdrStream @90
    _ZN12CosEventComm19PullSupplier_Helper4_nilEv @91
    _ZN12CosEventComm19PullSupplier_Helper6is_nilEPNS_20_objref_PullSupplierE @92
    _ZN12CosEventComm19PullSupplier_Helper7releaseEPNS_20_objref_PullSupplierE @93
    _ZN12CosEventComm19PullSupplier_Helper9duplicateEPNS_20_objref_PullSupplierE @94
    _ZN12CosEventComm19PushConsumer_Helper13marshalObjRefEPNS_20_objref_PushConsumerER9cdrStream @95
    _ZN12CosEventComm19PushConsumer_Helper15unmarshalObjRefER9cdrStream @96
    _ZN12CosEventComm19PushConsumer_Helper4_nilEv @97
    _ZN12CosEventComm19PushConsumer_Helper6is_nilEPNS_20_objref_PushConsumerE @98
    _ZN12CosEventComm19PushConsumer_Helper7releaseEPNS_20_objref_PushConsumerE @99
    _ZN12CosEventComm19PushConsumer_Helper9duplicateEPNS_20_objref_PushConsumerE @100
    _ZN12CosEventComm19PushSupplier_Helper13marshalObjRefEPNS_20_objref_PushSupplierER9cdrStream @101
    _ZN12CosEventComm19PushSupplier_Helper15unmarshalObjRefER9cdrStream @102
    _ZN12CosEventComm19PushSupplier_Helper4_nilEv @103
    _ZN12CosEventComm19PushSupplier_Helper6is_nilEPNS_20_objref_PushSupplierE @104
    _ZN12CosEventComm19PushSupplier_Helper7releaseEPNS_20_objref_PushSupplierE @105
    _ZN12CosEventComm19PushSupplier_Helper9duplicateEPNS_20_objref_PushSupplierE @106
    _ZN12CosEventComm20_objref_PullConsumer12_ptrToObjRefEPKc @107
    _ZN12CosEventComm20_objref_PullConsumer24disconnect_pull_consumerEv @108
    _ZN12CosEventComm20_objref_PullConsumerC1EP7omniIORP12omniIdentity @109
    _ZN12CosEventComm20_objref_PullConsumerC2EP7omniIORP12omniIdentity @110
    _ZN12CosEventComm20_objref_PullConsumerD0Ev @111
    _ZN12CosEventComm20_objref_PullConsumerD1Ev @112
    _ZN12CosEventComm20_objref_PullConsumerD2Ev @113
    _ZN12CosEventComm20_objref_PullSupplier12_ptrToObjRefEPKc @114
    _ZN12CosEventComm20_objref_PullSupplier24disconnect_pull_supplierEv @115
    _ZN12CosEventComm20_objref_PullSupplier4pullEv @116
    _ZN12CosEventComm20_objref_PullSupplier8try_pullERb @117
    _ZN12CosEventComm20_objref_PullSupplierC1EP7omniIORP12omniIdentity @118
    _ZN12CosEventComm20_objref_PullSupplierC2EP7omniIORP12omniIdentity @119
    _ZN12CosEventComm20_objref_PullSupplierD0Ev @120
    _ZN12CosEventComm20_objref_PullSupplierD1Ev @121
    _ZN12CosEventComm20_objref_PullSupplierD2Ev @122
    _ZN12CosEventComm20_objref_PushConsumer12_ptrToObjRefEPKc @123
    _ZN12CosEventComm20_objref_PushConsumer24disconnect_push_consumerEv @124
    _ZN12CosEventComm20_objref_PushConsumer4pushERKN5CORBA3AnyE @125
    _ZN12CosEventComm20_objref_PushConsumerC1EP7omniIORP12omniIdentity @126
    _ZN12CosEventComm20_objref_PushConsumerC2EP7omniIORP12omniIdentity @127
    _ZN12CosEventComm20_objref_PushConsumerD0Ev @128
    _ZN12CosEventComm20_objref_PushConsumerD1Ev @129
    _ZN12CosEventComm20_objref_PushConsumerD2Ev @130
    _ZN12CosEventComm20_objref_PushSupplier12_ptrToObjRefEPKc @131
    _ZN12CosEventComm20_objref_PushSupplier24disconnect_push_supplierEv @132
    _ZN12CosEventComm20_objref_PushSupplierC1EP7omniIORP12omniIdentity @133
    _ZN12CosEventComm20_objref_PushSupplierC2EP7omniIORP12omniIdentity @134
    _ZN12CosEventComm20_objref_PushSupplierD0Ev @135
    _ZN12CosEventComm20_objref_PushSupplierD1Ev @136
    _ZN12CosEventComm20_objref_PushSupplierD2Ev @137
    _ZN12CosLifeCycle10NotMovable10_PD_repoIdE @138 DATA
    _ZN12CosLifeCycle10NotMovable10_PD_typeIdE @139 DATA
    _ZN12CosLifeCycle10NotMovable13insertToAnyFnE @140 DATA
    _ZN12CosLifeCycle10NotMovable16insertToAnyFnNCPE @141 DATA
    _ZN12CosLifeCycle10NotMovable9_downcastEPKN5CORBA9ExceptionE @142
    _ZN12CosLifeCycle10NotMovable9_downcastEPN5CORBA9ExceptionE @143
    _ZN12CosLifeCycle10NotMovableC1EPKc @144
    _ZN12CosLifeCycle10NotMovableC1ERKS0_ @145
    _ZN12CosLifeCycle10NotMovableC2EPKc @146
    _ZN12CosLifeCycle10NotMovableC2ERKS0_ @147
    _ZN12CosLifeCycle10NotMovableD0Ev @148
    _ZN12CosLifeCycle10NotMovableD1Ev @149
    _ZN12CosLifeCycle10NotMovableD2Ev @150
    _ZN12CosLifeCycle10NotMovableaSERKS0_ @151
    _ZN12CosLifeCycle10NotMovablelSER9cdrStream @152
    _ZN12CosLifeCycle11NotCopyable10_PD_repoIdE @153 DATA
    _ZN12CosLifeCycle11NotCopyable10_PD_typeIdE @154 DATA
    _ZN12CosLifeCycle11NotCopyable13insertToAnyFnE @155 DATA
    _ZN12CosLifeCycle11NotCopyable16insertToAnyFnNCPE @156 DATA
    _ZN12CosLifeCycle11NotCopyable9_downcastEPKN5CORBA9ExceptionE @157
    _ZN12CosLifeCycle11NotCopyable9_downcastEPN5CORBA9ExceptionE @158
    _ZN12CosLifeCycle11NotCopyableC1EPKc @159
    _ZN12CosLifeCycle11NotCopyableC1ERKS0_ @160
    _ZN12CosLifeCycle11NotCopyableC2EPKc @161
    _ZN12CosLifeCycle11NotCopyableC2ERKS0_ @162
    _ZN12CosLifeCycle11NotCopyableD0Ev @163
    _ZN12CosLifeCycle11NotCopyableD1Ev @164
    _ZN12CosLifeCycle11NotCopyableD2Ev @165
    _ZN12CosLifeCycle11NotCopyableaSERKS0_ @166
    _ZN12CosLifeCycle11NotCopyablelSER9cdrStream @167
    _ZN12CosLifeCycle12Criteria_varD1Ev @168
    _ZN12CosLifeCycle12NotRemovable10_PD_repoIdE @169 DATA
    _ZN12CosLifeCycle12NotRemovable10_PD_typeIdE @170 DATA
    _ZN12CosLifeCycle12NotRemovable13insertToAnyFnE @171 DATA
    _ZN12CosLifeCycle12NotRemovable16insertToAnyFnNCPE @172 DATA
    _ZN12CosLifeCycle12NotRemovable9_downcastEPKN5CORBA9ExceptionE @173
    _ZN12CosLifeCycle12NotRemovable9_downcastEPN5CORBA9ExceptionE @174
    _ZN12CosLifeCycle12NotRemovableC1EPKc @175
    _ZN12CosLifeCycle12NotRemovableC1ERKS0_ @176
    _ZN12CosLifeCycle12NotRemovableC2EPKc @177
    _ZN12CosLifeCycle12NotRemovableC2ERKS0_ @178
    _ZN12CosLifeCycle12NotRemovableD0Ev @179
    _ZN12CosLifeCycle12NotRemovableD1Ev @180
    _ZN12CosLifeCycle12NotRemovableD2Ev @181
    _ZN12CosLifeCycle12NotRemovableaSERKS0_ @182
    _ZN12CosLifeCycle12NotRemovablelSER9cdrStream @183
    _ZN12CosLifeCycle13FactoryFinder10_PD_repoIdE @184 DATA
    _ZN12CosLifeCycle13FactoryFinder10_duplicateEPNS_21_objref_FactoryFinderE @185
    _ZN12CosLifeCycle13FactoryFinder17_unchecked_narrowEPN5CORBA6ObjectE @186
    _ZN12CosLifeCycle13FactoryFinder4_nilEv @187
    _ZN12CosLifeCycle13FactoryFinder7_narrowEPN5CORBA6ObjectE @188
    _ZN12CosLifeCycle14GenericFactory10_PD_repoIdE @189 DATA
    _ZN12CosLifeCycle14GenericFactory10_duplicateEPNS_22_objref_GenericFactoryE @190
    _ZN12CosLifeCycle14GenericFactory17_unchecked_narrowEPN5CORBA6ObjectE @191
    _ZN12CosLifeCycle14GenericFactory4_nilEv @192
    _ZN12CosLifeCycle14GenericFactory7_narrowEPN5CORBA6ObjectE @193
    _ZN12CosLifeCycle15InvalidCriteria10_PD_repoIdE @194 DATA
    _ZN12CosLifeCycle15InvalidCriteria10_PD_typeIdE @195 DATA
    _ZN12CosLifeCycle15InvalidCriteria13insertToAnyFnE @196 DATA
    _ZN12CosLifeCycle15InvalidCriteria16insertToAnyFnNCPE @197 DATA
    _ZN12CosLifeCycle15InvalidCriteria9_downcastEPKN5CORBA9ExceptionE @198
    _ZN12CosLifeCycle15InvalidCriteria9_downcastEPN5CORBA9ExceptionE @199
    _ZN12CosLifeCycle15InvalidCriteriaC1ENS_8CriteriaE @200
    _ZN12CosLifeCycle15InvalidCriteriaC1ERKS0_ @201
    _ZN12CosLifeCycle15InvalidCriteriaC2ENS_8CriteriaE @202
    _ZN12CosLifeCycle15InvalidCriteriaC2ERKS0_ @203
    _ZN12CosLifeCycle15InvalidCriteriaD0Ev @204
    _ZN12CosLifeCycle15InvalidCriteriaD1Ev @205
    _ZN12CosLifeCycle15InvalidCriteriaD2Ev @206
    _ZN12CosLifeCycle15InvalidCriteriaaSERKS0_ @207
    _ZN12CosLifeCycle15InvalidCriterialSER9cdrStream @208
    _ZN12CosLifeCycle15LifeCycleObject10_PD_repoIdE @209 DATA
    _ZN12CosLifeCycle15LifeCycleObject10_duplicateEPNS_23_objref_LifeCycleObjectE @210
    _ZN12CosLifeCycle15LifeCycleObject17_unchecked_narrowEPN5CORBA6ObjectE @211
    _ZN12CosLifeCycle15LifeCycleObject4_nilEv @212
    _ZN12CosLifeCycle15LifeCycleObject7_narrowEPN5CORBA6ObjectE @213
    _ZN12CosLifeCycle18CannotMeetCriteria10_PD_repoIdE @214 DATA
    _ZN12CosLifeCycle18CannotMeetCriteria10_PD_typeIdE @215 DATA
    _ZN12CosLifeCycle18CannotMeetCriteria13insertToAnyFnE @216 DATA
    _ZN12CosLifeCycle18CannotMeetCriteria16insertToAnyFnNCPE @217 DATA
    _ZN12CosLifeCycle18CannotMeetCriteria9_downcastEPKN5CORBA9ExceptionE @218
    _ZN12CosLifeCycle18CannotMeetCriteria9_downcastEPN5CORBA9ExceptionE @219
    _ZN12CosLifeCycle18CannotMeetCriteriaC1ENS_8CriteriaE @220
    _ZN12CosLifeCycle18CannotMeetCriteriaC1ERKS0_ @221
    _ZN12CosLifeCycle18CannotMeetCriteriaC2ENS_8CriteriaE @222
    _ZN12CosLifeCycle18CannotMeetCriteriaC2ERKS0_ @223
    _ZN12CosLifeCycle18CannotMeetCriteriaD0Ev @224
    _ZN12CosLifeCycle18CannotMeetCriteriaD1Ev @225
    _ZN12CosLifeCycle18CannotMeetCriteriaD2Ev @226
    _ZN12CosLifeCycle18CannotMeetCriteriaaSERKS0_ @227
    _ZN12CosLifeCycle18CannotMeetCriterialSER9cdrStream @228
    _ZN12CosLifeCycle18_pof_FactoryFinder9newObjRefEP7omniIORP12omniIdentity @229
    _ZN12CosLifeCycle18_pof_FactoryFinderD0Ev @230
    _ZN12CosLifeCycle18_pof_FactoryFinderD1Ev @231
    _ZN12CosLifeCycle18_pof_FactoryFinderD2Ev @232
    _ZN12CosLifeCycle19_impl_FactoryFinder15_ptrToInterfaceEPKc @233
    _ZN12CosLifeCycle19_impl_FactoryFinder18_mostDerivedRepoIdEv @234
    _ZN12CosLifeCycle19_impl_FactoryFinder9_dispatchER14omniCallHandle @235
    _ZN12CosLifeCycle19_impl_FactoryFinderD0Ev @236
    _ZN12CosLifeCycle19_impl_FactoryFinderD1Ev @237
    _ZN12CosLifeCycle19_impl_FactoryFinderD2Ev @238
    _ZN12CosLifeCycle19_pof_GenericFactory9newObjRefEP7omniIORP12omniIdentity @239
    _ZN12CosLifeCycle19_pof_GenericFactoryD0Ev @240
    _ZN12CosLifeCycle19_pof_GenericFactoryD1Ev @241
    _ZN12CosLifeCycle19_pof_GenericFactoryD2Ev @242
    _ZN12CosLifeCycle20FactoryFinder_Helper13marshalObjRefEPNS_21_objref_FactoryFinderER9cdrStream @243
    _ZN12CosLifeCycle20FactoryFinder_Helper15unmarshalObjRefER9cdrStream @244
    _ZN12CosLifeCycle20FactoryFinder_Helper4_nilEv @245
    _ZN12CosLifeCycle20FactoryFinder_Helper6is_nilEPNS_21_objref_FactoryFinderE @246
    _ZN12CosLifeCycle20FactoryFinder_Helper7releaseEPNS_21_objref_FactoryFinderE @247
    _ZN12CosLifeCycle20FactoryFinder_Helper9duplicateEPNS_21_objref_FactoryFinderE @248
    _ZN12CosLifeCycle20_impl_GenericFactory15_ptrToInterfaceEPKc @249
    _ZN12CosLifeCycle20_impl_GenericFactory18_mostDerivedRepoIdEv @250
    _ZN12CosLifeCycle20_impl_GenericFactory9_dispatchER14omniCallHandle @251
    _ZN12CosLifeCycle20_impl_GenericFactoryD0Ev @252
    _ZN12CosLifeCycle20_impl_GenericFactoryD1Ev @253
    _ZN12CosLifeCycle20_impl_GenericFactoryD2Ev @254
    _ZN12CosLifeCycle20_pof_LifeCycleObject9newObjRefEP7omniIORP12omniIdentity @255
    _ZN12CosLifeCycle20_pof_LifeCycleObjectD0Ev @256
    _ZN12CosLifeCycle20_pof_LifeCycleObjectD1Ev @257
    _ZN12CosLifeCycle20_pof_LifeCycleObjectD2Ev @258
    _ZN12CosLifeCycle21GenericFactory_Helper13marshalObjRefEPNS_22_objref_GenericFactoryER9cdrStream @259
    _ZN12CosLifeCycle21GenericFactory_Helper15unmarshalObjRefER9cdrStream @260
    _ZN12CosLifeCycle21GenericFactory_Helper4_nilEv @261
    _ZN12CosLifeCycle21GenericFactory_Helper6is_nilEPNS_22_objref_GenericFactoryE @262
    _ZN12CosLifeCycle21GenericFactory_Helper7releaseEPNS_22_objref_GenericFactoryE @263
    _ZN12CosLifeCycle21GenericFactory_Helper9duplicateEPNS_22_objref_GenericFactoryE @264
    _ZN12CosLifeCycle21_impl_LifeCycleObject15_ptrToInterfaceEPKc @265
    _ZN12CosLifeCycle21_impl_LifeCycleObject18_mostDerivedRepoIdEv @266
    _ZN12CosLifeCycle21_impl_LifeCycleObject9_dispatchER14omniCallHandle @267
    _ZN12CosLifeCycle21_impl_LifeCycleObjectD0Ev @268
    _ZN12CosLifeCycle21_impl_LifeCycleObjectD1Ev @269
    _ZN12CosLifeCycle21_impl_LifeCycleObjectD2Ev @270
    _ZN12CosLifeCycle21_objref_FactoryFinder12_ptrToObjRefEPKc @271
    _ZN12CosLifeCycle21_objref_FactoryFinder14find_factoriesERKN9CosNaming4NameE @272
    _ZN12CosLifeCycle21_objref_FactoryFinderC1EP7omniIORP12omniIdentity @273
    _ZN12CosLifeCycle21_objref_FactoryFinderC2EP7omniIORP12omniIdentity @274
    _ZN12CosLifeCycle21_objref_FactoryFinderD0Ev @275
    _ZN12CosLifeCycle21_objref_FactoryFinderD1Ev @276
    _ZN12CosLifeCycle21_objref_FactoryFinderD2Ev @277
    _ZN12CosLifeCycle22LifeCycleObject_Helper13marshalObjRefEPNS_23_objref_LifeCycleObjectER9cdrStream @278
    _ZN12CosLifeCycle22LifeCycleObject_Helper15unmarshalObjRefER9cdrStream @279
    _ZN12CosLifeCycle22LifeCycleObject_Helper4_nilEv @280
    _ZN12CosLifeCycle22LifeCycleObject_Helper6is_nilEPNS_23_objref_LifeCycleObjectE @281
    _ZN12CosLifeCycle22LifeCycleObject_Helper7releaseEPNS_23_objref_LifeCycleObjectE @282
    _ZN12CosLifeCycle22LifeCycleObject_Helper9duplicateEPNS_23_objref_LifeCycleObjectE @283
    _ZN12CosLifeCycle22_objref_GenericFactory12_ptrToObjRefEPKc @284
    _ZN12CosLifeCycle22_objref_GenericFactory13create_objectERKN9CosNaming4NameERKNS_8CriteriaE @285
    _ZN12CosLifeCycle22_objref_GenericFactory8supportsERKN9CosNaming4NameE @286
    _ZN12CosLifeCycle22_objref_GenericFactoryC1EP7omniIORP12omniIdentity @287
    _ZN12CosLifeCycle22_objref_GenericFactoryC2EP7omniIORP12omniIdentity @288
    _ZN12CosLifeCycle22_objref_GenericFactoryD0Ev @289
    _ZN12CosLifeCycle22_objref_GenericFactoryD1Ev @290
    _ZN12CosLifeCycle22_objref_GenericFactoryD2Ev @291
    _ZN12CosLifeCycle23_objref_LifeCycleObject12_ptrToObjRefEPKc @292
    _ZN12CosLifeCycle23_objref_LifeCycleObject4copyEPNS_21_objref_FactoryFinderERKNS_8CriteriaE @293
    _ZN12CosLifeCycle23_objref_LifeCycleObject4moveEPNS_21_objref_FactoryFinderERKNS_8CriteriaE @294
    _ZN12CosLifeCycle23_objref_LifeCycleObject6removeEv @295
    _ZN12CosLifeCycle23_objref_LifeCycleObjectC1EP7omniIORP12omniIdentity @296
    _ZN12CosLifeCycle23_objref_LifeCycleObjectC2EP7omniIORP12omniIdentity @297
    _ZN12CosLifeCycle23_objref_LifeCycleObjectD0Ev @298
    _ZN12CosLifeCycle23_objref_LifeCycleObjectD1Ev @299
    _ZN12CosLifeCycle23_objref_LifeCycleObjectD2Ev @300
    _ZN12CosLifeCycle3NVPD1Ev @301
    _ZN12CosLifeCycle3NVPlSER9cdrStream @302
    _ZN12CosLifeCycle8CriteriaD1Ev @303
    _ZN12CosLifeCycle8CriteriaaSERKS0_ @304
    _ZN12CosLifeCycle9NoFactory10_PD_repoIdE @305 DATA
    _ZN12CosLifeCycle9NoFactory10_PD_typeIdE @306 DATA
    _ZN12CosLifeCycle9NoFactory13insertToAnyFnE @307 DATA
    _ZN12CosLifeCycle9NoFactory16insertToAnyFnNCPE @308 DATA
    _ZN12CosLifeCycle9NoFactory9_downcastEPKN5CORBA9ExceptionE @309
    _ZN12CosLifeCycle9NoFactory9_downcastEPN5CORBA9ExceptionE @310
    _ZN12CosLifeCycle9NoFactoryC1EN9CosNaming4NameE @311
    _ZN12CosLifeCycle9NoFactoryC1ERKS0_ @312
    _ZN12CosLifeCycle9NoFactoryC2EN9CosNaming4NameE @313
    _ZN12CosLifeCycle9NoFactoryC2ERKS0_ @314
    _ZN12CosLifeCycle9NoFactoryD0Ev @315
    _ZN12CosLifeCycle9NoFactoryD1Ev @316
    _ZN12CosLifeCycle9NoFactoryD2Ev @317
    _ZN12CosLifeCycle9NoFactoryaSERKS0_ @318
    _ZN12CosLifeCycle9NoFactorylSER9cdrStream @319
    _ZN13CosNotifyComm12PullConsumer10_PD_repoIdE @320 DATA
    _ZN13CosNotifyComm12PullConsumer10_duplicateEPNS_20_objref_PullConsumerE @321
    _ZN13CosNotifyComm12PullConsumer17_unchecked_narrowEPN5CORBA6ObjectE @322
    _ZN13CosNotifyComm12PullConsumer4_nilEv @323
    _ZN13CosNotifyComm12PullConsumer7_narrowEPN5CORBA6ObjectE @324
    _ZN13CosNotifyComm12PullSupplier10_PD_repoIdE @325 DATA
    _ZN13CosNotifyComm12PullSupplier10_duplicateEPNS_20_objref_PullSupplierE @326
    _ZN13CosNotifyComm12PullSupplier17_unchecked_narrowEPN5CORBA6ObjectE @327
    _ZN13CosNotifyComm12PullSupplier4_nilEv @328
    _ZN13CosNotifyComm12PullSupplier7_narrowEPN5CORBA6ObjectE @329
    _ZN13CosNotifyComm12PushConsumer10_PD_repoIdE @330 DATA
    _ZN13CosNotifyComm12PushConsumer10_duplicateEPNS_20_objref_PushConsumerE @331
    _ZN13CosNotifyComm12PushConsumer17_unchecked_narrowEPN5CORBA6ObjectE @332
    _ZN13CosNotifyComm12PushConsumer4_nilEv @333
    _ZN13CosNotifyComm12PushConsumer7_narrowEPN5CORBA6ObjectE @334
    _ZN13CosNotifyComm12PushSupplier10_PD_repoIdE @335 DATA
    _ZN13CosNotifyComm12PushSupplier10_duplicateEPNS_20_objref_PushSupplierE @336
    _ZN13CosNotifyComm12PushSupplier17_unchecked_narrowEPN5CORBA6ObjectE @337
    _ZN13CosNotifyComm12PushSupplier4_nilEv @338
    _ZN13CosNotifyComm12PushSupplier7_narrowEPN5CORBA6ObjectE @339
    _ZN13CosNotifyComm13NotifyPublish10_PD_repoIdE @340 DATA
    _ZN13CosNotifyComm13NotifyPublish10_duplicateEPNS_21_objref_NotifyPublishE @341
    _ZN13CosNotifyComm13NotifyPublish17_unchecked_narrowEPN5CORBA6ObjectE @342
    _ZN13CosNotifyComm13NotifyPublish4_nilEv @343
    _ZN13CosNotifyComm13NotifyPublish7_narrowEPN5CORBA6ObjectE @344
    _ZN13CosNotifyComm15NotifySubscribe10_PD_repoIdE @345 DATA
    _ZN13CosNotifyComm15NotifySubscribe10_duplicateEPNS_23_objref_NotifySubscribeE @346
    _ZN13CosNotifyComm15NotifySubscribe17_unchecked_narrowEPN5CORBA6ObjectE @347
    _ZN13CosNotifyComm15NotifySubscribe4_nilEv @348
    _ZN13CosNotifyComm15NotifySubscribe7_narrowEPN5CORBA6ObjectE @349
    _ZN13CosNotifyComm16InvalidEventType10_PD_repoIdE @350 DATA
    _ZN13CosNotifyComm16InvalidEventType10_PD_typeIdE @351 DATA
    _ZN13CosNotifyComm16InvalidEventType13insertToAnyFnE @352 DATA
    _ZN13CosNotifyComm16InvalidEventType16insertToAnyFnNCPE @353 DATA
    _ZN13CosNotifyComm16InvalidEventType9_downcastEPKN5CORBA9ExceptionE @354
    _ZN13CosNotifyComm16InvalidEventType9_downcastEPN5CORBA9ExceptionE @355
    _ZN13CosNotifyComm16InvalidEventTypeC1ERKN15CosNotification9EventTypeE @356
    _ZN13CosNotifyComm16InvalidEventTypeC1ERKS0_ @357
    _ZN13CosNotifyComm16InvalidEventTypeC2ERKN15CosNotification9EventTypeE @358
    _ZN13CosNotifyComm16InvalidEventTypeC2ERKS0_ @359
    _ZN13CosNotifyComm16InvalidEventTypeD0Ev @360
    _ZN13CosNotifyComm16InvalidEventTypeD1Ev @361
    _ZN13CosNotifyComm16InvalidEventTypeD2Ev @362
    _ZN13CosNotifyComm16InvalidEventTypeaSERKS0_ @363
    _ZN13CosNotifyComm16InvalidEventTypelSER9cdrStream @364
    _ZN13CosNotifyComm17_pof_PullConsumer9newObjRefEP7omniIORP12omniIdentity @365
    _ZN13CosNotifyComm17_pof_PullConsumerD0Ev @366
    _ZN13CosNotifyComm17_pof_PullConsumerD1Ev @367
    _ZN13CosNotifyComm17_pof_PullConsumerD2Ev @368
    _ZN13CosNotifyComm17_pof_PullSupplier9newObjRefEP7omniIORP12omniIdentity @369
    _ZN13CosNotifyComm17_pof_PullSupplierD0Ev @370
    _ZN13CosNotifyComm17_pof_PullSupplierD1Ev @371
    _ZN13CosNotifyComm17_pof_PullSupplierD2Ev @372
    _ZN13CosNotifyComm17_pof_PushConsumer9newObjRefEP7omniIORP12omniIdentity @373
    _ZN13CosNotifyComm17_pof_PushConsumerD0Ev @374
    _ZN13CosNotifyComm17_pof_PushConsumerD1Ev @375
    _ZN13CosNotifyComm17_pof_PushConsumerD2Ev @376
    _ZN13CosNotifyComm17_pof_PushSupplier9newObjRefEP7omniIORP12omniIdentity @377
    _ZN13CosNotifyComm17_pof_PushSupplierD0Ev @378
    _ZN13CosNotifyComm17_pof_PushSupplierD1Ev @379
    _ZN13CosNotifyComm17_pof_PushSupplierD2Ev @380
    _ZN13CosNotifyComm18_impl_PullConsumer15_ptrToInterfaceEPKc @381
    _ZN13CosNotifyComm18_impl_PullConsumer18_mostDerivedRepoIdEv @382
    _ZN13CosNotifyComm18_impl_PullConsumer9_dispatchER14omniCallHandle @383
    _ZN13CosNotifyComm18_impl_PullConsumerD0Ev @384
    _ZN13CosNotifyComm18_impl_PullConsumerD1Ev @385
    _ZN13CosNotifyComm18_impl_PullConsumerD2Ev @386
    _ZN13CosNotifyComm18_impl_PullSupplier15_ptrToInterfaceEPKc @387
    _ZN13CosNotifyComm18_impl_PullSupplier18_mostDerivedRepoIdEv @388
    _ZN13CosNotifyComm18_impl_PullSupplier9_dispatchER14omniCallHandle @389
    _ZN13CosNotifyComm18_impl_PullSupplierD0Ev @390
    _ZN13CosNotifyComm18_impl_PullSupplierD1Ev @391
    _ZN13CosNotifyComm18_impl_PullSupplierD2Ev @392
    _ZN13CosNotifyComm18_impl_PushConsumer15_ptrToInterfaceEPKc @393
    _ZN13CosNotifyComm18_impl_PushConsumer18_mostDerivedRepoIdEv @394
    _ZN13CosNotifyComm18_impl_PushConsumer9_dispatchER14omniCallHandle @395
    _ZN13CosNotifyComm18_impl_PushConsumerD0Ev @396
    _ZN13CosNotifyComm18_impl_PushConsumerD1Ev @397
    _ZN13CosNotifyComm18_impl_PushConsumerD2Ev @398
    _ZN13CosNotifyComm18_impl_PushSupplier15_ptrToInterfaceEPKc @399
    _ZN13CosNotifyComm18_impl_PushSupplier18_mostDerivedRepoIdEv @400
    _ZN13CosNotifyComm18_impl_PushSupplier9_dispatchER14omniCallHandle @401
    _ZN13CosNotifyComm18_impl_PushSupplierD0Ev @402
    _ZN13CosNotifyComm18_impl_PushSupplierD1Ev @403
    _ZN13CosNotifyComm18_impl_PushSupplierD2Ev @404
    _ZN13CosNotifyComm18_pof_NotifyPublish9newObjRefEP7omniIORP12omniIdentity @405
    _ZN13CosNotifyComm18_pof_NotifyPublishD0Ev @406
    _ZN13CosNotifyComm18_pof_NotifyPublishD1Ev @407
    _ZN13CosNotifyComm18_pof_NotifyPublishD2Ev @408
    _ZN13CosNotifyComm19PullConsumer_Helper13marshalObjRefEPNS_20_objref_PullConsumerER9cdrStream @409
    _ZN13CosNotifyComm19PullConsumer_Helper15unmarshalObjRefER9cdrStream @410
    _ZN13CosNotifyComm19PullConsumer_Helper4_nilEv @411
    _ZN13CosNotifyComm19PullConsumer_Helper6is_nilEPNS_20_objref_PullConsumerE @412
    _ZN13CosNotifyComm19PullConsumer_Helper7releaseEPNS_20_objref_PullConsumerE @413
    _ZN13CosNotifyComm19PullConsumer_Helper9duplicateEPNS_20_objref_PullConsumerE @414
    _ZN13CosNotifyComm19PullSupplier_Helper13marshalObjRefEPNS_20_objref_PullSupplierER9cdrStream @415
    _ZN13CosNotifyComm19PullSupplier_Helper15unmarshalObjRefER9cdrStream @416
    _ZN13CosNotifyComm19PullSupplier_Helper4_nilEv @417
    _ZN13CosNotifyComm19PullSupplier_Helper6is_nilEPNS_20_objref_PullSupplierE @418
    _ZN13CosNotifyComm19PullSupplier_Helper7releaseEPNS_20_objref_PullSupplierE @419
    _ZN13CosNotifyComm19PullSupplier_Helper9duplicateEPNS_20_objref_PullSupplierE @420
    _ZN13CosNotifyComm19PushConsumer_Helper13marshalObjRefEPNS_20_objref_PushConsumerER9cdrStream @421
    _ZN13CosNotifyComm19PushConsumer_Helper15unmarshalObjRefER9cdrStream @422
    _ZN13CosNotifyComm19PushConsumer_Helper4_nilEv @423
    _ZN13CosNotifyComm19PushConsumer_Helper6is_nilEPNS_20_objref_PushConsumerE @424
    _ZN13CosNotifyComm19PushConsumer_Helper7releaseEPNS_20_objref_PushConsumerE @425
    _ZN13CosNotifyComm19PushConsumer_Helper9duplicateEPNS_20_objref_PushConsumerE @426
    _ZN13CosNotifyComm19PushSupplier_Helper13marshalObjRefEPNS_20_objref_PushSupplierER9cdrStream @427
    _ZN13CosNotifyComm19PushSupplier_Helper15unmarshalObjRefER9cdrStream @428
    _ZN13CosNotifyComm19PushSupplier_Helper4_nilEv @429
    _ZN13CosNotifyComm19PushSupplier_Helper6is_nilEPNS_20_objref_PushSupplierE @430
    _ZN13CosNotifyComm19PushSupplier_Helper7releaseEPNS_20_objref_PushSupplierE @431
    _ZN13CosNotifyComm19PushSupplier_Helper9duplicateEPNS_20_objref_PushSupplierE @432
    _ZN13CosNotifyComm19_impl_NotifyPublish15_ptrToInterfaceEPKc @433
    _ZN13CosNotifyComm19_impl_NotifyPublish18_mostDerivedRepoIdEv @434
    _ZN13CosNotifyComm19_impl_NotifyPublish9_dispatchER14omniCallHandle @435
    _ZN13CosNotifyComm19_impl_NotifyPublishD0Ev @436
    _ZN13CosNotifyComm19_impl_NotifyPublishD1Ev @437
    _ZN13CosNotifyComm19_impl_NotifyPublishD2Ev @438
    _ZN13CosNotifyComm20NotifyPublish_Helper13marshalObjRefEPNS_21_objref_NotifyPublishER9cdrStream @439
    _ZN13CosNotifyComm20NotifyPublish_Helper15unmarshalObjRefER9cdrStream @440
    _ZN13CosNotifyComm20NotifyPublish_Helper4_nilEv @441
    _ZN13CosNotifyComm20NotifyPublish_Helper6is_nilEPNS_21_objref_NotifyPublishE @442
    _ZN13CosNotifyComm20NotifyPublish_Helper7releaseEPNS_21_objref_NotifyPublishE @443
    _ZN13CosNotifyComm20NotifyPublish_Helper9duplicateEPNS_21_objref_NotifyPublishE @444
    _ZN13CosNotifyComm20SequencePullConsumer10_PD_repoIdE @445 DATA
    _ZN13CosNotifyComm20SequencePullConsumer10_duplicateEPNS_28_objref_SequencePullConsumerE @446
    _ZN13CosNotifyComm20SequencePullConsumer17_unchecked_narrowEPN5CORBA6ObjectE @447
    _ZN13CosNotifyComm20SequencePullConsumer4_nilEv @448
    _ZN13CosNotifyComm20SequencePullConsumer7_narrowEPN5CORBA6ObjectE @449
    _ZN13CosNotifyComm20SequencePullSupplier10_PD_repoIdE @450 DATA
    _ZN13CosNotifyComm20SequencePullSupplier10_duplicateEPNS_28_objref_SequencePullSupplierE @451
    _ZN13CosNotifyComm20SequencePullSupplier17_unchecked_narrowEPN5CORBA6ObjectE @452
    _ZN13CosNotifyComm20SequencePullSupplier4_nilEv @453
    _ZN13CosNotifyComm20SequencePullSupplier7_narrowEPN5CORBA6ObjectE @454
    _ZN13CosNotifyComm20SequencePushConsumer10_PD_repoIdE @455 DATA
    _ZN13CosNotifyComm20SequencePushConsumer10_duplicateEPNS_28_objref_SequencePushConsumerE @456
    _ZN13CosNotifyComm20SequencePushConsumer17_unchecked_narrowEPN5CORBA6ObjectE @457
    _ZN13CosNotifyComm20SequencePushConsumer4_nilEv @458
    _ZN13CosNotifyComm20SequencePushConsumer7_narrowEPN5CORBA6ObjectE @459
    _ZN13CosNotifyComm20SequencePushSupplier10_PD_repoIdE @460 DATA
    _ZN13CosNotifyComm20SequencePushSupplier10_duplicateEPNS_28_objref_SequencePushSupplierE @461
    _ZN13CosNotifyComm20SequencePushSupplier17_unchecked_narrowEPN5CORBA6ObjectE @462
    _ZN13CosNotifyComm20SequencePushSupplier4_nilEv @463
    _ZN13CosNotifyComm20SequencePushSupplier7_narrowEPN5CORBA6ObjectE @464
    _ZN13CosNotifyComm20_objref_PullConsumer12_ptrToObjRefEPKc @465
    _ZN13CosNotifyComm20_objref_PullConsumerC1EP7omniIORP12omniIdentity @466
    _ZN13CosNotifyComm20_objref_PullConsumerC2EP7omniIORP12omniIdentity @467
    _ZN13CosNotifyComm20_objref_PullConsumerD0Ev @468
    _ZN13CosNotifyComm20_objref_PullConsumerD1Ev @469
    _ZN13CosNotifyComm20_objref_PullConsumerD2Ev @470
    _ZN13CosNotifyComm20_objref_PullSupplier12_ptrToObjRefEPKc @471
    _ZN13CosNotifyComm20_objref_PullSupplierC1EP7omniIORP12omniIdentity @472
    _ZN13CosNotifyComm20_objref_PullSupplierC2EP7omniIORP12omniIdentity @473
    _ZN13CosNotifyComm20_objref_PullSupplierD0Ev @474
    _ZN13CosNotifyComm20_objref_PullSupplierD1Ev @475
    _ZN13CosNotifyComm20_objref_PullSupplierD2Ev @476
    _ZN13CosNotifyComm20_objref_PushConsumer12_ptrToObjRefEPKc @477
    _ZN13CosNotifyComm20_objref_PushConsumerC1EP7omniIORP12omniIdentity @478
    _ZN13CosNotifyComm20_objref_PushConsumerC2EP7omniIORP12omniIdentity @479
    _ZN13CosNotifyComm20_objref_PushConsumerD0Ev @480
    _ZN13CosNotifyComm20_objref_PushConsumerD1Ev @481
    _ZN13CosNotifyComm20_objref_PushConsumerD2Ev @482
    _ZN13CosNotifyComm20_objref_PushSupplier12_ptrToObjRefEPKc @483
    _ZN13CosNotifyComm20_objref_PushSupplierC1EP7omniIORP12omniIdentity @484
    _ZN13CosNotifyComm20_objref_PushSupplierC2EP7omniIORP12omniIdentity @485
    _ZN13CosNotifyComm20_objref_PushSupplierD0Ev @486
    _ZN13CosNotifyComm20_objref_PushSupplierD1Ev @487
    _ZN13CosNotifyComm20_objref_PushSupplierD2Ev @488
    _ZN13CosNotifyComm20_pof_NotifySubscribe9newObjRefEP7omniIORP12omniIdentity @489
    _ZN13CosNotifyComm20_pof_NotifySubscribeD0Ev @490
    _ZN13CosNotifyComm20_pof_NotifySubscribeD1Ev @491
    _ZN13CosNotifyComm20_pof_NotifySubscribeD2Ev @492
    _ZN13CosNotifyComm21_impl_NotifySubscribe15_ptrToInterfaceEPKc @493
    _ZN13CosNotifyComm21_impl_NotifySubscribe18_mostDerivedRepoIdEv @494
    _ZN13CosNotifyComm21_impl_NotifySubscribe9_dispatchER14omniCallHandle @495
    _ZN13CosNotifyComm21_impl_NotifySubscribeD0Ev @496
    _ZN13CosNotifyComm21_impl_NotifySubscribeD1Ev @497
    _ZN13CosNotifyComm21_impl_NotifySubscribeD2Ev @498
    _ZN13CosNotifyComm21_objref_NotifyPublish12_ptrToObjRefEPKc @499
    _ZN13CosNotifyComm21_objref_NotifyPublish12offer_changeERKN15CosNotification12EventTypeSeqES4_ @500
    _ZN13CosNotifyComm21_objref_NotifyPublishC1EP7omniIORP12omniIdentity @501
    _ZN13CosNotifyComm21_objref_NotifyPublishC2EP7omniIORP12omniIdentity @502
    _ZN13CosNotifyComm21_objref_NotifyPublishD0Ev @503
    _ZN13CosNotifyComm21_objref_NotifyPublishD1Ev @504
    _ZN13CosNotifyComm21_objref_NotifyPublishD2Ev @505
    _ZN13CosNotifyComm22NotifySubscribe_Helper13marshalObjRefEPNS_23_objref_NotifySubscribeER9cdrStream @506
    _ZN13CosNotifyComm22NotifySubscribe_Helper15unmarshalObjRefER9cdrStream @507
    _ZN13CosNotifyComm22NotifySubscribe_Helper4_nilEv @508
    _ZN13CosNotifyComm22NotifySubscribe_Helper6is_nilEPNS_23_objref_NotifySubscribeE @509
    _ZN13CosNotifyComm22NotifySubscribe_Helper7releaseEPNS_23_objref_NotifySubscribeE @510
    _ZN13CosNotifyComm22NotifySubscribe_Helper9duplicateEPNS_23_objref_NotifySubscribeE @511
    _ZN13CosNotifyComm22StructuredPullConsumer10_PD_repoIdE @512 DATA
    _ZN13CosNotifyComm22StructuredPullConsumer10_duplicateEPNS_30_objref_StructuredPullConsumerE @513
    _ZN13CosNotifyComm22StructuredPullConsumer17_unchecked_narrowEPN5CORBA6ObjectE @514
    _ZN13CosNotifyComm22StructuredPullConsumer4_nilEv @515
    _ZN13CosNotifyComm22StructuredPullConsumer7_narrowEPN5CORBA6ObjectE @516
    _ZN13CosNotifyComm22StructuredPullSupplier10_PD_repoIdE @517 DATA
    _ZN13CosNotifyComm22StructuredPullSupplier10_duplicateEPNS_30_objref_StructuredPullSupplierE @518
    _ZN13CosNotifyComm22StructuredPullSupplier17_unchecked_narrowEPN5CORBA6ObjectE @519
    _ZN13CosNotifyComm22StructuredPullSupplier4_nilEv @520
    _ZN13CosNotifyComm22StructuredPullSupplier7_narrowEPN5CORBA6ObjectE @521
    _ZN13CosNotifyComm22StructuredPushConsumer10_PD_repoIdE @522 DATA
    _ZN13CosNotifyComm22StructuredPushConsumer10_duplicateEPNS_30_objref_StructuredPushConsumerE @523
    _ZN13CosNotifyComm22StructuredPushConsumer17_unchecked_narrowEPN5CORBA6ObjectE @524
    _ZN13CosNotifyComm22StructuredPushConsumer4_nilEv @525
    _ZN13CosNotifyComm22StructuredPushConsumer7_narrowEPN5CORBA6ObjectE @526
    _ZN13CosNotifyComm22StructuredPushSupplier10_PD_repoIdE @527 DATA
    _ZN13CosNotifyComm22StructuredPushSupplier10_duplicateEPNS_30_objref_StructuredPushSupplierE @528
    _ZN13CosNotifyComm22StructuredPushSupplier17_unchecked_narrowEPN5CORBA6ObjectE @529
    _ZN13CosNotifyComm22StructuredPushSupplier4_nilEv @530
    _ZN13CosNotifyComm22StructuredPushSupplier7_narrowEPN5CORBA6ObjectE @531
    _ZN13CosNotifyComm23_objref_NotifySubscribe12_ptrToObjRefEPKc @532
    _ZN13CosNotifyComm23_objref_NotifySubscribe19subscription_changeERKN15CosNotification12EventTypeSeqES4_ @533
    _ZN13CosNotifyComm23_objref_NotifySubscribeC1EP7omniIORP12omniIdentity @534
    _ZN13CosNotifyComm23_objref_NotifySubscribeC2EP7omniIORP12omniIdentity @535
    _ZN13CosNotifyComm23_objref_NotifySubscribeD0Ev @536
    _ZN13CosNotifyComm23_objref_NotifySubscribeD1Ev @537
    _ZN13CosNotifyComm23_objref_NotifySubscribeD2Ev @538
    _ZN13CosNotifyComm25_pof_SequencePullConsumer9newObjRefEP7omniIORP12omniIdentity @539
    _ZN13CosNotifyComm25_pof_SequencePullConsumerD0Ev @540
    _ZN13CosNotifyComm25_pof_SequencePullConsumerD1Ev @541
    _ZN13CosNotifyComm25_pof_SequencePullConsumerD2Ev @542
    _ZN13CosNotifyComm25_pof_SequencePullSupplier9newObjRefEP7omniIORP12omniIdentity @543
    _ZN13CosNotifyComm25_pof_SequencePullSupplierD0Ev @544
    _ZN13CosNotifyComm25_pof_SequencePullSupplierD1Ev @545
    _ZN13CosNotifyComm25_pof_SequencePullSupplierD2Ev @546
    _ZN13CosNotifyComm25_pof_SequencePushConsumer9newObjRefEP7omniIORP12omniIdentity @547
    _ZN13CosNotifyComm25_pof_SequencePushConsumerD0Ev @548
    _ZN13CosNotifyComm25_pof_SequencePushConsumerD1Ev @549
    _ZN13CosNotifyComm25_pof_SequencePushConsumerD2Ev @550
    _ZN13CosNotifyComm25_pof_SequencePushSupplier9newObjRefEP7omniIORP12omniIdentity @551
    _ZN13CosNotifyComm25_pof_SequencePushSupplierD0Ev @552
    _ZN13CosNotifyComm25_pof_SequencePushSupplierD1Ev @553
    _ZN13CosNotifyComm25_pof_SequencePushSupplierD2Ev @554
    _ZN13CosNotifyComm26_impl_SequencePullConsumer15_ptrToInterfaceEPKc @555
    _ZN13CosNotifyComm26_impl_SequencePullConsumer18_mostDerivedRepoIdEv @556
    _ZN13CosNotifyComm26_impl_SequencePullConsumer9_dispatchER14omniCallHandle @557
    _ZN13CosNotifyComm26_impl_SequencePullConsumerD0Ev @558
    _ZN13CosNotifyComm26_impl_SequencePullConsumerD1Ev @559
    _ZN13CosNotifyComm26_impl_SequencePullConsumerD2Ev @560
    _ZN13CosNotifyComm26_impl_SequencePullSupplier15_ptrToInterfaceEPKc @561
    _ZN13CosNotifyComm26_impl_SequencePullSupplier18_mostDerivedRepoIdEv @562
    _ZN13CosNotifyComm26_impl_SequencePullSupplier9_dispatchER14omniCallHandle @563
    _ZN13CosNotifyComm26_impl_SequencePullSupplierD0Ev @564
    _ZN13CosNotifyComm26_impl_SequencePullSupplierD1Ev @565
    _ZN13CosNotifyComm26_impl_SequencePullSupplierD2Ev @566
    _ZN13CosNotifyComm26_impl_SequencePushConsumer15_ptrToInterfaceEPKc @567
    _ZN13CosNotifyComm26_impl_SequencePushConsumer18_mostDerivedRepoIdEv @568
    _ZN13CosNotifyComm26_impl_SequencePushConsumer9_dispatchER14omniCallHandle @569
    _ZN13CosNotifyComm26_impl_SequencePushConsumerD0Ev @570
    _ZN13CosNotifyComm26_impl_SequencePushConsumerD1Ev @571
    _ZN13CosNotifyComm26_impl_SequencePushConsumerD2Ev @572
    _ZN13CosNotifyComm26_impl_SequencePushSupplier15_ptrToInterfaceEPKc @573
    _ZN13CosNotifyComm26_impl_SequencePushSupplier18_mostDerivedRepoIdEv @574
    _ZN13CosNotifyComm26_impl_SequencePushSupplier9_dispatchER14omniCallHandle @575
    _ZN13CosNotifyComm26_impl_SequencePushSupplierD0Ev @576
    _ZN13CosNotifyComm26_impl_SequencePushSupplierD1Ev @577
    _ZN13CosNotifyComm26_impl_SequencePushSupplierD2Ev @578
    _ZN13CosNotifyComm27SequencePullConsumer_Helper13marshalObjRefEPNS_28_objref_SequencePullConsumerER9cdrStream @579
    _ZN13CosNotifyComm27SequencePullConsumer_Helper15unmarshalObjRefER9cdrStream @580
    _ZN13CosNotifyComm27SequencePullConsumer_Helper4_nilEv @581
    _ZN13CosNotifyComm27SequencePullConsumer_Helper6is_nilEPNS_28_objref_SequencePullConsumerE @582
    _ZN13CosNotifyComm27SequencePullConsumer_Helper7releaseEPNS_28_objref_SequencePullConsumerE @583
    _ZN13CosNotifyComm27SequencePullConsumer_Helper9duplicateEPNS_28_objref_SequencePullConsumerE @584
    _ZN13CosNotifyComm27SequencePullSupplier_Helper13marshalObjRefEPNS_28_objref_SequencePullSupplierER9cdrStream @585
    _ZN13CosNotifyComm27SequencePullSupplier_Helper15unmarshalObjRefER9cdrStream @586
    _ZN13CosNotifyComm27SequencePullSupplier_Helper4_nilEv @587
    _ZN13CosNotifyComm27SequencePullSupplier_Helper6is_nilEPNS_28_objref_SequencePullSupplierE @588
    _ZN13CosNotifyComm27SequencePullSupplier_Helper7releaseEPNS_28_objref_SequencePullSupplierE @589
    _ZN13CosNotifyComm27SequencePullSupplier_Helper9duplicateEPNS_28_objref_SequencePullSupplierE @590
    _ZN13CosNotifyComm27SequencePushConsumer_Helper13marshalObjRefEPNS_28_objref_SequencePushConsumerER9cdrStream @591
    _ZN13CosNotifyComm27SequencePushConsumer_Helper15unmarshalObjRefER9cdrStream @592
    _ZN13CosNotifyComm27SequencePushConsumer_Helper4_nilEv @593
    _ZN13CosNotifyComm27SequencePushConsumer_Helper6is_nilEPNS_28_objref_SequencePushConsumerE @594
    _ZN13CosNotifyComm27SequencePushConsumer_Helper7releaseEPNS_28_objref_SequencePushConsumerE @595
    _ZN13CosNotifyComm27SequencePushConsumer_Helper9duplicateEPNS_28_objref_SequencePushConsumerE @596
    _ZN13CosNotifyComm27SequencePushSupplier_Helper13marshalObjRefEPNS_28_objref_SequencePushSupplierER9cdrStream @597
    _ZN13CosNotifyComm27SequencePushSupplier_Helper15unmarshalObjRefER9cdrStream @598
    _ZN13CosNotifyComm27SequencePushSupplier_Helper4_nilEv @599
    _ZN13CosNotifyComm27SequencePushSupplier_Helper6is_nilEPNS_28_objref_SequencePushSupplierE @600
    _ZN13CosNotifyComm27SequencePushSupplier_Helper7releaseEPNS_28_objref_SequencePushSupplierE @601
    _ZN13CosNotifyComm27SequencePushSupplier_Helper9duplicateEPNS_28_objref_SequencePushSupplierE @602
    _ZN13CosNotifyComm27_pof_StructuredPullConsumer9newObjRefEP7omniIORP12omniIdentity @603
    _ZN13CosNotifyComm27_pof_StructuredPullConsumerD0Ev @604
    _ZN13CosNotifyComm27_pof_StructuredPullConsumerD1Ev @605
    _ZN13CosNotifyComm27_pof_StructuredPullConsumerD2Ev @606
    _ZN13CosNotifyComm27_pof_StructuredPullSupplier9newObjRefEP7omniIORP12omniIdentity @607
    _ZN13CosNotifyComm27_pof_StructuredPullSupplierD0Ev @608
    _ZN13CosNotifyComm27_pof_StructuredPullSupplierD1Ev @609
    _ZN13CosNotifyComm27_pof_StructuredPullSupplierD2Ev @610
    _ZN13CosNotifyComm27_pof_StructuredPushConsumer9newObjRefEP7omniIORP12omniIdentity @611
    _ZN13CosNotifyComm27_pof_StructuredPushConsumerD0Ev @612
    _ZN13CosNotifyComm27_pof_StructuredPushConsumerD1Ev @613
    _ZN13CosNotifyComm27_pof_StructuredPushConsumerD2Ev @614
    _ZN13CosNotifyComm27_pof_StructuredPushSupplier9newObjRefEP7omniIORP12omniIdentity @615
    _ZN13CosNotifyComm27_pof_StructuredPushSupplierD0Ev @616
    _ZN13CosNotifyComm27_pof_StructuredPushSupplierD1Ev @617
    _ZN13CosNotifyComm27_pof_StructuredPushSupplierD2Ev @618
    _ZN13CosNotifyComm28_impl_StructuredPullConsumer15_ptrToInterfaceEPKc @619
    _ZN13CosNotifyComm28_impl_StructuredPullConsumer18_mostDerivedRepoIdEv @620
    _ZN13CosNotifyComm28_impl_StructuredPullConsumer9_dispatchER14omniCallHandle @621
    _ZN13CosNotifyComm28_impl_StructuredPullConsumerD0Ev @622
    _ZN13CosNotifyComm28_impl_StructuredPullConsumerD1Ev @623
    _ZN13CosNotifyComm28_impl_StructuredPullConsumerD2Ev @624
    _ZN13CosNotifyComm28_impl_StructuredPullSupplier15_ptrToInterfaceEPKc @625
    _ZN13CosNotifyComm28_impl_StructuredPullSupplier18_mostDerivedRepoIdEv @626
    _ZN13CosNotifyComm28_impl_StructuredPullSupplier9_dispatchER14omniCallHandle @627
    _ZN13CosNotifyComm28_impl_StructuredPullSupplierD0Ev @628
    _ZN13CosNotifyComm28_impl_StructuredPullSupplierD1Ev @629
    _ZN13CosNotifyComm28_impl_StructuredPullSupplierD2Ev @630
    _ZN13CosNotifyComm28_impl_StructuredPushConsumer15_ptrToInterfaceEPKc @631
    _ZN13CosNotifyComm28_impl_StructuredPushConsumer18_mostDerivedRepoIdEv @632
    _ZN13CosNotifyComm28_impl_StructuredPushConsumer9_dispatchER14omniCallHandle @633
    _ZN13CosNotifyComm28_impl_StructuredPushConsumerD0Ev @634
    _ZN13CosNotifyComm28_impl_StructuredPushConsumerD1Ev @635
    _ZN13CosNotifyComm28_impl_StructuredPushConsumerD2Ev @636
    _ZN13CosNotifyComm28_impl_StructuredPushSupplier15_ptrToInterfaceEPKc @637
    _ZN13CosNotifyComm28_impl_StructuredPushSupplier18_mostDerivedRepoIdEv @638
    _ZN13CosNotifyComm28_impl_StructuredPushSupplier9_dispatchER14omniCallHandle @639
    _ZN13CosNotifyComm28_impl_StructuredPushSupplierD0Ev @640
    _ZN13CosNotifyComm28_impl_StructuredPushSupplierD1Ev @641
    _ZN13CosNotifyComm28_impl_StructuredPushSupplierD2Ev @642
    _ZN13CosNotifyComm28_objref_SequencePullConsumer12_ptrToObjRefEPKc @643
    _ZN13CosNotifyComm28_objref_SequencePullConsumer33disconnect_sequence_pull_consumerEv @644
    _ZN13CosNotifyComm28_objref_SequencePullConsumerC1EP7omniIORP12omniIdentity @645
    _ZN13CosNotifyComm28_objref_SequencePullConsumerC2EP7omniIORP12omniIdentity @646
    _ZN13CosNotifyComm28_objref_SequencePullConsumerD0Ev @647
    _ZN13CosNotifyComm28_objref_SequencePullConsumerD1Ev @648
    _ZN13CosNotifyComm28_objref_SequencePullConsumerD2Ev @649
    _ZN13CosNotifyComm28_objref_SequencePullSupplier12_ptrToObjRefEPKc @650
    _ZN13CosNotifyComm28_objref_SequencePullSupplier22pull_structured_eventsEl @651
    _ZN13CosNotifyComm28_objref_SequencePullSupplier26try_pull_structured_eventsElRb @652
    _ZN13CosNotifyComm28_objref_SequencePullSupplier33disconnect_sequence_pull_supplierEv @653
    _ZN13CosNotifyComm28_objref_SequencePullSupplierC1EP7omniIORP12omniIdentity @654
    _ZN13CosNotifyComm28_objref_SequencePullSupplierC2EP7omniIORP12omniIdentity @655
    _ZN13CosNotifyComm28_objref_SequencePullSupplierD0Ev @656
    _ZN13CosNotifyComm28_objref_SequencePullSupplierD1Ev @657
    _ZN13CosNotifyComm28_objref_SequencePullSupplierD2Ev @658
    _ZN13CosNotifyComm28_objref_SequencePushConsumer12_ptrToObjRefEPKc @659
    _ZN13CosNotifyComm28_objref_SequencePushConsumer22push_structured_eventsERKN15CosNotification10EventBatchE @660
    _ZN13CosNotifyComm28_objref_SequencePushConsumer33disconnect_sequence_push_consumerEv @661
    _ZN13CosNotifyComm28_objref_SequencePushConsumerC1EP7omniIORP12omniIdentity @662
    _ZN13CosNotifyComm28_objref_SequencePushConsumerC2EP7omniIORP12omniIdentity @663
    _ZN13CosNotifyComm28_objref_SequencePushConsumerD0Ev @664
    _ZN13CosNotifyComm28_objref_SequencePushConsumerD1Ev @665
    _ZN13CosNotifyComm28_objref_SequencePushConsumerD2Ev @666
    _ZN13CosNotifyComm28_objref_SequencePushSupplier12_ptrToObjRefEPKc @667
    _ZN13CosNotifyComm28_objref_SequencePushSupplier33disconnect_sequence_push_supplierEv @668
    _ZN13CosNotifyComm28_objref_SequencePushSupplierC1EP7omniIORP12omniIdentity @669
    _ZN13CosNotifyComm28_objref_SequencePushSupplierC2EP7omniIORP12omniIdentity @670
    _ZN13CosNotifyComm28_objref_SequencePushSupplierD0Ev @671
    _ZN13CosNotifyComm28_objref_SequencePushSupplierD1Ev @672
    _ZN13CosNotifyComm28_objref_SequencePushSupplierD2Ev @673
    _ZN13CosNotifyComm29StructuredPullConsumer_Helper13marshalObjRefEPNS_30_objref_StructuredPullConsumerER9cdrStream @674
    _ZN13CosNotifyComm29StructuredPullConsumer_Helper15unmarshalObjRefER9cdrStream @675
    _ZN13CosNotifyComm29StructuredPullConsumer_Helper4_nilEv @676
    _ZN13CosNotifyComm29StructuredPullConsumer_Helper6is_nilEPNS_30_objref_StructuredPullConsumerE @677
    _ZN13CosNotifyComm29StructuredPullConsumer_Helper7releaseEPNS_30_objref_StructuredPullConsumerE @678
    _ZN13CosNotifyComm29StructuredPullConsumer_Helper9duplicateEPNS_30_objref_StructuredPullConsumerE @679
    _ZN13CosNotifyComm29StructuredPullSupplier_Helper13marshalObjRefEPNS_30_objref_StructuredPullSupplierER9cdrStream @680
    _ZN13CosNotifyComm29StructuredPullSupplier_Helper15unmarshalObjRefER9cdrStream @681
    _ZN13CosNotifyComm29StructuredPullSupplier_Helper4_nilEv @682
    _ZN13CosNotifyComm29StructuredPullSupplier_Helper6is_nilEPNS_30_objref_StructuredPullSupplierE @683
    _ZN13CosNotifyComm29StructuredPullSupplier_Helper7releaseEPNS_30_objref_StructuredPullSupplierE @684
    _ZN13CosNotifyComm29StructuredPullSupplier_Helper9duplicateEPNS_30_objref_StructuredPullSupplierE @685
    _ZN13CosNotifyComm29StructuredPushConsumer_Helper13marshalObjRefEPNS_30_objref_StructuredPushConsumerER9cdrStream @686
    _ZN13CosNotifyComm29StructuredPushConsumer_Helper15unmarshalObjRefER9cdrStream @687
    _ZN13CosNotifyComm29StructuredPushConsumer_Helper4_nilEv @688
    _ZN13CosNotifyComm29StructuredPushConsumer_Helper6is_nilEPNS_30_objref_StructuredPushConsumerE @689
    _ZN13CosNotifyComm29StructuredPushConsumer_Helper7releaseEPNS_30_objref_StructuredPushConsumerE @690
    _ZN13CosNotifyComm29StructuredPushConsumer_Helper9duplicateEPNS_30_objref_StructuredPushConsumerE @691
    _ZN13CosNotifyComm29StructuredPushSupplier_Helper13marshalObjRefEPNS_30_objref_StructuredPushSupplierER9cdrStream @692
    _ZN13CosNotifyComm29StructuredPushSupplier_Helper15unmarshalObjRefER9cdrStream @693
    _ZN13CosNotifyComm29StructuredPushSupplier_Helper4_nilEv @694
    _ZN13CosNotifyComm29StructuredPushSupplier_Helper6is_nilEPNS_30_objref_StructuredPushSupplierE @695
    _ZN13CosNotifyComm29StructuredPushSupplier_Helper7releaseEPNS_30_objref_StructuredPushSupplierE @696
    _ZN13CosNotifyComm29StructuredPushSupplier_Helper9duplicateEPNS_30_objref_StructuredPushSupplierE @697
    _ZN13CosNotifyComm30_objref_StructuredPullConsumer12_ptrToObjRefEPKc @698
    _ZN13CosNotifyComm30_objref_StructuredPullConsumer35disconnect_structured_pull_consumerEv @699
    _ZN13CosNotifyComm30_objref_StructuredPullConsumerC1EP7omniIORP12omniIdentity @700
    _ZN13CosNotifyComm30_objref_StructuredPullConsumerC2EP7omniIORP12omniIdentity @701
    _ZN13CosNotifyComm30_objref_StructuredPullConsumerD0Ev @702
    _ZN13CosNotifyComm30_objref_StructuredPullConsumerD1Ev @703
    _ZN13CosNotifyComm30_objref_StructuredPullConsumerD2Ev @704
    _ZN13CosNotifyComm30_objref_StructuredPullSupplier12_ptrToObjRefEPKc @705
    _ZN13CosNotifyComm30_objref_StructuredPullSupplier21pull_structured_eventEv @706
    _ZN13CosNotifyComm30_objref_StructuredPullSupplier25try_pull_structured_eventERb @707
    _ZN13CosNotifyComm30_objref_StructuredPullSupplier35disconnect_structured_pull_supplierEv @708
    _ZN13CosNotifyComm30_objref_StructuredPullSupplierC1EP7omniIORP12omniIdentity @709
    _ZN13CosNotifyComm30_objref_StructuredPullSupplierC2EP7omniIORP12omniIdentity @710
    _ZN13CosNotifyComm30_objref_StructuredPullSupplierD0Ev @711
    _ZN13CosNotifyComm30_objref_StructuredPullSupplierD1Ev @712
    _ZN13CosNotifyComm30_objref_StructuredPullSupplierD2Ev @713
    _ZN13CosNotifyComm30_objref_StructuredPushConsumer12_ptrToObjRefEPKc @714
    _ZN13CosNotifyComm30_objref_StructuredPushConsumer21push_structured_eventERKN15CosNotification15StructuredEventE @715
    _ZN13CosNotifyComm30_objref_StructuredPushConsumer35disconnect_structured_push_consumerEv @716
    _ZN13CosNotifyComm30_objref_StructuredPushConsumerC1EP7omniIORP12omniIdentity @717
    _ZN13CosNotifyComm30_objref_StructuredPushConsumerC2EP7omniIORP12omniIdentity @718
    _ZN13CosNotifyComm30_objref_StructuredPushConsumerD0Ev @719
    _ZN13CosNotifyComm30_objref_StructuredPushConsumerD1Ev @720
    _ZN13CosNotifyComm30_objref_StructuredPushConsumerD2Ev @721
    _ZN13CosNotifyComm30_objref_StructuredPushSupplier12_ptrToObjRefEPKc @722
    _ZN13CosNotifyComm30_objref_StructuredPushSupplier35disconnect_structured_push_supplierEv @723
    _ZN13CosNotifyComm30_objref_StructuredPushSupplierC1EP7omniIORP12omniIdentity @724
    _ZN13CosNotifyComm30_objref_StructuredPushSupplierC2EP7omniIORP12omniIdentity @725
    _ZN13CosNotifyComm30_objref_StructuredPushSupplierD0Ev @726
    _ZN13CosNotifyComm30_objref_StructuredPushSupplierD1Ev @727
    _ZN13CosNotifyComm30_objref_StructuredPushSupplierD2Ev @728
    _ZN15CosNotification11EventHeaderD1Ev @729
    _ZN15CosNotification11EventHeaderlSER9cdrStream @730
    _ZN15CosNotification11OrderPolicyE @731 DATA
    _ZN15CosNotification11PropertySeqD1Ev @732
    _ZN15CosNotification12MaxConsumersE @733 DATA
    _ZN15CosNotification12MaxSuppliersE @734 DATA
    _ZN15CosNotification13DiscardPolicyE @735 DATA
    _ZN15CosNotification13PropertyErrorD1Ev @736
    _ZN15CosNotification13PropertyErrorlSER9cdrStream @737
    _ZN15CosNotification13PropertyRangelSER9cdrStream @738
    _ZN15CosNotification13_pof_QoSAdmin9newObjRefEP7omniIORP12omniIdentity @739
    _ZN15CosNotification13_pof_QoSAdminD0Ev @740
    _ZN15CosNotification13_pof_QoSAdminD1Ev @741
    _ZN15CosNotification13_pof_QoSAdminD2Ev @742
    _ZN15CosNotification14MaxQueueLengthE @743 DATA
    _ZN15CosNotification14PacingIntervalE @744 DATA
    _ZN15CosNotification14UnsupportedQoS10_PD_repoIdE @745 DATA
    _ZN15CosNotification14UnsupportedQoS10_PD_typeIdE @746 DATA
    _ZN15CosNotification14UnsupportedQoS13insertToAnyFnE @747 DATA
    _ZN15CosNotification14UnsupportedQoS16insertToAnyFnNCPE @748 DATA
    _ZN15CosNotification14UnsupportedQoS9_downcastEPKN5CORBA9ExceptionE @749
    _ZN15CosNotification14UnsupportedQoS9_downcastEPN5CORBA9ExceptionE @750
    _ZN15CosNotification14UnsupportedQoSC1ENS_16PropertyErrorSeqE @751
    _ZN15CosNotification14UnsupportedQoSC1ERKS0_ @752
    _ZN15CosNotification14UnsupportedQoSC2ENS_16PropertyErrorSeqE @753
    _ZN15CosNotification14UnsupportedQoSC2ERKS0_ @754
    _ZN15CosNotification14UnsupportedQoSD0Ev @755
    _ZN15CosNotification14UnsupportedQoSD1Ev @756
    _ZN15CosNotification14UnsupportedQoSD2Ev @757
    _ZN15CosNotification14UnsupportedQoSaSERKS0_ @758
    _ZN15CosNotification14UnsupportedQoSlSER9cdrStream @759
    _ZN15CosNotification14_impl_QoSAdmin15_ptrToInterfaceEPKc @760
    _ZN15CosNotification14_impl_QoSAdmin18_mostDerivedRepoIdEv @761
    _ZN15CosNotification14_impl_QoSAdmin9_dispatchER14omniCallHandle @762
    _ZN15CosNotification14_impl_QoSAdminD0Ev @763
    _ZN15CosNotification14_impl_QoSAdminD1Ev @764
    _ZN15CosNotification14_impl_QoSAdminD2Ev @765
    _ZN15CosNotification15PropertySeq_varD1Ev @766
    _ZN15CosNotification15QoSAdmin_Helper13marshalObjRefEPNS_16_objref_QoSAdminER9cdrStream @767
    _ZN15CosNotification15QoSAdmin_Helper15unmarshalObjRefER9cdrStream @768
    _ZN15CosNotification15QoSAdmin_Helper4_nilEv @769
    _ZN15CosNotification15QoSAdmin_Helper6is_nilEPNS_16_objref_QoSAdminE @770
    _ZN15CosNotification15QoSAdmin_Helper7releaseEPNS_16_objref_QoSAdminE @771
    _ZN15CosNotification15QoSAdmin_Helper9duplicateEPNS_16_objref_QoSAdminE @772
    _ZN15CosNotification15RejectNewEventsE @773 DATA
    _ZN15CosNotification15StructuredEventD1Ev @774
    _ZN15CosNotification15StructuredEventlSER9cdrStream @775
    _ZN15CosNotification16EventReliabilityE @776 DATA
    _ZN15CosNotification16EventTypeSeq_varD1Ev @777
    _ZN15CosNotification16FixedEventHeaderD1Ev @778
    _ZN15CosNotification16FixedEventHeaderlSER9cdrStream @779
    _ZN15CosNotification16MaximumBatchSizeE @780 DATA
    _ZN15CosNotification16PropertyErrorSeqD1Ev @781
    _ZN15CosNotification16UnsupportedAdmin10_PD_repoIdE @782 DATA
    _ZN15CosNotification16UnsupportedAdmin10_PD_typeIdE @783 DATA
    _ZN15CosNotification16UnsupportedAdmin13insertToAnyFnE @784 DATA
    _ZN15CosNotification16UnsupportedAdmin16insertToAnyFnNCPE @785 DATA
    _ZN15CosNotification16UnsupportedAdmin9_downcastEPKN5CORBA9ExceptionE @786
    _ZN15CosNotification16UnsupportedAdmin9_downcastEPN5CORBA9ExceptionE @787
    _ZN15CosNotification16UnsupportedAdminC1ENS_16PropertyErrorSeqE @788
    _ZN15CosNotification16UnsupportedAdminC1ERKS0_ @789
    _ZN15CosNotification16UnsupportedAdminC2ENS_16PropertyErrorSeqE @790
    _ZN15CosNotification16UnsupportedAdminC2ERKS0_ @791
    _ZN15CosNotification16UnsupportedAdminD0Ev @792
    _ZN15CosNotification16UnsupportedAdminD1Ev @793
    _ZN15CosNotification16UnsupportedAdminD2Ev @794
    _ZN15CosNotification16UnsupportedAdminaSERKS0_ @795
    _ZN15CosNotification16UnsupportedAdminlSER9cdrStream @796
    _ZN15CosNotification16_objref_QoSAdmin12_ptrToObjRefEPKc @797
    _ZN15CosNotification16_objref_QoSAdmin12validate_qosERKNS_11PropertySeqENS_25NamedPropertyRangeSeq_outE @798
    _ZN15CosNotification16_objref_QoSAdmin7get_qosEv @799
    _ZN15CosNotification16_objref_QoSAdmin7set_qosERKNS_11PropertySeqE @800
    _ZN15CosNotification16_objref_QoSAdminC1EP7omniIORP12omniIdentity @801
    _ZN15CosNotification16_objref_QoSAdminC2EP7omniIORP12omniIdentity @802
    _ZN15CosNotification16_objref_QoSAdminD0Ev @803
    _ZN15CosNotification16_objref_QoSAdminD1Ev @804
    _ZN15CosNotification16_objref_QoSAdminD2Ev @805
    _ZN15CosNotification17StopTimeSupportedE @806 DATA
    _ZN15CosNotification18NamedPropertyRangeD1Ev @807
    _ZN15CosNotification18NamedPropertyRangelSER9cdrStream @808
    _ZN15CosNotification18StartTimeSupportedE @809 DATA
    _ZN15CosNotification20AdminPropertiesAdmin10_PD_repoIdE @810 DATA
    _ZN15CosNotification20AdminPropertiesAdmin10_duplicateEPNS_28_objref_AdminPropertiesAdminE @811
    _ZN15CosNotification20AdminPropertiesAdmin17_unchecked_narrowEPN5CORBA6ObjectE @812
    _ZN15CosNotification20AdminPropertiesAdmin4_nilEv @813
    _ZN15CosNotification20AdminPropertiesAdmin7_narrowEPN5CORBA6ObjectE @814
    _ZN15CosNotification20MaxEventsPerConsumerE @815 DATA
    _ZN15CosNotification21ConnectionReliabilityE @816 DATA
    _ZN15CosNotification25_pof_AdminPropertiesAdmin9newObjRefEP7omniIORP12omniIdentity @817
    _ZN15CosNotification25_pof_AdminPropertiesAdminD0Ev @818
    _ZN15CosNotification25_pof_AdminPropertiesAdminD1Ev @819
    _ZN15CosNotification25_pof_AdminPropertiesAdminD2Ev @820
    _ZN15CosNotification26_impl_AdminPropertiesAdmin15_ptrToInterfaceEPKc @821
    _ZN15CosNotification26_impl_AdminPropertiesAdmin18_mostDerivedRepoIdEv @822
    _ZN15CosNotification26_impl_AdminPropertiesAdmin9_dispatchER14omniCallHandle @823
    _ZN15CosNotification26_impl_AdminPropertiesAdminD0Ev @824
    _ZN15CosNotification26_impl_AdminPropertiesAdminD1Ev @825
    _ZN15CosNotification26_impl_AdminPropertiesAdminD2Ev @826
    _ZN15CosNotification27AdminPropertiesAdmin_Helper13marshalObjRefEPNS_28_objref_AdminPropertiesAdminER9cdrStream @827
    _ZN15CosNotification27AdminPropertiesAdmin_Helper15unmarshalObjRefER9cdrStream @828
    _ZN15CosNotification27AdminPropertiesAdmin_Helper4_nilEv @829
    _ZN15CosNotification27AdminPropertiesAdmin_Helper6is_nilEPNS_28_objref_AdminPropertiesAdminE @830
    _ZN15CosNotification27AdminPropertiesAdmin_Helper7releaseEPNS_28_objref_AdminPropertiesAdminE @831
    _ZN15CosNotification27AdminPropertiesAdmin_Helper9duplicateEPNS_28_objref_AdminPropertiesAdminE @832
    _ZN15CosNotification28_objref_AdminPropertiesAdmin12_ptrToObjRefEPKc @833
    _ZN15CosNotification28_objref_AdminPropertiesAdmin9get_adminEv @834
    _ZN15CosNotification28_objref_AdminPropertiesAdmin9set_adminERKNS_11PropertySeqE @835
    _ZN15CosNotification28_objref_AdminPropertiesAdminC1EP7omniIORP12omniIdentity @836
    _ZN15CosNotification28_objref_AdminPropertiesAdminC2EP7omniIORP12omniIdentity @837
    _ZN15CosNotification28_objref_AdminPropertiesAdminD0Ev @838
    _ZN15CosNotification28_objref_AdminPropertiesAdminD1Ev @839
    _ZN15CosNotification28_objref_AdminPropertiesAdminD2Ev @840
    _ZN15CosNotification7TimeoutE @841 DATA
    _ZN15CosNotification8PriorityE @842 DATA
    _ZN15CosNotification8PropertyD1Ev @843
    _ZN15CosNotification8PropertylSER9cdrStream @844
    _ZN15CosNotification8QoSAdmin10_PD_repoIdE @845 DATA
    _ZN15CosNotification8QoSAdmin10_duplicateEPNS_16_objref_QoSAdminE @846
    _ZN15CosNotification8QoSAdmin17_unchecked_narrowEPN5CORBA6ObjectE @847
    _ZN15CosNotification8QoSAdmin4_nilEv @848
    _ZN15CosNotification8QoSAdmin7_narrowEPN5CORBA6ObjectE @849
    _ZN15CosNotification8StopTimeE @850 DATA
    _ZN15CosNotification9EventTypeD1Ev @851
    _ZN15CosNotification9EventTypelSER9cdrStream @852
    _ZN15CosNotification9StartTimeE @853 DATA
    _ZN15CosNotifyFilter11FilterAdmin10_PD_repoIdE @854 DATA
    _ZN15CosNotifyFilter11FilterAdmin10_duplicateEPNS_19_objref_FilterAdminE @855
    _ZN15CosNotifyFilter11FilterAdmin17_unchecked_narrowEPN5CORBA6ObjectE @856
    _ZN15CosNotifyFilter11FilterAdmin4_nilEv @857
    _ZN15CosNotifyFilter11FilterAdmin7_narrowEPN5CORBA6ObjectE @858
    _ZN15CosNotifyFilter11_pof_Filter9newObjRefEP7omniIORP12omniIdentity @859
    _ZN15CosNotifyFilter11_pof_FilterD0Ev @860
    _ZN15CosNotifyFilter11_pof_FilterD1Ev @861
    _ZN15CosNotifyFilter11_pof_FilterD2Ev @862
    _ZN15CosNotifyFilter12InvalidValue10_PD_repoIdE @863 DATA
    _ZN15CosNotifyFilter12InvalidValue10_PD_typeIdE @864 DATA
    _ZN15CosNotifyFilter12InvalidValue13insertToAnyFnE @865 DATA
    _ZN15CosNotifyFilter12InvalidValue16insertToAnyFnNCPE @866 DATA
    _ZN15CosNotifyFilter12InvalidValue9_downcastEPKN5CORBA9ExceptionE @867
    _ZN15CosNotifyFilter12InvalidValue9_downcastEPN5CORBA9ExceptionE @868
    _ZN15CosNotifyFilter12InvalidValueC1ERKNS_13ConstraintExpERKN5CORBA3AnyE @869
    _ZN15CosNotifyFilter12InvalidValueC1ERKS0_ @870
    _ZN15CosNotifyFilter12InvalidValueC1Ev @871
    _ZN15CosNotifyFilter12InvalidValueC2ERKNS_13ConstraintExpERKN5CORBA3AnyE @872
    _ZN15CosNotifyFilter12InvalidValueC2ERKS0_ @873
    _ZN15CosNotifyFilter12InvalidValueD0Ev @874
    _ZN15CosNotifyFilter12InvalidValueD1Ev @875
    _ZN15CosNotifyFilter12InvalidValueD2Ev @876
    _ZN15CosNotifyFilter12InvalidValueaSERKS0_ @877
    _ZN15CosNotifyFilter12InvalidValuelSER9cdrStream @878
    _ZN15CosNotifyFilter12_impl_Filter15_ptrToInterfaceEPKc @879
    _ZN15CosNotifyFilter12_impl_Filter18_mostDerivedRepoIdEv @880
    _ZN15CosNotifyFilter12_impl_Filter9_dispatchER14omniCallHandle @881
    _ZN15CosNotifyFilter12_impl_FilterD0Ev @882
    _ZN15CosNotifyFilter12_impl_FilterD1Ev @883
    _ZN15CosNotifyFilter12_impl_FilterD2Ev @884
    _ZN15CosNotifyFilter13ConstraintExpD1Ev @885
    _ZN15CosNotifyFilter13ConstraintExpaSERKS0_ @886
    _ZN15CosNotifyFilter13ConstraintExplSER9cdrStream @887
    _ZN15CosNotifyFilter13FilterFactory10_PD_repoIdE @888 DATA
    _ZN15CosNotifyFilter13FilterFactory10_duplicateEPNS_21_objref_FilterFactoryE @889
    _ZN15CosNotifyFilter13FilterFactory17_unchecked_narrowEPN5CORBA6ObjectE @890
    _ZN15CosNotifyFilter13FilterFactory4_nilEv @891
    _ZN15CosNotifyFilter13FilterFactory7_narrowEPN5CORBA6ObjectE @892
    _ZN15CosNotifyFilter13Filter_Helper13marshalObjRefEPNS_14_objref_FilterER9cdrStream @893
    _ZN15CosNotifyFilter13Filter_Helper15unmarshalObjRefER9cdrStream @894
    _ZN15CosNotifyFilter13Filter_Helper4_nilEv @895
    _ZN15CosNotifyFilter13Filter_Helper6is_nilEPNS_14_objref_FilterE @896
    _ZN15CosNotifyFilter13Filter_Helper7releaseEPNS_14_objref_FilterE @897
    _ZN15CosNotifyFilter13Filter_Helper9duplicateEPNS_14_objref_FilterE @898
    _ZN15CosNotifyFilter13MappingFilter10_PD_repoIdE @899 DATA
    _ZN15CosNotifyFilter13MappingFilter10_duplicateEPNS_21_objref_MappingFilterE @900
    _ZN15CosNotifyFilter13MappingFilter17_unchecked_narrowEPN5CORBA6ObjectE @901
    _ZN15CosNotifyFilter13MappingFilter4_nilEv @902
    _ZN15CosNotifyFilter13MappingFilter7_narrowEPN5CORBA6ObjectE @903
    _ZN15CosNotifyFilter14ConstraintInfolSER9cdrStream @904
    _ZN15CosNotifyFilter14FilterNotFound10_PD_repoIdE @905 DATA
    _ZN15CosNotifyFilter14FilterNotFound10_PD_typeIdE @906 DATA
    _ZN15CosNotifyFilter14FilterNotFound13insertToAnyFnE @907 DATA
    _ZN15CosNotifyFilter14FilterNotFound16insertToAnyFnNCPE @908 DATA
    _ZN15CosNotifyFilter14FilterNotFound9_downcastEPKN5CORBA9ExceptionE @909
    _ZN15CosNotifyFilter14FilterNotFound9_downcastEPN5CORBA9ExceptionE @910
    _ZN15CosNotifyFilter14FilterNotFoundC1ERKS0_ @911
    _ZN15CosNotifyFilter14FilterNotFoundC2ERKS0_ @912
    _ZN15CosNotifyFilter14FilterNotFoundD0Ev @913
    _ZN15CosNotifyFilter14FilterNotFoundD1Ev @914
    _ZN15CosNotifyFilter14FilterNotFoundD2Ev @915
    _ZN15CosNotifyFilter14FilterNotFoundaSERKS0_ @916
    _ZN15CosNotifyFilter14InvalidGrammar10_PD_repoIdE @917 DATA
    _ZN15CosNotifyFilter14InvalidGrammar10_PD_typeIdE @918 DATA
    _ZN15CosNotifyFilter14InvalidGrammar13insertToAnyFnE @919 DATA
    _ZN15CosNotifyFilter14InvalidGrammar16insertToAnyFnNCPE @920 DATA
    _ZN15CosNotifyFilter14InvalidGrammar9_downcastEPKN5CORBA9ExceptionE @921
    _ZN15CosNotifyFilter14InvalidGrammar9_downcastEPN5CORBA9ExceptionE @922
    _ZN15CosNotifyFilter14InvalidGrammarC1ERKS0_ @923
    _ZN15CosNotifyFilter14InvalidGrammarC2ERKS0_ @924
    _ZN15CosNotifyFilter14InvalidGrammarD0Ev @925
    _ZN15CosNotifyFilter14InvalidGrammarD1Ev @926
    _ZN15CosNotifyFilter14InvalidGrammarD2Ev @927
    _ZN15CosNotifyFilter14InvalidGrammaraSERKS0_ @928
    _ZN15CosNotifyFilter14_objref_Filter11match_typedERKN15CosNotification11PropertySeqE @929
    _ZN15CosNotifyFilter14_objref_Filter12_ptrToObjRefEPKc @930
    _ZN15CosNotifyFilter14_objref_Filter13get_callbacksEv @931
    _ZN15CosNotifyFilter14_objref_Filter15add_constraintsERKNS_16ConstraintExpSeqE @932
    _ZN15CosNotifyFilter14_objref_Filter15attach_callbackEPN13CosNotifyComm23_objref_NotifySubscribeE @933
    _ZN15CosNotifyFilter14_objref_Filter15detach_callbackEl @934
    _ZN15CosNotifyFilter14_objref_Filter15get_constraintsERKNS_15ConstraintIDSeqE @935
    _ZN15CosNotifyFilter14_objref_Filter16match_structuredERKN15CosNotification15StructuredEventE @936
    _ZN15CosNotifyFilter14_objref_Filter18constraint_grammarEv @937
    _ZN15CosNotifyFilter14_objref_Filter18modify_constraintsERKNS_15ConstraintIDSeqERKNS_17ConstraintInfoSeqE @938
    _ZN15CosNotifyFilter14_objref_Filter19get_all_constraintsEv @939
    _ZN15CosNotifyFilter14_objref_Filter22remove_all_constraintsEv @940
    _ZN15CosNotifyFilter14_objref_Filter5matchERKN5CORBA3AnyE @941
    _ZN15CosNotifyFilter14_objref_Filter7destroyEv @942
    _ZN15CosNotifyFilter14_objref_FilterC1EP7omniIORP12omniIdentity @943
    _ZN15CosNotifyFilter14_objref_FilterC2EP7omniIORP12omniIdentity @944
    _ZN15CosNotifyFilter14_objref_FilterD0Ev @945
    _ZN15CosNotifyFilter14_objref_FilterD1Ev @946
    _ZN15CosNotifyFilter14_objref_FilterD2Ev @947
    _ZN15CosNotifyFilter16CallbackNotFound10_PD_repoIdE @948 DATA
    _ZN15CosNotifyFilter16CallbackNotFound10_PD_typeIdE @949 DATA
    _ZN15CosNotifyFilter16CallbackNotFound13insertToAnyFnE @950 DATA
    _ZN15CosNotifyFilter16CallbackNotFound16insertToAnyFnNCPE @951 DATA
    _ZN15CosNotifyFilter16CallbackNotFound9_downcastEPKN5CORBA9ExceptionE @952
    _ZN15CosNotifyFilter16CallbackNotFound9_downcastEPN5CORBA9ExceptionE @953
    _ZN15CosNotifyFilter16CallbackNotFoundC1ERKS0_ @954
    _ZN15CosNotifyFilter16CallbackNotFoundC2ERKS0_ @955
    _ZN15CosNotifyFilter16CallbackNotFoundD0Ev @956
    _ZN15CosNotifyFilter16CallbackNotFoundD1Ev @957
    _ZN15CosNotifyFilter16CallbackNotFoundD2Ev @958
    _ZN15CosNotifyFilter16CallbackNotFoundaSERKS0_ @959
    _ZN15CosNotifyFilter16_pof_FilterAdmin9newObjRefEP7omniIORP12omniIdentity @960
    _ZN15CosNotifyFilter16_pof_FilterAdminD0Ev @961
    _ZN15CosNotifyFilter16_pof_FilterAdminD1Ev @962
    _ZN15CosNotifyFilter16_pof_FilterAdminD2Ev @963
    _ZN15CosNotifyFilter17InvalidConstraint10_PD_repoIdE @964 DATA
    _ZN15CosNotifyFilter17InvalidConstraint10_PD_typeIdE @965 DATA
    _ZN15CosNotifyFilter17InvalidConstraint13insertToAnyFnE @966 DATA
    _ZN15CosNotifyFilter17InvalidConstraint16insertToAnyFnNCPE @967 DATA
    _ZN15CosNotifyFilter17InvalidConstraint9_downcastEPKN5CORBA9ExceptionE @968
    _ZN15CosNotifyFilter17InvalidConstraint9_downcastEPN5CORBA9ExceptionE @969
    _ZN15CosNotifyFilter17InvalidConstraintC1ERKNS_13ConstraintExpE @970
    _ZN15CosNotifyFilter17InvalidConstraintC1ERKS0_ @971
    _ZN15CosNotifyFilter17InvalidConstraintC2ERKNS_13ConstraintExpE @972
    _ZN15CosNotifyFilter17InvalidConstraintC2ERKS0_ @973
    _ZN15CosNotifyFilter17InvalidConstraintD0Ev @974
    _ZN15CosNotifyFilter17InvalidConstraintD1Ev @975
    _ZN15CosNotifyFilter17InvalidConstraintD2Ev @976
    _ZN15CosNotifyFilter17InvalidConstraintaSERKS0_ @977
    _ZN15CosNotifyFilter17InvalidConstraintlSER9cdrStream @978
    _ZN15CosNotifyFilter17_impl_FilterAdmin15_ptrToInterfaceEPKc @979
    _ZN15CosNotifyFilter17_impl_FilterAdmin18_mostDerivedRepoIdEv @980
    _ZN15CosNotifyFilter17_impl_FilterAdmin9_dispatchER14omniCallHandle @981
    _ZN15CosNotifyFilter17_impl_FilterAdminD0Ev @982
    _ZN15CosNotifyFilter17_impl_FilterAdminD1Ev @983
    _ZN15CosNotifyFilter17_impl_FilterAdminD2Ev @984
    _ZN15CosNotifyFilter18ConstraintNotFound10_PD_repoIdE @985 DATA
    _ZN15CosNotifyFilter18ConstraintNotFound10_PD_typeIdE @986 DATA
    _ZN15CosNotifyFilter18ConstraintNotFound13insertToAnyFnE @987 DATA
    _ZN15CosNotifyFilter18ConstraintNotFound16insertToAnyFnNCPE @988 DATA
    _ZN15CosNotifyFilter18ConstraintNotFound9_downcastEPKN5CORBA9ExceptionE @989
    _ZN15CosNotifyFilter18ConstraintNotFound9_downcastEPN5CORBA9ExceptionE @990
    _ZN15CosNotifyFilter18ConstraintNotFoundC1ERKS0_ @991
    _ZN15CosNotifyFilter18ConstraintNotFoundC1El @992
    _ZN15CosNotifyFilter18ConstraintNotFoundC2ERKS0_ @993
    _ZN15CosNotifyFilter18ConstraintNotFoundC2El @994
    _ZN15CosNotifyFilter18ConstraintNotFoundD0Ev @995
    _ZN15CosNotifyFilter18ConstraintNotFoundD1Ev @996
    _ZN15CosNotifyFilter18ConstraintNotFoundD2Ev @997
    _ZN15CosNotifyFilter18ConstraintNotFoundaSERKS0_ @998
    _ZN15CosNotifyFilter18ConstraintNotFoundlSER9cdrStream @999
    _ZN15CosNotifyFilter18FilterAdmin_Helper13marshalObjRefEPNS_19_objref_FilterAdminER9cdrStream @1000
    _ZN15CosNotifyFilter18FilterAdmin_Helper15unmarshalObjRefER9cdrStream @1001
    _ZN15CosNotifyFilter18FilterAdmin_Helper4_nilEv @1002
    _ZN15CosNotifyFilter18FilterAdmin_Helper6is_nilEPNS_19_objref_FilterAdminE @1003
    _ZN15CosNotifyFilter18FilterAdmin_Helper7releaseEPNS_19_objref_FilterAdminE @1004
    _ZN15CosNotifyFilter18FilterAdmin_Helper9duplicateEPNS_19_objref_FilterAdminE @1005
    _ZN15CosNotifyFilter18_pof_FilterFactory9newObjRefEP7omniIORP12omniIdentity @1006
    _ZN15CosNotifyFilter18_pof_FilterFactoryD0Ev @1007
    _ZN15CosNotifyFilter18_pof_FilterFactoryD1Ev @1008
    _ZN15CosNotifyFilter18_pof_FilterFactoryD2Ev @1009
    _ZN15CosNotifyFilter18_pof_MappingFilter9newObjRefEP7omniIORP12omniIdentity @1010
    _ZN15CosNotifyFilter18_pof_MappingFilterD0Ev @1011
    _ZN15CosNotifyFilter18_pof_MappingFilterD1Ev @1012
    _ZN15CosNotifyFilter18_pof_MappingFilterD2Ev @1013
    _ZN15CosNotifyFilter19ConstraintIDSeq_varD1Ev @1014
    _ZN15CosNotifyFilter19_impl_FilterFactory15_ptrToInterfaceEPKc @1015
    _ZN15CosNotifyFilter19_impl_FilterFactory18_mostDerivedRepoIdEv @1016
    _ZN15CosNotifyFilter19_impl_FilterFactory9_dispatchER14omniCallHandle @1017
    _ZN15CosNotifyFilter19_impl_FilterFactoryD0Ev @1018
    _ZN15CosNotifyFilter19_impl_FilterFactoryD1Ev @1019
    _ZN15CosNotifyFilter19_impl_FilterFactoryD2Ev @1020
    _ZN15CosNotifyFilter19_impl_MappingFilter15_ptrToInterfaceEPKc @1021
    _ZN15CosNotifyFilter19_impl_MappingFilter18_mostDerivedRepoIdEv @1022
    _ZN15CosNotifyFilter19_impl_MappingFilter9_dispatchER14omniCallHandle @1023
    _ZN15CosNotifyFilter19_impl_MappingFilterD0Ev @1024
    _ZN15CosNotifyFilter19_impl_MappingFilterD1Ev @1025
    _ZN15CosNotifyFilter19_impl_MappingFilterD2Ev @1026
    _ZN15CosNotifyFilter19_objref_FilterAdmin10add_filterEPNS_14_objref_FilterE @1027
    _ZN15CosNotifyFilter19_objref_FilterAdmin10get_filterEl @1028
    _ZN15CosNotifyFilter19_objref_FilterAdmin12_ptrToObjRefEPKc @1029
    _ZN15CosNotifyFilter19_objref_FilterAdmin13remove_filterEl @1030
    _ZN15CosNotifyFilter19_objref_FilterAdmin15get_all_filtersEv @1031
    _ZN15CosNotifyFilter19_objref_FilterAdmin18remove_all_filtersEv @1032
    _ZN15CosNotifyFilter19_objref_FilterAdminC1EP7omniIORP12omniIdentity @1033
    _ZN15CosNotifyFilter19_objref_FilterAdminC2EP7omniIORP12omniIdentity @1034
    _ZN15CosNotifyFilter19_objref_FilterAdminD0Ev @1035
    _ZN15CosNotifyFilter19_objref_FilterAdminD1Ev @1036
    _ZN15CosNotifyFilter19_objref_FilterAdminD2Ev @1037
    _ZN15CosNotifyFilter20ConstraintExpSeq_varD1Ev @1038
    _ZN15CosNotifyFilter20FilterFactory_Helper13marshalObjRefEPNS_21_objref_FilterFactoryER9cdrStream @1039
    _ZN15CosNotifyFilter20FilterFactory_Helper15unmarshalObjRefER9cdrStream @1040
    _ZN15CosNotifyFilter20FilterFactory_Helper4_nilEv @1041
    _ZN15CosNotifyFilter20FilterFactory_Helper6is_nilEPNS_21_objref_FilterFactoryE @1042
    _ZN15CosNotifyFilter20FilterFactory_Helper7releaseEPNS_21_objref_FilterFactoryE @1043
    _ZN15CosNotifyFilter20FilterFactory_Helper9duplicateEPNS_21_objref_FilterFactoryE @1044
    _ZN15CosNotifyFilter20MappingFilter_Helper13marshalObjRefEPNS_21_objref_MappingFilterER9cdrStream @1045
    _ZN15CosNotifyFilter20MappingFilter_Helper15unmarshalObjRefER9cdrStream @1046
    _ZN15CosNotifyFilter20MappingFilter_Helper4_nilEv @1047
    _ZN15CosNotifyFilter20MappingFilter_Helper6is_nilEPNS_21_objref_MappingFilterE @1048
    _ZN15CosNotifyFilter20MappingFilter_Helper7releaseEPNS_21_objref_MappingFilterE @1049
    _ZN15CosNotifyFilter20MappingFilter_Helper9duplicateEPNS_21_objref_MappingFilterE @1050
    _ZN15CosNotifyFilter21ConstraintInfoSeq_varD1Ev @1051
    _ZN15CosNotifyFilter21DuplicateConstraintID10_PD_repoIdE @1052 DATA
    _ZN15CosNotifyFilter21DuplicateConstraintID10_PD_typeIdE @1053 DATA
    _ZN15CosNotifyFilter21DuplicateConstraintID13insertToAnyFnE @1054 DATA
    _ZN15CosNotifyFilter21DuplicateConstraintID16insertToAnyFnNCPE @1055 DATA
    _ZN15CosNotifyFilter21DuplicateConstraintID9_downcastEPKN5CORBA9ExceptionE @1056
    _ZN15CosNotifyFilter21DuplicateConstraintID9_downcastEPN5CORBA9ExceptionE @1057
    _ZN15CosNotifyFilter21DuplicateConstraintIDC1ERKS0_ @1058
    _ZN15CosNotifyFilter21DuplicateConstraintIDC1El @1059
    _ZN15CosNotifyFilter21DuplicateConstraintIDC2ERKS0_ @1060
    _ZN15CosNotifyFilter21DuplicateConstraintIDC2El @1061
    _ZN15CosNotifyFilter21DuplicateConstraintIDD0Ev @1062
    _ZN15CosNotifyFilter21DuplicateConstraintIDD1Ev @1063
    _ZN15CosNotifyFilter21DuplicateConstraintIDD2Ev @1064
    _ZN15CosNotifyFilter21DuplicateConstraintIDaSERKS0_ @1065
    _ZN15CosNotifyFilter21DuplicateConstraintIDlSER9cdrStream @1066
    _ZN15CosNotifyFilter21MappingConstraintInfoD1Ev @1067
    _ZN15CosNotifyFilter21MappingConstraintInfolSER9cdrStream @1068
    _ZN15CosNotifyFilter21MappingConstraintPairD1Ev @1069
    _ZN15CosNotifyFilter21MappingConstraintPairlSER9cdrStream @1070
    _ZN15CosNotifyFilter21_objref_FilterFactory12_ptrToObjRefEPKc @1071
    _ZN15CosNotifyFilter21_objref_FilterFactory13create_filterEPKc @1072
    _ZN15CosNotifyFilter21_objref_FilterFactory21create_mapping_filterEPKcRKN5CORBA3AnyE @1073
    _ZN15CosNotifyFilter21_objref_FilterFactoryC1EP7omniIORP12omniIdentity @1074
    _ZN15CosNotifyFilter21_objref_FilterFactoryC2EP7omniIORP12omniIdentity @1075
    _ZN15CosNotifyFilter21_objref_FilterFactoryD0Ev @1076
    _ZN15CosNotifyFilter21_objref_FilterFactoryD1Ev @1077
    _ZN15CosNotifyFilter21_objref_FilterFactoryD2Ev @1078
    _ZN15CosNotifyFilter21_objref_MappingFilter10value_typeEv @1079
    _ZN15CosNotifyFilter21_objref_MappingFilter11match_typedERKN15CosNotification11PropertySeqEN5CORBA11Any_OUT_argE @1080
    _ZN15CosNotifyFilter21_objref_MappingFilter12_ptrToObjRefEPKc @1081
    _ZN15CosNotifyFilter21_objref_MappingFilter13default_valueEv @1082
    _ZN15CosNotifyFilter21_objref_MappingFilter16match_structuredERKN15CosNotification15StructuredEventEN5CORBA11Any_OUT_argE @1083
    _ZN15CosNotifyFilter21_objref_MappingFilter18constraint_grammarEv @1084
    _ZN15CosNotifyFilter21_objref_MappingFilter23add_mapping_constraintsERKNS_24MappingConstraintPairSeqE @1085
    _ZN15CosNotifyFilter21_objref_MappingFilter23get_mapping_constraintsERKNS_15ConstraintIDSeqE @1086
    _ZN15CosNotifyFilter21_objref_MappingFilter26modify_mapping_constraintsERKNS_15ConstraintIDSeqERKNS_24MappingConstraintInfoSeqE @1087
    _ZN15CosNotifyFilter21_objref_MappingFilter27get_all_mapping_constraintsEv @1088
    _ZN15CosNotifyFilter21_objref_MappingFilter30remove_all_mapping_constraintsEv @1089
    _ZN15CosNotifyFilter21_objref_MappingFilter5matchERKN5CORBA3AnyENS1_11Any_OUT_argE @1090
    _ZN15CosNotifyFilter21_objref_MappingFilter7destroyEv @1091
    _ZN15CosNotifyFilter21_objref_MappingFilterC1EP7omniIORP12omniIdentity @1092
    _ZN15CosNotifyFilter21_objref_MappingFilterC2EP7omniIORP12omniIdentity @1093
    _ZN15CosNotifyFilter21_objref_MappingFilterD0Ev @1094
    _ZN15CosNotifyFilter21_objref_MappingFilterD1Ev @1095
    _ZN15CosNotifyFilter21_objref_MappingFilterD2Ev @1096
    _ZN15CosNotifyFilter25UnsupportedFilterableData10_PD_repoIdE @1097 DATA
    _ZN15CosNotifyFilter25UnsupportedFilterableData10_PD_typeIdE @1098 DATA
    _ZN15CosNotifyFilter25UnsupportedFilterableData13insertToAnyFnE @1099 DATA
    _ZN15CosNotifyFilter25UnsupportedFilterableData16insertToAnyFnNCPE @1100 DATA
    _ZN15CosNotifyFilter25UnsupportedFilterableData9_downcastEPKN5CORBA9ExceptionE @1101
    _ZN15CosNotifyFilter25UnsupportedFilterableData9_downcastEPN5CORBA9ExceptionE @1102
    _ZN15CosNotifyFilter25UnsupportedFilterableDataC1ERKS0_ @1103
    _ZN15CosNotifyFilter25UnsupportedFilterableDataC2ERKS0_ @1104
    _ZN15CosNotifyFilter25UnsupportedFilterableDataD0Ev @1105
    _ZN15CosNotifyFilter25UnsupportedFilterableDataD1Ev @1106
    _ZN15CosNotifyFilter25UnsupportedFilterableDataD2Ev @1107
    _ZN15CosNotifyFilter25UnsupportedFilterableDataaSERKS0_ @1108
    _ZN15CosNotifyFilter28MappingConstraintInfoSeq_varD1Ev @1109
    _ZN15CosNotifyFilter28MappingConstraintPairSeq_varD1Ev @1110
    _ZN15CosNotifyFilter6Filter10_PD_repoIdE @1111 DATA
    _ZN15CosNotifyFilter6Filter10_duplicateEPNS_14_objref_FilterE @1112
    _ZN15CosNotifyFilter6Filter17_unchecked_narrowEPN5CORBA6ObjectE @1113
    _ZN15CosNotifyFilter6Filter4_nilEv @1114
    _ZN15CosNotifyFilter6Filter7_narrowEPN5CORBA6ObjectE @1115
    _ZN15_CORBA_SequenceIN12CosLifeCycle3NVPEE6lengthEm @1116
    _ZN15_CORBA_SequenceIN12CosLifeCycle3NVPEE7freebufEPS1_ @1117
    _ZN15_CORBA_SequenceIN15CosNotification13PropertyErrorEE6lengthEm @1118
    _ZN15_CORBA_SequenceIN15CosNotification13PropertyErrorEE7freebufEPS1_ @1119
    _ZN15_CORBA_SequenceIN15CosNotification15StructuredEventEE7freebufEPS1_ @1120
    _ZN15_CORBA_SequenceIN15CosNotification18NamedPropertyRangeEE7freebufEPS1_ @1121
    _ZN15_CORBA_SequenceIN15CosNotification8PropertyEE7freebufEPS1_ @1122
    _ZN15_CORBA_SequenceIN15CosNotification9EventTypeEE7freebufEPS1_ @1123
    _ZN15_CORBA_SequenceIN15CosNotifyFilter13ConstraintExpEE7freebufEPS1_ @1124
    _ZN15_CORBA_SequenceIN15CosNotifyFilter14ConstraintInfoEE7freebufEPS1_ @1125
    _ZN15_CORBA_SequenceIN15CosNotifyFilter21MappingConstraintInfoEE7freebufEPS1_ @1126
    _ZN15_CORBA_SequenceIN15CosNotifyFilter21MappingConstraintPairEE7freebufEPS1_ @1127
    _ZN15_CORBA_SequenceIN9CosNaming13NameComponentEE6lengthEm @1128
    _ZN15_CORBA_SequenceIN9CosNaming13NameComponentEE7freebufEPS1_ @1129
    _ZN16POA_CosEventComm12PullConsumerD0Ev @1130
    _ZN16POA_CosEventComm12PullConsumerD1Ev @1131
    _ZN16POA_CosEventComm12PullConsumerD2Ev @1132
    _ZN16POA_CosEventComm12PullSupplierD0Ev @1133
    _ZN16POA_CosEventComm12PullSupplierD1Ev @1134
    _ZN16POA_CosEventComm12PullSupplierD2Ev @1135
    _ZN16POA_CosEventComm12PushConsumerD0Ev @1136
    _ZN16POA_CosEventComm12PushConsumerD1Ev @1137
    _ZN16POA_CosEventComm12PushConsumerD2Ev @1138
    _ZN16POA_CosEventComm12PushSupplierD0Ev @1139
    _ZN16POA_CosEventComm12PushSupplierD1Ev @1140
    _ZN16POA_CosEventComm12PushSupplierD2Ev @1141
    _ZN16POA_CosLifeCycle13FactoryFinderD0Ev @1142
    _ZN16POA_CosLifeCycle13FactoryFinderD1Ev @1143
    _ZN16POA_CosLifeCycle13FactoryFinderD2Ev @1144
    _ZN16POA_CosLifeCycle14GenericFactoryD0Ev @1145
    _ZN16POA_CosLifeCycle14GenericFactoryD1Ev @1146
    _ZN16POA_CosLifeCycle14GenericFactoryD2Ev @1147
    _ZN16POA_CosLifeCycle15LifeCycleObjectD0Ev @1148
    _ZN16POA_CosLifeCycle15LifeCycleObjectD1Ev @1149
    _ZN16POA_CosLifeCycle15LifeCycleObjectD2Ev @1150
    _ZN17POA_CosNotifyComm12PullConsumerD0Ev @1151
    _ZN17POA_CosNotifyComm12PullConsumerD1Ev @1152
    _ZN17POA_CosNotifyComm12PullConsumerD2Ev @1153
    _ZN17POA_CosNotifyComm12PullSupplierD0Ev @1154
    _ZN17POA_CosNotifyComm12PullSupplierD1Ev @1155
    _ZN17POA_CosNotifyComm12PullSupplierD2Ev @1156
    _ZN17POA_CosNotifyComm12PushConsumerD0Ev @1157
    _ZN17POA_CosNotifyComm12PushConsumerD1Ev @1158
    _ZN17POA_CosNotifyComm12PushConsumerD2Ev @1159
    _ZN17POA_CosNotifyComm12PushSupplierD0Ev @1160
    _ZN17POA_CosNotifyComm12PushSupplierD1Ev @1161
    _ZN17POA_CosNotifyComm12PushSupplierD2Ev @1162
    _ZN17POA_CosNotifyComm13NotifyPublishD0Ev @1163
    _ZN17POA_CosNotifyComm13NotifyPublishD1Ev @1164
    _ZN17POA_CosNotifyComm13NotifyPublishD2Ev @1165
    _ZN17POA_CosNotifyComm15NotifySubscribeD0Ev @1166
    _ZN17POA_CosNotifyComm15NotifySubscribeD1Ev @1167
    _ZN17POA_CosNotifyComm15NotifySubscribeD2Ev @1168
    _ZN17POA_CosNotifyComm20SequencePullConsumerD0Ev @1169
    _ZN17POA_CosNotifyComm20SequencePullConsumerD1Ev @1170
    _ZN17POA_CosNotifyComm20SequencePullConsumerD2Ev @1171
    _ZN17POA_CosNotifyComm20SequencePullSupplierD0Ev @1172
    _ZN17POA_CosNotifyComm20SequencePullSupplierD1Ev @1173
    _ZN17POA_CosNotifyComm20SequencePullSupplierD2Ev @1174
    _ZN17POA_CosNotifyComm20SequencePushConsumerD0Ev @1175
    _ZN17POA_CosNotifyComm20SequencePushConsumerD1Ev @1176
    _ZN17POA_CosNotifyComm20SequencePushConsumerD2Ev @1177
    _ZN17POA_CosNotifyComm20SequencePushSupplierD0Ev @1178
    _ZN17POA_CosNotifyComm20SequencePushSupplierD1Ev @1179
    _ZN17POA_CosNotifyComm20SequencePushSupplierD2Ev @1180
    _ZN17POA_CosNotifyComm22StructuredPullConsumerD0Ev @1181
    _ZN17POA_CosNotifyComm22StructuredPullConsumerD1Ev @1182
    _ZN17POA_CosNotifyComm22StructuredPullConsumerD2Ev @1183
    _ZN17POA_CosNotifyComm22StructuredPullSupplierD0Ev @1184
    _ZN17POA_CosNotifyComm22StructuredPullSupplierD1Ev @1185
    _ZN17POA_CosNotifyComm22StructuredPullSupplierD2Ev @1186
    _ZN17POA_CosNotifyComm22StructuredPushConsumerD0Ev @1187
    _ZN17POA_CosNotifyComm22StructuredPushConsumerD1Ev @1188
    _ZN17POA_CosNotifyComm22StructuredPushConsumerD2Ev @1189
    _ZN17POA_CosNotifyComm22StructuredPushSupplierD0Ev @1190
    _ZN17POA_CosNotifyComm22StructuredPushSupplierD1Ev @1191
    _ZN17POA_CosNotifyComm22StructuredPushSupplierD2Ev @1192
    _ZN19POA_CosNotification20AdminPropertiesAdminD0Ev @1193
    _ZN19POA_CosNotification20AdminPropertiesAdminD1Ev @1194
    _ZN19POA_CosNotification20AdminPropertiesAdminD2Ev @1195
    _ZN19POA_CosNotification8QoSAdminD0Ev @1196
    _ZN19POA_CosNotification8QoSAdminD1Ev @1197
    _ZN19POA_CosNotification8QoSAdminD2Ev @1198
    _ZN19POA_CosNotifyFilter11FilterAdminD0Ev @1199
    _ZN19POA_CosNotifyFilter11FilterAdminD1Ev @1200
    _ZN19POA_CosNotifyFilter11FilterAdminD2Ev @1201
    _ZN19POA_CosNotifyFilter13FilterFactoryD0Ev @1202
    _ZN19POA_CosNotifyFilter13FilterFactoryD1Ev @1203
    _ZN19POA_CosNotifyFilter13FilterFactoryD2Ev @1204
    _ZN19POA_CosNotifyFilter13MappingFilterD0Ev @1205
    _ZN19POA_CosNotifyFilter13MappingFilterD1Ev @1206
    _ZN19POA_CosNotifyFilter13MappingFilterD2Ev @1207
    _ZN19POA_CosNotifyFilter6FilterD0Ev @1208
    _ZN19POA_CosNotifyFilter6FilterD1Ev @1209
    _ZN19POA_CosNotifyFilter6FilterD2Ev @1210
    _ZN20CosEventChannelAdmin12EventChannel10_PD_repoIdE @1211 DATA
    _ZN20CosEventChannelAdmin12EventChannel10_duplicateEPNS_20_objref_EventChannelE @1212
    _ZN20CosEventChannelAdmin12EventChannel17_unchecked_narrowEPN5CORBA6ObjectE @1213
    _ZN20CosEventChannelAdmin12EventChannel4_nilEv @1214
    _ZN20CosEventChannelAdmin12EventChannel7_narrowEPN5CORBA6ObjectE @1215
    _ZN20CosEventChannelAdmin13ConsumerAdmin10_PD_repoIdE @1216 DATA
    _ZN20CosEventChannelAdmin13ConsumerAdmin10_duplicateEPNS_21_objref_ConsumerAdminE @1217
    _ZN20CosEventChannelAdmin13ConsumerAdmin17_unchecked_narrowEPN5CORBA6ObjectE @1218
    _ZN20CosEventChannelAdmin13ConsumerAdmin4_nilEv @1219
    _ZN20CosEventChannelAdmin13ConsumerAdmin7_narrowEPN5CORBA6ObjectE @1220
    _ZN20CosEventChannelAdmin13SupplierAdmin10_PD_repoIdE @1221 DATA
    _ZN20CosEventChannelAdmin13SupplierAdmin10_duplicateEPNS_21_objref_SupplierAdminE @1222
    _ZN20CosEventChannelAdmin13SupplierAdmin17_unchecked_narrowEPN5CORBA6ObjectE @1223
    _ZN20CosEventChannelAdmin13SupplierAdmin4_nilEv @1224
    _ZN20CosEventChannelAdmin13SupplierAdmin7_narrowEPN5CORBA6ObjectE @1225
    _ZN20CosEventChannelAdmin16AlreadyConnected10_PD_repoIdE @1226 DATA
    _ZN20CosEventChannelAdmin16AlreadyConnected10_PD_typeIdE @1227 DATA
    _ZN20CosEventChannelAdmin16AlreadyConnected13insertToAnyFnE @1228 DATA
    _ZN20CosEventChannelAdmin16AlreadyConnected16insertToAnyFnNCPE @1229 DATA
    _ZN20CosEventChannelAdmin16AlreadyConnected9_downcastEPKN5CORBA9ExceptionE @1230
    _ZN20CosEventChannelAdmin16AlreadyConnected9_downcastEPN5CORBA9ExceptionE @1231
    _ZN20CosEventChannelAdmin16AlreadyConnectedC1ERKS0_ @1232
    _ZN20CosEventChannelAdmin16AlreadyConnectedC2ERKS0_ @1233
    _ZN20CosEventChannelAdmin16AlreadyConnectedD0Ev @1234
    _ZN20CosEventChannelAdmin16AlreadyConnectedD1Ev @1235
    _ZN20CosEventChannelAdmin16AlreadyConnectedD2Ev @1236
    _ZN20CosEventChannelAdmin16AlreadyConnectedaSERKS0_ @1237
    _ZN20CosEventChannelAdmin17ProxyPullConsumer10_PD_repoIdE @1238 DATA
    _ZN20CosEventChannelAdmin17ProxyPullConsumer10_duplicateEPNS_25_objref_ProxyPullConsumerE @1239
    _ZN20CosEventChannelAdmin17ProxyPullConsumer17_unchecked_narrowEPN5CORBA6ObjectE @1240
    _ZN20CosEventChannelAdmin17ProxyPullConsumer4_nilEv @1241
    _ZN20CosEventChannelAdmin17ProxyPullConsumer7_narrowEPN5CORBA6ObjectE @1242
    _ZN20CosEventChannelAdmin17ProxyPullSupplier10_PD_repoIdE @1243 DATA
    _ZN20CosEventChannelAdmin17ProxyPullSupplier10_duplicateEPNS_25_objref_ProxyPullSupplierE @1244
    _ZN20CosEventChannelAdmin17ProxyPullSupplier17_unchecked_narrowEPN5CORBA6ObjectE @1245
    _ZN20CosEventChannelAdmin17ProxyPullSupplier4_nilEv @1246
    _ZN20CosEventChannelAdmin17ProxyPullSupplier7_narrowEPN5CORBA6ObjectE @1247
    _ZN20CosEventChannelAdmin17ProxyPushConsumer10_PD_repoIdE @1248 DATA
    _ZN20CosEventChannelAdmin17ProxyPushConsumer10_duplicateEPNS_25_objref_ProxyPushConsumerE @1249
    _ZN20CosEventChannelAdmin17ProxyPushConsumer17_unchecked_narrowEPN5CORBA6ObjectE @1250
    _ZN20CosEventChannelAdmin17ProxyPushConsumer4_nilEv @1251
    _ZN20CosEventChannelAdmin17ProxyPushConsumer7_narrowEPN5CORBA6ObjectE @1252
    _ZN20CosEventChannelAdmin17ProxyPushSupplier10_PD_repoIdE @1253 DATA
    _ZN20CosEventChannelAdmin17ProxyPushSupplier10_duplicateEPNS_25_objref_ProxyPushSupplierE @1254
    _ZN20CosEventChannelAdmin17ProxyPushSupplier17_unchecked_narrowEPN5CORBA6ObjectE @1255
    _ZN20CosEventChannelAdmin17ProxyPushSupplier4_nilEv @1256
    _ZN20CosEventChannelAdmin17ProxyPushSupplier7_narrowEPN5CORBA6ObjectE @1257
    _ZN20CosEventChannelAdmin17_pof_EventChannel9newObjRefEP7omniIORP12omniIdentity @1258
    _ZN20CosEventChannelAdmin17_pof_EventChannelD0Ev @1259
    _ZN20CosEventChannelAdmin17_pof_EventChannelD1Ev @1260
    _ZN20CosEventChannelAdmin17_pof_EventChannelD2Ev @1261
    _ZN20CosEventChannelAdmin18_impl_EventChannel15_ptrToInterfaceEPKc @1262
    _ZN20CosEventChannelAdmin18_impl_EventChannel18_mostDerivedRepoIdEv @1263
    _ZN20CosEventChannelAdmin18_impl_EventChannel9_dispatchER14omniCallHandle @1264
    _ZN20CosEventChannelAdmin18_impl_EventChannelD0Ev @1265
    _ZN20CosEventChannelAdmin18_impl_EventChannelD1Ev @1266
    _ZN20CosEventChannelAdmin18_impl_EventChannelD2Ev @1267
    _ZN20CosEventChannelAdmin18_pof_ConsumerAdmin9newObjRefEP7omniIORP12omniIdentity @1268
    _ZN20CosEventChannelAdmin18_pof_ConsumerAdminD0Ev @1269
    _ZN20CosEventChannelAdmin18_pof_ConsumerAdminD1Ev @1270
    _ZN20CosEventChannelAdmin18_pof_ConsumerAdminD2Ev @1271
    _ZN20CosEventChannelAdmin18_pof_SupplierAdmin9newObjRefEP7omniIORP12omniIdentity @1272
    _ZN20CosEventChannelAdmin18_pof_SupplierAdminD0Ev @1273
    _ZN20CosEventChannelAdmin18_pof_SupplierAdminD1Ev @1274
    _ZN20CosEventChannelAdmin18_pof_SupplierAdminD2Ev @1275
    _ZN20CosEventChannelAdmin19EventChannel_Helper13marshalObjRefEPNS_20_objref_EventChannelER9cdrStream @1276
    _ZN20CosEventChannelAdmin19EventChannel_Helper15unmarshalObjRefER9cdrStream @1277
    _ZN20CosEventChannelAdmin19EventChannel_Helper4_nilEv @1278
    _ZN20CosEventChannelAdmin19EventChannel_Helper6is_nilEPNS_20_objref_EventChannelE @1279
    _ZN20CosEventChannelAdmin19EventChannel_Helper7releaseEPNS_20_objref_EventChannelE @1280
    _ZN20CosEventChannelAdmin19EventChannel_Helper9duplicateEPNS_20_objref_EventChannelE @1281
    _ZN20CosEventChannelAdmin19_impl_ConsumerAdmin15_ptrToInterfaceEPKc @1282
    _ZN20CosEventChannelAdmin19_impl_ConsumerAdmin18_mostDerivedRepoIdEv @1283
    _ZN20CosEventChannelAdmin19_impl_ConsumerAdmin9_dispatchER14omniCallHandle @1284
    _ZN20CosEventChannelAdmin19_impl_ConsumerAdminD0Ev @1285
    _ZN20CosEventChannelAdmin19_impl_ConsumerAdminD1Ev @1286
    _ZN20CosEventChannelAdmin19_impl_ConsumerAdminD2Ev @1287
    _ZN20CosEventChannelAdmin19_impl_SupplierAdmin15_ptrToInterfaceEPKc @1288
    _ZN20CosEventChannelAdmin19_impl_SupplierAdmin18_mostDerivedRepoIdEv @1289
    _ZN20CosEventChannelAdmin19_impl_SupplierAdmin9_dispatchER14omniCallHandle @1290
    _ZN20CosEventChannelAdmin19_impl_SupplierAdminD0Ev @1291
    _ZN20CosEventChannelAdmin19_impl_SupplierAdminD1Ev @1292
    _ZN20CosEventChannelAdmin19_impl_SupplierAdminD2Ev @1293
    _ZN20CosEventChannelAdmin20ConsumerAdmin_Helper13marshalObjRefEPNS_21_objref_ConsumerAdminER9cdrStream @1294
    _ZN20CosEventChannelAdmin20ConsumerAdmin_Helper15unmarshalObjRefER9cdrStream @1295
    _ZN20CosEventChannelAdmin20ConsumerAdmin_Helper4_nilEv @1296
    _ZN20CosEventChannelAdmin20ConsumerAdmin_Helper6is_nilEPNS_21_objref_ConsumerAdminE @1297
    _ZN20CosEventChannelAdmin20ConsumerAdmin_Helper7releaseEPNS_21_objref_ConsumerAdminE @1298
    _ZN20CosEventChannelAdmin20ConsumerAdmin_Helper9duplicateEPNS_21_objref_ConsumerAdminE @1299
    _ZN20CosEventChannelAdmin20SupplierAdmin_Helper13marshalObjRefEPNS_21_objref_SupplierAdminER9cdrStream @1300
    _ZN20CosEventChannelAdmin20SupplierAdmin_Helper15unmarshalObjRefER9cdrStream @1301
    _ZN20CosEventChannelAdmin20SupplierAdmin_Helper4_nilEv @1302
    _ZN20CosEventChannelAdmin20SupplierAdmin_Helper6is_nilEPNS_21_objref_SupplierAdminE @1303
    _ZN20CosEventChannelAdmin20SupplierAdmin_Helper7releaseEPNS_21_objref_SupplierAdminE @1304
    _ZN20CosEventChannelAdmin20SupplierAdmin_Helper9duplicateEPNS_21_objref_SupplierAdminE @1305
    _ZN20CosEventChannelAdmin20_objref_EventChannel12_ptrToObjRefEPKc @1306
    _ZN20CosEventChannelAdmin20_objref_EventChannel13for_consumersEv @1307
    _ZN20CosEventChannelAdmin20_objref_EventChannel13for_suppliersEv @1308
    _ZN20CosEventChannelAdmin20_objref_EventChannel7destroyEv @1309
    _ZN20CosEventChannelAdmin20_objref_EventChannelC1EP7omniIORP12omniIdentity @1310
    _ZN20CosEventChannelAdmin20_objref_EventChannelC2EP7omniIORP12omniIdentity @1311
    _ZN20CosEventChannelAdmin20_objref_EventChannelD0Ev @1312
    _ZN20CosEventChannelAdmin20_objref_EventChannelD1Ev @1313
    _ZN20CosEventChannelAdmin20_objref_EventChannelD2Ev @1314
    _ZN20CosEventChannelAdmin21_objref_ConsumerAdmin12_ptrToObjRefEPKc @1315
    _ZN20CosEventChannelAdmin21_objref_ConsumerAdmin20obtain_pull_supplierEv @1316
    _ZN20CosEventChannelAdmin21_objref_ConsumerAdmin20obtain_push_supplierEv @1317
    _ZN20CosEventChannelAdmin21_objref_ConsumerAdminC1EP7omniIORP12omniIdentity @1318
    _ZN20CosEventChannelAdmin21_objref_ConsumerAdminC2EP7omniIORP12omniIdentity @1319
    _ZN20CosEventChannelAdmin21_objref_ConsumerAdminD0Ev @1320
    _ZN20CosEventChannelAdmin21_objref_ConsumerAdminD1Ev @1321
    _ZN20CosEventChannelAdmin21_objref_ConsumerAdminD2Ev @1322
    _ZN20CosEventChannelAdmin21_objref_SupplierAdmin12_ptrToObjRefEPKc @1323
    _ZN20CosEventChannelAdmin21_objref_SupplierAdmin20obtain_pull_consumerEv @1324
    _ZN20CosEventChannelAdmin21_objref_SupplierAdmin20obtain_push_consumerEv @1325
    _ZN20CosEventChannelAdmin21_objref_SupplierAdminC1EP7omniIORP12omniIdentity @1326
    _ZN20CosEventChannelAdmin21_objref_SupplierAdminC2EP7omniIORP12omniIdentity @1327
    _ZN20CosEventChannelAdmin21_objref_SupplierAdminD0Ev @1328
    _ZN20CosEventChannelAdmin21_objref_SupplierAdminD1Ev @1329
    _ZN20CosEventChannelAdmin21_objref_SupplierAdminD2Ev @1330
    _ZN20CosEventChannelAdmin22_pof_ProxyPullConsumer9newObjRefEP7omniIORP12omniIdentity @1331
    _ZN20CosEventChannelAdmin22_pof_ProxyPullConsumerD0Ev @1332
    _ZN20CosEventChannelAdmin22_pof_ProxyPullConsumerD1Ev @1333
    _ZN20CosEventChannelAdmin22_pof_ProxyPullConsumerD2Ev @1334
    _ZN20CosEventChannelAdmin22_pof_ProxyPullSupplier9newObjRefEP7omniIORP12omniIdentity @1335
    _ZN20CosEventChannelAdmin22_pof_ProxyPullSupplierD0Ev @1336
    _ZN20CosEventChannelAdmin22_pof_ProxyPullSupplierD1Ev @1337
    _ZN20CosEventChannelAdmin22_pof_ProxyPullSupplierD2Ev @1338
    _ZN20CosEventChannelAdmin22_pof_ProxyPushConsumer9newObjRefEP7omniIORP12omniIdentity @1339
    _ZN20CosEventChannelAdmin22_pof_ProxyPushConsumerD0Ev @1340
    _ZN20CosEventChannelAdmin22_pof_ProxyPushConsumerD1Ev @1341
    _ZN20CosEventChannelAdmin22_pof_ProxyPushConsumerD2Ev @1342
    _ZN20CosEventChannelAdmin22_pof_ProxyPushSupplier9newObjRefEP7omniIORP12omniIdentity @1343
    _ZN20CosEventChannelAdmin22_pof_ProxyPushSupplierD0Ev @1344
    _ZN20CosEventChannelAdmin22_pof_ProxyPushSupplierD1Ev @1345
    _ZN20CosEventChannelAdmin22_pof_ProxyPushSupplierD2Ev @1346
    _ZN20CosEventChannelAdmin23_impl_ProxyPullConsumer15_ptrToInterfaceEPKc @1347
    _ZN20CosEventChannelAdmin23_impl_ProxyPullConsumer18_mostDerivedRepoIdEv @1348
    _ZN20CosEventChannelAdmin23_impl_ProxyPullConsumer9_dispatchER14omniCallHandle @1349
    _ZN20CosEventChannelAdmin23_impl_ProxyPullConsumerD0Ev @1350
    _ZN20CosEventChannelAdmin23_impl_ProxyPullConsumerD1Ev @1351
    _ZN20CosEventChannelAdmin23_impl_ProxyPullConsumerD2Ev @1352
    _ZN20CosEventChannelAdmin23_impl_ProxyPullSupplier15_ptrToInterfaceEPKc @1353
    _ZN20CosEventChannelAdmin23_impl_ProxyPullSupplier18_mostDerivedRepoIdEv @1354
    _ZN20CosEventChannelAdmin23_impl_ProxyPullSupplier9_dispatchER14omniCallHandle @1355
    _ZN20CosEventChannelAdmin23_impl_ProxyPullSupplierD0Ev @1356
    _ZN20CosEventChannelAdmin23_impl_ProxyPullSupplierD1Ev @1357
    _ZN20CosEventChannelAdmin23_impl_ProxyPullSupplierD2Ev @1358
    _ZN20CosEventChannelAdmin23_impl_ProxyPushConsumer15_ptrToInterfaceEPKc @1359
    _ZN20CosEventChannelAdmin23_impl_ProxyPushConsumer18_mostDerivedRepoIdEv @1360
    _ZN20CosEventChannelAdmin23_impl_ProxyPushConsumer9_dispatchER14omniCallHandle @1361
    _ZN20CosEventChannelAdmin23_impl_ProxyPushConsumerD0Ev @1362
    _ZN20CosEventChannelAdmin23_impl_ProxyPushConsumerD1Ev @1363
    _ZN20CosEventChannelAdmin23_impl_ProxyPushConsumerD2Ev @1364
    _ZN20CosEventChannelAdmin23_impl_ProxyPushSupplier15_ptrToInterfaceEPKc @1365
    _ZN20CosEventChannelAdmin23_impl_ProxyPushSupplier18_mostDerivedRepoIdEv @1366
    _ZN20CosEventChannelAdmin23_impl_ProxyPushSupplier9_dispatchER14omniCallHandle @1367
    _ZN20CosEventChannelAdmin23_impl_ProxyPushSupplierD0Ev @1368
    _ZN20CosEventChannelAdmin23_impl_ProxyPushSupplierD1Ev @1369
    _ZN20CosEventChannelAdmin23_impl_ProxyPushSupplierD2Ev @1370
    _ZN20CosEventChannelAdmin24ProxyPullConsumer_Helper13marshalObjRefEPNS_25_objref_ProxyPullConsumerER9cdrStream @1371
    _ZN20CosEventChannelAdmin24ProxyPullConsumer_Helper15unmarshalObjRefER9cdrStream @1372
    _ZN20CosEventChannelAdmin24ProxyPullConsumer_Helper4_nilEv @1373
    _ZN20CosEventChannelAdmin24ProxyPullConsumer_Helper6is_nilEPNS_25_objref_ProxyPullConsumerE @1374
    _ZN20CosEventChannelAdmin24ProxyPullConsumer_Helper7releaseEPNS_25_objref_ProxyPullConsumerE @1375
    _ZN20CosEventChannelAdmin24ProxyPullConsumer_Helper9duplicateEPNS_25_objref_ProxyPullConsumerE @1376
    _ZN20CosEventChannelAdmin24ProxyPullSupplier_Helper13marshalObjRefEPNS_25_objref_ProxyPullSupplierER9cdrStream @1377
    _ZN20CosEventChannelAdmin24ProxyPullSupplier_Helper15unmarshalObjRefER9cdrStream @1378
    _ZN20CosEventChannelAdmin24ProxyPullSupplier_Helper4_nilEv @1379
    _ZN20CosEventChannelAdmin24ProxyPullSupplier_Helper6is_nilEPNS_25_objref_ProxyPullSupplierE @1380
    _ZN20CosEventChannelAdmin24ProxyPullSupplier_Helper7releaseEPNS_25_objref_ProxyPullSupplierE @1381
    _ZN20CosEventChannelAdmin24ProxyPullSupplier_Helper9duplicateEPNS_25_objref_ProxyPullSupplierE @1382
    _ZN20CosEventChannelAdmin24ProxyPushConsumer_Helper13marshalObjRefEPNS_25_objref_ProxyPushConsumerER9cdrStream @1383
    _ZN20CosEventChannelAdmin24ProxyPushConsumer_Helper15unmarshalObjRefER9cdrStream @1384
    _ZN20CosEventChannelAdmin24ProxyPushConsumer_Helper4_nilEv @1385
    _ZN20CosEventChannelAdmin24ProxyPushConsumer_Helper6is_nilEPNS_25_objref_ProxyPushConsumerE @1386
    _ZN20CosEventChannelAdmin24ProxyPushConsumer_Helper7releaseEPNS_25_objref_ProxyPushConsumerE @1387
    _ZN20CosEventChannelAdmin24ProxyPushConsumer_Helper9duplicateEPNS_25_objref_ProxyPushConsumerE @1388
    _ZN20CosEventChannelAdmin24ProxyPushSupplier_Helper13marshalObjRefEPNS_25_objref_ProxyPushSupplierER9cdrStream @1389
    _ZN20CosEventChannelAdmin24ProxyPushSupplier_Helper15unmarshalObjRefER9cdrStream @1390
    _ZN20CosEventChannelAdmin24ProxyPushSupplier_Helper4_nilEv @1391
    _ZN20CosEventChannelAdmin24ProxyPushSupplier_Helper6is_nilEPNS_25_objref_ProxyPushSupplierE @1392
    _ZN20CosEventChannelAdmin24ProxyPushSupplier_Helper7releaseEPNS_25_objref_ProxyPushSupplierE @1393
    _ZN20CosEventChannelAdmin24ProxyPushSupplier_Helper9duplicateEPNS_25_objref_ProxyPushSupplierE @1394
    _ZN20CosEventChannelAdmin25_objref_ProxyPullConsumer12_ptrToObjRefEPKc @1395
    _ZN20CosEventChannelAdmin25_objref_ProxyPullConsumer21connect_pull_supplierEPN12CosEventComm20_objref_PullSupplierE @1396
    _ZN20CosEventChannelAdmin25_objref_ProxyPullConsumerC1EP7omniIORP12omniIdentity @1397
    _ZN20CosEventChannelAdmin25_objref_ProxyPullConsumerC2EP7omniIORP12omniIdentity @1398
    _ZN20CosEventChannelAdmin25_objref_ProxyPullConsumerD0Ev @1399
    _ZN20CosEventChannelAdmin25_objref_ProxyPullConsumerD1Ev @1400
    _ZN20CosEventChannelAdmin25_objref_ProxyPullConsumerD2Ev @1401
    _ZN20CosEventChannelAdmin25_objref_ProxyPullSupplier12_ptrToObjRefEPKc @1402
    _ZN20CosEventChannelAdmin25_objref_ProxyPullSupplier21connect_pull_consumerEPN12CosEventComm20_objref_PullConsumerE @1403
    _ZN20CosEventChannelAdmin25_objref_ProxyPullSupplierC1EP7omniIORP12omniIdentity @1404
    _ZN20CosEventChannelAdmin25_objref_ProxyPullSupplierC2EP7omniIORP12omniIdentity @1405
    _ZN20CosEventChannelAdmin25_objref_ProxyPullSupplierD0Ev @1406
    _ZN20CosEventChannelAdmin25_objref_ProxyPullSupplierD1Ev @1407
    _ZN20CosEventChannelAdmin25_objref_ProxyPullSupplierD2Ev @1408
    _ZN20CosEventChannelAdmin25_objref_ProxyPushConsumer12_ptrToObjRefEPKc @1409
    _ZN20CosEventChannelAdmin25_objref_ProxyPushConsumer21connect_push_supplierEPN12CosEventComm20_objref_PushSupplierE @1410
    _ZN20CosEventChannelAdmin25_objref_ProxyPushConsumerC1EP7omniIORP12omniIdentity @1411
    _ZN20CosEventChannelAdmin25_objref_ProxyPushConsumerC2EP7omniIORP12omniIdentity @1412
    _ZN20CosEventChannelAdmin25_objref_ProxyPushConsumerD0Ev @1413
    _ZN20CosEventChannelAdmin25_objref_ProxyPushConsumerD1Ev @1414
    _ZN20CosEventChannelAdmin25_objref_ProxyPushConsumerD2Ev @1415
    _ZN20CosEventChannelAdmin25_objref_ProxyPushSupplier12_ptrToObjRefEPKc @1416
    _ZN20CosEventChannelAdmin25_objref_ProxyPushSupplier21connect_push_consumerEPN12CosEventComm20_objref_PushConsumerE @1417
    _ZN20CosEventChannelAdmin25_objref_ProxyPushSupplierC1EP7omniIORP12omniIdentity @1418
    _ZN20CosEventChannelAdmin25_objref_ProxyPushSupplierC2EP7omniIORP12omniIdentity @1419
    _ZN20CosEventChannelAdmin25_objref_ProxyPushSupplierD0Ev @1420
    _ZN20CosEventChannelAdmin25_objref_ProxyPushSupplierD1Ev @1421
    _ZN20CosEventChannelAdmin25_objref_ProxyPushSupplierD2Ev @1422
    _ZN20CosEventChannelAdmin9TypeError10_PD_repoIdE @1423 DATA
    _ZN20CosEventChannelAdmin9TypeError10_PD_typeIdE @1424 DATA
    _ZN20CosEventChannelAdmin9TypeError13insertToAnyFnE @1425 DATA
    _ZN20CosEventChannelAdmin9TypeError16insertToAnyFnNCPE @1426 DATA
    _ZN20CosEventChannelAdmin9TypeError9_downcastEPKN5CORBA9ExceptionE @1427
    _ZN20CosEventChannelAdmin9TypeError9_downcastEPN5CORBA9ExceptionE @1428
    _ZN20CosEventChannelAdmin9TypeErrorC1ERKS0_ @1429
    _ZN20CosEventChannelAdmin9TypeErrorC2ERKS0_ @1430
    _ZN20CosEventChannelAdmin9TypeErrorD0Ev @1431
    _ZN20CosEventChannelAdmin9TypeErrorD1Ev @1432
    _ZN20CosEventChannelAdmin9TypeErrorD2Ev @1433
    _ZN20CosEventChannelAdmin9TypeErroraSERKS0_ @1434
    _ZN20_CORBA_String_helper4freeEPc @1435
    _ZN20_CORBA_String_memberD1Ev @1436
    _ZN20_CORBA_String_memberaSERKS_ @1437
    _ZN21CosNotifyChannelAdmin10AdminLimitD1Ev @1438
    _ZN21CosNotifyChannelAdmin10AdminLimitlSER9cdrStream @1439
    _ZN21CosNotifyChannelAdmin12EventChannel10_PD_repoIdE @1440 DATA
    _ZN21CosNotifyChannelAdmin12EventChannel10_duplicateEPNS_20_objref_EventChannelE @1441
    _ZN21CosNotifyChannelAdmin12EventChannel17_unchecked_narrowEPN5CORBA6ObjectE @1442
    _ZN21CosNotifyChannelAdmin12EventChannel4_nilEv @1443
    _ZN21CosNotifyChannelAdmin12EventChannel7_narrowEPN5CORBA6ObjectE @1444
    _ZN21CosNotifyChannelAdmin12NotConnected10_PD_repoIdE @1445 DATA
    _ZN21CosNotifyChannelAdmin12NotConnected10_PD_typeIdE @1446 DATA
    _ZN21CosNotifyChannelAdmin12NotConnected13insertToAnyFnE @1447 DATA
    _ZN21CosNotifyChannelAdmin12NotConnected16insertToAnyFnNCPE @1448 DATA
    _ZN21CosNotifyChannelAdmin12NotConnected9_downcastEPKN5CORBA9ExceptionE @1449
    _ZN21CosNotifyChannelAdmin12NotConnected9_downcastEPN5CORBA9ExceptionE @1450
    _ZN21CosNotifyChannelAdmin12NotConnectedC1ERKS0_ @1451
    _ZN21CosNotifyChannelAdmin12NotConnectedC2ERKS0_ @1452
    _ZN21CosNotifyChannelAdmin12NotConnectedD0Ev @1453
    _ZN21CosNotifyChannelAdmin12NotConnectedD1Ev @1454
    _ZN21CosNotifyChannelAdmin12NotConnectedD2Ev @1455
    _ZN21CosNotifyChannelAdmin12NotConnectedaSERKS0_ @1456
    _ZN21CosNotifyChannelAdmin13AdminNotFound10_PD_repoIdE @1457 DATA
    _ZN21CosNotifyChannelAdmin13AdminNotFound10_PD_typeIdE @1458 DATA
    _ZN21CosNotifyChannelAdmin13AdminNotFound13insertToAnyFnE @1459 DATA
    _ZN21CosNotifyChannelAdmin13AdminNotFound16insertToAnyFnNCPE @1460 DATA
    _ZN21CosNotifyChannelAdmin13AdminNotFound9_downcastEPKN5CORBA9ExceptionE @1461
    _ZN21CosNotifyChannelAdmin13AdminNotFound9_downcastEPN5CORBA9ExceptionE @1462
    _ZN21CosNotifyChannelAdmin13AdminNotFoundC1ERKS0_ @1463
    _ZN21CosNotifyChannelAdmin13AdminNotFoundC2ERKS0_ @1464
    _ZN21CosNotifyChannelAdmin13AdminNotFoundD0Ev @1465
    _ZN21CosNotifyChannelAdmin13AdminNotFoundD1Ev @1466
    _ZN21CosNotifyChannelAdmin13AdminNotFoundD2Ev @1467
    _ZN21CosNotifyChannelAdmin13AdminNotFoundaSERKS0_ @1468
    _ZN21CosNotifyChannelAdmin13ConsumerAdmin10_PD_repoIdE @1469 DATA
    _ZN21CosNotifyChannelAdmin13ConsumerAdmin10_duplicateEPNS_21_objref_ConsumerAdminE @1470
    _ZN21CosNotifyChannelAdmin13ConsumerAdmin17_unchecked_narrowEPN5CORBA6ObjectE @1471
    _ZN21CosNotifyChannelAdmin13ConsumerAdmin4_nilEv @1472
    _ZN21CosNotifyChannelAdmin13ConsumerAdmin7_narrowEPN5CORBA6ObjectE @1473
    _ZN21CosNotifyChannelAdmin13ProxyConsumer10_PD_repoIdE @1474 DATA
    _ZN21CosNotifyChannelAdmin13ProxyConsumer10_duplicateEPNS_21_objref_ProxyConsumerE @1475
    _ZN21CosNotifyChannelAdmin13ProxyConsumer17_unchecked_narrowEPN5CORBA6ObjectE @1476
    _ZN21CosNotifyChannelAdmin13ProxyConsumer4_nilEv @1477
    _ZN21CosNotifyChannelAdmin13ProxyConsumer7_narrowEPN5CORBA6ObjectE @1478
    _ZN21CosNotifyChannelAdmin13ProxyNotFound10_PD_repoIdE @1479 DATA
    _ZN21CosNotifyChannelAdmin13ProxyNotFound10_PD_typeIdE @1480 DATA
    _ZN21CosNotifyChannelAdmin13ProxyNotFound13insertToAnyFnE @1481 DATA
    _ZN21CosNotifyChannelAdmin13ProxyNotFound16insertToAnyFnNCPE @1482 DATA
    _ZN21CosNotifyChannelAdmin13ProxyNotFound9_downcastEPKN5CORBA9ExceptionE @1483
    _ZN21CosNotifyChannelAdmin13ProxyNotFound9_downcastEPN5CORBA9ExceptionE @1484
    _ZN21CosNotifyChannelAdmin13ProxyNotFoundC1ERKS0_ @1485
    _ZN21CosNotifyChannelAdmin13ProxyNotFoundC2ERKS0_ @1486
    _ZN21CosNotifyChannelAdmin13ProxyNotFoundD0Ev @1487
    _ZN21CosNotifyChannelAdmin13ProxyNotFoundD1Ev @1488
    _ZN21CosNotifyChannelAdmin13ProxyNotFoundD2Ev @1489
    _ZN21CosNotifyChannelAdmin13ProxyNotFoundaSERKS0_ @1490
    _ZN21CosNotifyChannelAdmin13ProxySupplier10_PD_repoIdE @1491 DATA
    _ZN21CosNotifyChannelAdmin13ProxySupplier10_duplicateEPNS_21_objref_ProxySupplierE @1492
    _ZN21CosNotifyChannelAdmin13ProxySupplier17_unchecked_narrowEPN5CORBA6ObjectE @1493
    _ZN21CosNotifyChannelAdmin13ProxySupplier4_nilEv @1494
    _ZN21CosNotifyChannelAdmin13ProxySupplier7_narrowEPN5CORBA6ObjectE @1495
    _ZN21CosNotifyChannelAdmin13SupplierAdmin10_PD_repoIdE @1496 DATA
    _ZN21CosNotifyChannelAdmin13SupplierAdmin10_duplicateEPNS_21_objref_SupplierAdminE @1497
    _ZN21CosNotifyChannelAdmin13SupplierAdmin17_unchecked_narrowEPN5CORBA6ObjectE @1498
    _ZN21CosNotifyChannelAdmin13SupplierAdmin4_nilEv @1499
    _ZN21CosNotifyChannelAdmin13SupplierAdmin7_narrowEPN5CORBA6ObjectE @1500
    _ZN21CosNotifyChannelAdmin15ChannelNotFound10_PD_repoIdE @1501 DATA
    _ZN21CosNotifyChannelAdmin15ChannelNotFound10_PD_typeIdE @1502 DATA
    _ZN21CosNotifyChannelAdmin15ChannelNotFound13insertToAnyFnE @1503 DATA
    _ZN21CosNotifyChannelAdmin15ChannelNotFound16insertToAnyFnNCPE @1504 DATA
    _ZN21CosNotifyChannelAdmin15ChannelNotFound9_downcastEPKN5CORBA9ExceptionE @1505
    _ZN21CosNotifyChannelAdmin15ChannelNotFound9_downcastEPN5CORBA9ExceptionE @1506
    _ZN21CosNotifyChannelAdmin15ChannelNotFoundC1ERKS0_ @1507
    _ZN21CosNotifyChannelAdmin15ChannelNotFoundC2ERKS0_ @1508
    _ZN21CosNotifyChannelAdmin15ChannelNotFoundD0Ev @1509
    _ZN21CosNotifyChannelAdmin15ChannelNotFoundD1Ev @1510
    _ZN21CosNotifyChannelAdmin15ChannelNotFoundD2Ev @1511
    _ZN21CosNotifyChannelAdmin15ChannelNotFoundaSERKS0_ @1512
    _ZN21CosNotifyChannelAdmin17ProxyPullConsumer10_PD_repoIdE @1513 DATA
    _ZN21CosNotifyChannelAdmin17ProxyPullConsumer10_duplicateEPNS_25_objref_ProxyPullConsumerE @1514
    _ZN21CosNotifyChannelAdmin17ProxyPullConsumer17_unchecked_narrowEPN5CORBA6ObjectE @1515
    _ZN21CosNotifyChannelAdmin17ProxyPullConsumer4_nilEv @1516
    _ZN21CosNotifyChannelAdmin17ProxyPullConsumer7_narrowEPN5CORBA6ObjectE @1517
    _ZN21CosNotifyChannelAdmin17ProxyPullSupplier10_PD_repoIdE @1518 DATA
    _ZN21CosNotifyChannelAdmin17ProxyPullSupplier10_duplicateEPNS_25_objref_ProxyPullSupplierE @1519
    _ZN21CosNotifyChannelAdmin17ProxyPullSupplier17_unchecked_narrowEPN5CORBA6ObjectE @1520
    _ZN21CosNotifyChannelAdmin17ProxyPullSupplier4_nilEv @1521
    _ZN21CosNotifyChannelAdmin17ProxyPullSupplier7_narrowEPN5CORBA6ObjectE @1522
    _ZN21CosNotifyChannelAdmin17ProxyPushConsumer10_PD_repoIdE @1523 DATA
    _ZN21CosNotifyChannelAdmin17ProxyPushConsumer10_duplicateEPNS_25_objref_ProxyPushConsumerE @1524
    _ZN21CosNotifyChannelAdmin17ProxyPushConsumer17_unchecked_narrowEPN5CORBA6ObjectE @1525
    _ZN21CosNotifyChannelAdmin17ProxyPushConsumer4_nilEv @1526
    _ZN21CosNotifyChannelAdmin17ProxyPushConsumer7_narrowEPN5CORBA6ObjectE @1527
    _ZN21CosNotifyChannelAdmin17ProxyPushSupplier10_PD_repoIdE @1528 DATA
    _ZN21CosNotifyChannelAdmin17ProxyPushSupplier10_duplicateEPNS_25_objref_ProxyPushSupplierE @1529
    _ZN21CosNotifyChannelAdmin17ProxyPushSupplier17_unchecked_narrowEPN5CORBA6ObjectE @1530
    _ZN21CosNotifyChannelAdmin17ProxyPushSupplier4_nilEv @1531
    _ZN21CosNotifyChannelAdmin17ProxyPushSupplier7_narrowEPN5CORBA6ObjectE @1532
    _ZN21CosNotifyChannelAdmin17_pof_EventChannel9newObjRefEP7omniIORP12omniIdentity @1533
    _ZN21CosNotifyChannelAdmin17_pof_EventChannelD0Ev @1534
    _ZN21CosNotifyChannelAdmin17_pof_EventChannelD1Ev @1535
    _ZN21CosNotifyChannelAdmin17_pof_EventChannelD2Ev @1536
    _ZN21CosNotifyChannelAdmin18AdminLimitExceeded10_PD_repoIdE @1537 DATA
    _ZN21CosNotifyChannelAdmin18AdminLimitExceeded10_PD_typeIdE @1538 DATA
    _ZN21CosNotifyChannelAdmin18AdminLimitExceeded13insertToAnyFnE @1539 DATA
    _ZN21CosNotifyChannelAdmin18AdminLimitExceeded16insertToAnyFnNCPE @1540 DATA
    _ZN21CosNotifyChannelAdmin18AdminLimitExceeded9_downcastEPKN5CORBA9ExceptionE @1541
    _ZN21CosNotifyChannelAdmin18AdminLimitExceeded9_downcastEPN5CORBA9ExceptionE @1542
    _ZN21CosNotifyChannelAdmin18AdminLimitExceededC1ERKNS_10AdminLimitE @1543
    _ZN21CosNotifyChannelAdmin18AdminLimitExceededC1ERKS0_ @1544
    _ZN21CosNotifyChannelAdmin18AdminLimitExceededC2ERKNS_10AdminLimitE @1545
    _ZN21CosNotifyChannelAdmin18AdminLimitExceededC2ERKS0_ @1546
    _ZN21CosNotifyChannelAdmin18AdminLimitExceededD0Ev @1547
    _ZN21CosNotifyChannelAdmin18AdminLimitExceededD1Ev @1548
    _ZN21CosNotifyChannelAdmin18AdminLimitExceededD2Ev @1549
    _ZN21CosNotifyChannelAdmin18AdminLimitExceededaSERKS0_ @1550
    _ZN21CosNotifyChannelAdmin18AdminLimitExceededlSER9cdrStream @1551
    _ZN21CosNotifyChannelAdmin18_impl_EventChannel15_ptrToInterfaceEPKc @1552
    _ZN21CosNotifyChannelAdmin18_impl_EventChannel18_mostDerivedRepoIdEv @1553
    _ZN21CosNotifyChannelAdmin18_impl_EventChannel9_dispatchER14omniCallHandle @1554
    _ZN21CosNotifyChannelAdmin18_impl_EventChannelD0Ev @1555
    _ZN21CosNotifyChannelAdmin18_impl_EventChannelD1Ev @1556
    _ZN21CosNotifyChannelAdmin18_impl_EventChannelD2Ev @1557
    _ZN21CosNotifyChannelAdmin18_pof_ConsumerAdmin9newObjRefEP7omniIORP12omniIdentity @1558
    _ZN21CosNotifyChannelAdmin18_pof_ConsumerAdminD0Ev @1559
    _ZN21CosNotifyChannelAdmin18_pof_ConsumerAdminD1Ev @1560
    _ZN21CosNotifyChannelAdmin18_pof_ConsumerAdminD2Ev @1561
    _ZN21CosNotifyChannelAdmin18_pof_ProxyConsumer9newObjRefEP7omniIORP12omniIdentity @1562
    _ZN21CosNotifyChannelAdmin18_pof_ProxyConsumerD0Ev @1563
    _ZN21CosNotifyChannelAdmin18_pof_ProxyConsumerD1Ev @1564
    _ZN21CosNotifyChannelAdmin18_pof_ProxyConsumerD2Ev @1565
    _ZN21CosNotifyChannelAdmin18_pof_ProxySupplier9newObjRefEP7omniIORP12omniIdentity @1566
    _ZN21CosNotifyChannelAdmin18_pof_ProxySupplierD0Ev @1567
    _ZN21CosNotifyChannelAdmin18_pof_ProxySupplierD1Ev @1568
    _ZN21CosNotifyChannelAdmin18_pof_ProxySupplierD2Ev @1569
    _ZN21CosNotifyChannelAdmin18_pof_SupplierAdmin9newObjRefEP7omniIORP12omniIdentity @1570
    _ZN21CosNotifyChannelAdmin18_pof_SupplierAdminD0Ev @1571
    _ZN21CosNotifyChannelAdmin18_pof_SupplierAdminD1Ev @1572
    _ZN21CosNotifyChannelAdmin18_pof_SupplierAdminD2Ev @1573
    _ZN21CosNotifyChannelAdmin19EventChannelFactory10_PD_repoIdE @1574 DATA
    _ZN21CosNotifyChannelAdmin19EventChannelFactory10_duplicateEPNS_27_objref_EventChannelFactoryE @1575
    _ZN21CosNotifyChannelAdmin19EventChannelFactory17_unchecked_narrowEPN5CORBA6ObjectE @1576
    _ZN21CosNotifyChannelAdmin19EventChannelFactory4_nilEv @1577
    _ZN21CosNotifyChannelAdmin19EventChannelFactory7_narrowEPN5CORBA6ObjectE @1578
    _ZN21CosNotifyChannelAdmin19EventChannel_Helper13marshalObjRefEPNS_20_objref_EventChannelER9cdrStream @1579
    _ZN21CosNotifyChannelAdmin19EventChannel_Helper15unmarshalObjRefER9cdrStream @1580
    _ZN21CosNotifyChannelAdmin19EventChannel_Helper4_nilEv @1581
    _ZN21CosNotifyChannelAdmin19EventChannel_Helper6is_nilEPNS_20_objref_EventChannelE @1582
    _ZN21CosNotifyChannelAdmin19EventChannel_Helper7releaseEPNS_20_objref_EventChannelE @1583
    _ZN21CosNotifyChannelAdmin19EventChannel_Helper9duplicateEPNS_20_objref_EventChannelE @1584
    _ZN21CosNotifyChannelAdmin19_impl_ConsumerAdmin15_ptrToInterfaceEPKc @1585
    _ZN21CosNotifyChannelAdmin19_impl_ConsumerAdmin18_mostDerivedRepoIdEv @1586
    _ZN21CosNotifyChannelAdmin19_impl_ConsumerAdmin9_dispatchER14omniCallHandle @1587
    _ZN21CosNotifyChannelAdmin19_impl_ConsumerAdminD0Ev @1588
    _ZN21CosNotifyChannelAdmin19_impl_ConsumerAdminD1Ev @1589
    _ZN21CosNotifyChannelAdmin19_impl_ConsumerAdminD2Ev @1590
    _ZN21CosNotifyChannelAdmin19_impl_ProxyConsumer15_ptrToInterfaceEPKc @1591
    _ZN21CosNotifyChannelAdmin19_impl_ProxyConsumer18_mostDerivedRepoIdEv @1592
    _ZN21CosNotifyChannelAdmin19_impl_ProxyConsumer9_dispatchER14omniCallHandle @1593
    _ZN21CosNotifyChannelAdmin19_impl_ProxyConsumerD0Ev @1594
    _ZN21CosNotifyChannelAdmin19_impl_ProxyConsumerD1Ev @1595
    _ZN21CosNotifyChannelAdmin19_impl_ProxyConsumerD2Ev @1596
    _ZN21CosNotifyChannelAdmin19_impl_ProxySupplier15_ptrToInterfaceEPKc @1597
    _ZN21CosNotifyChannelAdmin19_impl_ProxySupplier18_mostDerivedRepoIdEv @1598
    _ZN21CosNotifyChannelAdmin19_impl_ProxySupplier9_dispatchER14omniCallHandle @1599
    _ZN21CosNotifyChannelAdmin19_impl_ProxySupplierD0Ev @1600
    _ZN21CosNotifyChannelAdmin19_impl_ProxySupplierD1Ev @1601
    _ZN21CosNotifyChannelAdmin19_impl_ProxySupplierD2Ev @1602
    _ZN21CosNotifyChannelAdmin19_impl_SupplierAdmin15_ptrToInterfaceEPKc @1603
    _ZN21CosNotifyChannelAdmin19_impl_SupplierAdmin18_mostDerivedRepoIdEv @1604
    _ZN21CosNotifyChannelAdmin19_impl_SupplierAdmin9_dispatchER14omniCallHandle @1605
    _ZN21CosNotifyChannelAdmin19_impl_SupplierAdminD0Ev @1606
    _ZN21CosNotifyChannelAdmin19_impl_SupplierAdminD1Ev @1607
    _ZN21CosNotifyChannelAdmin19_impl_SupplierAdminD2Ev @1608
    _ZN21CosNotifyChannelAdmin20ConsumerAdmin_Helper13marshalObjRefEPNS_21_objref_ConsumerAdminER9cdrStream @1609
    _ZN21CosNotifyChannelAdmin20ConsumerAdmin_Helper15unmarshalObjRefER9cdrStream @1610
    _ZN21CosNotifyChannelAdmin20ConsumerAdmin_Helper4_nilEv @1611
    _ZN21CosNotifyChannelAdmin20ConsumerAdmin_Helper6is_nilEPNS_21_objref_ConsumerAdminE @1612
    _ZN21CosNotifyChannelAdmin20ConsumerAdmin_Helper7releaseEPNS_21_objref_ConsumerAdminE @1613
    _ZN21CosNotifyChannelAdmin20ConsumerAdmin_Helper9duplicateEPNS_21_objref_ConsumerAdminE @1614
    _ZN21CosNotifyChannelAdmin20ProxyConsumer_Helper13marshalObjRefEPNS_21_objref_ProxyConsumerER9cdrStream @1615
    _ZN21CosNotifyChannelAdmin20ProxyConsumer_Helper15unmarshalObjRefER9cdrStream @1616
    _ZN21CosNotifyChannelAdmin20ProxyConsumer_Helper4_nilEv @1617
    _ZN21CosNotifyChannelAdmin20ProxyConsumer_Helper6is_nilEPNS_21_objref_ProxyConsumerE @1618
    _ZN21CosNotifyChannelAdmin20ProxyConsumer_Helper7releaseEPNS_21_objref_ProxyConsumerE @1619
    _ZN21CosNotifyChannelAdmin20ProxyConsumer_Helper9duplicateEPNS_21_objref_ProxyConsumerE @1620
    _ZN21CosNotifyChannelAdmin20ProxySupplier_Helper13marshalObjRefEPNS_21_objref_ProxySupplierER9cdrStream @1621
    _ZN21CosNotifyChannelAdmin20ProxySupplier_Helper15unmarshalObjRefER9cdrStream @1622
    _ZN21CosNotifyChannelAdmin20ProxySupplier_Helper4_nilEv @1623
    _ZN21CosNotifyChannelAdmin20ProxySupplier_Helper6is_nilEPNS_21_objref_ProxySupplierE @1624
    _ZN21CosNotifyChannelAdmin20ProxySupplier_Helper7releaseEPNS_21_objref_ProxySupplierE @1625
    _ZN21CosNotifyChannelAdmin20ProxySupplier_Helper9duplicateEPNS_21_objref_ProxySupplierE @1626
    _ZN21CosNotifyChannelAdmin20SupplierAdmin_Helper13marshalObjRefEPNS_21_objref_SupplierAdminER9cdrStream @1627
    _ZN21CosNotifyChannelAdmin20SupplierAdmin_Helper15unmarshalObjRefER9cdrStream @1628
    _ZN21CosNotifyChannelAdmin20SupplierAdmin_Helper4_nilEv @1629
    _ZN21CosNotifyChannelAdmin20SupplierAdmin_Helper6is_nilEPNS_21_objref_SupplierAdminE @1630
    _ZN21CosNotifyChannelAdmin20SupplierAdmin_Helper7releaseEPNS_21_objref_SupplierAdminE @1631
    _ZN21CosNotifyChannelAdmin20SupplierAdmin_Helper9duplicateEPNS_21_objref_SupplierAdminE @1632
    _ZN21CosNotifyChannelAdmin20_objref_EventChannel12_ptrToObjRefEPKc @1633
    _ZN21CosNotifyChannelAdmin20_objref_EventChannel17get_consumeradminEl @1634
    _ZN21CosNotifyChannelAdmin20_objref_EventChannel17get_supplieradminEl @1635
    _ZN21CosNotifyChannelAdmin20_objref_EventChannel17new_for_consumersENS_24InterFilterGroupOperatorERl @1636
    _ZN21CosNotifyChannelAdmin20_objref_EventChannel17new_for_suppliersENS_24InterFilterGroupOperatorERl @1637
    _ZN21CosNotifyChannelAdmin20_objref_EventChannel22default_consumer_adminEv @1638
    _ZN21CosNotifyChannelAdmin20_objref_EventChannel22default_filter_factoryEv @1639
    _ZN21CosNotifyChannelAdmin20_objref_EventChannel22default_supplier_adminEv @1640
    _ZN21CosNotifyChannelAdmin20_objref_EventChannel22get_all_consumeradminsEv @1641
    _ZN21CosNotifyChannelAdmin20_objref_EventChannel22get_all_supplieradminsEv @1642
    _ZN21CosNotifyChannelAdmin20_objref_EventChannel9MyFactoryEv @1643
    _ZN21CosNotifyChannelAdmin20_objref_EventChannelC1EP7omniIORP12omniIdentity @1644
    _ZN21CosNotifyChannelAdmin20_objref_EventChannelC2EP7omniIORP12omniIdentity @1645
    _ZN21CosNotifyChannelAdmin20_objref_EventChannelD0Ev @1646
    _ZN21CosNotifyChannelAdmin20_objref_EventChannelD1Ev @1647
    _ZN21CosNotifyChannelAdmin20_objref_EventChannelD2Ev @1648
    _ZN21CosNotifyChannelAdmin21_objref_ConsumerAdmin10MyOperatorEv @1649
    _ZN21CosNotifyChannelAdmin21_objref_ConsumerAdmin12_ptrToObjRefEPKc @1650
    _ZN21CosNotifyChannelAdmin21_objref_ConsumerAdmin14pull_suppliersEv @1651
    _ZN21CosNotifyChannelAdmin21_objref_ConsumerAdmin14push_suppliersEv @1652
    _ZN21CosNotifyChannelAdmin21_objref_ConsumerAdmin15lifetime_filterEPN15CosNotifyFilter21_objref_MappingFilterE @1653
    _ZN21CosNotifyChannelAdmin21_objref_ConsumerAdmin15lifetime_filterEv @1654
    _ZN21CosNotifyChannelAdmin21_objref_ConsumerAdmin15priority_filterEPN15CosNotifyFilter21_objref_MappingFilterE @1655
    _ZN21CosNotifyChannelAdmin21_objref_ConsumerAdmin15priority_filterEv @1656
    _ZN21CosNotifyChannelAdmin21_objref_ConsumerAdmin18get_proxy_supplierEl @1657
    _ZN21CosNotifyChannelAdmin21_objref_ConsumerAdmin33obtain_notification_pull_supplierENS_10ClientTypeERl @1658
    _ZN21CosNotifyChannelAdmin21_objref_ConsumerAdmin33obtain_notification_push_supplierENS_10ClientTypeERl @1659
    _ZN21CosNotifyChannelAdmin21_objref_ConsumerAdmin4MyIDEv @1660
    _ZN21CosNotifyChannelAdmin21_objref_ConsumerAdmin7destroyEv @1661
    _ZN21CosNotifyChannelAdmin21_objref_ConsumerAdmin9MyChannelEv @1662
    _ZN21CosNotifyChannelAdmin21_objref_ConsumerAdminC1EP7omniIORP12omniIdentity @1663
    _ZN21CosNotifyChannelAdmin21_objref_ConsumerAdminC2EP7omniIORP12omniIdentity @1664
    _ZN21CosNotifyChannelAdmin21_objref_ConsumerAdminD0Ev @1665
    _ZN21CosNotifyChannelAdmin21_objref_ConsumerAdminD1Ev @1666
    _ZN21CosNotifyChannelAdmin21_objref_ConsumerAdminD2Ev @1667
    _ZN21CosNotifyChannelAdmin21_objref_ProxyConsumer12_ptrToObjRefEPKc @1668
    _ZN21CosNotifyChannelAdmin21_objref_ProxyConsumer18validate_event_qosERKN15CosNotification11PropertySeqENS1_25NamedPropertyRangeSeq_outE @1669
    _ZN21CosNotifyChannelAdmin21_objref_ProxyConsumer25obtain_subscription_typesENS_14ObtainInfoModeE @1670
    _ZN21CosNotifyChannelAdmin21_objref_ProxyConsumer6MyTypeEv @1671
    _ZN21CosNotifyChannelAdmin21_objref_ProxyConsumer7MyAdminEv @1672
    _ZN21CosNotifyChannelAdmin21_objref_ProxyConsumerC1EP7omniIORP12omniIdentity @1673
    _ZN21CosNotifyChannelAdmin21_objref_ProxyConsumerC2EP7omniIORP12omniIdentity @1674
    _ZN21CosNotifyChannelAdmin21_objref_ProxyConsumerC2Ev @1675
    _ZN21CosNotifyChannelAdmin21_objref_ProxyConsumerD0Ev @1676
    _ZN21CosNotifyChannelAdmin21_objref_ProxyConsumerD1Ev @1677
    _ZN21CosNotifyChannelAdmin21_objref_ProxyConsumerD2Ev @1678
    _ZN21CosNotifyChannelAdmin21_objref_ProxySupplier12_ptrToObjRefEPKc @1679
    _ZN21CosNotifyChannelAdmin21_objref_ProxySupplier15lifetime_filterEPN15CosNotifyFilter21_objref_MappingFilterE @1680
    _ZN21CosNotifyChannelAdmin21_objref_ProxySupplier15lifetime_filterEv @1681
    _ZN21CosNotifyChannelAdmin21_objref_ProxySupplier15priority_filterEPN15CosNotifyFilter21_objref_MappingFilterE @1682
    _ZN21CosNotifyChannelAdmin21_objref_ProxySupplier15priority_filterEv @1683
    _ZN21CosNotifyChannelAdmin21_objref_ProxySupplier18validate_event_qosERKN15CosNotification11PropertySeqENS1_25NamedPropertyRangeSeq_outE @1684
    _ZN21CosNotifyChannelAdmin21_objref_ProxySupplier20obtain_offered_typesENS_14ObtainInfoModeE @1685
    _ZN21CosNotifyChannelAdmin21_objref_ProxySupplier6MyTypeEv @1686
    _ZN21CosNotifyChannelAdmin21_objref_ProxySupplier7MyAdminEv @1687
    _ZN21CosNotifyChannelAdmin21_objref_ProxySupplierC1EP7omniIORP12omniIdentity @1688
    _ZN21CosNotifyChannelAdmin21_objref_ProxySupplierC2EP7omniIORP12omniIdentity @1689
    _ZN21CosNotifyChannelAdmin21_objref_ProxySupplierC2Ev @1690
    _ZN21CosNotifyChannelAdmin21_objref_ProxySupplierD0Ev @1691
    _ZN21CosNotifyChannelAdmin21_objref_ProxySupplierD1Ev @1692
    _ZN21CosNotifyChannelAdmin21_objref_ProxySupplierD2Ev @1693
    _ZN21CosNotifyChannelAdmin21_objref_SupplierAdmin10MyOperatorEv @1694
    _ZN21CosNotifyChannelAdmin21_objref_SupplierAdmin12_ptrToObjRefEPKc @1695
    _ZN21CosNotifyChannelAdmin21_objref_SupplierAdmin14pull_consumersEv @1696
    _ZN21CosNotifyChannelAdmin21_objref_SupplierAdmin14push_consumersEv @1697
    _ZN21CosNotifyChannelAdmin21_objref_SupplierAdmin18get_proxy_consumerEl @1698
    _ZN21CosNotifyChannelAdmin21_objref_SupplierAdmin33obtain_notification_pull_consumerENS_10ClientTypeERl @1699
    _ZN21CosNotifyChannelAdmin21_objref_SupplierAdmin33obtain_notification_push_consumerENS_10ClientTypeERl @1700
    _ZN21CosNotifyChannelAdmin21_objref_SupplierAdmin4MyIDEv @1701
    _ZN21CosNotifyChannelAdmin21_objref_SupplierAdmin7destroyEv @1702
    _ZN21CosNotifyChannelAdmin21_objref_SupplierAdmin9MyChannelEv @1703
    _ZN21CosNotifyChannelAdmin21_objref_SupplierAdminC1EP7omniIORP12omniIdentity @1704
    _ZN21CosNotifyChannelAdmin21_objref_SupplierAdminC2EP7omniIORP12omniIdentity @1705
    _ZN21CosNotifyChannelAdmin21_objref_SupplierAdminD0Ev @1706
    _ZN21CosNotifyChannelAdmin21_objref_SupplierAdminD1Ev @1707
    _ZN21CosNotifyChannelAdmin21_objref_SupplierAdminD2Ev @1708
    _ZN21CosNotifyChannelAdmin22_pof_ProxyPullConsumer9newObjRefEP7omniIORP12omniIdentity @1709
    _ZN21CosNotifyChannelAdmin22_pof_ProxyPullConsumerD0Ev @1710
    _ZN21CosNotifyChannelAdmin22_pof_ProxyPullConsumerD1Ev @1711
    _ZN21CosNotifyChannelAdmin22_pof_ProxyPullConsumerD2Ev @1712
    _ZN21CosNotifyChannelAdmin22_pof_ProxyPullSupplier9newObjRefEP7omniIORP12omniIdentity @1713
    _ZN21CosNotifyChannelAdmin22_pof_ProxyPullSupplierD0Ev @1714
    _ZN21CosNotifyChannelAdmin22_pof_ProxyPullSupplierD1Ev @1715
    _ZN21CosNotifyChannelAdmin22_pof_ProxyPullSupplierD2Ev @1716
    _ZN21CosNotifyChannelAdmin22_pof_ProxyPushConsumer9newObjRefEP7omniIORP12omniIdentity @1717
    _ZN21CosNotifyChannelAdmin22_pof_ProxyPushConsumerD0Ev @1718
    _ZN21CosNotifyChannelAdmin22_pof_ProxyPushConsumerD1Ev @1719
    _ZN21CosNotifyChannelAdmin22_pof_ProxyPushConsumerD2Ev @1720
    _ZN21CosNotifyChannelAdmin22_pof_ProxyPushSupplier9newObjRefEP7omniIORP12omniIdentity @1721
    _ZN21CosNotifyChannelAdmin22_pof_ProxyPushSupplierD0Ev @1722
    _ZN21CosNotifyChannelAdmin22_pof_ProxyPushSupplierD1Ev @1723
    _ZN21CosNotifyChannelAdmin22_pof_ProxyPushSupplierD2Ev @1724
    _ZN21CosNotifyChannelAdmin23ConnectionAlreadyActive10_PD_repoIdE @1725 DATA
    _ZN21CosNotifyChannelAdmin23ConnectionAlreadyActive10_PD_typeIdE @1726 DATA
    _ZN21CosNotifyChannelAdmin23ConnectionAlreadyActive13insertToAnyFnE @1727 DATA
    _ZN21CosNotifyChannelAdmin23ConnectionAlreadyActive16insertToAnyFnNCPE @1728 DATA
    _ZN21CosNotifyChannelAdmin23ConnectionAlreadyActive9_downcastEPKN5CORBA9ExceptionE @1729
    _ZN21CosNotifyChannelAdmin23ConnectionAlreadyActive9_downcastEPN5CORBA9ExceptionE @1730
    _ZN21CosNotifyChannelAdmin23ConnectionAlreadyActiveC1ERKS0_ @1731
    _ZN21CosNotifyChannelAdmin23ConnectionAlreadyActiveC2ERKS0_ @1732
    _ZN21CosNotifyChannelAdmin23ConnectionAlreadyActiveD0Ev @1733
    _ZN21CosNotifyChannelAdmin23ConnectionAlreadyActiveD1Ev @1734
    _ZN21CosNotifyChannelAdmin23ConnectionAlreadyActiveD2Ev @1735
    _ZN21CosNotifyChannelAdmin23ConnectionAlreadyActiveaSERKS0_ @1736
    _ZN21CosNotifyChannelAdmin23_impl_ProxyPullConsumer15_ptrToInterfaceEPKc @1737
    _ZN21CosNotifyChannelAdmin23_impl_ProxyPullConsumer18_mostDerivedRepoIdEv @1738
    _ZN21CosNotifyChannelAdmin23_impl_ProxyPullConsumer9_dispatchER14omniCallHandle @1739
    _ZN21CosNotifyChannelAdmin23_impl_ProxyPullConsumerD0Ev @1740
    _ZN21CosNotifyChannelAdmin23_impl_ProxyPullConsumerD1Ev @1741
    _ZN21CosNotifyChannelAdmin23_impl_ProxyPullConsumerD2Ev @1742
    _ZN21CosNotifyChannelAdmin23_impl_ProxyPullSupplier15_ptrToInterfaceEPKc @1743
    _ZN21CosNotifyChannelAdmin23_impl_ProxyPullSupplier18_mostDerivedRepoIdEv @1744
    _ZN21CosNotifyChannelAdmin23_impl_ProxyPullSupplier9_dispatchER14omniCallHandle @1745
    _ZN21CosNotifyChannelAdmin23_impl_ProxyPullSupplierD0Ev @1746
    _ZN21CosNotifyChannelAdmin23_impl_ProxyPullSupplierD1Ev @1747
    _ZN21CosNotifyChannelAdmin23_impl_ProxyPullSupplierD2Ev @1748
    _ZN21CosNotifyChannelAdmin23_impl_ProxyPushConsumer15_ptrToInterfaceEPKc @1749
    _ZN21CosNotifyChannelAdmin23_impl_ProxyPushConsumer18_mostDerivedRepoIdEv @1750
    _ZN21CosNotifyChannelAdmin23_impl_ProxyPushConsumer9_dispatchER14omniCallHandle @1751
    _ZN21CosNotifyChannelAdmin23_impl_ProxyPushConsumerD0Ev @1752
    _ZN21CosNotifyChannelAdmin23_impl_ProxyPushConsumerD1Ev @1753
    _ZN21CosNotifyChannelAdmin23_impl_ProxyPushConsumerD2Ev @1754
    _ZN21CosNotifyChannelAdmin23_impl_ProxyPushSupplier15_ptrToInterfaceEPKc @1755
    _ZN21CosNotifyChannelAdmin23_impl_ProxyPushSupplier18_mostDerivedRepoIdEv @1756
    _ZN21CosNotifyChannelAdmin23_impl_ProxyPushSupplier9_dispatchER14omniCallHandle @1757
    _ZN21CosNotifyChannelAdmin23_impl_ProxyPushSupplierD0Ev @1758
    _ZN21CosNotifyChannelAdmin23_impl_ProxyPushSupplierD1Ev @1759
    _ZN21CosNotifyChannelAdmin23_impl_ProxyPushSupplierD2Ev @1760
    _ZN21CosNotifyChannelAdmin24ProxyPullConsumer_Helper13marshalObjRefEPNS_25_objref_ProxyPullConsumerER9cdrStream @1761
    _ZN21CosNotifyChannelAdmin24ProxyPullConsumer_Helper15unmarshalObjRefER9cdrStream @1762
    _ZN21CosNotifyChannelAdmin24ProxyPullConsumer_Helper4_nilEv @1763
    _ZN21CosNotifyChannelAdmin24ProxyPullConsumer_Helper6is_nilEPNS_25_objref_ProxyPullConsumerE @1764
    _ZN21CosNotifyChannelAdmin24ProxyPullConsumer_Helper7releaseEPNS_25_objref_ProxyPullConsumerE @1765
    _ZN21CosNotifyChannelAdmin24ProxyPullConsumer_Helper9duplicateEPNS_25_objref_ProxyPullConsumerE @1766
    _ZN21CosNotifyChannelAdmin24ProxyPullSupplier_Helper13marshalObjRefEPNS_25_objref_ProxyPullSupplierER9cdrStream @1767
    _ZN21CosNotifyChannelAdmin24ProxyPullSupplier_Helper15unmarshalObjRefER9cdrStream @1768
    _ZN21CosNotifyChannelAdmin24ProxyPullSupplier_Helper4_nilEv @1769
    _ZN21CosNotifyChannelAdmin24ProxyPullSupplier_Helper6is_nilEPNS_25_objref_ProxyPullSupplierE @1770
    _ZN21CosNotifyChannelAdmin24ProxyPullSupplier_Helper7releaseEPNS_25_objref_ProxyPullSupplierE @1771
    _ZN21CosNotifyChannelAdmin24ProxyPullSupplier_Helper9duplicateEPNS_25_objref_ProxyPullSupplierE @1772
    _ZN21CosNotifyChannelAdmin24ProxyPushConsumer_Helper13marshalObjRefEPNS_25_objref_ProxyPushConsumerER9cdrStream @1773
    _ZN21CosNotifyChannelAdmin24ProxyPushConsumer_Helper15unmarshalObjRefER9cdrStream @1774
    _ZN21CosNotifyChannelAdmin24ProxyPushConsumer_Helper4_nilEv @1775
    _ZN21CosNotifyChannelAdmin24ProxyPushConsumer_Helper6is_nilEPNS_25_objref_ProxyPushConsumerE @1776
    _ZN21CosNotifyChannelAdmin24ProxyPushConsumer_Helper7releaseEPNS_25_objref_ProxyPushConsumerE @1777
    _ZN21CosNotifyChannelAdmin24ProxyPushConsumer_Helper9duplicateEPNS_25_objref_ProxyPushConsumerE @1778
    _ZN21CosNotifyChannelAdmin24ProxyPushSupplier_Helper13marshalObjRefEPNS_25_objref_ProxyPushSupplierER9cdrStream @1779
    _ZN21CosNotifyChannelAdmin24ProxyPushSupplier_Helper15unmarshalObjRefER9cdrStream @1780
    _ZN21CosNotifyChannelAdmin24ProxyPushSupplier_Helper4_nilEv @1781
    _ZN21CosNotifyChannelAdmin24ProxyPushSupplier_Helper6is_nilEPNS_25_objref_ProxyPushSupplierE @1782
    _ZN21CosNotifyChannelAdmin24ProxyPushSupplier_Helper7releaseEPNS_25_objref_ProxyPushSupplierE @1783
    _ZN21CosNotifyChannelAdmin24ProxyPushSupplier_Helper9duplicateEPNS_25_objref_ProxyPushSupplierE @1784
    _ZN21CosNotifyChannelAdmin24_pof_EventChannelFactory9newObjRefEP7omniIORP12omniIdentity @1785
    _ZN21CosNotifyChannelAdmin24_pof_EventChannelFactoryD0Ev @1786
    _ZN21CosNotifyChannelAdmin24_pof_EventChannelFactoryD1Ev @1787
    _ZN21CosNotifyChannelAdmin24_pof_EventChannelFactoryD2Ev @1788
    _ZN21CosNotifyChannelAdmin25ConnectionAlreadyInactive10_PD_repoIdE @1789 DATA
    _ZN21CosNotifyChannelAdmin25ConnectionAlreadyInactive10_PD_typeIdE @1790 DATA
    _ZN21CosNotifyChannelAdmin25ConnectionAlreadyInactive13insertToAnyFnE @1791 DATA
    _ZN21CosNotifyChannelAdmin25ConnectionAlreadyInactive16insertToAnyFnNCPE @1792 DATA
    _ZN21CosNotifyChannelAdmin25ConnectionAlreadyInactive9_downcastEPKN5CORBA9ExceptionE @1793
    _ZN21CosNotifyChannelAdmin25ConnectionAlreadyInactive9_downcastEPN5CORBA9ExceptionE @1794
    _ZN21CosNotifyChannelAdmin25ConnectionAlreadyInactiveC1ERKS0_ @1795
    _ZN21CosNotifyChannelAdmin25ConnectionAlreadyInactiveC2ERKS0_ @1796
    _ZN21CosNotifyChannelAdmin25ConnectionAlreadyInactiveD0Ev @1797
    _ZN21CosNotifyChannelAdmin25ConnectionAlreadyInactiveD1Ev @1798
    _ZN21CosNotifyChannelAdmin25ConnectionAlreadyInactiveD2Ev @1799
    _ZN21CosNotifyChannelAdmin25ConnectionAlreadyInactiveaSERKS0_ @1800
    _ZN21CosNotifyChannelAdmin25SequenceProxyPullConsumer10_PD_repoIdE @1801 DATA
    _ZN21CosNotifyChannelAdmin25SequenceProxyPullConsumer10_duplicateEPNS_33_objref_SequenceProxyPullConsumerE @1802
    _ZN21CosNotifyChannelAdmin25SequenceProxyPullConsumer17_unchecked_narrowEPN5CORBA6ObjectE @1803
    _ZN21CosNotifyChannelAdmin25SequenceProxyPullConsumer4_nilEv @1804
    _ZN21CosNotifyChannelAdmin25SequenceProxyPullConsumer7_narrowEPN5CORBA6ObjectE @1805
    _ZN21CosNotifyChannelAdmin25SequenceProxyPullSupplier10_PD_repoIdE @1806 DATA
    _ZN21CosNotifyChannelAdmin25SequenceProxyPullSupplier10_duplicateEPNS_33_objref_SequenceProxyPullSupplierE @1807
    _ZN21CosNotifyChannelAdmin25SequenceProxyPullSupplier17_unchecked_narrowEPN5CORBA6ObjectE @1808
    _ZN21CosNotifyChannelAdmin25SequenceProxyPullSupplier4_nilEv @1809
    _ZN21CosNotifyChannelAdmin25SequenceProxyPullSupplier7_narrowEPN5CORBA6ObjectE @1810
    _ZN21CosNotifyChannelAdmin25SequenceProxyPushConsumer10_PD_repoIdE @1811 DATA
    _ZN21CosNotifyChannelAdmin25SequenceProxyPushConsumer10_duplicateEPNS_33_objref_SequenceProxyPushConsumerE @1812
    _ZN21CosNotifyChannelAdmin25SequenceProxyPushConsumer17_unchecked_narrowEPN5CORBA6ObjectE @1813
    _ZN21CosNotifyChannelAdmin25SequenceProxyPushConsumer4_nilEv @1814
    _ZN21CosNotifyChannelAdmin25SequenceProxyPushConsumer7_narrowEPN5CORBA6ObjectE @1815
    _ZN21CosNotifyChannelAdmin25SequenceProxyPushSupplier10_PD_repoIdE @1816 DATA
    _ZN21CosNotifyChannelAdmin25SequenceProxyPushSupplier10_duplicateEPNS_33_objref_SequenceProxyPushSupplierE @1817
    _ZN21CosNotifyChannelAdmin25SequenceProxyPushSupplier17_unchecked_narrowEPN5CORBA6ObjectE @1818
    _ZN21CosNotifyChannelAdmin25SequenceProxyPushSupplier4_nilEv @1819
    _ZN21CosNotifyChannelAdmin25SequenceProxyPushSupplier7_narrowEPN5CORBA6ObjectE @1820
    _ZN21CosNotifyChannelAdmin25_impl_EventChannelFactory15_ptrToInterfaceEPKc @1821
    _ZN21CosNotifyChannelAdmin25_impl_EventChannelFactory18_mostDerivedRepoIdEv @1822
    _ZN21CosNotifyChannelAdmin25_impl_EventChannelFactory9_dispatchER14omniCallHandle @1823
    _ZN21CosNotifyChannelAdmin25_impl_EventChannelFactoryD0Ev @1824
    _ZN21CosNotifyChannelAdmin25_impl_EventChannelFactoryD1Ev @1825
    _ZN21CosNotifyChannelAdmin25_impl_EventChannelFactoryD2Ev @1826
    _ZN21CosNotifyChannelAdmin25_objref_ProxyPullConsumer12_ptrToObjRefEPKc @1827
    _ZN21CosNotifyChannelAdmin25_objref_ProxyPullConsumer17resume_connectionEv @1828
    _ZN21CosNotifyChannelAdmin25_objref_ProxyPullConsumer18suspend_connectionEv @1829
    _ZN21CosNotifyChannelAdmin25_objref_ProxyPullConsumer25connect_any_pull_supplierEPN12CosEventComm20_objref_PullSupplierE @1830
    _ZN21CosNotifyChannelAdmin25_objref_ProxyPullConsumerC1EP7omniIORP12omniIdentity @1831
    _ZN21CosNotifyChannelAdmin25_objref_ProxyPullConsumerC2EP7omniIORP12omniIdentity @1832
    _ZN21CosNotifyChannelAdmin25_objref_ProxyPullConsumerD0Ev @1833
    _ZN21CosNotifyChannelAdmin25_objref_ProxyPullConsumerD1Ev @1834
    _ZN21CosNotifyChannelAdmin25_objref_ProxyPullConsumerD2Ev @1835
    _ZN21CosNotifyChannelAdmin25_objref_ProxyPullSupplier12_ptrToObjRefEPKc @1836
    _ZN21CosNotifyChannelAdmin25_objref_ProxyPullSupplier25connect_any_pull_consumerEPN12CosEventComm20_objref_PullConsumerE @1837
    _ZN21CosNotifyChannelAdmin25_objref_ProxyPullSupplierC1EP7omniIORP12omniIdentity @1838
    _ZN21CosNotifyChannelAdmin25_objref_ProxyPullSupplierC2EP7omniIORP12omniIdentity @1839
    _ZN21CosNotifyChannelAdmin25_objref_ProxyPullSupplierD0Ev @1840
    _ZN21CosNotifyChannelAdmin25_objref_ProxyPullSupplierD1Ev @1841
    _ZN21CosNotifyChannelAdmin25_objref_ProxyPullSupplierD2Ev @1842
    _ZN21CosNotifyChannelAdmin25_objref_ProxyPushConsumer12_ptrToObjRefEPKc @1843
    _ZN21CosNotifyChannelAdmin25_objref_ProxyPushConsumer25connect_any_push_supplierEPN12CosEventComm20_objref_PushSupplierE @1844
    _ZN21CosNotifyChannelAdmin25_objref_ProxyPushConsumerC1EP7omniIORP12omniIdentity @1845
    _ZN21CosNotifyChannelAdmin25_objref_ProxyPushConsumerC2EP7omniIORP12omniIdentity @1846
    _ZN21CosNotifyChannelAdmin25_objref_ProxyPushConsumerD0Ev @1847
    _ZN21CosNotifyChannelAdmin25_objref_ProxyPushConsumerD1Ev @1848
    _ZN21CosNotifyChannelAdmin25_objref_ProxyPushConsumerD2Ev @1849
    _ZN21CosNotifyChannelAdmin25_objref_ProxyPushSupplier12_ptrToObjRefEPKc @1850
    _ZN21CosNotifyChannelAdmin25_objref_ProxyPushSupplier17resume_connectionEv @1851
    _ZN21CosNotifyChannelAdmin25_objref_ProxyPushSupplier18suspend_connectionEv @1852
    _ZN21CosNotifyChannelAdmin25_objref_ProxyPushSupplier25connect_any_push_consumerEPN12CosEventComm20_objref_PushConsumerE @1853
    _ZN21CosNotifyChannelAdmin25_objref_ProxyPushSupplierC1EP7omniIORP12omniIdentity @1854
    _ZN21CosNotifyChannelAdmin25_objref_ProxyPushSupplierC2EP7omniIORP12omniIdentity @1855
    _ZN21CosNotifyChannelAdmin25_objref_ProxyPushSupplierD0Ev @1856
    _ZN21CosNotifyChannelAdmin25_objref_ProxyPushSupplierD1Ev @1857
    _ZN21CosNotifyChannelAdmin25_objref_ProxyPushSupplierD2Ev @1858
    _ZN21CosNotifyChannelAdmin26EventChannelFactory_Helper13marshalObjRefEPNS_27_objref_EventChannelFactoryER9cdrStream @1859
    _ZN21CosNotifyChannelAdmin26EventChannelFactory_Helper15unmarshalObjRefER9cdrStream @1860
    _ZN21CosNotifyChannelAdmin26EventChannelFactory_Helper4_nilEv @1861
    _ZN21CosNotifyChannelAdmin26EventChannelFactory_Helper6is_nilEPNS_27_objref_EventChannelFactoryE @1862
    _ZN21CosNotifyChannelAdmin26EventChannelFactory_Helper7releaseEPNS_27_objref_EventChannelFactoryE @1863
    _ZN21CosNotifyChannelAdmin26EventChannelFactory_Helper9duplicateEPNS_27_objref_EventChannelFactoryE @1864
    _ZN21CosNotifyChannelAdmin27StructuredProxyPullConsumer10_PD_repoIdE @1865 DATA
    _ZN21CosNotifyChannelAdmin27StructuredProxyPullConsumer10_duplicateEPNS_35_objref_StructuredProxyPullConsumerE @1866
    _ZN21CosNotifyChannelAdmin27StructuredProxyPullConsumer17_unchecked_narrowEPN5CORBA6ObjectE @1867
    _ZN21CosNotifyChannelAdmin27StructuredProxyPullConsumer4_nilEv @1868
    _ZN21CosNotifyChannelAdmin27StructuredProxyPullConsumer7_narrowEPN5CORBA6ObjectE @1869
    _ZN21CosNotifyChannelAdmin27StructuredProxyPullSupplier10_PD_repoIdE @1870 DATA
    _ZN21CosNotifyChannelAdmin27StructuredProxyPullSupplier10_duplicateEPNS_35_objref_StructuredProxyPullSupplierE @1871
    _ZN21CosNotifyChannelAdmin27StructuredProxyPullSupplier17_unchecked_narrowEPN5CORBA6ObjectE @1872
    _ZN21CosNotifyChannelAdmin27StructuredProxyPullSupplier4_nilEv @1873
    _ZN21CosNotifyChannelAdmin27StructuredProxyPullSupplier7_narrowEPN5CORBA6ObjectE @1874
    _ZN21CosNotifyChannelAdmin27StructuredProxyPushConsumer10_PD_repoIdE @1875 DATA
    _ZN21CosNotifyChannelAdmin27StructuredProxyPushConsumer10_duplicateEPNS_35_objref_StructuredProxyPushConsumerE @1876
    _ZN21CosNotifyChannelAdmin27StructuredProxyPushConsumer17_unchecked_narrowEPN5CORBA6ObjectE @1877
    _ZN21CosNotifyChannelAdmin27StructuredProxyPushConsumer4_nilEv @1878
    _ZN21CosNotifyChannelAdmin27StructuredProxyPushConsumer7_narrowEPN5CORBA6ObjectE @1879
    _ZN21CosNotifyChannelAdmin27StructuredProxyPushSupplier10_PD_repoIdE @1880 DATA
    _ZN21CosNotifyChannelAdmin27StructuredProxyPushSupplier10_duplicateEPNS_35_objref_StructuredProxyPushSupplierE @1881
    _ZN21CosNotifyChannelAdmin27StructuredProxyPushSupplier17_unchecked_narrowEPN5CORBA6ObjectE @1882
    _ZN21CosNotifyChannelAdmin27StructuredProxyPushSupplier4_nilEv @1883
    _ZN21CosNotifyChannelAdmin27StructuredProxyPushSupplier7_narrowEPN5CORBA6ObjectE @1884
    _ZN21CosNotifyChannelAdmin27_objref_EventChannelFactory12_ptrToObjRefEPKc @1885
    _ZN21CosNotifyChannelAdmin27_objref_EventChannelFactory14create_channelERKN15CosNotification11PropertySeqES4_Rl @1886
    _ZN21CosNotifyChannelAdmin27_objref_EventChannelFactory16get_all_channelsEv @1887
    _ZN21CosNotifyChannelAdmin27_objref_EventChannelFactory17get_event_channelEl @1888
    _ZN21CosNotifyChannelAdmin27_objref_EventChannelFactoryC1EP7omniIORP12omniIdentity @1889
    _ZN21CosNotifyChannelAdmin27_objref_EventChannelFactoryC2EP7omniIORP12omniIdentity @1890
    _ZN21CosNotifyChannelAdmin27_objref_EventChannelFactoryD0Ev @1891
    _ZN21CosNotifyChannelAdmin27_objref_EventChannelFactoryD1Ev @1892
    _ZN21CosNotifyChannelAdmin27_objref_EventChannelFactoryD2Ev @1893
    _ZN21CosNotifyChannelAdmin30_pof_SequenceProxyPullConsumer9newObjRefEP7omniIORP12omniIdentity @1894
    _ZN21CosNotifyChannelAdmin30_pof_SequenceProxyPullConsumerD0Ev @1895
    _ZN21CosNotifyChannelAdmin30_pof_SequenceProxyPullConsumerD1Ev @1896
    _ZN21CosNotifyChannelAdmin30_pof_SequenceProxyPullConsumerD2Ev @1897
    _ZN21CosNotifyChannelAdmin30_pof_SequenceProxyPullSupplier9newObjRefEP7omniIORP12omniIdentity @1898
    _ZN21CosNotifyChannelAdmin30_pof_SequenceProxyPullSupplierD0Ev @1899
    _ZN21CosNotifyChannelAdmin30_pof_SequenceProxyPullSupplierD1Ev @1900
    _ZN21CosNotifyChannelAdmin30_pof_SequenceProxyPullSupplierD2Ev @1901
    _ZN21CosNotifyChannelAdmin30_pof_SequenceProxyPushConsumer9newObjRefEP7omniIORP12omniIdentity @1902
    _ZN21CosNotifyChannelAdmin30_pof_SequenceProxyPushConsumerD0Ev @1903
    _ZN21CosNotifyChannelAdmin30_pof_SequenceProxyPushConsumerD1Ev @1904
    _ZN21CosNotifyChannelAdmin30_pof_SequenceProxyPushConsumerD2Ev @1905
    _ZN21CosNotifyChannelAdmin30_pof_SequenceProxyPushSupplier9newObjRefEP7omniIORP12omniIdentity @1906
    _ZN21CosNotifyChannelAdmin30_pof_SequenceProxyPushSupplierD0Ev @1907
    _ZN21CosNotifyChannelAdmin30_pof_SequenceProxyPushSupplierD1Ev @1908
    _ZN21CosNotifyChannelAdmin30_pof_SequenceProxyPushSupplierD2Ev @1909
    _ZN21CosNotifyChannelAdmin31_impl_SequenceProxyPullConsumer15_ptrToInterfaceEPKc @1910
    _ZN21CosNotifyChannelAdmin31_impl_SequenceProxyPullConsumer18_mostDerivedRepoIdEv @1911
    _ZN21CosNotifyChannelAdmin31_impl_SequenceProxyPullConsumer9_dispatchER14omniCallHandle @1912
    _ZN21CosNotifyChannelAdmin31_impl_SequenceProxyPullConsumerD0Ev @1913
    _ZN21CosNotifyChannelAdmin31_impl_SequenceProxyPullConsumerD1Ev @1914
    _ZN21CosNotifyChannelAdmin31_impl_SequenceProxyPullConsumerD2Ev @1915
    _ZN21CosNotifyChannelAdmin31_impl_SequenceProxyPullSupplier15_ptrToInterfaceEPKc @1916
    _ZN21CosNotifyChannelAdmin31_impl_SequenceProxyPullSupplier18_mostDerivedRepoIdEv @1917
    _ZN21CosNotifyChannelAdmin31_impl_SequenceProxyPullSupplier9_dispatchER14omniCallHandle @1918
    _ZN21CosNotifyChannelAdmin31_impl_SequenceProxyPullSupplierD0Ev @1919
    _ZN21CosNotifyChannelAdmin31_impl_SequenceProxyPullSupplierD1Ev @1920
    _ZN21CosNotifyChannelAdmin31_impl_SequenceProxyPullSupplierD2Ev @1921
    _ZN21CosNotifyChannelAdmin31_impl_SequenceProxyPushConsumer15_ptrToInterfaceEPKc @1922
    _ZN21CosNotifyChannelAdmin31_impl_SequenceProxyPushConsumer18_mostDerivedRepoIdEv @1923
    _ZN21CosNotifyChannelAdmin31_impl_SequenceProxyPushConsumer9_dispatchER14omniCallHandle @1924
    _ZN21CosNotifyChannelAdmin31_impl_SequenceProxyPushConsumerD0Ev @1925
    _ZN21CosNotifyChannelAdmin31_impl_SequenceProxyPushConsumerD1Ev @1926
    _ZN21CosNotifyChannelAdmin31_impl_SequenceProxyPushConsumerD2Ev @1927
    _ZN21CosNotifyChannelAdmin31_impl_SequenceProxyPushSupplier15_ptrToInterfaceEPKc @1928
    _ZN21CosNotifyChannelAdmin31_impl_SequenceProxyPushSupplier18_mostDerivedRepoIdEv @1929
    _ZN21CosNotifyChannelAdmin31_impl_SequenceProxyPushSupplier9_dispatchER14omniCallHandle @1930
    _ZN21CosNotifyChannelAdmin31_impl_SequenceProxyPushSupplierD0Ev @1931
    _ZN21CosNotifyChannelAdmin31_impl_SequenceProxyPushSupplierD1Ev @1932
    _ZN21CosNotifyChannelAdmin31_impl_SequenceProxyPushSupplierD2Ev @1933
    _ZN21CosNotifyChannelAdmin32SequenceProxyPullConsumer_Helper13marshalObjRefEPNS_33_objref_SequenceProxyPullConsumerER9cdrStream @1934
    _ZN21CosNotifyChannelAdmin32SequenceProxyPullConsumer_Helper15unmarshalObjRefER9cdrStream @1935
    _ZN21CosNotifyChannelAdmin32SequenceProxyPullConsumer_Helper4_nilEv @1936
    _ZN21CosNotifyChannelAdmin32SequenceProxyPullConsumer_Helper6is_nilEPNS_33_objref_SequenceProxyPullConsumerE @1937
    _ZN21CosNotifyChannelAdmin32SequenceProxyPullConsumer_Helper7releaseEPNS_33_objref_SequenceProxyPullConsumerE @1938
    _ZN21CosNotifyChannelAdmin32SequenceProxyPullConsumer_Helper9duplicateEPNS_33_objref_SequenceProxyPullConsumerE @1939
    _ZN21CosNotifyChannelAdmin32SequenceProxyPullSupplier_Helper13marshalObjRefEPNS_33_objref_SequenceProxyPullSupplierER9cdrStream @1940
    _ZN21CosNotifyChannelAdmin32SequenceProxyPullSupplier_Helper15unmarshalObjRefER9cdrStream @1941
    _ZN21CosNotifyChannelAdmin32SequenceProxyPullSupplier_Helper4_nilEv @1942
    _ZN21CosNotifyChannelAdmin32SequenceProxyPullSupplier_Helper6is_nilEPNS_33_objref_SequenceProxyPullSupplierE @1943
    _ZN21CosNotifyChannelAdmin32SequenceProxyPullSupplier_Helper7releaseEPNS_33_objref_SequenceProxyPullSupplierE @1944
    _ZN21CosNotifyChannelAdmin32SequenceProxyPullSupplier_Helper9duplicateEPNS_33_objref_SequenceProxyPullSupplierE @1945
    _ZN21CosNotifyChannelAdmin32SequenceProxyPushConsumer_Helper13marshalObjRefEPNS_33_objref_SequenceProxyPushConsumerER9cdrStream @1946
    _ZN21CosNotifyChannelAdmin32SequenceProxyPushConsumer_Helper15unmarshalObjRefER9cdrStream @1947
    _ZN21CosNotifyChannelAdmin32SequenceProxyPushConsumer_Helper4_nilEv @1948
    _ZN21CosNotifyChannelAdmin32SequenceProxyPushConsumer_Helper6is_nilEPNS_33_objref_SequenceProxyPushConsumerE @1949
    _ZN21CosNotifyChannelAdmin32SequenceProxyPushConsumer_Helper7releaseEPNS_33_objref_SequenceProxyPushConsumerE @1950
    _ZN21CosNotifyChannelAdmin32SequenceProxyPushConsumer_Helper9duplicateEPNS_33_objref_SequenceProxyPushConsumerE @1951
    _ZN21CosNotifyChannelAdmin32SequenceProxyPushSupplier_Helper13marshalObjRefEPNS_33_objref_SequenceProxyPushSupplierER9cdrStream @1952
    _ZN21CosNotifyChannelAdmin32SequenceProxyPushSupplier_Helper15unmarshalObjRefER9cdrStream @1953
    _ZN21CosNotifyChannelAdmin32SequenceProxyPushSupplier_Helper4_nilEv @1954
    _ZN21CosNotifyChannelAdmin32SequenceProxyPushSupplier_Helper6is_nilEPNS_33_objref_SequenceProxyPushSupplierE @1955
    _ZN21CosNotifyChannelAdmin32SequenceProxyPushSupplier_Helper7releaseEPNS_33_objref_SequenceProxyPushSupplierE @1956
    _ZN21CosNotifyChannelAdmin32SequenceProxyPushSupplier_Helper9duplicateEPNS_33_objref_SequenceProxyPushSupplierE @1957
    _ZN21CosNotifyChannelAdmin32_pof_StructuredProxyPullConsumer9newObjRefEP7omniIORP12omniIdentity @1958
    _ZN21CosNotifyChannelAdmin32_pof_StructuredProxyPullConsumerD0Ev @1959
    _ZN21CosNotifyChannelAdmin32_pof_StructuredProxyPullConsumerD1Ev @1960
    _ZN21CosNotifyChannelAdmin32_pof_StructuredProxyPullConsumerD2Ev @1961
    _ZN21CosNotifyChannelAdmin32_pof_StructuredProxyPullSupplier9newObjRefEP7omniIORP12omniIdentity @1962
    _ZN21CosNotifyChannelAdmin32_pof_StructuredProxyPullSupplierD0Ev @1963
    _ZN21CosNotifyChannelAdmin32_pof_StructuredProxyPullSupplierD1Ev @1964
    _ZN21CosNotifyChannelAdmin32_pof_StructuredProxyPullSupplierD2Ev @1965
    _ZN21CosNotifyChannelAdmin32_pof_StructuredProxyPushConsumer9newObjRefEP7omniIORP12omniIdentity @1966
    _ZN21CosNotifyChannelAdmin32_pof_StructuredProxyPushConsumerD0Ev @1967
    _ZN21CosNotifyChannelAdmin32_pof_StructuredProxyPushConsumerD1Ev @1968
    _ZN21CosNotifyChannelAdmin32_pof_StructuredProxyPushConsumerD2Ev @1969
    _ZN21CosNotifyChannelAdmin32_pof_StructuredProxyPushSupplier9newObjRefEP7omniIORP12omniIdentity @1970
    _ZN21CosNotifyChannelAdmin32_pof_StructuredProxyPushSupplierD0Ev @1971
    _ZN21CosNotifyChannelAdmin32_pof_StructuredProxyPushSupplierD1Ev @1972
    _ZN21CosNotifyChannelAdmin32_pof_StructuredProxyPushSupplierD2Ev @1973
    _ZN21CosNotifyChannelAdmin33_impl_StructuredProxyPullConsumer15_ptrToInterfaceEPKc @1974
    _ZN21CosNotifyChannelAdmin33_impl_StructuredProxyPullConsumer18_mostDerivedRepoIdEv @1975
    _ZN21CosNotifyChannelAdmin33_impl_StructuredProxyPullConsumer9_dispatchER14omniCallHandle @1976
    _ZN21CosNotifyChannelAdmin33_impl_StructuredProxyPullConsumerD0Ev @1977
    _ZN21CosNotifyChannelAdmin33_impl_StructuredProxyPullConsumerD1Ev @1978
    _ZN21CosNotifyChannelAdmin33_impl_StructuredProxyPullConsumerD2Ev @1979
    _ZN21CosNotifyChannelAdmin33_impl_StructuredProxyPullSupplier15_ptrToInterfaceEPKc @1980
    _ZN21CosNotifyChannelAdmin33_impl_StructuredProxyPullSupplier18_mostDerivedRepoIdEv @1981
    _ZN21CosNotifyChannelAdmin33_impl_StructuredProxyPullSupplier9_dispatchER14omniCallHandle @1982
    _ZN21CosNotifyChannelAdmin33_impl_StructuredProxyPullSupplierD0Ev @1983
    _ZN21CosNotifyChannelAdmin33_impl_StructuredProxyPullSupplierD1Ev @1984
    _ZN21CosNotifyChannelAdmin33_impl_StructuredProxyPullSupplierD2Ev @1985
    _ZN21CosNotifyChannelAdmin33_impl_StructuredProxyPushConsumer15_ptrToInterfaceEPKc @1986
    _ZN21CosNotifyChannelAdmin33_impl_StructuredProxyPushConsumer18_mostDerivedRepoIdEv @1987
    _ZN21CosNotifyChannelAdmin33_impl_StructuredProxyPushConsumer9_dispatchER14omniCallHandle @1988
    _ZN21CosNotifyChannelAdmin33_impl_StructuredProxyPushConsumerD0Ev @1989
    _ZN21CosNotifyChannelAdmin33_impl_StructuredProxyPushConsumerD1Ev @1990
    _ZN21CosNotifyChannelAdmin33_impl_StructuredProxyPushConsumerD2Ev @1991
    _ZN21CosNotifyChannelAdmin33_impl_StructuredProxyPushSupplier15_ptrToInterfaceEPKc @1992
    _ZN21CosNotifyChannelAdmin33_impl_StructuredProxyPushSupplier18_mostDerivedRepoIdEv @1993
    _ZN21CosNotifyChannelAdmin33_impl_StructuredProxyPushSupplier9_dispatchER14omniCallHandle @1994
    _ZN21CosNotifyChannelAdmin33_impl_StructuredProxyPushSupplierD0Ev @1995
    _ZN21CosNotifyChannelAdmin33_impl_StructuredProxyPushSupplierD1Ev @1996
    _ZN21CosNotifyChannelAdmin33_impl_StructuredProxyPushSupplierD2Ev @1997
    _ZN21CosNotifyChannelAdmin33_objref_SequenceProxyPullConsumer12_ptrToObjRefEPKc @1998
    _ZN21CosNotifyChannelAdmin33_objref_SequenceProxyPullConsumer17resume_connectionEv @1999
    _ZN21CosNotifyChannelAdmin33_objref_SequenceProxyPullConsumer18suspend_connectionEv @2000
    _ZN21CosNotifyChannelAdmin33_objref_SequenceProxyPullConsumer30connect_sequence_pull_supplierEPN13CosNotifyComm28_objref_SequencePullSupplierE @2001
    _ZN21CosNotifyChannelAdmin33_objref_SequenceProxyPullConsumerC1EP7omniIORP12omniIdentity @2002
    _ZN21CosNotifyChannelAdmin33_objref_SequenceProxyPullConsumerC2EP7omniIORP12omniIdentity @2003
    _ZN21CosNotifyChannelAdmin33_objref_SequenceProxyPullConsumerD0Ev @2004
    _ZN21CosNotifyChannelAdmin33_objref_SequenceProxyPullConsumerD1Ev @2005
    _ZN21CosNotifyChannelAdmin33_objref_SequenceProxyPullConsumerD2Ev @2006
    _ZN21CosNotifyChannelAdmin33_objref_SequenceProxyPullSupplier12_ptrToObjRefEPKc @2007
    _ZN21CosNotifyChannelAdmin33_objref_SequenceProxyPullSupplier30connect_sequence_pull_consumerEPN13CosNotifyComm28_objref_SequencePullConsumerE @2008
    _ZN21CosNotifyChannelAdmin33_objref_SequenceProxyPullSupplierC1EP7omniIORP12omniIdentity @2009
    _ZN21CosNotifyChannelAdmin33_objref_SequenceProxyPullSupplierC2EP7omniIORP12omniIdentity @2010
    _ZN21CosNotifyChannelAdmin33_objref_SequenceProxyPullSupplierD0Ev @2011
    _ZN21CosNotifyChannelAdmin33_objref_SequenceProxyPullSupplierD1Ev @2012
    _ZN21CosNotifyChannelAdmin33_objref_SequenceProxyPullSupplierD2Ev @2013
    _ZN21CosNotifyChannelAdmin33_objref_SequenceProxyPushConsumer12_ptrToObjRefEPKc @2014
    _ZN21CosNotifyChannelAdmin33_objref_SequenceProxyPushConsumer30connect_sequence_push_supplierEPN13CosNotifyComm28_objref_SequencePushSupplierE @2015
    _ZN21CosNotifyChannelAdmin33_objref_SequenceProxyPushConsumerC1EP7omniIORP12omniIdentity @2016
    _ZN21CosNotifyChannelAdmin33_objref_SequenceProxyPushConsumerC2EP7omniIORP12omniIdentity @2017
    _ZN21CosNotifyChannelAdmin33_objref_SequenceProxyPushConsumerD0Ev @2018
    _ZN21CosNotifyChannelAdmin33_objref_SequenceProxyPushConsumerD1Ev @2019
    _ZN21CosNotifyChannelAdmin33_objref_SequenceProxyPushConsumerD2Ev @2020
    _ZN21CosNotifyChannelAdmin33_objref_SequenceProxyPushSupplier12_ptrToObjRefEPKc @2021
    _ZN21CosNotifyChannelAdmin33_objref_SequenceProxyPushSupplier17resume_connectionEv @2022
    _ZN21CosNotifyChannelAdmin33_objref_SequenceProxyPushSupplier18suspend_connectionEv @2023
    _ZN21CosNotifyChannelAdmin33_objref_SequenceProxyPushSupplier30connect_sequence_push_consumerEPN13CosNotifyComm28_objref_SequencePushConsumerE @2024
    _ZN21CosNotifyChannelAdmin33_objref_SequenceProxyPushSupplierC1EP7omniIORP12omniIdentity @2025
    _ZN21CosNotifyChannelAdmin33_objref_SequenceProxyPushSupplierC2EP7omniIORP12omniIdentity @2026
    _ZN21CosNotifyChannelAdmin33_objref_SequenceProxyPushSupplierD0Ev @2027
    _ZN21CosNotifyChannelAdmin33_objref_SequenceProxyPushSupplierD1Ev @2028
    _ZN21CosNotifyChannelAdmin33_objref_SequenceProxyPushSupplierD2Ev @2029
    _ZN21CosNotifyChannelAdmin34StructuredProxyPullConsumer_Helper13marshalObjRefEPNS_35_objref_StructuredProxyPullConsumerER9cdrStream @2030
    _ZN21CosNotifyChannelAdmin34StructuredProxyPullConsumer_Helper15unmarshalObjRefER9cdrStream @2031
    _ZN21CosNotifyChannelAdmin34StructuredProxyPullConsumer_Helper4_nilEv @2032
    _ZN21CosNotifyChannelAdmin34StructuredProxyPullConsumer_Helper6is_nilEPNS_35_objref_StructuredProxyPullConsumerE @2033
    _ZN21CosNotifyChannelAdmin34StructuredProxyPullConsumer_Helper7releaseEPNS_35_objref_StructuredProxyPullConsumerE @2034
    _ZN21CosNotifyChannelAdmin34StructuredProxyPullConsumer_Helper9duplicateEPNS_35_objref_StructuredProxyPullConsumerE @2035
    _ZN21CosNotifyChannelAdmin34StructuredProxyPullSupplier_Helper13marshalObjRefEPNS_35_objref_StructuredProxyPullSupplierER9cdrStream @2036
    _ZN21CosNotifyChannelAdmin34StructuredProxyPullSupplier_Helper15unmarshalObjRefER9cdrStream @2037
    _ZN21CosNotifyChannelAdmin34StructuredProxyPullSupplier_Helper4_nilEv @2038
    _ZN21CosNotifyChannelAdmin34StructuredProxyPullSupplier_Helper6is_nilEPNS_35_objref_StructuredProxyPullSupplierE @2039
    _ZN21CosNotifyChannelAdmin34StructuredProxyPullSupplier_Helper7releaseEPNS_35_objref_StructuredProxyPullSupplierE @2040
    _ZN21CosNotifyChannelAdmin34StructuredProxyPullSupplier_Helper9duplicateEPNS_35_objref_StructuredProxyPullSupplierE @2041
    _ZN21CosNotifyChannelAdmin34StructuredProxyPushConsumer_Helper13marshalObjRefEPNS_35_objref_StructuredProxyPushConsumerER9cdrStream @2042
    _ZN21CosNotifyChannelAdmin34StructuredProxyPushConsumer_Helper15unmarshalObjRefER9cdrStream @2043
    _ZN21CosNotifyChannelAdmin34StructuredProxyPushConsumer_Helper4_nilEv @2044
    _ZN21CosNotifyChannelAdmin34StructuredProxyPushConsumer_Helper6is_nilEPNS_35_objref_StructuredProxyPushConsumerE @2045
    _ZN21CosNotifyChannelAdmin34StructuredProxyPushConsumer_Helper7releaseEPNS_35_objref_StructuredProxyPushConsumerE @2046
    _ZN21CosNotifyChannelAdmin34StructuredProxyPushConsumer_Helper9duplicateEPNS_35_objref_StructuredProxyPushConsumerE @2047
    _ZN21CosNotifyChannelAdmin34StructuredProxyPushSupplier_Helper13marshalObjRefEPNS_35_objref_StructuredProxyPushSupplierER9cdrStream @2048
    _ZN21CosNotifyChannelAdmin34StructuredProxyPushSupplier_Helper15unmarshalObjRefER9cdrStream @2049
    _ZN21CosNotifyChannelAdmin34StructuredProxyPushSupplier_Helper4_nilEv @2050
    _ZN21CosNotifyChannelAdmin34StructuredProxyPushSupplier_Helper6is_nilEPNS_35_objref_StructuredProxyPushSupplierE @2051
    _ZN21CosNotifyChannelAdmin34StructuredProxyPushSupplier_Helper7releaseEPNS_35_objref_StructuredProxyPushSupplierE @2052
    _ZN21CosNotifyChannelAdmin34StructuredProxyPushSupplier_Helper9duplicateEPNS_35_objref_StructuredProxyPushSupplierE @2053
    _ZN21CosNotifyChannelAdmin35_objref_StructuredProxyPullConsumer12_ptrToObjRefEPKc @2054
    _ZN21CosNotifyChannelAdmin35_objref_StructuredProxyPullConsumer17resume_connectionEv @2055
    _ZN21CosNotifyChannelAdmin35_objref_StructuredProxyPullConsumer18suspend_connectionEv @2056
    _ZN21CosNotifyChannelAdmin35_objref_StructuredProxyPullConsumer32connect_structured_pull_supplierEPN13CosNotifyComm30_objref_StructuredPullSupplierE @2057
    _ZN21CosNotifyChannelAdmin35_objref_StructuredProxyPullConsumerC1EP7omniIORP12omniIdentity @2058
    _ZN21CosNotifyChannelAdmin35_objref_StructuredProxyPullConsumerC2EP7omniIORP12omniIdentity @2059
    _ZN21CosNotifyChannelAdmin35_objref_StructuredProxyPullConsumerD0Ev @2060
    _ZN21CosNotifyChannelAdmin35_objref_StructuredProxyPullConsumerD1Ev @2061
    _ZN21CosNotifyChannelAdmin35_objref_StructuredProxyPullConsumerD2Ev @2062
    _ZN21CosNotifyChannelAdmin35_objref_StructuredProxyPullSupplier12_ptrToObjRefEPKc @2063
    _ZN21CosNotifyChannelAdmin35_objref_StructuredProxyPullSupplier32connect_structured_pull_consumerEPN13CosNotifyComm30_objref_StructuredPullConsumerE @2064
    _ZN21CosNotifyChannelAdmin35_objref_StructuredProxyPullSupplierC1EP7omniIORP12omniIdentity @2065
    _ZN21CosNotifyChannelAdmin35_objref_StructuredProxyPullSupplierC2EP7omniIORP12omniIdentity @2066
    _ZN21CosNotifyChannelAdmin35_objref_StructuredProxyPullSupplierD0Ev @2067
    _ZN21CosNotifyChannelAdmin35_objref_StructuredProxyPullSupplierD1Ev @2068
    _ZN21CosNotifyChannelAdmin35_objref_StructuredProxyPullSupplierD2Ev @2069
    _ZN21CosNotifyChannelAdmin35_objref_StructuredProxyPushConsumer12_ptrToObjRefEPKc @2070
    _ZN21CosNotifyChannelAdmin35_objref_StructuredProxyPushConsumer32connect_structured_push_supplierEPN13CosNotifyComm30_objref_StructuredPushSupplierE @2071
    _ZN21CosNotifyChannelAdmin35_objref_StructuredProxyPushConsumerC1EP7omniIORP12omniIdentity @2072
    _ZN21CosNotifyChannelAdmin35_objref_StructuredProxyPushConsumerC2EP7omniIORP12omniIdentity @2073
    _ZN21CosNotifyChannelAdmin35_objref_StructuredProxyPushConsumerD0Ev @2074
    _ZN21CosNotifyChannelAdmin35_objref_StructuredProxyPushConsumerD1Ev @2075
    _ZN21CosNotifyChannelAdmin35_objref_StructuredProxyPushConsumerD2Ev @2076
    _ZN21CosNotifyChannelAdmin35_objref_StructuredProxyPushSupplier12_ptrToObjRefEPKc @2077
    _ZN21CosNotifyChannelAdmin35_objref_StructuredProxyPushSupplier17resume_connectionEv @2078
    _ZN21CosNotifyChannelAdmin35_objref_StructuredProxyPushSupplier18suspend_connectionEv @2079
    _ZN21CosNotifyChannelAdmin35_objref_StructuredProxyPushSupplier32connect_structured_push_consumerEPN13CosNotifyComm30_objref_StructuredPushConsumerE @2080
    _ZN21CosNotifyChannelAdmin35_objref_StructuredProxyPushSupplierC1EP7omniIORP12omniIdentity @2081
    _ZN21CosNotifyChannelAdmin35_objref_StructuredProxyPushSupplierC2EP7omniIORP12omniIdentity @2082
    _ZN21CosNotifyChannelAdmin35_objref_StructuredProxyPushSupplierD0Ev @2083
    _ZN21CosNotifyChannelAdmin35_objref_StructuredProxyPushSupplierD1Ev @2084
    _ZN21CosNotifyChannelAdmin35_objref_StructuredProxyPushSupplierD2Ev @2085
    _ZN22_CORBA_Sequence_ObjRefIN5CORBA6ObjectENS0_14Object_ElementENS0_13Object_HelperEE7freebufEPPS1_ @2086
    _ZN24POA_CosEventChannelAdmin12EventChannelD0Ev @2087
    _ZN24POA_CosEventChannelAdmin12EventChannelD1Ev @2088
    _ZN24POA_CosEventChannelAdmin12EventChannelD2Ev @2089
    _ZN24POA_CosEventChannelAdmin13ConsumerAdminD0Ev @2090
    _ZN24POA_CosEventChannelAdmin13ConsumerAdminD1Ev @2091
    _ZN24POA_CosEventChannelAdmin13ConsumerAdminD2Ev @2092
    _ZN24POA_CosEventChannelAdmin13SupplierAdminD0Ev @2093
    _ZN24POA_CosEventChannelAdmin13SupplierAdminD1Ev @2094
    _ZN24POA_CosEventChannelAdmin13SupplierAdminD2Ev @2095
    _ZN24POA_CosEventChannelAdmin17ProxyPullConsumerD0Ev @2096
    _ZN24POA_CosEventChannelAdmin17ProxyPullConsumerD1Ev @2097
    _ZN24POA_CosEventChannelAdmin17ProxyPullConsumerD2Ev @2098
    _ZN24POA_CosEventChannelAdmin17ProxyPullSupplierD0Ev @2099
    _ZN24POA_CosEventChannelAdmin17ProxyPullSupplierD1Ev @2100
    _ZN24POA_CosEventChannelAdmin17ProxyPullSupplierD2Ev @2101
    _ZN24POA_CosEventChannelAdmin17ProxyPushConsumerD0Ev @2102
    _ZN24POA_CosEventChannelAdmin17ProxyPushConsumerD1Ev @2103
    _ZN24POA_CosEventChannelAdmin17ProxyPushConsumerD2Ev @2104
    _ZN24POA_CosEventChannelAdmin17ProxyPushSupplierD0Ev @2105
    _ZN24POA_CosEventChannelAdmin17ProxyPushSupplierD1Ev @2106
    _ZN24POA_CosEventChannelAdmin17ProxyPushSupplierD2Ev @2107
    _ZN25POA_CosNotifyChannelAdmin12EventChannelD0Ev @2108
    _ZN25POA_CosNotifyChannelAdmin12EventChannelD1Ev @2109
    _ZN25POA_CosNotifyChannelAdmin12EventChannelD2Ev @2110
    _ZN25POA_CosNotifyChannelAdmin13ConsumerAdminD0Ev @2111
    _ZN25POA_CosNotifyChannelAdmin13ConsumerAdminD1Ev @2112
    _ZN25POA_CosNotifyChannelAdmin13ConsumerAdminD2Ev @2113
    _ZN25POA_CosNotifyChannelAdmin13ProxyConsumerD0Ev @2114
    _ZN25POA_CosNotifyChannelAdmin13ProxyConsumerD1Ev @2115
    _ZN25POA_CosNotifyChannelAdmin13ProxyConsumerD2Ev @2116
    _ZN25POA_CosNotifyChannelAdmin13ProxySupplierD0Ev @2117
    _ZN25POA_CosNotifyChannelAdmin13ProxySupplierD1Ev @2118
    _ZN25POA_CosNotifyChannelAdmin13ProxySupplierD2Ev @2119
    _ZN25POA_CosNotifyChannelAdmin13SupplierAdminD0Ev @2120
    _ZN25POA_CosNotifyChannelAdmin13SupplierAdminD1Ev @2121
    _ZN25POA_CosNotifyChannelAdmin13SupplierAdminD2Ev @2122
    _ZN25POA_CosNotifyChannelAdmin17ProxyPullConsumerD0Ev @2123
    _ZN25POA_CosNotifyChannelAdmin17ProxyPullConsumerD1Ev @2124
    _ZN25POA_CosNotifyChannelAdmin17ProxyPullConsumerD2Ev @2125
    _ZN25POA_CosNotifyChannelAdmin17ProxyPullSupplierD0Ev @2126
    _ZN25POA_CosNotifyChannelAdmin17ProxyPullSupplierD1Ev @2127
    _ZN25POA_CosNotifyChannelAdmin17ProxyPullSupplierD2Ev @2128
    _ZN25POA_CosNotifyChannelAdmin17ProxyPushConsumerD0Ev @2129
    _ZN25POA_CosNotifyChannelAdmin17ProxyPushConsumerD1Ev @2130
    _ZN25POA_CosNotifyChannelAdmin17ProxyPushConsumerD2Ev @2131
    _ZN25POA_CosNotifyChannelAdmin17ProxyPushSupplierD0Ev @2132
    _ZN25POA_CosNotifyChannelAdmin17ProxyPushSupplierD1Ev @2133
    _ZN25POA_CosNotifyChannelAdmin17ProxyPushSupplierD2Ev @2134
    _ZN25POA_CosNotifyChannelAdmin19EventChannelFactoryD0Ev @2135
    _ZN25POA_CosNotifyChannelAdmin19EventChannelFactoryD1Ev @2136
    _ZN25POA_CosNotifyChannelAdmin19EventChannelFactoryD2Ev @2137
    _ZN25POA_CosNotifyChannelAdmin25SequenceProxyPullConsumerD0Ev @2138
    _ZN25POA_CosNotifyChannelAdmin25SequenceProxyPullConsumerD1Ev @2139
    _ZN25POA_CosNotifyChannelAdmin25SequenceProxyPullConsumerD2Ev @2140
    _ZN25POA_CosNotifyChannelAdmin25SequenceProxyPullSupplierD0Ev @2141
    _ZN25POA_CosNotifyChannelAdmin25SequenceProxyPullSupplierD1Ev @2142
    _ZN25POA_CosNotifyChannelAdmin25SequenceProxyPullSupplierD2Ev @2143
    _ZN25POA_CosNotifyChannelAdmin25SequenceProxyPushConsumerD0Ev @2144
    _ZN25POA_CosNotifyChannelAdmin25SequenceProxyPushConsumerD1Ev @2145
    _ZN25POA_CosNotifyChannelAdmin25SequenceProxyPushConsumerD2Ev @2146
    _ZN25POA_CosNotifyChannelAdmin25SequenceProxyPushSupplierD0Ev @2147
    _ZN25POA_CosNotifyChannelAdmin25SequenceProxyPushSupplierD1Ev @2148
    _ZN25POA_CosNotifyChannelAdmin25SequenceProxyPushSupplierD2Ev @2149
    _ZN25POA_CosNotifyChannelAdmin27StructuredProxyPullConsumerD0Ev @2150
    _ZN25POA_CosNotifyChannelAdmin27StructuredProxyPullConsumerD1Ev @2151
    _ZN25POA_CosNotifyChannelAdmin27StructuredProxyPullConsumerD2Ev @2152
    _ZN25POA_CosNotifyChannelAdmin27StructuredProxyPullSupplierD0Ev @2153
    _ZN25POA_CosNotifyChannelAdmin27StructuredProxyPullSupplierD1Ev @2154
    _ZN25POA_CosNotifyChannelAdmin27StructuredProxyPullSupplierD2Ev @2155
    _ZN25POA_CosNotifyChannelAdmin27StructuredProxyPushConsumerD0Ev @2156
    _ZN25POA_CosNotifyChannelAdmin27StructuredProxyPushConsumerD1Ev @2157
    _ZN25POA_CosNotifyChannelAdmin27StructuredProxyPushConsumerD2Ev @2158
    _ZN25POA_CosNotifyChannelAdmin27StructuredProxyPushSupplierD0Ev @2159
    _ZN25POA_CosNotifyChannelAdmin27StructuredProxyPushSupplierD1Ev @2160
    _ZN25POA_CosNotifyChannelAdmin27StructuredProxyPushSupplierD2Ev @2161
    _ZN25_CORBA_Unbounded_SequenceIN12CosLifeCycle3NVPEElSER9cdrStream @2162
    _ZN25_CORBA_Unbounded_SequenceIN15CosNotification13PropertyErrorEElSER9cdrStream @2163
    _ZN25_CORBA_Unbounded_SequenceIN15CosNotification15StructuredEventEElSER9cdrStream @2164
    _ZN25_CORBA_Unbounded_SequenceIN15CosNotification8PropertyEElSER9cdrStream @2165
    _ZN25_CORBA_Unbounded_SequenceIN15CosNotifyFilter14ConstraintInfoEElSER9cdrStream @2166
    _ZN25_CORBA_Unbounded_SequenceIN15CosNotifyFilter21MappingConstraintInfoEElSER9cdrStream @2167
    _ZN25_CORBA_Unbounded_SequenceIN9CosNaming13NameComponentEElSER9cdrStream @2168
    _ZN30_CORBA_ConstrType_Variable_VarIN15CosNotification15StructuredEventEED1Ev @2169
    _ZN33_0RL_cd_1FE8F330207AFD15_0000000010_user_exnsE @2170 DATA
    _ZN33_0RL_cd_1FE8F330207AFD15_0000000013userExceptionER9cdrStreamPN4omni5IOP_CEPKc @2171
    _ZN33_0RL_cd_1FE8F330207AFD15_0000000016marshalArgumentsER9cdrStream @2172
    _ZN33_0RL_cd_1FE8F330207AFD15_0000000018unmarshalArgumentsER9cdrStream @2173
    _ZN33_0RL_cd_1FE8F330207AFD15_0000000021marshalReturnedValuesER9cdrStream @2174
    _ZN33_0RL_cd_1FE8F330207AFD15_0000000023unmarshalReturnedValuesER9cdrStream @2175
    _ZN33_0RL_cd_1FE8F330207AFD15_00000000D0Ev @2176
    _ZN33_0RL_cd_1FE8F330207AFD15_00000000D1Ev @2177
    _ZN33_0RL_cd_1FE8F330207AFD15_0300000010_user_exnsE @2178 DATA
    _ZN33_0RL_cd_1FE8F330207AFD15_0300000013userExceptionER9cdrStreamPN4omni5IOP_CEPKc @2179
    _ZN33_0RL_cd_1FE8F330207AFD15_0300000016marshalArgumentsER9cdrStream @2180
    _ZN33_0RL_cd_1FE8F330207AFD15_0300000018unmarshalArgumentsER9cdrStream @2181
    _ZN33_0RL_cd_1FE8F330207AFD15_0300000021marshalReturnedValuesER9cdrStream @2182
    _ZN33_0RL_cd_1FE8F330207AFD15_0300000023unmarshalReturnedValuesER9cdrStream @2183
    _ZN33_0RL_cd_1FE8F330207AFD15_03000000D0Ev @2184
    _ZN33_0RL_cd_1FE8F330207AFD15_03000000D1Ev @2185
    _ZN33_0RL_cd_1FE8F330207AFD15_1100000010_user_exnsE @2186 DATA
    _ZN33_0RL_cd_1FE8F330207AFD15_1100000016marshalArgumentsER9cdrStream @2187
    _ZN33_0RL_cd_1FE8F330207AFD15_1100000018unmarshalArgumentsER9cdrStream @2188
    _ZN33_0RL_cd_1FE8F330207AFD15_1100000021marshalReturnedValuesER9cdrStream @2189
    _ZN33_0RL_cd_1FE8F330207AFD15_1100000023unmarshalReturnedValuesER9cdrStream @2190
    _ZN33_0RL_cd_1FE8F330207AFD15_11000000D0Ev @2191
    _ZN33_0RL_cd_1FE8F330207AFD15_11000000D1Ev @2192
    _ZN33_0RL_cd_1FE8F330207AFD15_2000000010_user_exnsE @2193 DATA
    _ZN33_0RL_cd_1FE8F330207AFD15_2000000013userExceptionER9cdrStreamPN4omni5IOP_CEPKc @2194
    _ZN33_0RL_cd_1FE8F330207AFD15_2000000016marshalArgumentsER9cdrStream @2195
    _ZN33_0RL_cd_1FE8F330207AFD15_2000000018unmarshalArgumentsER9cdrStream @2196
    _ZN33_0RL_cd_1FE8F330207AFD15_20000000D0Ev @2197
    _ZN33_0RL_cd_1FE8F330207AFD15_20000000D1Ev @2198
    _ZN33_0RL_cd_1FE8F330207AFD15_2300000010_user_exnsE @2199 DATA
    _ZN33_0RL_cd_1FE8F330207AFD15_2300000016marshalArgumentsER9cdrStream @2200
    _ZN33_0RL_cd_1FE8F330207AFD15_2300000018unmarshalArgumentsER9cdrStream @2201
    _ZN33_0RL_cd_1FE8F330207AFD15_2300000021marshalReturnedValuesER9cdrStream @2202
    _ZN33_0RL_cd_1FE8F330207AFD15_2300000023unmarshalReturnedValuesER9cdrStream @2203
    _ZN33_0RL_cd_1FE8F330207AFD15_23000000D0Ev @2204
    _ZN33_0RL_cd_1FE8F330207AFD15_23000000D1Ev @2205
    _ZN33_0RL_cd_1FE8F330207AFD15_3100000010_user_exnsE @2206 DATA
    _ZN33_0RL_cd_1FE8F330207AFD15_3100000013userExceptionER9cdrStreamPN4omni5IOP_CEPKc @2207
    _ZN33_0RL_cd_1FE8F330207AFD15_3100000016marshalArgumentsER9cdrStream @2208
    _ZN33_0RL_cd_1FE8F330207AFD15_3100000018unmarshalArgumentsER9cdrStream @2209
    _ZN33_0RL_cd_1FE8F330207AFD15_31000000D0Ev @2210
    _ZN33_0RL_cd_1FE8F330207AFD15_31000000D1Ev @2211
    _ZN33_0RL_cd_1FE8F330207AFD15_3200000010_user_exnsE @2212 DATA
    _ZN33_0RL_cd_1FE8F330207AFD15_3200000013userExceptionER9cdrStreamPN4omni5IOP_CEPKc @2213
    _ZN33_0RL_cd_1FE8F330207AFD15_3200000016marshalArgumentsER9cdrStream @2214
    _ZN33_0RL_cd_1FE8F330207AFD15_3200000018unmarshalArgumentsER9cdrStream @2215
    _ZN33_0RL_cd_1FE8F330207AFD15_3200000021marshalReturnedValuesER9cdrStream @2216
    _ZN33_0RL_cd_1FE8F330207AFD15_3200000023unmarshalReturnedValuesER9cdrStream @2217
    _ZN33_0RL_cd_1FE8F330207AFD15_32000000D0Ev @2218
    _ZN33_0RL_cd_1FE8F330207AFD15_32000000D1Ev @2219
    _ZN33_0RL_cd_1FE8F330207AFD15_4000000010_user_exnsE @2220 DATA
    _ZN33_0RL_cd_1FE8F330207AFD15_4000000013userExceptionER9cdrStreamPN4omni5IOP_CEPKc @2221
    _ZN33_0RL_cd_1FE8F330207AFD15_4000000016marshalArgumentsER9cdrStream @2222
    _ZN33_0RL_cd_1FE8F330207AFD15_4000000018unmarshalArgumentsER9cdrStream @2223
    _ZN33_0RL_cd_1FE8F330207AFD15_4000000021marshalReturnedValuesER9cdrStream @2224
    _ZN33_0RL_cd_1FE8F330207AFD15_4000000023unmarshalReturnedValuesER9cdrStream @2225
    _ZN33_0RL_cd_1FE8F330207AFD15_40000000D0Ev @2226
    _ZN33_0RL_cd_1FE8F330207AFD15_40000000D1Ev @2227
    _ZN33_0RL_cd_1FE8F330207AFD15_4300000010_user_exnsE @2228 DATA
    _ZN33_0RL_cd_1FE8F330207AFD15_4300000013userExceptionER9cdrStreamPN4omni5IOP_CEPKc @2229
    _ZN33_0RL_cd_1FE8F330207AFD15_4300000016marshalArgumentsER9cdrStream @2230
    _ZN33_0RL_cd_1FE8F330207AFD15_4300000018unmarshalArgumentsER9cdrStream @2231
    _ZN33_0RL_cd_1FE8F330207AFD15_43000000D0Ev @2232
    _ZN33_0RL_cd_1FE8F330207AFD15_43000000D1Ev @2233
    _ZN33_0RL_cd_1FE8F330207AFD15_5100000010_user_exnsE @2234 DATA
    _ZN33_0RL_cd_1FE8F330207AFD15_5100000021marshalReturnedValuesER9cdrStream @2235
    _ZN33_0RL_cd_1FE8F330207AFD15_5100000023unmarshalReturnedValuesER9cdrStream @2236
    _ZN33_0RL_cd_1FE8F330207AFD15_51000000D0Ev @2237
    _ZN33_0RL_cd_1FE8F330207AFD15_51000000D1Ev @2238
    _ZN33_0RL_cd_1FE8F330207AFD15_5200000010_user_exnsE @2239 DATA
    _ZN33_0RL_cd_1FE8F330207AFD15_5200000013userExceptionER9cdrStreamPN4omni5IOP_CEPKc @2240
    _ZN33_0RL_cd_1FE8F330207AFD15_5200000016marshalArgumentsER9cdrStream @2241
    _ZN33_0RL_cd_1FE8F330207AFD15_5200000018unmarshalArgumentsER9cdrStream @2242
    _ZN33_0RL_cd_1FE8F330207AFD15_5200000021marshalReturnedValuesER9cdrStream @2243
    _ZN33_0RL_cd_1FE8F330207AFD15_5200000023unmarshalReturnedValuesER9cdrStream @2244
    _ZN33_0RL_cd_1FE8F330207AFD15_52000000D0Ev @2245
    _ZN33_0RL_cd_1FE8F330207AFD15_52000000D1Ev @2246
    _ZN33_0RL_cd_1FE8F330207AFD15_6000000010_user_exnsE @2247 DATA
    _ZN33_0RL_cd_1FE8F330207AFD15_6000000021marshalReturnedValuesER9cdrStream @2248
    _ZN33_0RL_cd_1FE8F330207AFD15_6000000023unmarshalReturnedValuesER9cdrStream @2249
    _ZN33_0RL_cd_1FE8F330207AFD15_60000000D0Ev @2250
    _ZN33_0RL_cd_1FE8F330207AFD15_60000000D1Ev @2251
    _ZN33_0RL_cd_1FE8F330207AFD15_6300000010_user_exnsE @2252 DATA
    _ZN33_0RL_cd_1FE8F330207AFD15_6300000013userExceptionER9cdrStreamPN4omni5IOP_CEPKc @2253
    _ZN33_0RL_cd_1FE8F330207AFD15_6300000016marshalArgumentsER9cdrStream @2254
    _ZN33_0RL_cd_1FE8F330207AFD15_6300000018unmarshalArgumentsER9cdrStream @2255
    _ZN33_0RL_cd_1FE8F330207AFD15_6300000021marshalReturnedValuesER9cdrStream @2256
    _ZN33_0RL_cd_1FE8F330207AFD15_6300000023unmarshalReturnedValuesER9cdrStream @2257
    _ZN33_0RL_cd_1FE8F330207AFD15_63000000D0Ev @2258
    _ZN33_0RL_cd_1FE8F330207AFD15_63000000D1Ev @2259
    _ZN33_0RL_cd_1FE8F330207AFD15_7100000010_user_exnsE @2260 DATA
    _ZN33_0RL_cd_1FE8F330207AFD15_7100000021marshalReturnedValuesER9cdrStream @2261
    _ZN33_0RL_cd_1FE8F330207AFD15_7100000023unmarshalReturnedValuesER9cdrStream @2262
    _ZN33_0RL_cd_1FE8F330207AFD15_71000000D0Ev @2263
    _ZN33_0RL_cd_1FE8F330207AFD15_71000000D1Ev @2264
    _ZN33_0RL_cd_1FE8F330207AFD15_7200000010_user_exnsE @2265 DATA
    _ZN33_0RL_cd_1FE8F330207AFD15_7200000013userExceptionER9cdrStreamPN4omni5IOP_CEPKc @2266
    _ZN33_0RL_cd_1FE8F330207AFD15_7200000016marshalArgumentsER9cdrStream @2267
    _ZN33_0RL_cd_1FE8F330207AFD15_7200000018unmarshalArgumentsER9cdrStream @2268
    _ZN33_0RL_cd_1FE8F330207AFD15_7200000021marshalReturnedValuesER9cdrStream @2269
    _ZN33_0RL_cd_1FE8F330207AFD15_7200000023unmarshalReturnedValuesER9cdrStream @2270
    _ZN33_0RL_cd_1FE8F330207AFD15_72000000D0Ev @2271
    _ZN33_0RL_cd_1FE8F330207AFD15_72000000D1Ev @2272
    _ZN33_0RL_cd_1FE8F330207AFD15_8000000010_user_exnsE @2273 DATA
    _ZN33_0RL_cd_1FE8F330207AFD15_80000000D0Ev @2274
    _ZN33_0RL_cd_1FE8F330207AFD15_80000000D1Ev @2275
    _ZN33_0RL_cd_1FE8F330207AFD15_8300000010_user_exnsE @2276 DATA
    _ZN33_0RL_cd_1FE8F330207AFD15_8300000021marshalReturnedValuesER9cdrStream @2277
    _ZN33_0RL_cd_1FE8F330207AFD15_8300000023unmarshalReturnedValuesER9cdrStream @2278
    _ZN33_0RL_cd_1FE8F330207AFD15_83000000D0Ev @2279
    _ZN33_0RL_cd_1FE8F330207AFD15_83000000D1Ev @2280
    _ZN33_0RL_cd_1FE8F330207AFD15_9100000010_user_exnsE @2281 DATA
    _ZN33_0RL_cd_1FE8F330207AFD15_9100000013userExceptionER9cdrStreamPN4omni5IOP_CEPKc @2282
    _ZN33_0RL_cd_1FE8F330207AFD15_9100000016marshalArgumentsER9cdrStream @2283
    _ZN33_0RL_cd_1FE8F330207AFD15_9100000018unmarshalArgumentsER9cdrStream @2284
    _ZN33_0RL_cd_1FE8F330207AFD15_9100000021marshalReturnedValuesER9cdrStream @2285
    _ZN33_0RL_cd_1FE8F330207AFD15_9100000023unmarshalReturnedValuesER9cdrStream @2286
    _ZN33_0RL_cd_1FE8F330207AFD15_91000000D0Ev @2287
    _ZN33_0RL_cd_1FE8F330207AFD15_91000000D1Ev @2288
    _ZN33_0RL_cd_1FE8F330207AFD15_a200000010_user_exnsE @2289 DATA
    _ZN33_0RL_cd_1FE8F330207AFD15_a200000021marshalReturnedValuesER9cdrStream @2290
    _ZN33_0RL_cd_1FE8F330207AFD15_a200000023unmarshalReturnedValuesER9cdrStream @2291
    _ZN33_0RL_cd_1FE8F330207AFD15_a2000000D0Ev @2292
    _ZN33_0RL_cd_1FE8F330207AFD15_a2000000D1Ev @2293
    _ZN33_0RL_cd_1FE8F330207AFD15_b000000010_user_exnsE @2294 DATA
    _ZN33_0RL_cd_1FE8F330207AFD15_b000000013userExceptionER9cdrStreamPN4omni5IOP_CEPKc @2295
    _ZN33_0RL_cd_1FE8F330207AFD15_b000000016marshalArgumentsER9cdrStream @2296
    _ZN33_0RL_cd_1FE8F330207AFD15_b000000018unmarshalArgumentsER9cdrStream @2297
    _ZN33_0RL_cd_1FE8F330207AFD15_b000000021marshalReturnedValuesER9cdrStream @2298
    _ZN33_0RL_cd_1FE8F330207AFD15_b000000023unmarshalReturnedValuesER9cdrStream @2299
    _ZN33_0RL_cd_1FE8F330207AFD15_b0000000D0Ev @2300
    _ZN33_0RL_cd_1FE8F330207AFD15_b0000000D1Ev @2301
    _ZN33_0RL_cd_1FE8F330207AFD15_b100000010_user_exnsE @2302 DATA
    _ZN33_0RL_cd_1FE8F330207AFD15_b100000013userExceptionER9cdrStreamPN4omni5IOP_CEPKc @2303
    _ZN33_0RL_cd_1FE8F330207AFD15_b100000016marshalArgumentsER9cdrStream @2304
    _ZN33_0RL_cd_1FE8F330207AFD15_b100000018unmarshalArgumentsER9cdrStream @2305
    _ZN33_0RL_cd_1FE8F330207AFD15_b1000000D0Ev @2306
    _ZN33_0RL_cd_1FE8F330207AFD15_b1000000D1Ev @2307
    _ZN33_0RL_cd_1FE8F330207AFD15_c200000010_user_exnsE @2308 DATA
    _ZN33_0RL_cd_1FE8F330207AFD15_c200000021marshalReturnedValuesER9cdrStream @2309
    _ZN33_0RL_cd_1FE8F330207AFD15_c200000023unmarshalReturnedValuesER9cdrStream @2310
    _ZN33_0RL_cd_1FE8F330207AFD15_c2000000D0Ev @2311
    _ZN33_0RL_cd_1FE8F330207AFD15_c2000000D1Ev @2312
    _ZN33_0RL_cd_1FE8F330207AFD15_d000000010_user_exnsE @2313 DATA
    _ZN33_0RL_cd_1FE8F330207AFD15_d000000013userExceptionER9cdrStreamPN4omni5IOP_CEPKc @2314
    _ZN33_0RL_cd_1FE8F330207AFD15_d000000016marshalArgumentsER9cdrStream @2315
    _ZN33_0RL_cd_1FE8F330207AFD15_d000000018unmarshalArgumentsER9cdrStream @2316
    _ZN33_0RL_cd_1FE8F330207AFD15_d000000021marshalReturnedValuesER9cdrStream @2317
    _ZN33_0RL_cd_1FE8F330207AFD15_d000000023unmarshalReturnedValuesER9cdrStream @2318
    _ZN33_0RL_cd_1FE8F330207AFD15_d0000000D0Ev @2319
    _ZN33_0RL_cd_1FE8F330207AFD15_d0000000D1Ev @2320
    _ZN33_0RL_cd_1FE8F330207AFD15_d100000010_user_exnsE @2321 DATA
    _ZN33_0RL_cd_1FE8F330207AFD15_d100000013userExceptionER9cdrStreamPN4omni5IOP_CEPKc @2322
    _ZN33_0RL_cd_1FE8F330207AFD15_d100000016marshalArgumentsER9cdrStream @2323
    _ZN33_0RL_cd_1FE8F330207AFD15_d100000018unmarshalArgumentsER9cdrStream @2324
    _ZN33_0RL_cd_1FE8F330207AFD15_d100000021marshalReturnedValuesER9cdrStream @2325
    _ZN33_0RL_cd_1FE8F330207AFD15_d100000023unmarshalReturnedValuesER9cdrStream @2326
    _ZN33_0RL_cd_1FE8F330207AFD15_d1000000D0Ev @2327
    _ZN33_0RL_cd_1FE8F330207AFD15_d1000000D1Ev @2328
    _ZN33_0RL_cd_1FE8F330207AFD15_e200000010_user_exnsE @2329 DATA
    _ZN33_0RL_cd_1FE8F330207AFD15_e200000013userExceptionER9cdrStreamPN4omni5IOP_CEPKc @2330
    _ZN33_0RL_cd_1FE8F330207AFD15_e200000016marshalArgumentsER9cdrStream @2331
    _ZN33_0RL_cd_1FE8F330207AFD15_e200000018unmarshalArgumentsER9cdrStream @2332
    _ZN33_0RL_cd_1FE8F330207AFD15_e200000021marshalReturnedValuesER9cdrStream @2333
    _ZN33_0RL_cd_1FE8F330207AFD15_e200000023unmarshalReturnedValuesER9cdrStream @2334
    _ZN33_0RL_cd_1FE8F330207AFD15_e2000000D0Ev @2335
    _ZN33_0RL_cd_1FE8F330207AFD15_e2000000D1Ev @2336
    _ZN33_0RL_cd_1FE8F330207AFD15_f000000010_user_exnsE @2337 DATA
    _ZN33_0RL_cd_1FE8F330207AFD15_f000000013userExceptionER9cdrStreamPN4omni5IOP_CEPKc @2338
    _ZN33_0RL_cd_1FE8F330207AFD15_f000000016marshalArgumentsER9cdrStream @2339
    _ZN33_0RL_cd_1FE8F330207AFD15_f000000018unmarshalArgumentsER9cdrStream @2340
    _ZN33_0RL_cd_1FE8F330207AFD15_f000000021marshalReturnedValuesER9cdrStream @2341
    _ZN33_0RL_cd_1FE8F330207AFD15_f000000023unmarshalReturnedValuesER9cdrStream @2342
    _ZN33_0RL_cd_1FE8F330207AFD15_f0000000D0Ev @2343
    _ZN33_0RL_cd_1FE8F330207AFD15_f0000000D1Ev @2344
    _ZN33_0RL_cd_1FE8F330207AFD15_f100000010_user_exnsE @2345 DATA
    _ZN33_0RL_cd_1FE8F330207AFD15_f100000021marshalReturnedValuesER9cdrStream @2346
    _ZN33_0RL_cd_1FE8F330207AFD15_f100000023unmarshalReturnedValuesER9cdrStream @2347
    _ZN33_0RL_cd_1FE8F330207AFD15_f1000000D0Ev @2348
    _ZN33_0RL_cd_1FE8F330207AFD15_f1000000D1Ev @2349
    _ZN33_0RL_cd_25B2B9DD5B4AD98D_0000000010_user_exnsE @2350 DATA
    _ZN33_0RL_cd_25B2B9DD5B4AD98D_0000000013userExceptionER9cdrStreamPN4omni5IOP_CEPKc @2351
    _ZN33_0RL_cd_25B2B9DD5B4AD98D_0000000016marshalArgumentsER9cdrStream @2352
    _ZN33_0RL_cd_25B2B9DD5B4AD98D_0000000018unmarshalArgumentsER9cdrStream @2353
    _ZN33_0RL_cd_25B2B9DD5B4AD98D_0000000021marshalReturnedValuesER9cdrStream @2354
    _ZN33_0RL_cd_25B2B9DD5B4AD98D_0000000023unmarshalReturnedValuesER9cdrStream @2355
    _ZN33_0RL_cd_25B2B9DD5B4AD98D_00000000D0Ev @2356
    _ZN33_0RL_cd_25B2B9DD5B4AD98D_00000000D1Ev @2357
    _ZN33_0RL_cd_25B2B9DD5B4AD98D_2000000010_user_exnsE @2358 DATA
    _ZN33_0RL_cd_25B2B9DD5B4AD98D_2000000013userExceptionER9cdrStreamPN4omni5IOP_CEPKc @2359
    _ZN33_0RL_cd_25B2B9DD5B4AD98D_2000000016marshalArgumentsER9cdrStream @2360
    _ZN33_0RL_cd_25B2B9DD5B4AD98D_2000000018unmarshalArgumentsER9cdrStream @2361
    _ZN33_0RL_cd_25B2B9DD5B4AD98D_2000000021marshalReturnedValuesER9cdrStream @2362
    _ZN33_0RL_cd_25B2B9DD5B4AD98D_2000000023unmarshalReturnedValuesER9cdrStream @2363
    _ZN33_0RL_cd_25B2B9DD5B4AD98D_20000000D0Ev @2364
    _ZN33_0RL_cd_25B2B9DD5B4AD98D_20000000D1Ev @2365
    _ZN33_0RL_cd_25B2B9DD5B4AD98D_4000000010_user_exnsE @2366 DATA
    _ZN33_0RL_cd_25B2B9DD5B4AD98D_4000000013userExceptionER9cdrStreamPN4omni5IOP_CEPKc @2367
    _ZN33_0RL_cd_25B2B9DD5B4AD98D_4000000016marshalArgumentsER9cdrStream @2368
    _ZN33_0RL_cd_25B2B9DD5B4AD98D_4000000018unmarshalArgumentsER9cdrStream @2369
    _ZN33_0RL_cd_25B2B9DD5B4AD98D_40000000D0Ev @2370
    _ZN33_0RL_cd_25B2B9DD5B4AD98D_40000000D1Ev @2371
    _ZN33_0RL_cd_25B2B9DD5B4AD98D_6000000010_user_exnsE @2372 DATA
    _ZN33_0RL_cd_25B2B9DD5B4AD98D_6000000013userExceptionER9cdrStreamPN4omni5IOP_CEPKc @2373
    _ZN33_0RL_cd_25B2B9DD5B4AD98D_60000000D0Ev @2374
    _ZN33_0RL_cd_25B2B9DD5B4AD98D_60000000D1Ev @2375
    _ZN33_0RL_cd_25B2B9DD5B4AD98D_8000000010_user_exnsE @2376 DATA
    _ZN33_0RL_cd_25B2B9DD5B4AD98D_8000000016marshalArgumentsER9cdrStream @2377
    _ZN33_0RL_cd_25B2B9DD5B4AD98D_8000000018unmarshalArgumentsER9cdrStream @2378
    _ZN33_0RL_cd_25B2B9DD5B4AD98D_8000000021marshalReturnedValuesER9cdrStream @2379
    _ZN33_0RL_cd_25B2B9DD5B4AD98D_8000000023unmarshalReturnedValuesER9cdrStream @2380
    _ZN33_0RL_cd_25B2B9DD5B4AD98D_80000000D0Ev @2381
    _ZN33_0RL_cd_25B2B9DD5B4AD98D_80000000D1Ev @2382
    _ZN33_0RL_cd_25B2B9DD5B4AD98D_a000000010_user_exnsE @2383 DATA
    _ZN33_0RL_cd_25B2B9DD5B4AD98D_a000000013userExceptionER9cdrStreamPN4omni5IOP_CEPKc @2384
    _ZN33_0RL_cd_25B2B9DD5B4AD98D_a000000016marshalArgumentsER9cdrStream @2385
    _ZN33_0RL_cd_25B2B9DD5B4AD98D_a000000018unmarshalArgumentsER9cdrStream @2386
    _ZN33_0RL_cd_25B2B9DD5B4AD98D_a000000021marshalReturnedValuesER9cdrStream @2387
    _ZN33_0RL_cd_25B2B9DD5B4AD98D_a000000023unmarshalReturnedValuesER9cdrStream @2388
    _ZN33_0RL_cd_25B2B9DD5B4AD98D_a0000000D0Ev @2389
    _ZN33_0RL_cd_25B2B9DD5B4AD98D_a0000000D1Ev @2390
    _ZN33_0RL_cd_4B6B86183777B6C2_0000000010_user_exnsE @2391 DATA
    _ZN33_0RL_cd_4B6B86183777B6C2_0000000013userExceptionER9cdrStreamPN4omni5IOP_CEPKc @2392
    _ZN33_0RL_cd_4B6B86183777B6C2_0000000016marshalArgumentsER9cdrStream @2393
    _ZN33_0RL_cd_4B6B86183777B6C2_0000000018unmarshalArgumentsER9cdrStream @2394
    _ZN33_0RL_cd_4B6B86183777B6C2_00000000D0Ev @2395
    _ZN33_0RL_cd_4B6B86183777B6C2_00000000D1Ev @2396
    _ZN33_0RL_cd_4B6B86183777B6C2_2100000010_user_exnsE @2397 DATA
    _ZN33_0RL_cd_4B6B86183777B6C2_2100000013userExceptionER9cdrStreamPN4omni5IOP_CEPKc @2398
    _ZN33_0RL_cd_4B6B86183777B6C2_2100000016marshalArgumentsER9cdrStream @2399
    _ZN33_0RL_cd_4B6B86183777B6C2_2100000018unmarshalArgumentsER9cdrStream @2400
    _ZN33_0RL_cd_4B6B86183777B6C2_2100000021marshalReturnedValuesER9cdrStream @2401
    _ZN33_0RL_cd_4B6B86183777B6C2_2100000023unmarshalReturnedValuesER9cdrStream @2402
    _ZN33_0RL_cd_4B6B86183777B6C2_21000000D0Ev @2403
    _ZN33_0RL_cd_4B6B86183777B6C2_21000000D1Ev @2404
    _ZN33_0RL_cd_4B6B86183777B6C2_3000000010_user_exnsE @2405 DATA
    _ZN33_0RL_cd_4B6B86183777B6C2_3000000013userExceptionER9cdrStreamPN4omni5IOP_CEPKc @2406
    _ZN33_0RL_cd_4B6B86183777B6C2_3000000016marshalArgumentsER9cdrStream @2407
    _ZN33_0RL_cd_4B6B86183777B6C2_3000000018unmarshalArgumentsER9cdrStream @2408
    _ZN33_0RL_cd_4B6B86183777B6C2_30000000D0Ev @2409
    _ZN33_0RL_cd_4B6B86183777B6C2_30000000D1Ev @2410
    _ZN33_0RL_cd_4B6B86183777B6C2_4100000010_user_exnsE @2411 DATA
    _ZN33_0RL_cd_4B6B86183777B6C2_4100000013userExceptionER9cdrStreamPN4omni5IOP_CEPKc @2412
    _ZN33_0RL_cd_4B6B86183777B6C2_4100000016marshalArgumentsER9cdrStream @2413
    _ZN33_0RL_cd_4B6B86183777B6C2_4100000018unmarshalArgumentsER9cdrStream @2414
    _ZN33_0RL_cd_4B6B86183777B6C2_4100000021marshalReturnedValuesER9cdrStream @2415
    _ZN33_0RL_cd_4B6B86183777B6C2_4100000023unmarshalReturnedValuesER9cdrStream @2416
    _ZN33_0RL_cd_4B6B86183777B6C2_41000000D0Ev @2417
    _ZN33_0RL_cd_4B6B86183777B6C2_41000000D1Ev @2418
    _ZN33_0RL_cd_4B6B86183777B6C2_5000000010_user_exnsE @2419 DATA
    _ZN33_0RL_cd_4B6B86183777B6C2_50000000D0Ev @2420
    _ZN33_0RL_cd_4B6B86183777B6C2_50000000D1Ev @2421
    _ZN33_0RL_cd_4B6B86183777B6C2_8000000010_user_exnsE @2422 DATA
    _ZN33_0RL_cd_4B6B86183777B6C2_8000000013userExceptionER9cdrStreamPN4omni5IOP_CEPKc @2423
    _ZN33_0RL_cd_4B6B86183777B6C2_8000000021marshalReturnedValuesER9cdrStream @2424
    _ZN33_0RL_cd_4B6B86183777B6C2_8000000023unmarshalReturnedValuesER9cdrStream @2425
    _ZN33_0RL_cd_4B6B86183777B6C2_80000000D0Ev @2426
    _ZN33_0RL_cd_4B6B86183777B6C2_80000000D1Ev @2427
    _ZN33_0RL_cd_4B6B86183777B6C2_a000000010_user_exnsE @2428 DATA
    _ZN33_0RL_cd_4B6B86183777B6C2_a000000013userExceptionER9cdrStreamPN4omni5IOP_CEPKc @2429
    _ZN33_0RL_cd_4B6B86183777B6C2_a000000021marshalReturnedValuesER9cdrStream @2430
    _ZN33_0RL_cd_4B6B86183777B6C2_a000000023unmarshalReturnedValuesER9cdrStream @2431
    _ZN33_0RL_cd_4B6B86183777B6C2_a0000000D0Ev @2432
    _ZN33_0RL_cd_4B6B86183777B6C2_a0000000D1Ev @2433
    _ZN33_0RL_cd_4B6B86183777B6C2_e000000010_user_exnsE @2434 DATA
    _ZN33_0RL_cd_4B6B86183777B6C2_e000000013userExceptionER9cdrStreamPN4omni5IOP_CEPKc @2435
    _ZN33_0RL_cd_4B6B86183777B6C2_e000000016marshalArgumentsER9cdrStream @2436
    _ZN33_0RL_cd_4B6B86183777B6C2_e000000018unmarshalArgumentsER9cdrStream @2437
    _ZN33_0RL_cd_4B6B86183777B6C2_e0000000D0Ev @2438
    _ZN33_0RL_cd_4B6B86183777B6C2_e0000000D1Ev @2439
    _ZN33_0RL_cd_8B6214F5B3100E7E_0000000010_user_exnsE @2440 DATA
    _ZN33_0RL_cd_8B6214F5B3100E7E_0000000021marshalReturnedValuesER9cdrStream @2441
    _ZN33_0RL_cd_8B6214F5B3100E7E_0000000023unmarshalReturnedValuesER9cdrStream @2442
    _ZN33_0RL_cd_8B6214F5B3100E7E_00000000D0Ev @2443
    _ZN33_0RL_cd_8B6214F5B3100E7E_00000000D1Ev @2444
    _ZN33_0RL_cd_8B6214F5B3100E7E_2000000010_user_exnsE @2445 DATA
    _ZN33_0RL_cd_8B6214F5B3100E7E_2000000013userExceptionER9cdrStreamPN4omni5IOP_CEPKc @2446
    _ZN33_0RL_cd_8B6214F5B3100E7E_2000000016marshalArgumentsER9cdrStream @2447
    _ZN33_0RL_cd_8B6214F5B3100E7E_2000000018unmarshalArgumentsER9cdrStream @2448
    _ZN33_0RL_cd_8B6214F5B3100E7E_20000000D0Ev @2449
    _ZN33_0RL_cd_8B6214F5B3100E7E_20000000D1Ev @2450
    _ZN33_0RL_cd_8B6214F5B3100E7E_4000000010_user_exnsE @2451 DATA
    _ZN33_0RL_cd_8B6214F5B3100E7E_4000000013userExceptionER9cdrStreamPN4omni5IOP_CEPKc @2452
    _ZN33_0RL_cd_8B6214F5B3100E7E_4000000016marshalArgumentsER9cdrStream @2453
    _ZN33_0RL_cd_8B6214F5B3100E7E_4000000018unmarshalArgumentsER9cdrStream @2454
    _ZN33_0RL_cd_8B6214F5B3100E7E_4000000021marshalReturnedValuesER9cdrStream @2455
    _ZN33_0RL_cd_8B6214F5B3100E7E_4000000023unmarshalReturnedValuesER9cdrStream @2456
    _ZN33_0RL_cd_8B6214F5B3100E7E_40000000D0Ev @2457
    _ZN33_0RL_cd_8B6214F5B3100E7E_40000000D1Ev @2458
    _ZN33_0RL_cd_8B6214F5B3100E7E_7000000010_user_exnsE @2459 DATA
    _ZN33_0RL_cd_8B6214F5B3100E7E_7000000013userExceptionER9cdrStreamPN4omni5IOP_CEPKc @2460
    _ZN33_0RL_cd_8B6214F5B3100E7E_7000000016marshalArgumentsER9cdrStream @2461
    _ZN33_0RL_cd_8B6214F5B3100E7E_7000000018unmarshalArgumentsER9cdrStream @2462
    _ZN33_0RL_cd_8B6214F5B3100E7E_70000000D0Ev @2463
    _ZN33_0RL_cd_8B6214F5B3100E7E_70000000D1Ev @2464
    _ZN33_0RL_cd_9043E11A9721DAB3_0000000010_user_exnsE @2465 DATA
    _ZN33_0RL_cd_9043E11A9721DAB3_0000000016marshalArgumentsER9cdrStream @2466
    _ZN33_0RL_cd_9043E11A9721DAB3_0000000018unmarshalArgumentsER9cdrStream @2467
    _ZN33_0RL_cd_9043E11A9721DAB3_0000000021marshalReturnedValuesER9cdrStream @2468
    _ZN33_0RL_cd_9043E11A9721DAB3_0000000023unmarshalReturnedValuesER9cdrStream @2469
    _ZN33_0RL_cd_9043E11A9721DAB3_00000000D0Ev @2470
    _ZN33_0RL_cd_9043E11A9721DAB3_00000000D1Ev @2471
    _ZN33_0RL_cd_9043E11A9721DAB3_0400000010_user_exnsE @2472 DATA
    _ZN33_0RL_cd_9043E11A9721DAB3_0400000021marshalReturnedValuesER9cdrStream @2473
    _ZN33_0RL_cd_9043E11A9721DAB3_0400000023unmarshalReturnedValuesER9cdrStream @2474
    _ZN33_0RL_cd_9043E11A9721DAB3_04000000D0Ev @2475
    _ZN33_0RL_cd_9043E11A9721DAB3_04000000D1Ev @2476
    _ZN33_0RL_cd_9043E11A9721DAB3_0600000010_user_exnsE @2477 DATA
    _ZN33_0RL_cd_9043E11A9721DAB3_0600000021marshalReturnedValuesER9cdrStream @2478
    _ZN33_0RL_cd_9043E11A9721DAB3_0600000023unmarshalReturnedValuesER9cdrStream @2479
    _ZN33_0RL_cd_9043E11A9721DAB3_06000000D0Ev @2480
    _ZN33_0RL_cd_9043E11A9721DAB3_06000000D1Ev @2481
    _ZN33_0RL_cd_9043E11A9721DAB3_1200000010_user_exnsE @2482 DATA
    _ZN33_0RL_cd_9043E11A9721DAB3_1200000013userExceptionER9cdrStreamPN4omni5IOP_CEPKc @2483
    _ZN33_0RL_cd_9043E11A9721DAB3_12000000D0Ev @2484
    _ZN33_0RL_cd_9043E11A9721DAB3_12000000D1Ev @2485
    _ZN33_0RL_cd_9043E11A9721DAB3_1300000010_user_exnsE @2486 DATA
    _ZN33_0RL_cd_9043E11A9721DAB3_1300000013userExceptionER9cdrStreamPN4omni5IOP_CEPKc @2487
    _ZN33_0RL_cd_9043E11A9721DAB3_1300000016marshalArgumentsER9cdrStream @2488
    _ZN33_0RL_cd_9043E11A9721DAB3_1300000018unmarshalArgumentsER9cdrStream @2489
    _ZN33_0RL_cd_9043E11A9721DAB3_13000000D0Ev @2490
    _ZN33_0RL_cd_9043E11A9721DAB3_13000000D1Ev @2491
    _ZN33_0RL_cd_9043E11A9721DAB3_2000000010_user_exnsE @2492 DATA
    _ZN33_0RL_cd_9043E11A9721DAB3_2000000013userExceptionER9cdrStreamPN4omni5IOP_CEPKc @2493
    _ZN33_0RL_cd_9043E11A9721DAB3_2000000016marshalArgumentsER9cdrStream @2494
    _ZN33_0RL_cd_9043E11A9721DAB3_2000000018unmarshalArgumentsER9cdrStream @2495
    _ZN33_0RL_cd_9043E11A9721DAB3_2000000021marshalReturnedValuesER9cdrStream @2496
    _ZN33_0RL_cd_9043E11A9721DAB3_2000000023unmarshalReturnedValuesER9cdrStream @2497
    _ZN33_0RL_cd_9043E11A9721DAB3_20000000D0Ev @2498
    _ZN33_0RL_cd_9043E11A9721DAB3_20000000D1Ev @2499
    _ZN33_0RL_cd_9043E11A9721DAB3_2400000010_user_exnsE @2500 DATA
    _ZN33_0RL_cd_9043E11A9721DAB3_2400000021marshalReturnedValuesER9cdrStream @2501
    _ZN33_0RL_cd_9043E11A9721DAB3_2400000023unmarshalReturnedValuesER9cdrStream @2502
    _ZN33_0RL_cd_9043E11A9721DAB3_24000000D0Ev @2503
    _ZN33_0RL_cd_9043E11A9721DAB3_24000000D1Ev @2504
    _ZN33_0RL_cd_9043E11A9721DAB3_3100000010_user_exnsE @2505 DATA
    _ZN33_0RL_cd_9043E11A9721DAB3_3100000013userExceptionER9cdrStreamPN4omni5IOP_CEPKc @2506
    _ZN33_0RL_cd_9043E11A9721DAB3_3100000016marshalArgumentsER9cdrStream @2507
    _ZN33_0RL_cd_9043E11A9721DAB3_3100000018unmarshalArgumentsER9cdrStream @2508
    _ZN33_0RL_cd_9043E11A9721DAB3_31000000D0Ev @2509
    _ZN33_0RL_cd_9043E11A9721DAB3_31000000D1Ev @2510
    _ZN33_0RL_cd_9043E11A9721DAB3_3200000010_user_exnsE @2511 DATA
    _ZN33_0RL_cd_9043E11A9721DAB3_3200000013userExceptionER9cdrStreamPN4omni5IOP_CEPKc @2512
    _ZN33_0RL_cd_9043E11A9721DAB3_32000000D0Ev @2513
    _ZN33_0RL_cd_9043E11A9721DAB3_32000000D1Ev @2514
    _ZN33_0RL_cd_9043E11A9721DAB3_3600000010_user_exnsE @2515 DATA
    _ZN33_0RL_cd_9043E11A9721DAB3_3600000021marshalReturnedValuesER9cdrStream @2516
    _ZN33_0RL_cd_9043E11A9721DAB3_3600000023unmarshalReturnedValuesER9cdrStream @2517
    _ZN33_0RL_cd_9043E11A9721DAB3_36000000D0Ev @2518
    _ZN33_0RL_cd_9043E11A9721DAB3_36000000D1Ev @2519
    _ZN33_0RL_cd_9043E11A9721DAB3_4000000010_user_exnsE @2520 DATA
    _ZN33_0RL_cd_9043E11A9721DAB3_4000000021marshalReturnedValuesER9cdrStream @2521
    _ZN33_0RL_cd_9043E11A9721DAB3_4000000023unmarshalReturnedValuesER9cdrStream @2522
    _ZN33_0RL_cd_9043E11A9721DAB3_40000000D0Ev @2523
    _ZN33_0RL_cd_9043E11A9721DAB3_40000000D1Ev @2524
    _ZN33_0RL_cd_9043E11A9721DAB3_4400000010_user_exnsE @2525 DATA
    _ZN33_0RL_cd_9043E11A9721DAB3_4400000021marshalReturnedValuesER9cdrStream @2526
    _ZN33_0RL_cd_9043E11A9721DAB3_4400000023unmarshalReturnedValuesER9cdrStream @2527
    _ZN33_0RL_cd_9043E11A9721DAB3_44000000D0Ev @2528
    _ZN33_0RL_cd_9043E11A9721DAB3_44000000D1Ev @2529
    _ZN33_0RL_cd_9043E11A9721DAB3_5100000010_user_exnsE @2530 DATA
    _ZN33_0RL_cd_9043E11A9721DAB3_5100000013userExceptionER9cdrStreamPN4omni5IOP_CEPKc @2531
    _ZN33_0RL_cd_9043E11A9721DAB3_5100000016marshalArgumentsER9cdrStream @2532
    _ZN33_0RL_cd_9043E11A9721DAB3_5100000018unmarshalArgumentsER9cdrStream @2533
    _ZN33_0RL_cd_9043E11A9721DAB3_51000000D0Ev @2534
    _ZN33_0RL_cd_9043E11A9721DAB3_51000000D1Ev @2535
    _ZN33_0RL_cd_9043E11A9721DAB3_5200000010_user_exnsE @2536 DATA
    _ZN33_0RL_cd_9043E11A9721DAB3_5200000013userExceptionER9cdrStreamPN4omni5IOP_CEPKc @2537
    _ZN33_0RL_cd_9043E11A9721DAB3_5200000016marshalArgumentsER9cdrStream @2538
    _ZN33_0RL_cd_9043E11A9721DAB3_5200000018unmarshalArgumentsER9cdrStream @2539
    _ZN33_0RL_cd_9043E11A9721DAB3_52000000D0Ev @2540
    _ZN33_0RL_cd_9043E11A9721DAB3_52000000D1Ev @2541
    _ZN33_0RL_cd_9043E11A9721DAB3_5300000010_user_exnsE @2542 DATA
    _ZN33_0RL_cd_9043E11A9721DAB3_5300000013userExceptionER9cdrStreamPN4omni5IOP_CEPKc @2543
    _ZN33_0RL_cd_9043E11A9721DAB3_5300000016marshalArgumentsER9cdrStream @2544
    _ZN33_0RL_cd_9043E11A9721DAB3_5300000018unmarshalArgumentsER9cdrStream @2545
    _ZN33_0RL_cd_9043E11A9721DAB3_53000000D0Ev @2546
    _ZN33_0RL_cd_9043E11A9721DAB3_53000000D1Ev @2547
    _ZN33_0RL_cd_9043E11A9721DAB3_6000000010_user_exnsE @2548 DATA
    _ZN33_0RL_cd_9043E11A9721DAB3_6000000021marshalReturnedValuesER9cdrStream @2549
    _ZN33_0RL_cd_9043E11A9721DAB3_6000000023unmarshalReturnedValuesER9cdrStream @2550
    _ZN33_0RL_cd_9043E11A9721DAB3_60000000D0Ev @2551
    _ZN33_0RL_cd_9043E11A9721DAB3_60000000D1Ev @2552
    _ZN33_0RL_cd_9043E11A9721DAB3_7100000010_user_exnsE @2553 DATA
    _ZN33_0RL_cd_9043E11A9721DAB3_7100000013userExceptionER9cdrStreamPN4omni5IOP_CEPKc @2554
    _ZN33_0RL_cd_9043E11A9721DAB3_7100000016marshalArgumentsER9cdrStream @2555
    _ZN33_0RL_cd_9043E11A9721DAB3_7100000018unmarshalArgumentsER9cdrStream @2556
    _ZN33_0RL_cd_9043E11A9721DAB3_71000000D0Ev @2557
    _ZN33_0RL_cd_9043E11A9721DAB3_71000000D1Ev @2558
    _ZN33_0RL_cd_9043E11A9721DAB3_7600000010_user_exnsE @2559 DATA
    _ZN33_0RL_cd_9043E11A9721DAB3_7600000021marshalReturnedValuesER9cdrStream @2560
    _ZN33_0RL_cd_9043E11A9721DAB3_7600000023unmarshalReturnedValuesER9cdrStream @2561
    _ZN33_0RL_cd_9043E11A9721DAB3_76000000D0Ev @2562
    _ZN33_0RL_cd_9043E11A9721DAB3_76000000D1Ev @2563
    _ZN33_0RL_cd_9043E11A9721DAB3_8500000010_user_exnsE @2564 DATA
    _ZN33_0RL_cd_9043E11A9721DAB3_8500000016marshalArgumentsER9cdrStream @2565
    _ZN33_0RL_cd_9043E11A9721DAB3_8500000018unmarshalArgumentsER9cdrStream @2566
    _ZN33_0RL_cd_9043E11A9721DAB3_8500000021marshalReturnedValuesER9cdrStream @2567
    _ZN33_0RL_cd_9043E11A9721DAB3_8500000023unmarshalReturnedValuesER9cdrStream @2568
    _ZN33_0RL_cd_9043E11A9721DAB3_85000000D0Ev @2569
    _ZN33_0RL_cd_9043E11A9721DAB3_85000000D1Ev @2570
    _ZN33_0RL_cd_9043E11A9721DAB3_9100000010_user_exnsE @2571 DATA
    _ZN33_0RL_cd_9043E11A9721DAB3_9100000013userExceptionER9cdrStreamPN4omni5IOP_CEPKc @2572
    _ZN33_0RL_cd_9043E11A9721DAB3_9100000016marshalArgumentsER9cdrStream @2573
    _ZN33_0RL_cd_9043E11A9721DAB3_9100000018unmarshalArgumentsER9cdrStream @2574
    _ZN33_0RL_cd_9043E11A9721DAB3_91000000D0Ev @2575
    _ZN33_0RL_cd_9043E11A9721DAB3_91000000D1Ev @2576
    _ZN33_0RL_cd_9043E11A9721DAB3_9200000010_user_exnsE @2577 DATA
    _ZN33_0RL_cd_9043E11A9721DAB3_9200000013userExceptionER9cdrStreamPN4omni5IOP_CEPKc @2578
    _ZN33_0RL_cd_9043E11A9721DAB3_9200000016marshalArgumentsER9cdrStream @2579
    _ZN33_0RL_cd_9043E11A9721DAB3_9200000018unmarshalArgumentsER9cdrStream @2580
    _ZN33_0RL_cd_9043E11A9721DAB3_92000000D0Ev @2581
    _ZN33_0RL_cd_9043E11A9721DAB3_92000000D1Ev @2582
    _ZN33_0RL_cd_9043E11A9721DAB3_9300000010_user_exnsE @2583 DATA
    _ZN33_0RL_cd_9043E11A9721DAB3_9300000013userExceptionER9cdrStreamPN4omni5IOP_CEPKc @2584
    _ZN33_0RL_cd_9043E11A9721DAB3_9300000016marshalArgumentsER9cdrStream @2585
    _ZN33_0RL_cd_9043E11A9721DAB3_9300000018unmarshalArgumentsER9cdrStream @2586
    _ZN33_0RL_cd_9043E11A9721DAB3_9300000021marshalReturnedValuesER9cdrStream @2587
    _ZN33_0RL_cd_9043E11A9721DAB3_9300000023unmarshalReturnedValuesER9cdrStream @2588
    _ZN33_0RL_cd_9043E11A9721DAB3_93000000D0Ev @2589
    _ZN33_0RL_cd_9043E11A9721DAB3_93000000D1Ev @2590
    _ZN33_0RL_cd_9043E11A9721DAB3_9600000010_user_exnsE @2591 DATA
    _ZN33_0RL_cd_9043E11A9721DAB3_9600000013userExceptionER9cdrStreamPN4omni5IOP_CEPKc @2592
    _ZN33_0RL_cd_9043E11A9721DAB3_9600000016marshalArgumentsER9cdrStream @2593
    _ZN33_0RL_cd_9043E11A9721DAB3_9600000018unmarshalArgumentsER9cdrStream @2594
    _ZN33_0RL_cd_9043E11A9721DAB3_9600000021marshalReturnedValuesER9cdrStream @2595
    _ZN33_0RL_cd_9043E11A9721DAB3_9600000023unmarshalReturnedValuesER9cdrStream @2596
    _ZN33_0RL_cd_9043E11A9721DAB3_96000000D0Ev @2597
    _ZN33_0RL_cd_9043E11A9721DAB3_96000000D1Ev @2598
    _ZN33_0RL_cd_9043E11A9721DAB3_a400000010_user_exnsE @2599 DATA
    _ZN33_0RL_cd_9043E11A9721DAB3_a400000021marshalReturnedValuesER9cdrStream @2600
    _ZN33_0RL_cd_9043E11A9721DAB3_a400000023unmarshalReturnedValuesER9cdrStream @2601
    _ZN33_0RL_cd_9043E11A9721DAB3_a4000000D0Ev @2602
    _ZN33_0RL_cd_9043E11A9721DAB3_a4000000D1Ev @2603
    _ZN33_0RL_cd_9043E11A9721DAB3_a500000010_user_exnsE @2604 DATA
    _ZN33_0RL_cd_9043E11A9721DAB3_a500000016marshalArgumentsER9cdrStream @2605
    _ZN33_0RL_cd_9043E11A9721DAB3_a500000018unmarshalArgumentsER9cdrStream @2606
    _ZN33_0RL_cd_9043E11A9721DAB3_a500000021marshalReturnedValuesER9cdrStream @2607
    _ZN33_0RL_cd_9043E11A9721DAB3_a500000023unmarshalReturnedValuesER9cdrStream @2608
    _ZN33_0RL_cd_9043E11A9721DAB3_a5000000D0Ev @2609
    _ZN33_0RL_cd_9043E11A9721DAB3_a5000000D1Ev @2610
    _ZN33_0RL_cd_9043E11A9721DAB3_b000000010_user_exnsE @2611 DATA
    _ZN33_0RL_cd_9043E11A9721DAB3_b000000021marshalReturnedValuesER9cdrStream @2612
    _ZN33_0RL_cd_9043E11A9721DAB3_b000000023unmarshalReturnedValuesER9cdrStream @2613
    _ZN33_0RL_cd_9043E11A9721DAB3_b0000000D0Ev @2614
    _ZN33_0RL_cd_9043E11A9721DAB3_b0000000D1Ev @2615
    _ZN33_0RL_cd_9043E11A9721DAB3_b100000010_user_exnsE @2616 DATA
    _ZN33_0RL_cd_9043E11A9721DAB3_b100000013userExceptionER9cdrStreamPN4omni5IOP_CEPKc @2617
    _ZN33_0RL_cd_9043E11A9721DAB3_b100000016marshalArgumentsER9cdrStream @2618
    _ZN33_0RL_cd_9043E11A9721DAB3_b100000018unmarshalArgumentsER9cdrStream @2619
    _ZN33_0RL_cd_9043E11A9721DAB3_b1000000D0Ev @2620
    _ZN33_0RL_cd_9043E11A9721DAB3_b1000000D1Ev @2621
    _ZN33_0RL_cd_9043E11A9721DAB3_b300000010_user_exnsE @2622 DATA
    _ZN33_0RL_cd_9043E11A9721DAB3_b300000013userExceptionER9cdrStreamPN4omni5IOP_CEPKc @2623
    _ZN33_0RL_cd_9043E11A9721DAB3_b300000016marshalArgumentsER9cdrStream @2624
    _ZN33_0RL_cd_9043E11A9721DAB3_b300000018unmarshalArgumentsER9cdrStream @2625
    _ZN33_0RL_cd_9043E11A9721DAB3_b300000021marshalReturnedValuesER9cdrStream @2626
    _ZN33_0RL_cd_9043E11A9721DAB3_b300000023unmarshalReturnedValuesER9cdrStream @2627
    _ZN33_0RL_cd_9043E11A9721DAB3_b3000000D0Ev @2628
    _ZN33_0RL_cd_9043E11A9721DAB3_b3000000D1Ev @2629
    _ZN33_0RL_cd_9043E11A9721DAB3_b600000010_user_exnsE @2630 DATA
    _ZN33_0RL_cd_9043E11A9721DAB3_b600000021marshalReturnedValuesER9cdrStream @2631
    _ZN33_0RL_cd_9043E11A9721DAB3_b600000023unmarshalReturnedValuesER9cdrStream @2632
    _ZN33_0RL_cd_9043E11A9721DAB3_b6000000D0Ev @2633
    _ZN33_0RL_cd_9043E11A9721DAB3_b6000000D1Ev @2634
    _ZN33_0RL_cd_9043E11A9721DAB3_c500000010_user_exnsE @2635 DATA
    _ZN33_0RL_cd_9043E11A9721DAB3_c500000013userExceptionER9cdrStreamPN4omni5IOP_CEPKc @2636
    _ZN33_0RL_cd_9043E11A9721DAB3_c500000016marshalArgumentsER9cdrStream @2637
    _ZN33_0RL_cd_9043E11A9721DAB3_c500000018unmarshalArgumentsER9cdrStream @2638
    _ZN33_0RL_cd_9043E11A9721DAB3_c500000021marshalReturnedValuesER9cdrStream @2639
    _ZN33_0RL_cd_9043E11A9721DAB3_c500000023unmarshalReturnedValuesER9cdrStream @2640
    _ZN33_0RL_cd_9043E11A9721DAB3_c5000000D0Ev @2641
    _ZN33_0RL_cd_9043E11A9721DAB3_c5000000D1Ev @2642
    _ZN33_0RL_cd_9043E11A9721DAB3_d000000010_user_exnsE @2643 DATA
    _ZN33_0RL_cd_9043E11A9721DAB3_d000000021marshalReturnedValuesER9cdrStream @2644
    _ZN33_0RL_cd_9043E11A9721DAB3_d000000023unmarshalReturnedValuesER9cdrStream @2645
    _ZN33_0RL_cd_9043E11A9721DAB3_d0000000D0Ev @2646
    _ZN33_0RL_cd_9043E11A9721DAB3_d0000000D1Ev @2647
    _ZN33_0RL_cd_9043E11A9721DAB3_d100000010_user_exnsE @2648 DATA
    _ZN33_0RL_cd_9043E11A9721DAB3_d100000013userExceptionER9cdrStreamPN4omni5IOP_CEPKc @2649
    _ZN33_0RL_cd_9043E11A9721DAB3_d100000016marshalArgumentsER9cdrStream @2650
    _ZN33_0RL_cd_9043E11A9721DAB3_d100000018unmarshalArgumentsER9cdrStream @2651
    _ZN33_0RL_cd_9043E11A9721DAB3_d1000000D0Ev @2652
    _ZN33_0RL_cd_9043E11A9721DAB3_d1000000D1Ev @2653
    _ZN33_0RL_cd_9043E11A9721DAB3_d200000010_user_exnsE @2654 DATA
    _ZN33_0RL_cd_9043E11A9721DAB3_d200000013userExceptionER9cdrStreamPN4omni5IOP_CEPKc @2655
    _ZN33_0RL_cd_9043E11A9721DAB3_d200000016marshalArgumentsER9cdrStream @2656
    _ZN33_0RL_cd_9043E11A9721DAB3_d200000018unmarshalArgumentsER9cdrStream @2657
    _ZN33_0RL_cd_9043E11A9721DAB3_d2000000D0Ev @2658
    _ZN33_0RL_cd_9043E11A9721DAB3_d2000000D1Ev @2659
    _ZN33_0RL_cd_9043E11A9721DAB3_d400000010_user_exnsE @2660 DATA
    _ZN33_0RL_cd_9043E11A9721DAB3_d400000013userExceptionER9cdrStreamPN4omni5IOP_CEPKc @2661
    _ZN33_0RL_cd_9043E11A9721DAB3_d400000016marshalArgumentsER9cdrStream @2662
    _ZN33_0RL_cd_9043E11A9721DAB3_d400000018unmarshalArgumentsER9cdrStream @2663
    _ZN33_0RL_cd_9043E11A9721DAB3_d400000021marshalReturnedValuesER9cdrStream @2664
    _ZN33_0RL_cd_9043E11A9721DAB3_d400000023unmarshalReturnedValuesER9cdrStream @2665
    _ZN33_0RL_cd_9043E11A9721DAB3_d4000000D0Ev @2666
    _ZN33_0RL_cd_9043E11A9721DAB3_d4000000D1Ev @2667
    _ZN33_0RL_cd_9043E11A9721DAB3_d600000010_user_exnsE @2668 DATA
    _ZN33_0RL_cd_9043E11A9721DAB3_d600000013userExceptionER9cdrStreamPN4omni5IOP_CEPKc @2669
    _ZN33_0RL_cd_9043E11A9721DAB3_d600000016marshalArgumentsER9cdrStream @2670
    _ZN33_0RL_cd_9043E11A9721DAB3_d600000018unmarshalArgumentsER9cdrStream @2671
    _ZN33_0RL_cd_9043E11A9721DAB3_d600000021marshalReturnedValuesER9cdrStream @2672
    _ZN33_0RL_cd_9043E11A9721DAB3_d600000023unmarshalReturnedValuesER9cdrStream @2673
    _ZN33_0RL_cd_9043E11A9721DAB3_d6000000D0Ev @2674
    _ZN33_0RL_cd_9043E11A9721DAB3_d6000000D1Ev @2675
    _ZN33_0RL_cd_9043E11A9721DAB3_e300000010_user_exnsE @2676 DATA
    _ZN33_0RL_cd_9043E11A9721DAB3_e3000000D0Ev @2677
    _ZN33_0RL_cd_9043E11A9721DAB3_e3000000D1Ev @2678
    _ZN33_0RL_cd_9043E11A9721DAB3_e500000010_user_exnsE @2679 DATA
    _ZN33_0RL_cd_9043E11A9721DAB3_e500000013userExceptionER9cdrStreamPN4omni5IOP_CEPKc @2680
    _ZN33_0RL_cd_9043E11A9721DAB3_e500000016marshalArgumentsER9cdrStream @2681
    _ZN33_0RL_cd_9043E11A9721DAB3_e500000018unmarshalArgumentsER9cdrStream @2682
    _ZN33_0RL_cd_9043E11A9721DAB3_e500000021marshalReturnedValuesER9cdrStream @2683
    _ZN33_0RL_cd_9043E11A9721DAB3_e500000023unmarshalReturnedValuesER9cdrStream @2684
    _ZN33_0RL_cd_9043E11A9721DAB3_e5000000D0Ev @2685
    _ZN33_0RL_cd_9043E11A9721DAB3_e5000000D1Ev @2686
    _ZN33_0RL_cd_9043E11A9721DAB3_f000000010_user_exnsE @2687 DATA
    _ZN33_0RL_cd_9043E11A9721DAB3_f000000016marshalArgumentsER9cdrStream @2688
    _ZN33_0RL_cd_9043E11A9721DAB3_f000000018unmarshalArgumentsER9cdrStream @2689
    _ZN33_0RL_cd_9043E11A9721DAB3_f0000000D0Ev @2690
    _ZN33_0RL_cd_9043E11A9721DAB3_f0000000D1Ev @2691
    _ZN33_0RL_cd_9043E11A9721DAB3_f100000010_user_exnsE @2692 DATA
    _ZN33_0RL_cd_9043E11A9721DAB3_f100000013userExceptionER9cdrStreamPN4omni5IOP_CEPKc @2693
    _ZN33_0RL_cd_9043E11A9721DAB3_f100000016marshalArgumentsER9cdrStream @2694
    _ZN33_0RL_cd_9043E11A9721DAB3_f100000018unmarshalArgumentsER9cdrStream @2695
    _ZN33_0RL_cd_9043E11A9721DAB3_f1000000D0Ev @2696
    _ZN33_0RL_cd_9043E11A9721DAB3_f1000000D1Ev @2697
    _ZN33_0RL_cd_9043E11A9721DAB3_f400000010_user_exnsE @2698 DATA
    _ZN33_0RL_cd_9043E11A9721DAB3_f400000013userExceptionER9cdrStreamPN4omni5IOP_CEPKc @2699
    _ZN33_0RL_cd_9043E11A9721DAB3_f400000016marshalArgumentsER9cdrStream @2700
    _ZN33_0RL_cd_9043E11A9721DAB3_f400000018unmarshalArgumentsER9cdrStream @2701
    _ZN33_0RL_cd_9043E11A9721DAB3_f400000021marshalReturnedValuesER9cdrStream @2702
    _ZN33_0RL_cd_9043E11A9721DAB3_f400000023unmarshalReturnedValuesER9cdrStream @2703
    _ZN33_0RL_cd_9043E11A9721DAB3_f4000000D0Ev @2704
    _ZN33_0RL_cd_9043E11A9721DAB3_f4000000D1Ev @2705
    _ZN33_0RL_cd_99DFF546EA0F9974_0000000010_user_exnsE @2706 DATA
    _ZN33_0RL_cd_99DFF546EA0F9974_0000000021marshalReturnedValuesER9cdrStream @2707
    _ZN33_0RL_cd_99DFF546EA0F9974_0000000023unmarshalReturnedValuesER9cdrStream @2708
    _ZN33_0RL_cd_99DFF546EA0F9974_00000000D0Ev @2709
    _ZN33_0RL_cd_99DFF546EA0F9974_00000000D1Ev @2710
    _ZN33_0RL_cd_99DFF546EA0F9974_1100000010_user_exnsE @2711 DATA
    _ZN33_0RL_cd_99DFF546EA0F9974_1100000016marshalArgumentsER9cdrStream @2712
    _ZN33_0RL_cd_99DFF546EA0F9974_1100000018unmarshalArgumentsER9cdrStream @2713
    _ZN33_0RL_cd_99DFF546EA0F9974_1100000021marshalReturnedValuesER9cdrStream @2714
    _ZN33_0RL_cd_99DFF546EA0F9974_1100000023unmarshalReturnedValuesER9cdrStream @2715
    _ZN33_0RL_cd_99DFF546EA0F9974_11000000D0Ev @2716
    _ZN33_0RL_cd_99DFF546EA0F9974_11000000D1Ev @2717
    _ZN33_0RL_cd_99DFF546EA0F9974_2000000010_user_exnsE @2718 DATA
    _ZN33_0RL_cd_99DFF546EA0F9974_2000000016marshalArgumentsER9cdrStream @2719
    _ZN33_0RL_cd_99DFF546EA0F9974_2000000018unmarshalArgumentsER9cdrStream @2720
    _ZN33_0RL_cd_99DFF546EA0F9974_2000000021marshalReturnedValuesER9cdrStream @2721
    _ZN33_0RL_cd_99DFF546EA0F9974_2000000023unmarshalReturnedValuesER9cdrStream @2722
    _ZN33_0RL_cd_99DFF546EA0F9974_20000000D0Ev @2723
    _ZN33_0RL_cd_99DFF546EA0F9974_20000000D1Ev @2724
    _ZN33_0RL_cd_99DFF546EA0F9974_4000000010_user_exnsE @2725 DATA
    _ZN33_0RL_cd_99DFF546EA0F9974_4000000016marshalArgumentsER9cdrStream @2726
    _ZN33_0RL_cd_99DFF546EA0F9974_4000000018unmarshalArgumentsER9cdrStream @2727
    _ZN33_0RL_cd_99DFF546EA0F9974_4000000021marshalReturnedValuesER9cdrStream @2728
    _ZN33_0RL_cd_99DFF546EA0F9974_4000000023unmarshalReturnedValuesER9cdrStream @2729
    _ZN33_0RL_cd_99DFF546EA0F9974_40000000D0Ev @2730
    _ZN33_0RL_cd_99DFF546EA0F9974_40000000D1Ev @2731
    _ZN33_0RL_cd_99DFF546EA0F9974_4100000010_user_exnsE @2732 DATA
    _ZN33_0RL_cd_99DFF546EA0F9974_4100000021marshalReturnedValuesER9cdrStream @2733
    _ZN33_0RL_cd_99DFF546EA0F9974_4100000023unmarshalReturnedValuesER9cdrStream @2734
    _ZN33_0RL_cd_99DFF546EA0F9974_41000000D0Ev @2735
    _ZN33_0RL_cd_99DFF546EA0F9974_41000000D1Ev @2736
    _ZN33_0RL_cd_99DFF546EA0F9974_6000000010_user_exnsE @2737 DATA
    _ZN33_0RL_cd_99DFF546EA0F9974_6000000021marshalReturnedValuesER9cdrStream @2738
    _ZN33_0RL_cd_99DFF546EA0F9974_6000000023unmarshalReturnedValuesER9cdrStream @2739
    _ZN33_0RL_cd_99DFF546EA0F9974_60000000D0Ev @2740
    _ZN33_0RL_cd_99DFF546EA0F9974_60000000D1Ev @2741
    _ZN33_0RL_cd_99DFF546EA0F9974_6100000010_user_exnsE @2742 DATA
    _ZN33_0RL_cd_99DFF546EA0F9974_6100000013userExceptionER9cdrStreamPN4omni5IOP_CEPKc @2743
    _ZN33_0RL_cd_99DFF546EA0F9974_6100000021marshalReturnedValuesER9cdrStream @2744
    _ZN33_0RL_cd_99DFF546EA0F9974_6100000023unmarshalReturnedValuesER9cdrStream @2745
    _ZN33_0RL_cd_99DFF546EA0F9974_61000000D0Ev @2746
    _ZN33_0RL_cd_99DFF546EA0F9974_61000000D1Ev @2747
    _ZN33_0RL_cd_99DFF546EA0F9974_8000000010_user_exnsE @2748 DATA
    _ZN33_0RL_cd_99DFF546EA0F9974_8000000021marshalReturnedValuesER9cdrStream @2749
    _ZN33_0RL_cd_99DFF546EA0F9974_8000000023unmarshalReturnedValuesER9cdrStream @2750
    _ZN33_0RL_cd_99DFF546EA0F9974_80000000D0Ev @2751
    _ZN33_0RL_cd_99DFF546EA0F9974_80000000D1Ev @2752
    _ZN33_0RL_cd_99DFF546EA0F9974_9100000010_user_exnsE @2753 DATA
    _ZN33_0RL_cd_99DFF546EA0F9974_9100000016marshalArgumentsER9cdrStream @2754
    _ZN33_0RL_cd_99DFF546EA0F9974_9100000018unmarshalArgumentsER9cdrStream @2755
    _ZN33_0RL_cd_99DFF546EA0F9974_9100000021marshalReturnedValuesER9cdrStream @2756
    _ZN33_0RL_cd_99DFF546EA0F9974_9100000023unmarshalReturnedValuesER9cdrStream @2757
    _ZN33_0RL_cd_99DFF546EA0F9974_91000000D0Ev @2758
    _ZN33_0RL_cd_99DFF546EA0F9974_91000000D1Ev @2759
    _ZN33_0RL_cd_99DFF546EA0F9974_b000000010_user_exnsE @2760 DATA
    _ZN33_0RL_cd_99DFF546EA0F9974_b000000021marshalReturnedValuesER9cdrStream @2761
    _ZN33_0RL_cd_99DFF546EA0F9974_b000000023unmarshalReturnedValuesER9cdrStream @2762
    _ZN33_0RL_cd_99DFF546EA0F9974_b0000000D0Ev @2763
    _ZN33_0RL_cd_99DFF546EA0F9974_b0000000D1Ev @2764
    _ZN33_0RL_cd_99DFF546EA0F9974_b100000010_user_exnsE @2765 DATA
    _ZN33_0RL_cd_99DFF546EA0F9974_b100000016marshalArgumentsER9cdrStream @2766
    _ZN33_0RL_cd_99DFF546EA0F9974_b100000018unmarshalArgumentsER9cdrStream @2767
    _ZN33_0RL_cd_99DFF546EA0F9974_b100000021marshalReturnedValuesER9cdrStream @2768
    _ZN33_0RL_cd_99DFF546EA0F9974_b100000023unmarshalReturnedValuesER9cdrStream @2769
    _ZN33_0RL_cd_99DFF546EA0F9974_b1000000D0Ev @2770
    _ZN33_0RL_cd_99DFF546EA0F9974_b1000000D1Ev @2771
    _ZN33_0RL_cd_99DFF546EA0F9974_d000000010_user_exnsE @2772 DATA
    _ZN33_0RL_cd_99DFF546EA0F9974_d000000021marshalReturnedValuesER9cdrStream @2773
    _ZN33_0RL_cd_99DFF546EA0F9974_d000000023unmarshalReturnedValuesER9cdrStream @2774
    _ZN33_0RL_cd_99DFF546EA0F9974_d0000000D0Ev @2775
    _ZN33_0RL_cd_99DFF546EA0F9974_d0000000D1Ev @2776
    _ZN33_0RL_cd_99DFF546EA0F9974_d100000010_user_exnsE @2777 DATA
    _ZN33_0RL_cd_99DFF546EA0F9974_d100000016marshalArgumentsER9cdrStream @2778
    _ZN33_0RL_cd_99DFF546EA0F9974_d100000018unmarshalArgumentsER9cdrStream @2779
    _ZN33_0RL_cd_99DFF546EA0F9974_d100000021marshalReturnedValuesER9cdrStream @2780
    _ZN33_0RL_cd_99DFF546EA0F9974_d100000023unmarshalReturnedValuesER9cdrStream @2781
    _ZN33_0RL_cd_99DFF546EA0F9974_d1000000D0Ev @2782
    _ZN33_0RL_cd_99DFF546EA0F9974_d1000000D1Ev @2783
    _ZN33_0RL_cd_99DFF546EA0F9974_f000000010_user_exnsE @2784 DATA
    _ZN33_0RL_cd_99DFF546EA0F9974_f000000016marshalArgumentsER9cdrStream @2785
    _ZN33_0RL_cd_99DFF546EA0F9974_f000000018unmarshalArgumentsER9cdrStream @2786
    _ZN33_0RL_cd_99DFF546EA0F9974_f000000021marshalReturnedValuesER9cdrStream @2787
    _ZN33_0RL_cd_99DFF546EA0F9974_f000000023unmarshalReturnedValuesER9cdrStream @2788
    _ZN33_0RL_cd_99DFF546EA0F9974_f0000000D0Ev @2789
    _ZN33_0RL_cd_99DFF546EA0F9974_f0000000D1Ev @2790
    _ZN33_0RL_cd_BD959CC57B2E138F_0000000010_user_exnsE @2791 DATA
    _ZN33_0RL_cd_BD959CC57B2E138F_0000000013userExceptionER9cdrStreamPN4omni5IOP_CEPKc @2792
    _ZN33_0RL_cd_BD959CC57B2E138F_0000000016marshalArgumentsER9cdrStream @2793
    _ZN33_0RL_cd_BD959CC57B2E138F_0000000018unmarshalArgumentsER9cdrStream @2794
    _ZN33_0RL_cd_BD959CC57B2E138F_00000000D0Ev @2795
    _ZN33_0RL_cd_BD959CC57B2E138F_00000000D1Ev @2796
    _ZN33_0RL_cd_BD959CC57B2E138F_2000000010_user_exnsE @2797 DATA
    _ZN33_0RL_cd_BD959CC57B2E138F_20000000D0Ev @2798
    _ZN33_0RL_cd_BD959CC57B2E138F_20000000D1Ev @2799
    _ZN33_0RL_cd_BD959CC57B2E138F_5000000010_user_exnsE @2800 DATA
    _ZN33_0RL_cd_BD959CC57B2E138F_5000000013userExceptionER9cdrStreamPN4omni5IOP_CEPKc @2801
    _ZN33_0RL_cd_BD959CC57B2E138F_5000000021marshalReturnedValuesER9cdrStream @2802
    _ZN33_0RL_cd_BD959CC57B2E138F_5000000023unmarshalReturnedValuesER9cdrStream @2803
    _ZN33_0RL_cd_BD959CC57B2E138F_50000000D0Ev @2804
    _ZN33_0RL_cd_BD959CC57B2E138F_50000000D1Ev @2805
    _ZN33_0RL_cd_BD959CC57B2E138F_7000000010_user_exnsE @2806 DATA
    _ZN33_0RL_cd_BD959CC57B2E138F_7000000013userExceptionER9cdrStreamPN4omni5IOP_CEPKc @2807
    _ZN33_0RL_cd_BD959CC57B2E138F_7000000021marshalReturnedValuesER9cdrStream @2808
    _ZN33_0RL_cd_BD959CC57B2E138F_7000000023unmarshalReturnedValuesER9cdrStream @2809
    _ZN33_0RL_cd_BD959CC57B2E138F_70000000D0Ev @2810
    _ZN33_0RL_cd_BD959CC57B2E138F_70000000D1Ev @2811
    _ZN33_0RL_cd_F894C8374A428E70_0000000010_user_exnsE @2812 DATA
    _ZN33_0RL_cd_F894C8374A428E70_0000000013userExceptionER9cdrStreamPN4omni5IOP_CEPKc @2813
    _ZN33_0RL_cd_F894C8374A428E70_0000000016marshalArgumentsER9cdrStream @2814
    _ZN33_0RL_cd_F894C8374A428E70_0000000018unmarshalArgumentsER9cdrStream @2815
    _ZN33_0RL_cd_F894C8374A428E70_00000000D0Ev @2816
    _ZN33_0RL_cd_F894C8374A428E70_00000000D1Ev @2817
    _ZN33_0RL_cd_F894C8374A428E70_0100000010_user_exnsE @2818 DATA
    _ZN33_0RL_cd_F894C8374A428E70_0100000021marshalReturnedValuesER9cdrStream @2819
    _ZN33_0RL_cd_F894C8374A428E70_0100000023unmarshalReturnedValuesER9cdrStream @2820
    _ZN33_0RL_cd_F894C8374A428E70_01000000D0Ev @2821
    _ZN33_0RL_cd_F894C8374A428E70_01000000D1Ev @2822
    _ZN33_0RL_cd_F894C8374A428E70_2000000010_user_exnsE @2823 DATA
    _ZN33_0RL_cd_F894C8374A428E70_2000000013userExceptionER9cdrStreamPN4omni5IOP_CEPKc @2824
    _ZN33_0RL_cd_F894C8374A428E70_2000000016marshalArgumentsER9cdrStream @2825
    _ZN33_0RL_cd_F894C8374A428E70_2000000018unmarshalArgumentsER9cdrStream @2826
    _ZN33_0RL_cd_F894C8374A428E70_20000000D0Ev @2827
    _ZN33_0RL_cd_F894C8374A428E70_20000000D1Ev @2828
    _ZN33_0RL_cd_F894C8374A428E70_2100000010_user_exnsE @2829 DATA
    _ZN33_0RL_cd_F894C8374A428E70_2100000021marshalReturnedValuesER9cdrStream @2830
    _ZN33_0RL_cd_F894C8374A428E70_2100000023unmarshalReturnedValuesER9cdrStream @2831
    _ZN33_0RL_cd_F894C8374A428E70_21000000D0Ev @2832
    _ZN33_0RL_cd_F894C8374A428E70_21000000D1Ev @2833
    _ZN33_0RL_cd_F894C8374A428E70_4000000010_user_exnsE @2834 DATA
    _ZN33_0RL_cd_F894C8374A428E70_4000000013userExceptionER9cdrStreamPN4omni5IOP_CEPKc @2835
    _ZN33_0RL_cd_F894C8374A428E70_4000000016marshalArgumentsER9cdrStream @2836
    _ZN33_0RL_cd_F894C8374A428E70_4000000018unmarshalArgumentsER9cdrStream @2837
    _ZN33_0RL_cd_F894C8374A428E70_40000000D0Ev @2838
    _ZN33_0RL_cd_F894C8374A428E70_40000000D1Ev @2839
    _ZN33_0RL_cd_F894C8374A428E70_4100000010_user_exnsE @2840 DATA
    _ZN33_0RL_cd_F894C8374A428E70_41000000D0Ev @2841
    _ZN33_0RL_cd_F894C8374A428E70_41000000D1Ev @2842
    _ZN33_0RL_cd_F894C8374A428E70_6000000010_user_exnsE @2843 DATA
    _ZN33_0RL_cd_F894C8374A428E70_6000000013userExceptionER9cdrStreamPN4omni5IOP_CEPKc @2844
    _ZN33_0RL_cd_F894C8374A428E70_6000000016marshalArgumentsER9cdrStream @2845
    _ZN33_0RL_cd_F894C8374A428E70_6000000018unmarshalArgumentsER9cdrStream @2846
    _ZN33_0RL_cd_F894C8374A428E70_60000000D0Ev @2847
    _ZN33_0RL_cd_F894C8374A428E70_60000000D1Ev @2848
    _ZN33_0RL_cd_F894C8374A428E70_8000000010_user_exnsE @2849 DATA
    _ZN33_0RL_cd_F894C8374A428E70_8000000021marshalReturnedValuesER9cdrStream @2850
    _ZN33_0RL_cd_F894C8374A428E70_8000000023unmarshalReturnedValuesER9cdrStream @2851
    _ZN33_0RL_cd_F894C8374A428E70_80000000D0Ev @2852
    _ZN33_0RL_cd_F894C8374A428E70_80000000D1Ev @2853
    _ZN33_0RL_cd_F894C8374A428E70_a000000010_user_exnsE @2854 DATA
    _ZN33_0RL_cd_F894C8374A428E70_a000000021marshalReturnedValuesER9cdrStream @2855
    _ZN33_0RL_cd_F894C8374A428E70_a000000023unmarshalReturnedValuesER9cdrStream @2856
    _ZN33_0RL_cd_F894C8374A428E70_a0000000D0Ev @2857
    _ZN33_0RL_cd_F894C8374A428E70_a0000000D1Ev @2858
    _ZN33_0RL_cd_F894C8374A428E70_c000000010_user_exnsE @2859 DATA
    _ZN33_0RL_cd_F894C8374A428E70_c000000021marshalReturnedValuesER9cdrStream @2860
    _ZN33_0RL_cd_F894C8374A428E70_c000000023unmarshalReturnedValuesER9cdrStream @2861
    _ZN33_0RL_cd_F894C8374A428E70_c0000000D0Ev @2862
    _ZN33_0RL_cd_F894C8374A428E70_c0000000D1Ev @2863
    _ZN33_0RL_cd_F894C8374A428E70_e000000010_user_exnsE @2864 DATA
    _ZN33_0RL_cd_F894C8374A428E70_e000000021marshalReturnedValuesER9cdrStream @2865
    _ZN33_0RL_cd_F894C8374A428E70_e000000023unmarshalReturnedValuesER9cdrStream @2866
    _ZN33_0RL_cd_F894C8374A428E70_e0000000D0Ev @2867
    _ZN33_0RL_cd_F894C8374A428E70_e0000000D1Ev @2868
    _ZN42_CORBA_Unbounded_Sequence_w_FixSizeElementIlLi4ELi4EElSER9cdrStream @2869
    _ZN5CORBA7Any_varD1Ev @2870
    _ZN7CosTime10TIO_Helper13marshalObjRefEPNS_11_objref_TIOER9cdrStream @2871
    _ZN7CosTime10TIO_Helper15unmarshalObjRefER9cdrStream @2872
    _ZN7CosTime10TIO_Helper4_nilEv @2873
    _ZN7CosTime10TIO_Helper6is_nilEPNS_11_objref_TIOE @2874
    _ZN7CosTime10TIO_Helper7releaseEPNS_11_objref_TIOE @2875
    _ZN7CosTime10TIO_Helper9duplicateEPNS_11_objref_TIOE @2876
    _ZN7CosTime10UTO_Helper13marshalObjRefEPNS_11_objref_UTOER9cdrStream @2877
    _ZN7CosTime10UTO_Helper15unmarshalObjRefER9cdrStream @2878
    _ZN7CosTime10UTO_Helper4_nilEv @2879
    _ZN7CosTime10UTO_Helper6is_nilEPNS_11_objref_UTOE @2880
    _ZN7CosTime10UTO_Helper7releaseEPNS_11_objref_UTOE @2881
    _ZN7CosTime10UTO_Helper9duplicateEPNS_11_objref_UTOE @2882
    _ZN7CosTime11TimeService10_PD_repoIdE @2883 DATA
    _ZN7CosTime11TimeService10_duplicateEPNS_19_objref_TimeServiceE @2884
    _ZN7CosTime11TimeService17_unchecked_narrowEPN5CORBA6ObjectE @2885
    _ZN7CosTime11TimeService4_nilEv @2886
    _ZN7CosTime11TimeService7_narrowEPN5CORBA6ObjectE @2887
    _ZN7CosTime11_objref_TIO12_ptrToObjRefEPKc @2888
    _ZN7CosTime11_objref_TIO13time_intervalEv @2889
    _ZN7CosTime11_objref_TIO4timeEv @2890
    _ZN7CosTime11_objref_TIO5spansEPNS_11_objref_UTOE21_CORBA_ObjRef_OUT_argIS0_NS_10TIO_HelperEE @2891
    _ZN7CosTime11_objref_TIO8overlapsEPS0_21_CORBA_ObjRef_OUT_argIS0_NS_10TIO_HelperEE @2892
    _ZN7CosTime11_objref_TIOC1EP7omniIORP12omniIdentity @2893
    _ZN7CosTime11_objref_TIOC2EP7omniIORP12omniIdentity @2894
    _ZN7CosTime11_objref_TIOD0Ev @2895
    _ZN7CosTime11_objref_TIOD1Ev @2896
    _ZN7CosTime11_objref_TIOD2Ev @2897
    _ZN7CosTime11_objref_UTO10inaccuracyEv @2898
    _ZN7CosTime11_objref_UTO12_ptrToObjRefEPKc @2899
    _ZN7CosTime11_objref_UTO12compare_timeENS_14ComparisonTypeEPS0_ @2900
    _ZN7CosTime11_objref_UTO13absolute_timeEv @2901
    _ZN7CosTime11_objref_UTO16time_to_intervalEPS0_ @2902
    _ZN7CosTime11_objref_UTO3tdfEv @2903
    _ZN7CosTime11_objref_UTO4timeEv @2904
    _ZN7CosTime11_objref_UTO8intervalEv @2905
    _ZN7CosTime11_objref_UTO8utc_timeEv @2906
    _ZN7CosTime11_objref_UTOC1EP7omniIORP12omniIdentity @2907
    _ZN7CosTime11_objref_UTOC2EP7omniIORP12omniIdentity @2908
    _ZN7CosTime11_objref_UTOD0Ev @2909
    _ZN7CosTime11_objref_UTOD1Ev @2910
    _ZN7CosTime11_objref_UTOD2Ev @2911
    _ZN7CosTime15TimeUnavailable10_PD_repoIdE @2912 DATA
    _ZN7CosTime15TimeUnavailable10_PD_typeIdE @2913 DATA
    _ZN7CosTime15TimeUnavailable13insertToAnyFnE @2914 DATA
    _ZN7CosTime15TimeUnavailable16insertToAnyFnNCPE @2915 DATA
    _ZN7CosTime15TimeUnavailable9_downcastEPKN5CORBA9ExceptionE @2916
    _ZN7CosTime15TimeUnavailable9_downcastEPN5CORBA9ExceptionE @2917
    _ZN7CosTime15TimeUnavailableC1ERKS0_ @2918
    _ZN7CosTime15TimeUnavailableC2ERKS0_ @2919
    _ZN7CosTime15TimeUnavailableD0Ev @2920
    _ZN7CosTime15TimeUnavailableD1Ev @2921
    _ZN7CosTime15TimeUnavailableD2Ev @2922
    _ZN7CosTime15TimeUnavailableaSERKS0_ @2923
    _ZN7CosTime16_pof_TimeService9newObjRefEP7omniIORP12omniIdentity @2924
    _ZN7CosTime16_pof_TimeServiceD0Ev @2925
    _ZN7CosTime16_pof_TimeServiceD1Ev @2926
    _ZN7CosTime16_pof_TimeServiceD2Ev @2927
    _ZN7CosTime17_impl_TimeService15_ptrToInterfaceEPKc @2928
    _ZN7CosTime17_impl_TimeService18_mostDerivedRepoIdEv @2929
    _ZN7CosTime17_impl_TimeService9_dispatchER14omniCallHandle @2930
    _ZN7CosTime17_impl_TimeServiceD0Ev @2931
    _ZN7CosTime17_impl_TimeServiceD1Ev @2932
    _ZN7CosTime17_impl_TimeServiceD2Ev @2933
    _ZN7CosTime18TimeService_Helper13marshalObjRefEPNS_19_objref_TimeServiceER9cdrStream @2934
    _ZN7CosTime18TimeService_Helper15unmarshalObjRefER9cdrStream @2935
    _ZN7CosTime18TimeService_Helper4_nilEv @2936
    _ZN7CosTime18TimeService_Helper6is_nilEPNS_19_objref_TimeServiceE @2937
    _ZN7CosTime18TimeService_Helper7releaseEPNS_19_objref_TimeServiceE @2938
    _ZN7CosTime18TimeService_Helper9duplicateEPNS_19_objref_TimeServiceE @2939
    _ZN7CosTime19_objref_TimeService12_ptrToObjRefEPKc @2940
    _ZN7CosTime19_objref_TimeService12new_intervalEyy @2941
    _ZN7CosTime19_objref_TimeService12uto_from_utcERKN8TimeBase4UtcTE @2942
    _ZN7CosTime19_objref_TimeService14universal_timeEv @2943
    _ZN7CosTime19_objref_TimeService18new_universal_timeEyys @2944
    _ZN7CosTime19_objref_TimeService21secure_universal_timeEv @2945
    _ZN7CosTime19_objref_TimeServiceC1EP7omniIORP12omniIdentity @2946
    _ZN7CosTime19_objref_TimeServiceC2EP7omniIORP12omniIdentity @2947
    _ZN7CosTime19_objref_TimeServiceD0Ev @2948
    _ZN7CosTime19_objref_TimeServiceD1Ev @2949
    _ZN7CosTime19_objref_TimeServiceD2Ev @2950
    _ZN7CosTime3TIO10_PD_repoIdE @2951 DATA
    _ZN7CosTime3TIO10_duplicateEPNS_11_objref_TIOE @2952
    _ZN7CosTime3TIO17_unchecked_narrowEPN5CORBA6ObjectE @2953
    _ZN7CosTime3TIO4_nilEv @2954
    _ZN7CosTime3TIO7_narrowEPN5CORBA6ObjectE @2955
    _ZN7CosTime3UTO10_PD_repoIdE @2956 DATA
    _ZN7CosTime3UTO10_duplicateEPNS_11_objref_UTOE @2957
    _ZN7CosTime3UTO17_unchecked_narrowEPN5CORBA6ObjectE @2958
    _ZN7CosTime3UTO4_nilEv @2959
    _ZN7CosTime3UTO7_narrowEPN5CORBA6ObjectE @2960
    _ZN7CosTime8_pof_TIO9newObjRefEP7omniIORP12omniIdentity @2961
    _ZN7CosTime8_pof_TIOD0Ev @2962
    _ZN7CosTime8_pof_TIOD1Ev @2963
    _ZN7CosTime8_pof_TIOD2Ev @2964
    _ZN7CosTime8_pof_UTO9newObjRefEP7omniIORP12omniIdentity @2965
    _ZN7CosTime8_pof_UTOD0Ev @2966
    _ZN7CosTime8_pof_UTOD1Ev @2967
    _ZN7CosTime8_pof_UTOD2Ev @2968
    _ZN7CosTime9_impl_TIO15_ptrToInterfaceEPKc @2969
    _ZN7CosTime9_impl_TIO18_mostDerivedRepoIdEv @2970
    _ZN7CosTime9_impl_TIO9_dispatchER14omniCallHandle @2971
    _ZN7CosTime9_impl_TIOD0Ev @2972
    _ZN7CosTime9_impl_TIOD1Ev @2973
    _ZN7CosTime9_impl_TIOD2Ev @2974
    _ZN7CosTime9_impl_UTO15_ptrToInterfaceEPKc @2975
    _ZN7CosTime9_impl_UTO18_mostDerivedRepoIdEv @2976
    _ZN7CosTime9_impl_UTO9_dispatchER14omniCallHandle @2977
    _ZN7CosTime9_impl_UTOD0Ev @2978
    _ZN7CosTime9_impl_UTOD1Ev @2979
    _ZN7CosTime9_impl_UTOD2Ev @2980
    _ZN8TimeBase4UtcTlSER9cdrStream @2981
    _ZN8TimeBase9IntervalTlSER9cdrStream @2982
    _ZN9CosNaming4NameD1Ev @2983
    _ZN9CosNaming8Name_varD1Ev @2984
    _ZNK12CosEventComm12Disconnected10_NP_repoIdEPi @2985
    _ZNK12CosEventComm12Disconnected10_NP_typeIdEv @2986
    _ZNK12CosEventComm12Disconnected11_NP_marshalER9cdrStream @2987
    _ZNK12CosEventComm12Disconnected13_NP_duplicateEv @2988
    _ZNK12CosEventComm12Disconnected6_raiseEv @2989
    _ZNK12CosEventComm17_pof_PullConsumer4is_aEPKc @2990
    _ZNK12CosEventComm17_pof_PullSupplier4is_aEPKc @2991
    _ZNK12CosEventComm17_pof_PushConsumer4is_aEPKc @2992
    _ZNK12CosEventComm17_pof_PushSupplier4is_aEPKc @2993
    _ZNK12CosLifeCycle10NotMovable10_NP_repoIdEPi @2994
    _ZNK12CosLifeCycle10NotMovable10_NP_typeIdEv @2995
    _ZNK12CosLifeCycle10NotMovable11_NP_marshalER9cdrStream @2996
    _ZNK12CosLifeCycle10NotMovable13_NP_duplicateEv @2997
    _ZNK12CosLifeCycle10NotMovable6_raiseEv @2998
    _ZNK12CosLifeCycle10NotMovablerSER9cdrStream @2999
    _ZNK12CosLifeCycle11NotCopyable10_NP_repoIdEPi @3000
    _ZNK12CosLifeCycle11NotCopyable10_NP_typeIdEv @3001
    _ZNK12CosLifeCycle11NotCopyable11_NP_marshalER9cdrStream @3002
    _ZNK12CosLifeCycle11NotCopyable13_NP_duplicateEv @3003
    _ZNK12CosLifeCycle11NotCopyable6_raiseEv @3004
    _ZNK12CosLifeCycle11NotCopyablerSER9cdrStream @3005
    _ZNK12CosLifeCycle12NotRemovable10_NP_repoIdEPi @3006
    _ZNK12CosLifeCycle12NotRemovable10_NP_typeIdEv @3007
    _ZNK12CosLifeCycle12NotRemovable11_NP_marshalER9cdrStream @3008
    _ZNK12CosLifeCycle12NotRemovable13_NP_duplicateEv @3009
    _ZNK12CosLifeCycle12NotRemovable6_raiseEv @3010
    _ZNK12CosLifeCycle12NotRemovablerSER9cdrStream @3011
    _ZNK12CosLifeCycle15InvalidCriteria10_NP_repoIdEPi @3012
    _ZNK12CosLifeCycle15InvalidCriteria10_NP_typeIdEv @3013
    _ZNK12CosLifeCycle15InvalidCriteria11_NP_marshalER9cdrStream @3014
    _ZNK12CosLifeCycle15InvalidCriteria13_NP_duplicateEv @3015
    _ZNK12CosLifeCycle15InvalidCriteria6_raiseEv @3016
    _ZNK12CosLifeCycle15InvalidCriteriarSER9cdrStream @3017
    _ZNK12CosLifeCycle18CannotMeetCriteria10_NP_repoIdEPi @3018
    _ZNK12CosLifeCycle18CannotMeetCriteria10_NP_typeIdEv @3019
    _ZNK12CosLifeCycle18CannotMeetCriteria11_NP_marshalER9cdrStream @3020
    _ZNK12CosLifeCycle18CannotMeetCriteria13_NP_duplicateEv @3021
    _ZNK12CosLifeCycle18CannotMeetCriteria6_raiseEv @3022
    _ZNK12CosLifeCycle18CannotMeetCriteriarSER9cdrStream @3023
    _ZNK12CosLifeCycle18_pof_FactoryFinder4is_aEPKc @3024
    _ZNK12CosLifeCycle19_pof_GenericFactory4is_aEPKc @3025
    _ZNK12CosLifeCycle20_pof_LifeCycleObject4is_aEPKc @3026
    _ZNK12CosLifeCycle3NVPrSER9cdrStream @3027
    _ZNK12CosLifeCycle9NoFactory10_NP_repoIdEPi @3028
    _ZNK12CosLifeCycle9NoFactory10_NP_typeIdEv @3029
    _ZNK12CosLifeCycle9NoFactory11_NP_marshalER9cdrStream @3030
    _ZNK12CosLifeCycle9NoFactory13_NP_duplicateEv @3031
    _ZNK12CosLifeCycle9NoFactory6_raiseEv @3032
    _ZNK12CosLifeCycle9NoFactoryrSER9cdrStream @3033
    _ZNK13CosNotifyComm16InvalidEventType10_NP_repoIdEPi @3034
    _ZNK13CosNotifyComm16InvalidEventType10_NP_typeIdEv @3035
    _ZNK13CosNotifyComm16InvalidEventType11_NP_marshalER9cdrStream @3036
    _ZNK13CosNotifyComm16InvalidEventType13_NP_duplicateEv @3037
    _ZNK13CosNotifyComm16InvalidEventType6_raiseEv @3038
    _ZNK13CosNotifyComm16InvalidEventTyperSER9cdrStream @3039
    _ZNK13CosNotifyComm17_pof_PullConsumer4is_aEPKc @3040
    _ZNK13CosNotifyComm17_pof_PullSupplier4is_aEPKc @3041
    _ZNK13CosNotifyComm17_pof_PushConsumer4is_aEPKc @3042
    _ZNK13CosNotifyComm17_pof_PushSupplier4is_aEPKc @3043
    _ZNK13CosNotifyComm18_pof_NotifyPublish4is_aEPKc @3044
    _ZNK13CosNotifyComm20_pof_NotifySubscribe4is_aEPKc @3045
    _ZNK13CosNotifyComm25_pof_SequencePullConsumer4is_aEPKc @3046
    _ZNK13CosNotifyComm25_pof_SequencePullSupplier4is_aEPKc @3047
    _ZNK13CosNotifyComm25_pof_SequencePushConsumer4is_aEPKc @3048
    _ZNK13CosNotifyComm25_pof_SequencePushSupplier4is_aEPKc @3049
    _ZNK13CosNotifyComm27_pof_StructuredPullConsumer4is_aEPKc @3050
    _ZNK13CosNotifyComm27_pof_StructuredPullSupplier4is_aEPKc @3051
    _ZNK13CosNotifyComm27_pof_StructuredPushConsumer4is_aEPKc @3052
    _ZNK13CosNotifyComm27_pof_StructuredPushSupplier4is_aEPKc @3053
    _ZNK15CosNotification11EventHeaderrSER9cdrStream @3054
    _ZNK15CosNotification13PropertyErrorrSER9cdrStream @3055
    _ZNK15CosNotification13PropertyRangerSER9cdrStream @3056
    _ZNK15CosNotification13_pof_QoSAdmin4is_aEPKc @3057
    _ZNK15CosNotification14UnsupportedQoS10_NP_repoIdEPi @3058
    _ZNK15CosNotification14UnsupportedQoS10_NP_typeIdEv @3059
    _ZNK15CosNotification14UnsupportedQoS11_NP_marshalER9cdrStream @3060
    _ZNK15CosNotification14UnsupportedQoS13_NP_duplicateEv @3061
    _ZNK15CosNotification14UnsupportedQoS6_raiseEv @3062
    _ZNK15CosNotification14UnsupportedQoSrSER9cdrStream @3063
    _ZNK15CosNotification15StructuredEventrSER9cdrStream @3064
    _ZNK15CosNotification16FixedEventHeaderrSER9cdrStream @3065
    _ZNK15CosNotification16UnsupportedAdmin10_NP_repoIdEPi @3066
    _ZNK15CosNotification16UnsupportedAdmin10_NP_typeIdEv @3067
    _ZNK15CosNotification16UnsupportedAdmin11_NP_marshalER9cdrStream @3068
    _ZNK15CosNotification16UnsupportedAdmin13_NP_duplicateEv @3069
    _ZNK15CosNotification16UnsupportedAdmin6_raiseEv @3070
    _ZNK15CosNotification16UnsupportedAdminrSER9cdrStream @3071
    _ZNK15CosNotification18NamedPropertyRangerSER9cdrStream @3072
    _ZNK15CosNotification25_pof_AdminPropertiesAdmin4is_aEPKc @3073
    _ZNK15CosNotification8PropertyrSER9cdrStream @3074
    _ZNK15CosNotification9EventTyperSER9cdrStream @3075
    _ZNK15CosNotifyFilter11_pof_Filter4is_aEPKc @3076
    _ZNK15CosNotifyFilter12InvalidValue10_NP_repoIdEPi @3077
    _ZNK15CosNotifyFilter12InvalidValue10_NP_typeIdEv @3078
    _ZNK15CosNotifyFilter12InvalidValue11_NP_marshalER9cdrStream @3079
    _ZNK15CosNotifyFilter12InvalidValue13_NP_duplicateEv @3080
    _ZNK15CosNotifyFilter12InvalidValue6_raiseEv @3081
    _ZNK15CosNotifyFilter12InvalidValuerSER9cdrStream @3082
    _ZNK15CosNotifyFilter13ConstraintExprSER9cdrStream @3083
    _ZNK15CosNotifyFilter14ConstraintInforSER9cdrStream @3084
    _ZNK15CosNotifyFilter14FilterNotFound10_NP_repoIdEPi @3085
    _ZNK15CosNotifyFilter14FilterNotFound10_NP_typeIdEv @3086
    _ZNK15CosNotifyFilter14FilterNotFound11_NP_marshalER9cdrStream @3087
    _ZNK15CosNotifyFilter14FilterNotFound13_NP_duplicateEv @3088
    _ZNK15CosNotifyFilter14FilterNotFound6_raiseEv @3089
    _ZNK15CosNotifyFilter14InvalidGrammar10_NP_repoIdEPi @3090
    _ZNK15CosNotifyFilter14InvalidGrammar10_NP_typeIdEv @3091
    _ZNK15CosNotifyFilter14InvalidGrammar11_NP_marshalER9cdrStream @3092
    _ZNK15CosNotifyFilter14InvalidGrammar13_NP_duplicateEv @3093
    _ZNK15CosNotifyFilter14InvalidGrammar6_raiseEv @3094
    _ZNK15CosNotifyFilter16CallbackNotFound10_NP_repoIdEPi @3095
    _ZNK15CosNotifyFilter16CallbackNotFound10_NP_typeIdEv @3096
    _ZNK15CosNotifyFilter16CallbackNotFound11_NP_marshalER9cdrStream @3097
    _ZNK15CosNotifyFilter16CallbackNotFound13_NP_duplicateEv @3098
    _ZNK15CosNotifyFilter16CallbackNotFound6_raiseEv @3099
    _ZNK15CosNotifyFilter16_pof_FilterAdmin4is_aEPKc @3100
    _ZNK15CosNotifyFilter17InvalidConstraint10_NP_repoIdEPi @3101
    _ZNK15CosNotifyFilter17InvalidConstraint10_NP_typeIdEv @3102
    _ZNK15CosNotifyFilter17InvalidConstraint11_NP_marshalER9cdrStream @3103
    _ZNK15CosNotifyFilter17InvalidConstraint13_NP_duplicateEv @3104
    _ZNK15CosNotifyFilter17InvalidConstraint6_raiseEv @3105
    _ZNK15CosNotifyFilter17InvalidConstraintrSER9cdrStream @3106
    _ZNK15CosNotifyFilter18ConstraintNotFound10_NP_repoIdEPi @3107
    _ZNK15CosNotifyFilter18ConstraintNotFound10_NP_typeIdEv @3108
    _ZNK15CosNotifyFilter18ConstraintNotFound11_NP_marshalER9cdrStream @3109
    _ZNK15CosNotifyFilter18ConstraintNotFound13_NP_duplicateEv @3110
    _ZNK15CosNotifyFilter18ConstraintNotFound6_raiseEv @3111
    _ZNK15CosNotifyFilter18ConstraintNotFoundrSER9cdrStream @3112
    _ZNK15CosNotifyFilter18_pof_FilterFactory4is_aEPKc @3113
    _ZNK15CosNotifyFilter18_pof_MappingFilter4is_aEPKc @3114
    _ZNK15CosNotifyFilter21DuplicateConstraintID10_NP_repoIdEPi @3115
    _ZNK15CosNotifyFilter21DuplicateConstraintID10_NP_typeIdEv @3116
    _ZNK15CosNotifyFilter21DuplicateConstraintID11_NP_marshalER9cdrStream @3117
    _ZNK15CosNotifyFilter21DuplicateConstraintID13_NP_duplicateEv @3118
    _ZNK15CosNotifyFilter21DuplicateConstraintID6_raiseEv @3119
    _ZNK15CosNotifyFilter21DuplicateConstraintIDrSER9cdrStream @3120
    _ZNK15CosNotifyFilter21MappingConstraintInforSER9cdrStream @3121
    _ZNK15CosNotifyFilter21MappingConstraintPairrSER9cdrStream @3122
    _ZNK15CosNotifyFilter25UnsupportedFilterableData10_NP_repoIdEPi @3123
    _ZNK15CosNotifyFilter25UnsupportedFilterableData10_NP_typeIdEv @3124
    _ZNK15CosNotifyFilter25UnsupportedFilterableData11_NP_marshalER9cdrStream @3125
    _ZNK15CosNotifyFilter25UnsupportedFilterableData13_NP_duplicateEv @3126
    _ZNK15CosNotifyFilter25UnsupportedFilterableData6_raiseEv @3127
    _ZNK20CosEventChannelAdmin16AlreadyConnected10_NP_repoIdEPi @3128
    _ZNK20CosEventChannelAdmin16AlreadyConnected10_NP_typeIdEv @3129
    _ZNK20CosEventChannelAdmin16AlreadyConnected11_NP_marshalER9cdrStream @3130
    _ZNK20CosEventChannelAdmin16AlreadyConnected13_NP_duplicateEv @3131
    _ZNK20CosEventChannelAdmin16AlreadyConnected6_raiseEv @3132
    _ZNK20CosEventChannelAdmin17_pof_EventChannel4is_aEPKc @3133
    _ZNK20CosEventChannelAdmin18_pof_ConsumerAdmin4is_aEPKc @3134
    _ZNK20CosEventChannelAdmin18_pof_SupplierAdmin4is_aEPKc @3135
    _ZNK20CosEventChannelAdmin22_pof_ProxyPullConsumer4is_aEPKc @3136
    _ZNK20CosEventChannelAdmin22_pof_ProxyPullSupplier4is_aEPKc @3137
    _ZNK20CosEventChannelAdmin22_pof_ProxyPushConsumer4is_aEPKc @3138
    _ZNK20CosEventChannelAdmin22_pof_ProxyPushSupplier4is_aEPKc @3139
    _ZNK20CosEventChannelAdmin9TypeError10_NP_repoIdEPi @3140
    _ZNK20CosEventChannelAdmin9TypeError10_NP_typeIdEv @3141
    _ZNK20CosEventChannelAdmin9TypeError11_NP_marshalER9cdrStream @3142
    _ZNK20CosEventChannelAdmin9TypeError13_NP_duplicateEv @3143
    _ZNK20CosEventChannelAdmin9TypeError6_raiseEv @3144
    _ZNK21CosNotifyChannelAdmin10AdminLimitrSER9cdrStream @3145
    _ZNK21CosNotifyChannelAdmin12NotConnected10_NP_repoIdEPi @3146
    _ZNK21CosNotifyChannelAdmin12NotConnected10_NP_typeIdEv @3147
    _ZNK21CosNotifyChannelAdmin12NotConnected11_NP_marshalER9cdrStream @3148
    _ZNK21CosNotifyChannelAdmin12NotConnected13_NP_duplicateEv @3149
    _ZNK21CosNotifyChannelAdmin12NotConnected6_raiseEv @3150
    _ZNK21CosNotifyChannelAdmin13AdminNotFound10_NP_repoIdEPi @3151
    _ZNK21CosNotifyChannelAdmin13AdminNotFound10_NP_typeIdEv @3152
    _ZNK21CosNotifyChannelAdmin13AdminNotFound11_NP_marshalER9cdrStream @3153
    _ZNK21CosNotifyChannelAdmin13AdminNotFound13_NP_duplicateEv @3154
    _ZNK21CosNotifyChannelAdmin13AdminNotFound6_raiseEv @3155
    _ZNK21CosNotifyChannelAdmin13ProxyNotFound10_NP_repoIdEPi @3156
    _ZNK21CosNotifyChannelAdmin13ProxyNotFound10_NP_typeIdEv @3157
    _ZNK21CosNotifyChannelAdmin13ProxyNotFound11_NP_marshalER9cdrStream @3158
    _ZNK21CosNotifyChannelAdmin13ProxyNotFound13_NP_duplicateEv @3159
    _ZNK21CosNotifyChannelAdmin13ProxyNotFound6_raiseEv @3160
    _ZNK21CosNotifyChannelAdmin15ChannelNotFound10_NP_repoIdEPi @3161
    _ZNK21CosNotifyChannelAdmin15ChannelNotFound10_NP_typeIdEv @3162
    _ZNK21CosNotifyChannelAdmin15ChannelNotFound11_NP_marshalER9cdrStream @3163
    _ZNK21CosNotifyChannelAdmin15ChannelNotFound13_NP_duplicateEv @3164
    _ZNK21CosNotifyChannelAdmin15ChannelNotFound6_raiseEv @3165
    _ZNK21CosNotifyChannelAdmin17_pof_EventChannel4is_aEPKc @3166
    _ZNK21CosNotifyChannelAdmin18AdminLimitExceeded10_NP_repoIdEPi @3167
    _ZNK21CosNotifyChannelAdmin18AdminLimitExceeded10_NP_typeIdEv @3168
    _ZNK21CosNotifyChannelAdmin18AdminLimitExceeded11_NP_marshalER9cdrStream @3169
    _ZNK21CosNotifyChannelAdmin18AdminLimitExceeded13_NP_duplicateEv @3170
    _ZNK21CosNotifyChannelAdmin18AdminLimitExceeded6_raiseEv @3171
    _ZNK21CosNotifyChannelAdmin18AdminLimitExceededrSER9cdrStream @3172
    _ZNK21CosNotifyChannelAdmin18_pof_ConsumerAdmin4is_aEPKc @3173
    _ZNK21CosNotifyChannelAdmin18_pof_ProxyConsumer4is_aEPKc @3174
    _ZNK21CosNotifyChannelAdmin18_pof_ProxySupplier4is_aEPKc @3175
    _ZNK21CosNotifyChannelAdmin18_pof_SupplierAdmin4is_aEPKc @3176
    _ZNK21CosNotifyChannelAdmin22_pof_ProxyPullConsumer4is_aEPKc @3177
    _ZNK21CosNotifyChannelAdmin22_pof_ProxyPullSupplier4is_aEPKc @3178
    _ZNK21CosNotifyChannelAdmin22_pof_ProxyPushConsumer4is_aEPKc @3179
    _ZNK21CosNotifyChannelAdmin22_pof_ProxyPushSupplier4is_aEPKc @3180
    _ZNK21CosNotifyChannelAdmin23ConnectionAlreadyActive10_NP_repoIdEPi @3181
    _ZNK21CosNotifyChannelAdmin23ConnectionAlreadyActive10_NP_typeIdEv @3182
    _ZNK21CosNotifyChannelAdmin23ConnectionAlreadyActive11_NP_marshalER9cdrStream @3183
    _ZNK21CosNotifyChannelAdmin23ConnectionAlreadyActive13_NP_duplicateEv @3184
    _ZNK21CosNotifyChannelAdmin23ConnectionAlreadyActive6_raiseEv @3185
    _ZNK21CosNotifyChannelAdmin24_pof_EventChannelFactory4is_aEPKc @3186
    _ZNK21CosNotifyChannelAdmin25ConnectionAlreadyInactive10_NP_repoIdEPi @3187
    _ZNK21CosNotifyChannelAdmin25ConnectionAlreadyInactive10_NP_typeIdEv @3188
    _ZNK21CosNotifyChannelAdmin25ConnectionAlreadyInactive11_NP_marshalER9cdrStream @3189
    _ZNK21CosNotifyChannelAdmin25ConnectionAlreadyInactive13_NP_duplicateEv @3190
    _ZNK21CosNotifyChannelAdmin25ConnectionAlreadyInactive6_raiseEv @3191
    _ZNK21CosNotifyChannelAdmin30_pof_SequenceProxyPullConsumer4is_aEPKc @3192
    _ZNK21CosNotifyChannelAdmin30_pof_SequenceProxyPullSupplier4is_aEPKc @3193
    _ZNK21CosNotifyChannelAdmin30_pof_SequenceProxyPushConsumer4is_aEPKc @3194
    _ZNK21CosNotifyChannelAdmin30_pof_SequenceProxyPushSupplier4is_aEPKc @3195
    _ZNK21CosNotifyChannelAdmin32_pof_StructuredProxyPullConsumer4is_aEPKc @3196
    _ZNK21CosNotifyChannelAdmin32_pof_StructuredProxyPullSupplier4is_aEPKc @3197
    _ZNK21CosNotifyChannelAdmin32_pof_StructuredProxyPushConsumer4is_aEPKc @3198
    _ZNK21CosNotifyChannelAdmin32_pof_StructuredProxyPushSupplier4is_aEPKc @3199
    _ZNK7CosTime15TimeUnavailable10_NP_repoIdEPi @3200
    _ZNK7CosTime15TimeUnavailable10_NP_typeIdEv @3201
    _ZNK7CosTime15TimeUnavailable11_NP_marshalER9cdrStream @3202
    _ZNK7CosTime15TimeUnavailable13_NP_duplicateEv @3203
    _ZNK7CosTime15TimeUnavailable6_raiseEv @3204
    _ZNK7CosTime16_pof_TimeService4is_aEPKc @3205
    _ZNK7CosTime8_pof_TIO4is_aEPKc @3206
    _ZNK7CosTime8_pof_UTO4is_aEPKc @3207
    _ZNK8TimeBase4UtcTrSER9cdrStream @3208
    _ZNK8TimeBase9IntervalTrSER9cdrStream @3209
    _ZTCN11POA_CosTime11TimeServiceE0_N7CosTime17_impl_TimeServiceE @3210 DATA
    _ZTCN11POA_CosTime11TimeServiceE20_N14PortableServer11ServantBaseE @3211 DATA
    _ZTCN11POA_CosTime3TIOE0_N7CosTime9_impl_TIOE @3212 DATA
    _ZTCN11POA_CosTime3TIOE20_N14PortableServer11ServantBaseE @3213 DATA
    _ZTCN11POA_CosTime3UTOE0_N7CosTime9_impl_UTOE @3214 DATA
    _ZTCN11POA_CosTime3UTOE20_N14PortableServer11ServantBaseE @3215 DATA
    _ZTCN13CosNotifyComm18_impl_PullConsumerE0_NS_19_impl_NotifyPublishE @3216 DATA
    _ZTCN13CosNotifyComm18_impl_PullConsumerE20_N12CosEventComm18_impl_PullConsumerE @3217 DATA
    _ZTCN13CosNotifyComm18_impl_PullSupplierE0_NS_21_impl_NotifySubscribeE @3218 DATA
    _ZTCN13CosNotifyComm18_impl_PullSupplierE20_N12CosEventComm18_impl_PullSupplierE @3219 DATA
    _ZTCN13CosNotifyComm18_impl_PushConsumerE0_NS_19_impl_NotifyPublishE @3220 DATA
    _ZTCN13CosNotifyComm18_impl_PushConsumerE20_N12CosEventComm18_impl_PushConsumerE @3221 DATA
    _ZTCN13CosNotifyComm18_impl_PushSupplierE0_NS_21_impl_NotifySubscribeE @3222 DATA
    _ZTCN13CosNotifyComm18_impl_PushSupplierE20_N12CosEventComm18_impl_PushSupplierE @3223 DATA
    _ZTCN13CosNotifyComm20_objref_PullConsumerE0_NS_21_objref_NotifyPublishE @3224 DATA
    _ZTCN13CosNotifyComm20_objref_PullConsumerE60_N12CosEventComm20_objref_PullConsumerE @3225 DATA
    _ZTCN13CosNotifyComm20_objref_PullSupplierE0_NS_23_objref_NotifySubscribeE @3226 DATA
    _ZTCN13CosNotifyComm20_objref_PullSupplierE60_N12CosEventComm20_objref_PullSupplierE @3227 DATA
    _ZTCN13CosNotifyComm20_objref_PushConsumerE0_NS_21_objref_NotifyPublishE @3228 DATA
    _ZTCN13CosNotifyComm20_objref_PushConsumerE60_N12CosEventComm20_objref_PushConsumerE @3229 DATA
    _ZTCN13CosNotifyComm20_objref_PushSupplierE0_NS_23_objref_NotifySubscribeE @3230 DATA
    _ZTCN13CosNotifyComm20_objref_PushSupplierE60_N12CosEventComm20_objref_PushSupplierE @3231 DATA
    _ZTCN13CosNotifyComm26_impl_SequencePullConsumerE0_NS_19_impl_NotifyPublishE @3232 DATA
    _ZTCN13CosNotifyComm26_impl_SequencePullSupplierE0_NS_21_impl_NotifySubscribeE @3233 DATA
    _ZTCN13CosNotifyComm26_impl_SequencePushConsumerE0_NS_19_impl_NotifyPublishE @3234 DATA
    _ZTCN13CosNotifyComm26_impl_SequencePushSupplierE0_NS_21_impl_NotifySubscribeE @3235 DATA
    _ZTCN13CosNotifyComm28_impl_StructuredPullConsumerE0_NS_19_impl_NotifyPublishE @3236 DATA
    _ZTCN13CosNotifyComm28_impl_StructuredPullSupplierE0_NS_21_impl_NotifySubscribeE @3237 DATA
    _ZTCN13CosNotifyComm28_impl_StructuredPushConsumerE0_NS_19_impl_NotifyPublishE @3238 DATA
    _ZTCN13CosNotifyComm28_impl_StructuredPushSupplierE0_NS_21_impl_NotifySubscribeE @3239 DATA
    _ZTCN13CosNotifyComm28_objref_SequencePullConsumerE0_NS_21_objref_NotifyPublishE @3240 DATA
    _ZTCN13CosNotifyComm28_objref_SequencePullSupplierE0_NS_23_objref_NotifySubscribeE @3241 DATA
    _ZTCN13CosNotifyComm28_objref_SequencePushConsumerE0_NS_21_objref_NotifyPublishE @3242 DATA
    _ZTCN13CosNotifyComm28_objref_SequencePushSupplierE0_NS_23_objref_NotifySubscribeE @3243 DATA
    _ZTCN13CosNotifyComm30_objref_StructuredPullConsumerE0_NS_21_objref_NotifyPublishE @3244 DATA
    _ZTCN13CosNotifyComm30_objref_StructuredPullSupplierE0_NS_23_objref_NotifySubscribeE @3245 DATA
    _ZTCN13CosNotifyComm30_objref_StructuredPushConsumerE0_NS_21_objref_NotifyPublishE @3246 DATA
    _ZTCN13CosNotifyComm30_objref_StructuredPushSupplierE0_NS_23_objref_NotifySubscribeE @3247 DATA
    _ZTCN16POA_CosEventComm12PullConsumerE0_N12CosEventComm18_impl_PullConsumerE @3248 DATA
    _ZTCN16POA_CosEventComm12PullConsumerE20_N14PortableServer11ServantBaseE @3249 DATA
    _ZTCN16POA_CosEventComm12PullSupplierE0_N12CosEventComm18_impl_PullSupplierE @3250 DATA
    _ZTCN16POA_CosEventComm12PullSupplierE20_N14PortableServer11ServantBaseE @3251 DATA
    _ZTCN16POA_CosEventComm12PushConsumerE0_N12CosEventComm18_impl_PushConsumerE @3252 DATA
    _ZTCN16POA_CosEventComm12PushConsumerE20_N14PortableServer11ServantBaseE @3253 DATA
    _ZTCN16POA_CosEventComm12PushSupplierE0_N12CosEventComm18_impl_PushSupplierE @3254 DATA
    _ZTCN16POA_CosEventComm12PushSupplierE20_N14PortableServer11ServantBaseE @3255 DATA
    _ZTCN16POA_CosLifeCycle13FactoryFinderE0_N12CosLifeCycle19_impl_FactoryFinderE @3256 DATA
    _ZTCN16POA_CosLifeCycle13FactoryFinderE20_N14PortableServer11ServantBaseE @3257 DATA
    _ZTCN16POA_CosLifeCycle14GenericFactoryE0_N12CosLifeCycle20_impl_GenericFactoryE @3258 DATA
    _ZTCN16POA_CosLifeCycle14GenericFactoryE20_N14PortableServer11ServantBaseE @3259 DATA
    _ZTCN16POA_CosLifeCycle15LifeCycleObjectE0_N12CosLifeCycle21_impl_LifeCycleObjectE @3260 DATA
    _ZTCN16POA_CosLifeCycle15LifeCycleObjectE20_N14PortableServer11ServantBaseE @3261 DATA
    _ZTCN17POA_CosNotifyComm12PullConsumerE0_N13CosNotifyComm18_impl_PullConsumerE @3262 DATA
    _ZTCN17POA_CosNotifyComm12PullConsumerE0_N13CosNotifyComm19_impl_NotifyPublishE @3263 DATA
    _ZTCN17POA_CosNotifyComm12PullConsumerE20_NS_13NotifyPublishE @3264 DATA
    _ZTCN17POA_CosNotifyComm12PullConsumerE24_N14PortableServer11ServantBaseE @3265 DATA
    _ZTCN17POA_CosNotifyComm12PullConsumerE32_N12CosEventComm18_impl_PullConsumerE @3266 DATA
    _ZTCN17POA_CosNotifyComm12PullConsumerE32_N16POA_CosEventComm12PullConsumerE @3267 DATA
    _ZTCN17POA_CosNotifyComm12PullSupplierE0_N13CosNotifyComm18_impl_PullSupplierE @3268 DATA
    _ZTCN17POA_CosNotifyComm12PullSupplierE0_N13CosNotifyComm21_impl_NotifySubscribeE @3269 DATA
    _ZTCN17POA_CosNotifyComm12PullSupplierE20_NS_15NotifySubscribeE @3270 DATA
    _ZTCN17POA_CosNotifyComm12PullSupplierE24_N14PortableServer11ServantBaseE @3271 DATA
    _ZTCN17POA_CosNotifyComm12PullSupplierE32_N12CosEventComm18_impl_PullSupplierE @3272 DATA
    _ZTCN17POA_CosNotifyComm12PullSupplierE32_N16POA_CosEventComm12PullSupplierE @3273 DATA
    _ZTCN17POA_CosNotifyComm12PushConsumerE0_N13CosNotifyComm18_impl_PushConsumerE @3274 DATA
    _ZTCN17POA_CosNotifyComm12PushConsumerE0_N13CosNotifyComm19_impl_NotifyPublishE @3275 DATA
    _ZTCN17POA_CosNotifyComm12PushConsumerE20_NS_13NotifyPublishE @3276 DATA
    _ZTCN17POA_CosNotifyComm12PushConsumerE24_N14PortableServer11ServantBaseE @3277 DATA
    _ZTCN17POA_CosNotifyComm12PushConsumerE32_N12CosEventComm18_impl_PushConsumerE @3278 DATA
    _ZTCN17POA_CosNotifyComm12PushConsumerE32_N16POA_CosEventComm12PushConsumerE @3279 DATA
    _ZTCN17POA_CosNotifyComm12PushSupplierE0_N13CosNotifyComm18_impl_PushSupplierE @3280 DATA
    _ZTCN17POA_CosNotifyComm12PushSupplierE0_N13CosNotifyComm21_impl_NotifySubscribeE @3281 DATA
    _ZTCN17POA_CosNotifyComm12PushSupplierE20_NS_15NotifySubscribeE @3282 DATA
    _ZTCN17POA_CosNotifyComm12PushSupplierE24_N14PortableServer11ServantBaseE @3283 DATA
    _ZTCN17POA_CosNotifyComm12PushSupplierE32_N12CosEventComm18_impl_PushSupplierE @3284 DATA
    _ZTCN17POA_CosNotifyComm12PushSupplierE32_N16POA_CosEventComm12PushSupplierE @3285 DATA
    _ZTCN17POA_CosNotifyComm13NotifyPublishE0_N13CosNotifyComm19_impl_NotifyPublishE @3286 DATA
    _ZTCN17POA_CosNotifyComm13NotifyPublishE20_N14PortableServer11ServantBaseE @3287 DATA
    _ZTCN17POA_CosNotifyComm15NotifySubscribeE0_N13CosNotifyComm21_impl_NotifySubscribeE @3288 DATA
    _ZTCN17POA_CosNotifyComm15NotifySubscribeE20_N14PortableServer11ServantBaseE @3289 DATA
    _ZTCN17POA_CosNotifyComm20SequencePullConsumerE0_N13CosNotifyComm19_impl_NotifyPublishE @3290 DATA
    _ZTCN17POA_CosNotifyComm20SequencePullConsumerE0_N13CosNotifyComm26_impl_SequencePullConsumerE @3291 DATA
    _ZTCN17POA_CosNotifyComm20SequencePullConsumerE20_NS_13NotifyPublishE @3292 DATA
    _ZTCN17POA_CosNotifyComm20SequencePullConsumerE24_N14PortableServer11ServantBaseE @3293 DATA
    _ZTCN17POA_CosNotifyComm20SequencePullSupplierE0_N13CosNotifyComm21_impl_NotifySubscribeE @3294 DATA
    _ZTCN17POA_CosNotifyComm20SequencePullSupplierE0_N13CosNotifyComm26_impl_SequencePullSupplierE @3295 DATA
    _ZTCN17POA_CosNotifyComm20SequencePullSupplierE20_NS_15NotifySubscribeE @3296 DATA
    _ZTCN17POA_CosNotifyComm20SequencePullSupplierE24_N14PortableServer11ServantBaseE @3297 DATA
    _ZTCN17POA_CosNotifyComm20SequencePushConsumerE0_N13CosNotifyComm19_impl_NotifyPublishE @3298 DATA
    _ZTCN17POA_CosNotifyComm20SequencePushConsumerE0_N13CosNotifyComm26_impl_SequencePushConsumerE @3299 DATA
    _ZTCN17POA_CosNotifyComm20SequencePushConsumerE20_NS_13NotifyPublishE @3300 DATA
    _ZTCN17POA_CosNotifyComm20SequencePushConsumerE24_N14PortableServer11ServantBaseE @3301 DATA
    _ZTCN17POA_CosNotifyComm20SequencePushSupplierE0_N13CosNotifyComm21_impl_NotifySubscribeE @3302 DATA
    _ZTCN17POA_CosNotifyComm20SequencePushSupplierE0_N13CosNotifyComm26_impl_SequencePushSupplierE @3303 DATA
    _ZTCN17POA_CosNotifyComm20SequencePushSupplierE20_NS_15NotifySubscribeE @3304 DATA
    _ZTCN17POA_CosNotifyComm20SequencePushSupplierE24_N14PortableServer11ServantBaseE @3305 DATA
    _ZTCN17POA_CosNotifyComm22StructuredPullConsumerE0_N13CosNotifyComm19_impl_NotifyPublishE @3306 DATA
    _ZTCN17POA_CosNotifyComm22StructuredPullConsumerE0_N13CosNotifyComm28_impl_StructuredPullConsumerE @3307 DATA
    _ZTCN17POA_CosNotifyComm22StructuredPullConsumerE20_NS_13NotifyPublishE @3308 DATA
    _ZTCN17POA_CosNotifyComm22StructuredPullConsumerE24_N14PortableServer11ServantBaseE @3309 DATA
    _ZTCN17POA_CosNotifyComm22StructuredPullSupplierE0_N13CosNotifyComm21_impl_NotifySubscribeE @3310 DATA
    _ZTCN17POA_CosNotifyComm22StructuredPullSupplierE0_N13CosNotifyComm28_impl_StructuredPullSupplierE @3311 DATA
    _ZTCN17POA_CosNotifyComm22StructuredPullSupplierE20_NS_15NotifySubscribeE @3312 DATA
    _ZTCN17POA_CosNotifyComm22StructuredPullSupplierE24_N14PortableServer11ServantBaseE @3313 DATA
    _ZTCN17POA_CosNotifyComm22StructuredPushConsumerE0_N13CosNotifyComm19_impl_NotifyPublishE @3314 DATA
    _ZTCN17POA_CosNotifyComm22StructuredPushConsumerE0_N13CosNotifyComm28_impl_StructuredPushConsumerE @3315 DATA
    _ZTCN17POA_CosNotifyComm22StructuredPushConsumerE20_NS_13NotifyPublishE @3316 DATA
    _ZTCN17POA_CosNotifyComm22StructuredPushConsumerE24_N14PortableServer11ServantBaseE @3317 DATA
    _ZTCN17POA_CosNotifyComm22StructuredPushSupplierE0_N13CosNotifyComm21_impl_NotifySubscribeE @3318 DATA
    _ZTCN17POA_CosNotifyComm22StructuredPushSupplierE0_N13CosNotifyComm28_impl_StructuredPushSupplierE @3319 DATA
    _ZTCN17POA_CosNotifyComm22StructuredPushSupplierE20_NS_15NotifySubscribeE @3320 DATA
    _ZTCN17POA_CosNotifyComm22StructuredPushSupplierE24_N14PortableServer11ServantBaseE @3321 DATA
    _ZTCN19POA_CosNotification20AdminPropertiesAdminE0_N15CosNotification26_impl_AdminPropertiesAdminE @3322 DATA
    _ZTCN19POA_CosNotification20AdminPropertiesAdminE20_N14PortableServer11ServantBaseE @3323 DATA
    _ZTCN19POA_CosNotification8QoSAdminE0_N15CosNotification14_impl_QoSAdminE @3324 DATA
    _ZTCN19POA_CosNotification8QoSAdminE20_N14PortableServer11ServantBaseE @3325 DATA
    _ZTCN19POA_CosNotifyFilter11FilterAdminE0_N15CosNotifyFilter17_impl_FilterAdminE @3326 DATA
    _ZTCN19POA_CosNotifyFilter11FilterAdminE20_N14PortableServer11ServantBaseE @3327 DATA
    _ZTCN19POA_CosNotifyFilter13FilterFactoryE0_N15CosNotifyFilter19_impl_FilterFactoryE @3328 DATA
    _ZTCN19POA_CosNotifyFilter13FilterFactoryE20_N14PortableServer11ServantBaseE @3329 DATA
    _ZTCN19POA_CosNotifyFilter13MappingFilterE0_N15CosNotifyFilter19_impl_MappingFilterE @3330 DATA
    _ZTCN19POA_CosNotifyFilter13MappingFilterE20_N14PortableServer11ServantBaseE @3331 DATA
    _ZTCN19POA_CosNotifyFilter6FilterE0_N15CosNotifyFilter12_impl_FilterE @3332 DATA
    _ZTCN19POA_CosNotifyFilter6FilterE20_N14PortableServer11ServantBaseE @3333 DATA
    _ZTCN20CosEventChannelAdmin23_impl_ProxyPullConsumerE0_N12CosEventComm18_impl_PullConsumerE @3334 DATA
    _ZTCN20CosEventChannelAdmin23_impl_ProxyPullSupplierE0_N12CosEventComm18_impl_PullSupplierE @3335 DATA
    _ZTCN20CosEventChannelAdmin23_impl_ProxyPushConsumerE0_N12CosEventComm18_impl_PushConsumerE @3336 DATA
    _ZTCN20CosEventChannelAdmin23_impl_ProxyPushSupplierE0_N12CosEventComm18_impl_PushSupplierE @3337 DATA
    _ZTCN20CosEventChannelAdmin25_objref_ProxyPullConsumerE0_N12CosEventComm20_objref_PullConsumerE @3338 DATA
    _ZTCN20CosEventChannelAdmin25_objref_ProxyPullSupplierE0_N12CosEventComm20_objref_PullSupplierE @3339 DATA
    _ZTCN20CosEventChannelAdmin25_objref_ProxyPushConsumerE0_N12CosEventComm20_objref_PushConsumerE @3340 DATA
    _ZTCN20CosEventChannelAdmin25_objref_ProxyPushSupplierE0_N12CosEventComm20_objref_PushSupplierE @3341 DATA
    _ZTCN21CosNotifyChannelAdmin18_impl_EventChannelE0_N15CosNotification14_impl_QoSAdminE @3342 DATA
    _ZTCN21CosNotifyChannelAdmin18_impl_EventChannelE20_N15CosNotification26_impl_AdminPropertiesAdminE @3343 DATA
    _ZTCN21CosNotifyChannelAdmin18_impl_EventChannelE24_N20CosEventChannelAdmin18_impl_EventChannelE @3344 DATA
    _ZTCN21CosNotifyChannelAdmin19_impl_ConsumerAdminE0_N15CosNotification14_impl_QoSAdminE @3345 DATA
    _ZTCN21CosNotifyChannelAdmin19_impl_ConsumerAdminE20_N13CosNotifyComm21_impl_NotifySubscribeE @3346 DATA
    _ZTCN21CosNotifyChannelAdmin19_impl_ConsumerAdminE24_N15CosNotifyFilter17_impl_FilterAdminE @3347 DATA
    _ZTCN21CosNotifyChannelAdmin19_impl_ConsumerAdminE28_N20CosEventChannelAdmin19_impl_ConsumerAdminE @3348 DATA
    _ZTCN21CosNotifyChannelAdmin19_impl_ProxyConsumerE0_N15CosNotification14_impl_QoSAdminE @3349 DATA
    _ZTCN21CosNotifyChannelAdmin19_impl_ProxyConsumerE20_N15CosNotifyFilter17_impl_FilterAdminE @3350 DATA
    _ZTCN21CosNotifyChannelAdmin19_impl_ProxySupplierE0_N15CosNotification14_impl_QoSAdminE @3351 DATA
    _ZTCN21CosNotifyChannelAdmin19_impl_ProxySupplierE20_N15CosNotifyFilter17_impl_FilterAdminE @3352 DATA
    _ZTCN21CosNotifyChannelAdmin19_impl_SupplierAdminE0_N15CosNotification14_impl_QoSAdminE @3353 DATA
    _ZTCN21CosNotifyChannelAdmin19_impl_SupplierAdminE20_N13CosNotifyComm19_impl_NotifyPublishE @3354 DATA
    _ZTCN21CosNotifyChannelAdmin19_impl_SupplierAdminE24_N15CosNotifyFilter17_impl_FilterAdminE @3355 DATA
    _ZTCN21CosNotifyChannelAdmin19_impl_SupplierAdminE28_N20CosEventChannelAdmin19_impl_SupplierAdminE @3356 DATA
    _ZTCN21CosNotifyChannelAdmin20_objref_EventChannelE0_N15CosNotification16_objref_QoSAdminE @3357 DATA
    _ZTCN21CosNotifyChannelAdmin20_objref_EventChannelE60_N15CosNotification28_objref_AdminPropertiesAdminE @3358 DATA
    _ZTCN21CosNotifyChannelAdmin20_objref_EventChannelE64_N20CosEventChannelAdmin20_objref_EventChannelE @3359 DATA
    _ZTCN21CosNotifyChannelAdmin21_objref_ConsumerAdminE0_N15CosNotification16_objref_QoSAdminE @3360 DATA
    _ZTCN21CosNotifyChannelAdmin21_objref_ConsumerAdminE60_N13CosNotifyComm23_objref_NotifySubscribeE @3361 DATA
    _ZTCN21CosNotifyChannelAdmin21_objref_ConsumerAdminE64_N15CosNotifyFilter19_objref_FilterAdminE @3362 DATA
    _ZTCN21CosNotifyChannelAdmin21_objref_ConsumerAdminE68_N20CosEventChannelAdmin21_objref_ConsumerAdminE @3363 DATA
    _ZTCN21CosNotifyChannelAdmin21_objref_ProxyConsumerE0_N15CosNotification16_objref_QoSAdminE @3364 DATA
    _ZTCN21CosNotifyChannelAdmin21_objref_ProxyConsumerE60_N15CosNotifyFilter19_objref_FilterAdminE @3365 DATA
    _ZTCN21CosNotifyChannelAdmin21_objref_ProxySupplierE0_N15CosNotification16_objref_QoSAdminE @3366 DATA
    _ZTCN21CosNotifyChannelAdmin21_objref_ProxySupplierE60_N15CosNotifyFilter19_objref_FilterAdminE @3367 DATA
    _ZTCN21CosNotifyChannelAdmin21_objref_SupplierAdminE0_N15CosNotification16_objref_QoSAdminE @3368 DATA
    _ZTCN21CosNotifyChannelAdmin21_objref_SupplierAdminE60_N13CosNotifyComm21_objref_NotifyPublishE @3369 DATA
    _ZTCN21CosNotifyChannelAdmin21_objref_SupplierAdminE64_N15CosNotifyFilter19_objref_FilterAdminE @3370 DATA
    _ZTCN21CosNotifyChannelAdmin21_objref_SupplierAdminE68_N20CosEventChannelAdmin21_objref_SupplierAdminE @3371 DATA
    _ZTCN21CosNotifyChannelAdmin23_impl_ProxyPullConsumerE0_N15CosNotification14_impl_QoSAdminE @3372 DATA
    _ZTCN21CosNotifyChannelAdmin23_impl_ProxyPullConsumerE0_NS_19_impl_ProxyConsumerE @3373 DATA
    _ZTCN21CosNotifyChannelAdmin23_impl_ProxyPullConsumerE20_N15CosNotifyFilter17_impl_FilterAdminE @3374 DATA
    _ZTCN21CosNotifyChannelAdmin23_impl_ProxyPullConsumerE24_N13CosNotifyComm18_impl_PullConsumerE @3375 DATA
    _ZTCN21CosNotifyChannelAdmin23_impl_ProxyPullConsumerE24_N13CosNotifyComm19_impl_NotifyPublishE @3376 DATA
    _ZTCN21CosNotifyChannelAdmin23_impl_ProxyPullConsumerE28_N12CosEventComm18_impl_PullConsumerE @3377 DATA
    _ZTCN21CosNotifyChannelAdmin23_impl_ProxyPullSupplierE0_N15CosNotification14_impl_QoSAdminE @3378 DATA
    _ZTCN21CosNotifyChannelAdmin23_impl_ProxyPullSupplierE0_NS_19_impl_ProxySupplierE @3379 DATA
    _ZTCN21CosNotifyChannelAdmin23_impl_ProxyPullSupplierE20_N15CosNotifyFilter17_impl_FilterAdminE @3380 DATA
    _ZTCN21CosNotifyChannelAdmin23_impl_ProxyPullSupplierE24_N13CosNotifyComm18_impl_PullSupplierE @3381 DATA
    _ZTCN21CosNotifyChannelAdmin23_impl_ProxyPullSupplierE24_N13CosNotifyComm21_impl_NotifySubscribeE @3382 DATA
    _ZTCN21CosNotifyChannelAdmin23_impl_ProxyPullSupplierE28_N12CosEventComm18_impl_PullSupplierE @3383 DATA
    _ZTCN21CosNotifyChannelAdmin23_impl_ProxyPushConsumerE0_N15CosNotification14_impl_QoSAdminE @3384 DATA
    _ZTCN21CosNotifyChannelAdmin23_impl_ProxyPushConsumerE0_NS_19_impl_ProxyConsumerE @3385 DATA
    _ZTCN21CosNotifyChannelAdmin23_impl_ProxyPushConsumerE20_N15CosNotifyFilter17_impl_FilterAdminE @3386 DATA
    _ZTCN21CosNotifyChannelAdmin23_impl_ProxyPushConsumerE24_N13CosNotifyComm18_impl_PushConsumerE @3387 DATA
    _ZTCN21CosNotifyChannelAdmin23_impl_ProxyPushConsumerE24_N13CosNotifyComm19_impl_NotifyPublishE @3388 DATA
    _ZTCN21CosNotifyChannelAdmin23_impl_ProxyPushConsumerE28_N12CosEventComm18_impl_PushConsumerE @3389 DATA
    _ZTCN21CosNotifyChannelAdmin23_impl_ProxyPushSupplierE0_N15CosNotification14_impl_QoSAdminE @3390 DATA
    _ZTCN21CosNotifyChannelAdmin23_impl_ProxyPushSupplierE0_NS_19_impl_ProxySupplierE @3391 DATA
    _ZTCN21CosNotifyChannelAdmin23_impl_ProxyPushSupplierE20_N15CosNotifyFilter17_impl_FilterAdminE @3392 DATA
    _ZTCN21CosNotifyChannelAdmin23_impl_ProxyPushSupplierE24_N13CosNotifyComm18_impl_PushSupplierE @3393 DATA
    _ZTCN21CosNotifyChannelAdmin23_impl_ProxyPushSupplierE24_N13CosNotifyComm21_impl_NotifySubscribeE @3394 DATA
    _ZTCN21CosNotifyChannelAdmin23_impl_ProxyPushSupplierE28_N12CosEventComm18_impl_PushSupplierE @3395 DATA
    _ZTCN21CosNotifyChannelAdmin25_objref_ProxyPullConsumerE0_N15CosNotification16_objref_QoSAdminE @3396 DATA
    _ZTCN21CosNotifyChannelAdmin25_objref_ProxyPullConsumerE0_NS_21_objref_ProxyConsumerE @3397 DATA
    _ZTCN21CosNotifyChannelAdmin25_objref_ProxyPullConsumerE60_N15CosNotifyFilter19_objref_FilterAdminE @3398 DATA
    _ZTCN21CosNotifyChannelAdmin25_objref_ProxyPullConsumerE64_N13CosNotifyComm20_objref_PullConsumerE @3399 DATA
    _ZTCN21CosNotifyChannelAdmin25_objref_ProxyPullConsumerE64_N13CosNotifyComm21_objref_NotifyPublishE @3400 DATA
    _ZTCN21CosNotifyChannelAdmin25_objref_ProxyPullConsumerE68_N12CosEventComm20_objref_PullConsumerE @3401 DATA
    _ZTCN21CosNotifyChannelAdmin25_objref_ProxyPullSupplierE0_N15CosNotification16_objref_QoSAdminE @3402 DATA
    _ZTCN21CosNotifyChannelAdmin25_objref_ProxyPullSupplierE0_NS_21_objref_ProxySupplierE @3403 DATA
    _ZTCN21CosNotifyChannelAdmin25_objref_ProxyPullSupplierE60_N15CosNotifyFilter19_objref_FilterAdminE @3404 DATA
    _ZTCN21CosNotifyChannelAdmin25_objref_ProxyPullSupplierE64_N13CosNotifyComm20_objref_PullSupplierE @3405 DATA
    _ZTCN21CosNotifyChannelAdmin25_objref_ProxyPullSupplierE64_N13CosNotifyComm23_objref_NotifySubscribeE @3406 DATA
    _ZTCN21CosNotifyChannelAdmin25_objref_ProxyPullSupplierE68_N12CosEventComm20_objref_PullSupplierE @3407 DATA
    _ZTCN21CosNotifyChannelAdmin25_objref_ProxyPushConsumerE0_N15CosNotification16_objref_QoSAdminE @3408 DATA
    _ZTCN21CosNotifyChannelAdmin25_objref_ProxyPushConsumerE0_NS_21_objref_ProxyConsumerE @3409 DATA
    _ZTCN21CosNotifyChannelAdmin25_objref_ProxyPushConsumerE60_N15CosNotifyFilter19_objref_FilterAdminE @3410 DATA
    _ZTCN21CosNotifyChannelAdmin25_objref_ProxyPushConsumerE64_N13CosNotifyComm20_objref_PushConsumerE @3411 DATA
    _ZTCN21CosNotifyChannelAdmin25_objref_ProxyPushConsumerE64_N13CosNotifyComm21_objref_NotifyPublishE @3412 DATA
    _ZTCN21CosNotifyChannelAdmin25_objref_ProxyPushConsumerE68_N12CosEventComm20_objref_PushConsumerE @3413 DATA
    _ZTCN21CosNotifyChannelAdmin25_objref_ProxyPushSupplierE0_N15CosNotification16_objref_QoSAdminE @3414 DATA
    _ZTCN21CosNotifyChannelAdmin25_objref_ProxyPushSupplierE0_NS_21_objref_ProxySupplierE @3415 DATA
    _ZTCN21CosNotifyChannelAdmin25_objref_ProxyPushSupplierE60_N15CosNotifyFilter19_objref_FilterAdminE @3416 DATA
    _ZTCN21CosNotifyChannelAdmin25_objref_ProxyPushSupplierE64_N13CosNotifyComm20_objref_PushSupplierE @3417 DATA
    _ZTCN21CosNotifyChannelAdmin25_objref_ProxyPushSupplierE64_N13CosNotifyComm23_objref_NotifySubscribeE @3418 DATA
    _ZTCN21CosNotifyChannelAdmin25_objref_ProxyPushSupplierE68_N12CosEventComm20_objref_PushSupplierE @3419 DATA
    _ZTCN21CosNotifyChannelAdmin31_impl_SequenceProxyPullConsumerE0_N15CosNotification14_impl_QoSAdminE @3420 DATA
    _ZTCN21CosNotifyChannelAdmin31_impl_SequenceProxyPullConsumerE0_NS_19_impl_ProxyConsumerE @3421 DATA
    _ZTCN21CosNotifyChannelAdmin31_impl_SequenceProxyPullConsumerE20_N15CosNotifyFilter17_impl_FilterAdminE @3422 DATA
    _ZTCN21CosNotifyChannelAdmin31_impl_SequenceProxyPullConsumerE24_N13CosNotifyComm19_impl_NotifyPublishE @3423 DATA
    _ZTCN21CosNotifyChannelAdmin31_impl_SequenceProxyPullConsumerE24_N13CosNotifyComm26_impl_SequencePullConsumerE @3424 DATA
    _ZTCN21CosNotifyChannelAdmin31_impl_SequenceProxyPullSupplierE0_N15CosNotification14_impl_QoSAdminE @3425 DATA
    _ZTCN21CosNotifyChannelAdmin31_impl_SequenceProxyPullSupplierE0_NS_19_impl_ProxySupplierE @3426 DATA
    _ZTCN21CosNotifyChannelAdmin31_impl_SequenceProxyPullSupplierE20_N15CosNotifyFilter17_impl_FilterAdminE @3427 DATA
    _ZTCN21CosNotifyChannelAdmin31_impl_SequenceProxyPullSupplierE24_N13CosNotifyComm21_impl_NotifySubscribeE @3428 DATA
    _ZTCN21CosNotifyChannelAdmin31_impl_SequenceProxyPullSupplierE24_N13CosNotifyComm26_impl_SequencePullSupplierE @3429 DATA
    _ZTCN21CosNotifyChannelAdmin31_impl_SequenceProxyPushConsumerE0_N15CosNotification14_impl_QoSAdminE @3430 DATA
    _ZTCN21CosNotifyChannelAdmin31_impl_SequenceProxyPushConsumerE0_NS_19_impl_ProxyConsumerE @3431 DATA
    _ZTCN21CosNotifyChannelAdmin31_impl_SequenceProxyPushConsumerE20_N15CosNotifyFilter17_impl_FilterAdminE @3432 DATA
    _ZTCN21CosNotifyChannelAdmin31_impl_SequenceProxyPushConsumerE24_N13CosNotifyComm19_impl_NotifyPublishE @3433 DATA
    _ZTCN21CosNotifyChannelAdmin31_impl_SequenceProxyPushConsumerE24_N13CosNotifyComm26_impl_SequencePushConsumerE @3434 DATA
    _ZTCN21CosNotifyChannelAdmin31_impl_SequenceProxyPushSupplierE0_N15CosNotification14_impl_QoSAdminE @3435 DATA
    _ZTCN21CosNotifyChannelAdmin31_impl_SequenceProxyPushSupplierE0_NS_19_impl_ProxySupplierE @3436 DATA
    _ZTCN21CosNotifyChannelAdmin31_impl_SequenceProxyPushSupplierE20_N15CosNotifyFilter17_impl_FilterAdminE @3437 DATA
    _ZTCN21CosNotifyChannelAdmin31_impl_SequenceProxyPushSupplierE24_N13CosNotifyComm21_impl_NotifySubscribeE @3438 DATA
    _ZTCN21CosNotifyChannelAdmin31_impl_SequenceProxyPushSupplierE24_N13CosNotifyComm26_impl_SequencePushSupplierE @3439 DATA
    _ZTCN21CosNotifyChannelAdmin33_impl_StructuredProxyPullConsumerE0_N15CosNotification14_impl_QoSAdminE @3440 DATA
    _ZTCN21CosNotifyChannelAdmin33_impl_StructuredProxyPullConsumerE0_NS_19_impl_ProxyConsumerE @3441 DATA
    _ZTCN21CosNotifyChannelAdmin33_impl_StructuredProxyPullConsumerE20_N15CosNotifyFilter17_impl_FilterAdminE @3442 DATA
    _ZTCN21CosNotifyChannelAdmin33_impl_StructuredProxyPullConsumerE24_N13CosNotifyComm19_impl_NotifyPublishE @3443 DATA
    _ZTCN21CosNotifyChannelAdmin33_impl_StructuredProxyPullConsumerE24_N13CosNotifyComm28_impl_StructuredPullConsumerE @3444 DATA
    _ZTCN21CosNotifyChannelAdmin33_impl_StructuredProxyPullSupplierE0_N15CosNotification14_impl_QoSAdminE @3445 DATA
    _ZTCN21CosNotifyChannelAdmin33_impl_StructuredProxyPullSupplierE0_NS_19_impl_ProxySupplierE @3446 DATA
    _ZTCN21CosNotifyChannelAdmin33_impl_StructuredProxyPullSupplierE20_N15CosNotifyFilter17_impl_FilterAdminE @3447 DATA
    _ZTCN21CosNotifyChannelAdmin33_impl_StructuredProxyPullSupplierE24_N13CosNotifyComm21_impl_NotifySubscribeE @3448 DATA
    _ZTCN21CosNotifyChannelAdmin33_impl_StructuredProxyPullSupplierE24_N13CosNotifyComm28_impl_StructuredPullSupplierE @3449 DATA
    _ZTCN21CosNotifyChannelAdmin33_impl_StructuredProxyPushConsumerE0_N15CosNotification14_impl_QoSAdminE @3450 DATA
    _ZTCN21CosNotifyChannelAdmin33_impl_StructuredProxyPushConsumerE0_NS_19_impl_ProxyConsumerE @3451 DATA
    _ZTCN21CosNotifyChannelAdmin33_impl_StructuredProxyPushConsumerE20_N15CosNotifyFilter17_impl_FilterAdminE @3452 DATA
    _ZTCN21CosNotifyChannelAdmin33_impl_StructuredProxyPushConsumerE24_N13CosNotifyComm19_impl_NotifyPublishE @3453 DATA
    _ZTCN21CosNotifyChannelAdmin33_impl_StructuredProxyPushConsumerE24_N13CosNotifyComm28_impl_StructuredPushConsumerE @3454 DATA
    _ZTCN21CosNotifyChannelAdmin33_impl_StructuredProxyPushSupplierE0_N15CosNotification14_impl_QoSAdminE @3455 DATA
    _ZTCN21CosNotifyChannelAdmin33_impl_StructuredProxyPushSupplierE0_NS_19_impl_ProxySupplierE @3456 DATA
    _ZTCN21CosNotifyChannelAdmin33_impl_StructuredProxyPushSupplierE20_N15CosNotifyFilter17_impl_FilterAdminE @3457 DATA
    _ZTCN21CosNotifyChannelAdmin33_impl_StructuredProxyPushSupplierE24_N13CosNotifyComm21_impl_NotifySubscribeE @3458 DATA
    _ZTCN21CosNotifyChannelAdmin33_impl_StructuredProxyPushSupplierE24_N13CosNotifyComm28_impl_StructuredPushSupplierE @3459 DATA
    _ZTCN21CosNotifyChannelAdmin33_objref_SequenceProxyPullConsumerE0_N15CosNotification16_objref_QoSAdminE @3460 DATA
    _ZTCN21CosNotifyChannelAdmin33_objref_SequenceProxyPullConsumerE0_NS_21_objref_ProxyConsumerE @3461 DATA
    _ZTCN21CosNotifyChannelAdmin33_objref_SequenceProxyPullConsumerE60_N15CosNotifyFilter19_objref_FilterAdminE @3462 DATA
    _ZTCN21CosNotifyChannelAdmin33_objref_SequenceProxyPullConsumerE64_N13CosNotifyComm21_objref_NotifyPublishE @3463 DATA
    _ZTCN21CosNotifyChannelAdmin33_objref_SequenceProxyPullConsumerE64_N13CosNotifyComm28_objref_SequencePullConsumerE @3464 DATA
    _ZTCN21CosNotifyChannelAdmin33_objref_SequenceProxyPullSupplierE0_N15CosNotification16_objref_QoSAdminE @3465 DATA
    _ZTCN21CosNotifyChannelAdmin33_objref_SequenceProxyPullSupplierE0_NS_21_objref_ProxySupplierE @3466 DATA
    _ZTCN21CosNotifyChannelAdmin33_objref_SequenceProxyPullSupplierE60_N15CosNotifyFilter19_objref_FilterAdminE @3467 DATA
    _ZTCN21CosNotifyChannelAdmin33_objref_SequenceProxyPullSupplierE64_N13CosNotifyComm23_objref_NotifySubscribeE @3468 DATA
    _ZTCN21CosNotifyChannelAdmin33_objref_SequenceProxyPullSupplierE64_N13CosNotifyComm28_objref_SequencePullSupplierE @3469 DATA
    _ZTCN21CosNotifyChannelAdmin33_objref_SequenceProxyPushConsumerE0_N15CosNotification16_objref_QoSAdminE @3470 DATA
    _ZTCN21CosNotifyChannelAdmin33_objref_SequenceProxyPushConsumerE0_NS_21_objref_ProxyConsumerE @3471 DATA
    _ZTCN21CosNotifyChannelAdmin33_objref_SequenceProxyPushConsumerE60_N15CosNotifyFilter19_objref_FilterAdminE @3472 DATA
    _ZTCN21CosNotifyChannelAdmin33_objref_SequenceProxyPushConsumerE64_N13CosNotifyComm21_objref_NotifyPublishE @3473 DATA
    _ZTCN21CosNotifyChannelAdmin33_objref_SequenceProxyPushConsumerE64_N13CosNotifyComm28_objref_SequencePushConsumerE @3474 DATA
    _ZTCN21CosNotifyChannelAdmin33_objref_SequenceProxyPushSupplierE0_N15CosNotification16_objref_QoSAdminE @3475 DATA
    _ZTCN21CosNotifyChannelAdmin33_objref_SequenceProxyPushSupplierE0_NS_21_objref_ProxySupplierE @3476 DATA
    _ZTCN21CosNotifyChannelAdmin33_objref_SequenceProxyPushSupplierE60_N15CosNotifyFilter19_objref_FilterAdminE @3477 DATA
    _ZTCN21CosNotifyChannelAdmin33_objref_SequenceProxyPushSupplierE64_N13CosNotifyComm23_objref_NotifySubscribeE @3478 DATA
    _ZTCN21CosNotifyChannelAdmin33_objref_SequenceProxyPushSupplierE64_N13CosNotifyComm28_objref_SequencePushSupplierE @3479 DATA
    _ZTCN21CosNotifyChannelAdmin35_objref_StructuredProxyPullConsumerE0_N15CosNotification16_objref_QoSAdminE @3480 DATA
    _ZTCN21CosNotifyChannelAdmin35_objref_StructuredProxyPullConsumerE0_NS_21_objref_ProxyConsumerE @3481 DATA
    _ZTCN21CosNotifyChannelAdmin35_objref_StructuredProxyPullConsumerE60_N15CosNotifyFilter19_objref_FilterAdminE @3482 DATA
    _ZTCN21CosNotifyChannelAdmin35_objref_StructuredProxyPullConsumerE64_N13CosNotifyComm21_objref_NotifyPublishE @3483 DATA
    _ZTCN21CosNotifyChannelAdmin35_objref_StructuredProxyPullConsumerE64_N13CosNotifyComm30_objref_StructuredPullConsumerE @3484 DATA
    _ZTCN21CosNotifyChannelAdmin35_objref_StructuredProxyPullSupplierE0_N15CosNotification16_objref_QoSAdminE @3485 DATA
    _ZTCN21CosNotifyChannelAdmin35_objref_StructuredProxyPullSupplierE0_NS_21_objref_ProxySupplierE @3486 DATA
    _ZTCN21CosNotifyChannelAdmin35_objref_StructuredProxyPullSupplierE60_N15CosNotifyFilter19_objref_FilterAdminE @3487 DATA
    _ZTCN21CosNotifyChannelAdmin35_objref_StructuredProxyPullSupplierE64_N13CosNotifyComm23_objref_NotifySubscribeE @3488 DATA
    _ZTCN21CosNotifyChannelAdmin35_objref_StructuredProxyPullSupplierE64_N13CosNotifyComm30_objref_StructuredPullSupplierE @3489 DATA
    _ZTCN21CosNotifyChannelAdmin35_objref_StructuredProxyPushConsumerE0_N15CosNotification16_objref_QoSAdminE @3490 DATA
    _ZTCN21CosNotifyChannelAdmin35_objref_StructuredProxyPushConsumerE0_NS_21_objref_ProxyConsumerE @3491 DATA
    _ZTCN21CosNotifyChannelAdmin35_objref_StructuredProxyPushConsumerE60_N15CosNotifyFilter19_objref_FilterAdminE @3492 DATA
    _ZTCN21CosNotifyChannelAdmin35_objref_StructuredProxyPushConsumerE64_N13CosNotifyComm21_objref_NotifyPublishE @3493 DATA
    _ZTCN21CosNotifyChannelAdmin35_objref_StructuredProxyPushConsumerE64_N13CosNotifyComm30_objref_StructuredPushConsumerE @3494 DATA
    _ZTCN21CosNotifyChannelAdmin35_objref_StructuredProxyPushSupplierE0_N15CosNotification16_objref_QoSAdminE @3495 DATA
    _ZTCN21CosNotifyChannelAdmin35_objref_StructuredProxyPushSupplierE0_NS_21_objref_ProxySupplierE @3496 DATA
    _ZTCN21CosNotifyChannelAdmin35_objref_StructuredProxyPushSupplierE60_N15CosNotifyFilter19_objref_FilterAdminE @3497 DATA
    _ZTCN21CosNotifyChannelAdmin35_objref_StructuredProxyPushSupplierE64_N13CosNotifyComm23_objref_NotifySubscribeE @3498 DATA
    _ZTCN21CosNotifyChannelAdmin35_objref_StructuredProxyPushSupplierE64_N13CosNotifyComm30_objref_StructuredPushSupplierE @3499 DATA
    _ZTCN24POA_CosEventChannelAdmin12EventChannelE0_N20CosEventChannelAdmin18_impl_EventChannelE @3500 DATA
    _ZTCN24POA_CosEventChannelAdmin12EventChannelE20_N14PortableServer11ServantBaseE @3501 DATA
    _ZTCN24POA_CosEventChannelAdmin13ConsumerAdminE0_N20CosEventChannelAdmin19_impl_ConsumerAdminE @3502 DATA
    _ZTCN24POA_CosEventChannelAdmin13ConsumerAdminE20_N14PortableServer11ServantBaseE @3503 DATA
    _ZTCN24POA_CosEventChannelAdmin13SupplierAdminE0_N20CosEventChannelAdmin19_impl_SupplierAdminE @3504 DATA
    _ZTCN24POA_CosEventChannelAdmin13SupplierAdminE20_N14PortableServer11ServantBaseE @3505 DATA
    _ZTCN24POA_CosEventChannelAdmin17ProxyPullConsumerE0_N12CosEventComm18_impl_PullConsumerE @3506 DATA
    _ZTCN24POA_CosEventChannelAdmin17ProxyPullConsumerE0_N20CosEventChannelAdmin23_impl_ProxyPullConsumerE @3507 DATA
    _ZTCN24POA_CosEventChannelAdmin17ProxyPullConsumerE20_N16POA_CosEventComm12PullConsumerE @3508 DATA
    _ZTCN24POA_CosEventChannelAdmin17ProxyPullConsumerE24_N14PortableServer11ServantBaseE @3509 DATA
    _ZTCN24POA_CosEventChannelAdmin17ProxyPullSupplierE0_N12CosEventComm18_impl_PullSupplierE @3510 DATA
    _ZTCN24POA_CosEventChannelAdmin17ProxyPullSupplierE0_N20CosEventChannelAdmin23_impl_ProxyPullSupplierE @3511 DATA
    _ZTCN24POA_CosEventChannelAdmin17ProxyPullSupplierE20_N16POA_CosEventComm12PullSupplierE @3512 DATA
    _ZTCN24POA_CosEventChannelAdmin17ProxyPullSupplierE24_N14PortableServer11ServantBaseE @3513 DATA
    _ZTCN24POA_CosEventChannelAdmin17ProxyPushConsumerE0_N12CosEventComm18_impl_PushConsumerE @3514 DATA
    _ZTCN24POA_CosEventChannelAdmin17ProxyPushConsumerE0_N20CosEventChannelAdmin23_impl_ProxyPushConsumerE @3515 DATA
    _ZTCN24POA_CosEventChannelAdmin17ProxyPushConsumerE20_N16POA_CosEventComm12PushConsumerE @3516 DATA
    _ZTCN24POA_CosEventChannelAdmin17ProxyPushConsumerE24_N14PortableServer11ServantBaseE @3517 DATA
    _ZTCN24POA_CosEventChannelAdmin17ProxyPushSupplierE0_N12CosEventComm18_impl_PushSupplierE @3518 DATA
    _ZTCN24POA_CosEventChannelAdmin17ProxyPushSupplierE0_N20CosEventChannelAdmin23_impl_ProxyPushSupplierE @3519 DATA
    _ZTCN24POA_CosEventChannelAdmin17ProxyPushSupplierE20_N16POA_CosEventComm12PushSupplierE @3520 DATA
    _ZTCN24POA_CosEventChannelAdmin17ProxyPushSupplierE24_N14PortableServer11ServantBaseE @3521 DATA
    _ZTCN25POA_CosNotifyChannelAdmin12EventChannelE0_N15CosNotification14_impl_QoSAdminE @3522 DATA
    _ZTCN25POA_CosNotifyChannelAdmin12EventChannelE0_N21CosNotifyChannelAdmin18_impl_EventChannelE @3523 DATA
    _ZTCN25POA_CosNotifyChannelAdmin12EventChannelE20_N19POA_CosNotification8QoSAdminE @3524 DATA
    _ZTCN25POA_CosNotifyChannelAdmin12EventChannelE24_N14PortableServer11ServantBaseE @3525 DATA
    _ZTCN25POA_CosNotifyChannelAdmin12EventChannelE32_N15CosNotification26_impl_AdminPropertiesAdminE @3526 DATA
    _ZTCN25POA_CosNotifyChannelAdmin12EventChannelE32_N19POA_CosNotification20AdminPropertiesAdminE @3527 DATA
    _ZTCN25POA_CosNotifyChannelAdmin12EventChannelE36_N20CosEventChannelAdmin18_impl_EventChannelE @3528 DATA
    _ZTCN25POA_CosNotifyChannelAdmin12EventChannelE36_N24POA_CosEventChannelAdmin12EventChannelE @3529 DATA
    _ZTCN25POA_CosNotifyChannelAdmin13ConsumerAdminE0_N15CosNotification14_impl_QoSAdminE @3530 DATA
    _ZTCN25POA_CosNotifyChannelAdmin13ConsumerAdminE0_N21CosNotifyChannelAdmin19_impl_ConsumerAdminE @3531 DATA
    _ZTCN25POA_CosNotifyChannelAdmin13ConsumerAdminE20_N19POA_CosNotification8QoSAdminE @3532 DATA
    _ZTCN25POA_CosNotifyChannelAdmin13ConsumerAdminE24_N14PortableServer11ServantBaseE @3533 DATA
    _ZTCN25POA_CosNotifyChannelAdmin13ConsumerAdminE32_N13CosNotifyComm21_impl_NotifySubscribeE @3534 DATA
    _ZTCN25POA_CosNotifyChannelAdmin13ConsumerAdminE32_N17POA_CosNotifyComm15NotifySubscribeE @3535 DATA
    _ZTCN25POA_CosNotifyChannelAdmin13ConsumerAdminE36_N15CosNotifyFilter17_impl_FilterAdminE @3536 DATA
    _ZTCN25POA_CosNotifyChannelAdmin13ConsumerAdminE36_N19POA_CosNotifyFilter11FilterAdminE @3537 DATA
    _ZTCN25POA_CosNotifyChannelAdmin13ConsumerAdminE40_N20CosEventChannelAdmin19_impl_ConsumerAdminE @3538 DATA
    _ZTCN25POA_CosNotifyChannelAdmin13ConsumerAdminE40_N24POA_CosEventChannelAdmin13ConsumerAdminE @3539 DATA
    _ZTCN25POA_CosNotifyChannelAdmin13ProxyConsumerE0_N15CosNotification14_impl_QoSAdminE @3540 DATA
    _ZTCN25POA_CosNotifyChannelAdmin13ProxyConsumerE0_N21CosNotifyChannelAdmin19_impl_ProxyConsumerE @3541 DATA
    _ZTCN25POA_CosNotifyChannelAdmin13ProxyConsumerE20_N19POA_CosNotification8QoSAdminE @3542 DATA
    _ZTCN25POA_CosNotifyChannelAdmin13ProxyConsumerE24_N14PortableServer11ServantBaseE @3543 DATA
    _ZTCN25POA_CosNotifyChannelAdmin13ProxyConsumerE32_N15CosNotifyFilter17_impl_FilterAdminE @3544 DATA
    _ZTCN25POA_CosNotifyChannelAdmin13ProxyConsumerE32_N19POA_CosNotifyFilter11FilterAdminE @3545 DATA
    _ZTCN25POA_CosNotifyChannelAdmin13ProxySupplierE0_N15CosNotification14_impl_QoSAdminE @3546 DATA
    _ZTCN25POA_CosNotifyChannelAdmin13ProxySupplierE0_N21CosNotifyChannelAdmin19_impl_ProxySupplierE @3547 DATA
    _ZTCN25POA_CosNotifyChannelAdmin13ProxySupplierE20_N19POA_CosNotification8QoSAdminE @3548 DATA
    _ZTCN25POA_CosNotifyChannelAdmin13ProxySupplierE24_N14PortableServer11ServantBaseE @3549 DATA
    _ZTCN25POA_CosNotifyChannelAdmin13ProxySupplierE32_N15CosNotifyFilter17_impl_FilterAdminE @3550 DATA
    _ZTCN25POA_CosNotifyChannelAdmin13ProxySupplierE32_N19POA_CosNotifyFilter11FilterAdminE @3551 DATA
    _ZTCN25POA_CosNotifyChannelAdmin13SupplierAdminE0_N15CosNotification14_impl_QoSAdminE @3552 DATA
    _ZTCN25POA_CosNotifyChannelAdmin13SupplierAdminE0_N21CosNotifyChannelAdmin19_impl_SupplierAdminE @3553 DATA
    _ZTCN25POA_CosNotifyChannelAdmin13SupplierAdminE20_N19POA_CosNotification8QoSAdminE @3554 DATA
    _ZTCN25POA_CosNotifyChannelAdmin13SupplierAdminE24_N14PortableServer11ServantBaseE @3555 DATA
    _ZTCN25POA_CosNotifyChannelAdmin13SupplierAdminE32_N13CosNotifyComm19_impl_NotifyPublishE @3556 DATA
    _ZTCN25POA_CosNotifyChannelAdmin13SupplierAdminE32_N17POA_CosNotifyComm13NotifyPublishE @3557 DATA
    _ZTCN25POA_CosNotifyChannelAdmin13SupplierAdminE36_N15CosNotifyFilter17_impl_FilterAdminE @3558 DATA
    _ZTCN25POA_CosNotifyChannelAdmin13SupplierAdminE36_N19POA_CosNotifyFilter11FilterAdminE @3559 DATA
    _ZTCN25POA_CosNotifyChannelAdmin13SupplierAdminE40_N20CosEventChannelAdmin19_impl_SupplierAdminE @3560 DATA
    _ZTCN25POA_CosNotifyChannelAdmin13SupplierAdminE40_N24POA_CosEventChannelAdmin13SupplierAdminE @3561 DATA
    _ZTCN25POA_CosNotifyChannelAdmin17ProxyPullConsumerE0_N15CosNotification14_impl_QoSAdminE @3562 DATA
    _ZTCN25POA_CosNotifyChannelAdmin17ProxyPullConsumerE0_N21CosNotifyChannelAdmin19_impl_ProxyConsumerE @3563 DATA
    _ZTCN25POA_CosNotifyChannelAdmin17ProxyPullConsumerE0_N21CosNotifyChannelAdmin23_impl_ProxyPullConsumerE @3564 DATA
    _ZTCN25POA_CosNotifyChannelAdmin17ProxyPullConsumerE20_NS_13ProxyConsumerE @3565 DATA
    _ZTCN25POA_CosNotifyChannelAdmin17ProxyPullConsumerE24_N19POA_CosNotification8QoSAdminE @3566 DATA
    _ZTCN25POA_CosNotifyChannelAdmin17ProxyPullConsumerE28_N14PortableServer11ServantBaseE @3567 DATA
    _ZTCN25POA_CosNotifyChannelAdmin17ProxyPullConsumerE36_N15CosNotifyFilter17_impl_FilterAdminE @3568 DATA
    _ZTCN25POA_CosNotifyChannelAdmin17ProxyPullConsumerE36_N19POA_CosNotifyFilter11FilterAdminE @3569 DATA
    _ZTCN25POA_CosNotifyChannelAdmin17ProxyPullConsumerE40_N13CosNotifyComm18_impl_PullConsumerE @3570 DATA
    _ZTCN25POA_CosNotifyChannelAdmin17ProxyPullConsumerE40_N13CosNotifyComm19_impl_NotifyPublishE @3571 DATA
    _ZTCN25POA_CosNotifyChannelAdmin17ProxyPullConsumerE40_N17POA_CosNotifyComm12PullConsumerE @3572 DATA
    _ZTCN25POA_CosNotifyChannelAdmin17ProxyPullConsumerE44_N17POA_CosNotifyComm13NotifyPublishE @3573 DATA
    _ZTCN25POA_CosNotifyChannelAdmin17ProxyPullConsumerE48_N12CosEventComm18_impl_PullConsumerE @3574 DATA
    _ZTCN25POA_CosNotifyChannelAdmin17ProxyPullConsumerE48_N16POA_CosEventComm12PullConsumerE @3575 DATA
    _ZTCN25POA_CosNotifyChannelAdmin17ProxyPullSupplierE0_N15CosNotification14_impl_QoSAdminE @3576 DATA
    _ZTCN25POA_CosNotifyChannelAdmin17ProxyPullSupplierE0_N21CosNotifyChannelAdmin19_impl_ProxySupplierE @3577 DATA
    _ZTCN25POA_CosNotifyChannelAdmin17ProxyPullSupplierE0_N21CosNotifyChannelAdmin23_impl_ProxyPullSupplierE @3578 DATA
    _ZTCN25POA_CosNotifyChannelAdmin17ProxyPullSupplierE20_NS_13ProxySupplierE @3579 DATA
    _ZTCN25POA_CosNotifyChannelAdmin17ProxyPullSupplierE24_N19POA_CosNotification8QoSAdminE @3580 DATA
    _ZTCN25POA_CosNotifyChannelAdmin17ProxyPullSupplierE28_N14PortableServer11ServantBaseE @3581 DATA
    _ZTCN25POA_CosNotifyChannelAdmin17ProxyPullSupplierE36_N15CosNotifyFilter17_impl_FilterAdminE @3582 DATA
    _ZTCN25POA_CosNotifyChannelAdmin17ProxyPullSupplierE36_N19POA_CosNotifyFilter11FilterAdminE @3583 DATA
    _ZTCN25POA_CosNotifyChannelAdmin17ProxyPullSupplierE40_N13CosNotifyComm18_impl_PullSupplierE @3584 DATA
    _ZTCN25POA_CosNotifyChannelAdmin17ProxyPullSupplierE40_N13CosNotifyComm21_impl_NotifySubscribeE @3585 DATA
    _ZTCN25POA_CosNotifyChannelAdmin17ProxyPullSupplierE40_N17POA_CosNotifyComm12PullSupplierE @3586 DATA
    _ZTCN25POA_CosNotifyChannelAdmin17ProxyPullSupplierE44_N17POA_CosNotifyComm15NotifySubscribeE @3587 DATA
    _ZTCN25POA_CosNotifyChannelAdmin17ProxyPullSupplierE48_N12CosEventComm18_impl_PullSupplierE @3588 DATA
    _ZTCN25POA_CosNotifyChannelAdmin17ProxyPullSupplierE48_N16POA_CosEventComm12PullSupplierE @3589 DATA
    _ZTCN25POA_CosNotifyChannelAdmin17ProxyPushConsumerE0_N15CosNotification14_impl_QoSAdminE @3590 DATA
    _ZTCN25POA_CosNotifyChannelAdmin17ProxyPushConsumerE0_N21CosNotifyChannelAdmin19_impl_ProxyConsumerE @3591 DATA
    _ZTCN25POA_CosNotifyChannelAdmin17ProxyPushConsumerE0_N21CosNotifyChannelAdmin23_impl_ProxyPushConsumerE @3592 DATA
    _ZTCN25POA_CosNotifyChannelAdmin17ProxyPushConsumerE20_NS_13ProxyConsumerE @3593 DATA
    _ZTCN25POA_CosNotifyChannelAdmin17ProxyPushConsumerE24_N19POA_CosNotification8QoSAdminE @3594 DATA
    _ZTCN25POA_CosNotifyChannelAdmin17ProxyPushConsumerE28_N14PortableServer11ServantBaseE @3595 DATA
    _ZTCN25POA_CosNotifyChannelAdmin17ProxyPushConsumerE36_N15CosNotifyFilter17_impl_FilterAdminE @3596 DATA
    _ZTCN25POA_CosNotifyChannelAdmin17ProxyPushConsumerE36_N19POA_CosNotifyFilter11FilterAdminE @3597 DATA
    _ZTCN25POA_CosNotifyChannelAdmin17ProxyPushConsumerE40_N13CosNotifyComm18_impl_PushConsumerE @3598 DATA
    _ZTCN25POA_CosNotifyChannelAdmin17ProxyPushConsumerE40_N13CosNotifyComm19_impl_NotifyPublishE @3599 DATA
    _ZTCN25POA_CosNotifyChannelAdmin17ProxyPushConsumerE40_N17POA_CosNotifyComm12PushConsumerE @3600 DATA
    _ZTCN25POA_CosNotifyChannelAdmin17ProxyPushConsumerE44_N17POA_CosNotifyComm13NotifyPublishE @3601 DATA
    _ZTCN25POA_CosNotifyChannelAdmin17ProxyPushConsumerE48_N12CosEventComm18_impl_PushConsumerE @3602 DATA
    _ZTCN25POA_CosNotifyChannelAdmin17ProxyPushConsumerE48_N16POA_CosEventComm12PushConsumerE @3603 DATA
    _ZTCN25POA_CosNotifyChannelAdmin17ProxyPushSupplierE0_N15CosNotification14_impl_QoSAdminE @3604 DATA
    _ZTCN25POA_CosNotifyChannelAdmin17ProxyPushSupplierE0_N21CosNotifyChannelAdmin19_impl_ProxySupplierE @3605 DATA
    _ZTCN25POA_CosNotifyChannelAdmin17ProxyPushSupplierE0_N21CosNotifyChannelAdmin23_impl_ProxyPushSupplierE @3606 DATA
    _ZTCN25POA_CosNotifyChannelAdmin17ProxyPushSupplierE20_NS_13ProxySupplierE @3607 DATA
    _ZTCN25POA_CosNotifyChannelAdmin17ProxyPushSupplierE24_N19POA_CosNotification8QoSAdminE @3608 DATA
    _ZTCN25POA_CosNotifyChannelAdmin17ProxyPushSupplierE28_N14PortableServer11ServantBaseE @3609 DATA
    _ZTCN25POA_CosNotifyChannelAdmin17ProxyPushSupplierE36_N15CosNotifyFilter17_impl_FilterAdminE @3610 DATA
    _ZTCN25POA_CosNotifyChannelAdmin17ProxyPushSupplierE36_N19POA_CosNotifyFilter11FilterAdminE @3611 DATA
    _ZTCN25POA_CosNotifyChannelAdmin17ProxyPushSupplierE40_N13CosNotifyComm18_impl_PushSupplierE @3612 DATA
    _ZTCN25POA_CosNotifyChannelAdmin17ProxyPushSupplierE40_N13CosNotifyComm21_impl_NotifySubscribeE @3613 DATA
    _ZTCN25POA_CosNotifyChannelAdmin17ProxyPushSupplierE40_N17POA_CosNotifyComm12PushSupplierE @3614 DATA
    _ZTCN25POA_CosNotifyChannelAdmin17ProxyPushSupplierE44_N17POA_CosNotifyComm15NotifySubscribeE @3615 DATA
    _ZTCN25POA_CosNotifyChannelAdmin17ProxyPushSupplierE48_N12CosEventComm18_impl_PushSupplierE @3616 DATA
    _ZTCN25POA_CosNotifyChannelAdmin17ProxyPushSupplierE48_N16POA_CosEventComm12PushSupplierE @3617 DATA
    _ZTCN25POA_CosNotifyChannelAdmin19EventChannelFactoryE0_N21CosNotifyChannelAdmin25_impl_EventChannelFactoryE @3618 DATA
    _ZTCN25POA_CosNotifyChannelAdmin19EventChannelFactoryE20_N14PortableServer11ServantBaseE @3619 DATA
    _ZTCN25POA_CosNotifyChannelAdmin25SequenceProxyPullConsumerE0_N15CosNotification14_impl_QoSAdminE @3620 DATA
    _ZTCN25POA_CosNotifyChannelAdmin25SequenceProxyPullConsumerE0_N21CosNotifyChannelAdmin19_impl_ProxyConsumerE @3621 DATA
    _ZTCN25POA_CosNotifyChannelAdmin25SequenceProxyPullConsumerE0_N21CosNotifyChannelAdmin31_impl_SequenceProxyPullConsumerE @3622 DATA
    _ZTCN25POA_CosNotifyChannelAdmin25SequenceProxyPullConsumerE20_NS_13ProxyConsumerE @3623 DATA
    _ZTCN25POA_CosNotifyChannelAdmin25SequenceProxyPullConsumerE24_N19POA_CosNotification8QoSAdminE @3624 DATA
    _ZTCN25POA_CosNotifyChannelAdmin25SequenceProxyPullConsumerE28_N14PortableServer11ServantBaseE @3625 DATA
    _ZTCN25POA_CosNotifyChannelAdmin25SequenceProxyPullConsumerE36_N15CosNotifyFilter17_impl_FilterAdminE @3626 DATA
    _ZTCN25POA_CosNotifyChannelAdmin25SequenceProxyPullConsumerE36_N19POA_CosNotifyFilter11FilterAdminE @3627 DATA
    _ZTCN25POA_CosNotifyChannelAdmin25SequenceProxyPullConsumerE40_N13CosNotifyComm19_impl_NotifyPublishE @3628 DATA
    _ZTCN25POA_CosNotifyChannelAdmin25SequenceProxyPullConsumerE40_N13CosNotifyComm26_impl_SequencePullConsumerE @3629 DATA
    _ZTCN25POA_CosNotifyChannelAdmin25SequenceProxyPullConsumerE40_N17POA_CosNotifyComm20SequencePullConsumerE @3630 DATA
    _ZTCN25POA_CosNotifyChannelAdmin25SequenceProxyPullConsumerE44_N17POA_CosNotifyComm13NotifyPublishE @3631 DATA
    _ZTCN25POA_CosNotifyChannelAdmin25SequenceProxyPullSupplierE0_N15CosNotification14_impl_QoSAdminE @3632 DATA
    _ZTCN25POA_CosNotifyChannelAdmin25SequenceProxyPullSupplierE0_N21CosNotifyChannelAdmin19_impl_ProxySupplierE @3633 DATA
    _ZTCN25POA_CosNotifyChannelAdmin25SequenceProxyPullSupplierE0_N21CosNotifyChannelAdmin31_impl_SequenceProxyPullSupplierE @3634 DATA
    _ZTCN25POA_CosNotifyChannelAdmin25SequenceProxyPullSupplierE20_NS_13ProxySupplierE @3635 DATA
    _ZTCN25POA_CosNotifyChannelAdmin25SequenceProxyPullSupplierE24_N19POA_CosNotification8QoSAdminE @3636 DATA
    _ZTCN25POA_CosNotifyChannelAdmin25SequenceProxyPullSupplierE28_N14PortableServer11ServantBaseE @3637 DATA
    _ZTCN25POA_CosNotifyChannelAdmin25SequenceProxyPullSupplierE36_N15CosNotifyFilter17_impl_FilterAdminE @3638 DATA
    _ZTCN25POA_CosNotifyChannelAdmin25SequenceProxyPullSupplierE36_N19POA_CosNotifyFilter11FilterAdminE @3639 DATA
    _ZTCN25POA_CosNotifyChannelAdmin25SequenceProxyPullSupplierE40_N13CosNotifyComm21_impl_NotifySubscribeE @3640 DATA
    _ZTCN25POA_CosNotifyChannelAdmin25SequenceProxyPullSupplierE40_N13CosNotifyComm26_impl_SequencePullSupplierE @3641 DATA
    _ZTCN25POA_CosNotifyChannelAdmin25SequenceProxyPullSupplierE40_N17POA_CosNotifyComm20SequencePullSupplierE @3642 DATA
    _ZTCN25POA_CosNotifyChannelAdmin25SequenceProxyPullSupplierE44_N17POA_CosNotifyComm15NotifySubscribeE @3643 DATA
    _ZTCN25POA_CosNotifyChannelAdmin25SequenceProxyPushConsumerE0_N15CosNotification14_impl_QoSAdminE @3644 DATA
    _ZTCN25POA_CosNotifyChannelAdmin25SequenceProxyPushConsumerE0_N21CosNotifyChannelAdmin19_impl_ProxyConsumerE @3645 DATA
    _ZTCN25POA_CosNotifyChannelAdmin25SequenceProxyPushConsumerE0_N21CosNotifyChannelAdmin31_impl_SequenceProxyPushConsumerE @3646 DATA
    _ZTCN25POA_CosNotifyChannelAdmin25SequenceProxyPushConsumerE20_NS_13ProxyConsumerE @3647 DATA
    _ZTCN25POA_CosNotifyChannelAdmin25SequenceProxyPushConsumerE24_N19POA_CosNotification8QoSAdminE @3648 DATA
    _ZTCN25POA_CosNotifyChannelAdmin25SequenceProxyPushConsumerE28_N14PortableServer11ServantBaseE @3649 DATA
    _ZTCN25POA_CosNotifyChannelAdmin25SequenceProxyPushConsumerE36_N15CosNotifyFilter17_impl_FilterAdminE @3650 DATA
    _ZTCN25POA_CosNotifyChannelAdmin25SequenceProxyPushConsumerE36_N19POA_CosNotifyFilter11FilterAdminE @3651 DATA
    _ZTCN25POA_CosNotifyChannelAdmin25SequenceProxyPushConsumerE40_N13CosNotifyComm19_impl_NotifyPublishE @3652 DATA
    _ZTCN25POA_CosNotifyChannelAdmin25SequenceProxyPushConsumerE40_N13CosNotifyComm26_impl_SequencePushConsumerE @3653 DATA
    _ZTCN25POA_CosNotifyChannelAdmin25SequenceProxyPushConsumerE40_N17POA_CosNotifyComm20SequencePushConsumerE @3654 DATA
    _ZTCN25POA_CosNotifyChannelAdmin25SequenceProxyPushConsumerE44_N17POA_CosNotifyComm13NotifyPublishE @3655 DATA
    _ZTCN25POA_CosNotifyChannelAdmin25SequenceProxyPushSupplierE0_N15CosNotification14_impl_QoSAdminE @3656 DATA
    _ZTCN25POA_CosNotifyChannelAdmin25SequenceProxyPushSupplierE0_N21CosNotifyChannelAdmin19_impl_ProxySupplierE @3657 DATA
    _ZTCN25POA_CosNotifyChannelAdmin25SequenceProxyPushSupplierE0_N21CosNotifyChannelAdmin31_impl_SequenceProxyPushSupplierE @3658 DATA
    _ZTCN25POA_CosNotifyChannelAdmin25SequenceProxyPushSupplierE20_NS_13ProxySupplierE @3659 DATA
    _ZTCN25POA_CosNotifyChannelAdmin25SequenceProxyPushSupplierE24_N19POA_CosNotification8QoSAdminE @3660 DATA
    _ZTCN25POA_CosNotifyChannelAdmin25SequenceProxyPushSupplierE28_N14PortableServer11ServantBaseE @3661 DATA
    _ZTCN25POA_CosNotifyChannelAdmin25SequenceProxyPushSupplierE36_N15CosNotifyFilter17_impl_FilterAdminE @3662 DATA
    _ZTCN25POA_CosNotifyChannelAdmin25SequenceProxyPushSupplierE36_N19POA_CosNotifyFilter11FilterAdminE @3663 DATA
    _ZTCN25POA_CosNotifyChannelAdmin25SequenceProxyPushSupplierE40_N13CosNotifyComm21_impl_NotifySubscribeE @3664 DATA
    _ZTCN25POA_CosNotifyChannelAdmin25SequenceProxyPushSupplierE40_N13CosNotifyComm26_impl_SequencePushSupplierE @3665 DATA
    _ZTCN25POA_CosNotifyChannelAdmin25SequenceProxyPushSupplierE40_N17POA_CosNotifyComm20SequencePushSupplierE @3666 DATA
    _ZTCN25POA_CosNotifyChannelAdmin25SequenceProxyPushSupplierE44_N17POA_CosNotifyComm15NotifySubscribeE @3667 DATA
    _ZTCN25POA_CosNotifyChannelAdmin27StructuredProxyPullConsumerE0_N15CosNotification14_impl_QoSAdminE @3668 DATA
    _ZTCN25POA_CosNotifyChannelAdmin27StructuredProxyPullConsumerE0_N21CosNotifyChannelAdmin19_impl_ProxyConsumerE @3669 DATA
    _ZTCN25POA_CosNotifyChannelAdmin27StructuredProxyPullConsumerE0_N21CosNotifyChannelAdmin33_impl_StructuredProxyPullConsumerE @3670 DATA
    _ZTCN25POA_CosNotifyChannelAdmin27StructuredProxyPullConsumerE20_NS_13ProxyConsumerE @3671 DATA
    _ZTCN25POA_CosNotifyChannelAdmin27StructuredProxyPullConsumerE24_N19POA_CosNotification8QoSAdminE @3672 DATA
    _ZTCN25POA_CosNotifyChannelAdmin27StructuredProxyPullConsumerE28_N14PortableServer11ServantBaseE @3673 DATA
    _ZTCN25POA_CosNotifyChannelAdmin27StructuredProxyPullConsumerE36_N15CosNotifyFilter17_impl_FilterAdminE @3674 DATA
    _ZTCN25POA_CosNotifyChannelAdmin27StructuredProxyPullConsumerE36_N19POA_CosNotifyFilter11FilterAdminE @3675 DATA
    _ZTCN25POA_CosNotifyChannelAdmin27StructuredProxyPullConsumerE40_N13CosNotifyComm19_impl_NotifyPublishE @3676 DATA
    _ZTCN25POA_CosNotifyChannelAdmin27StructuredProxyPullConsumerE40_N13CosNotifyComm28_impl_StructuredPullConsumerE @3677 DATA
    _ZTCN25POA_CosNotifyChannelAdmin27StructuredProxyPullConsumerE40_N17POA_CosNotifyComm22StructuredPullConsumerE @3678 DATA
    _ZTCN25POA_CosNotifyChannelAdmin27StructuredProxyPullConsumerE44_N17POA_CosNotifyComm13NotifyPublishE @3679 DATA
    _ZTCN25POA_CosNotifyChannelAdmin27StructuredProxyPullSupplierE0_N15CosNotification14_impl_QoSAdminE @3680 DATA
    _ZTCN25POA_CosNotifyChannelAdmin27StructuredProxyPullSupplierE0_N21CosNotifyChannelAdmin19_impl_ProxySupplierE @3681 DATA
    _ZTCN25POA_CosNotifyChannelAdmin27StructuredProxyPullSupplierE0_N21CosNotifyChannelAdmin33_impl_StructuredProxyPullSupplierE @3682 DATA
    _ZTCN25POA_CosNotifyChannelAdmin27StructuredProxyPullSupplierE20_NS_13ProxySupplierE @3683 DATA
    _ZTCN25POA_CosNotifyChannelAdmin27StructuredProxyPullSupplierE24_N19POA_CosNotification8QoSAdminE @3684 DATA
    _ZTCN25POA_CosNotifyChannelAdmin27StructuredProxyPullSupplierE28_N14PortableServer11ServantBaseE @3685 DATA
    _ZTCN25POA_CosNotifyChannelAdmin27StructuredProxyPullSupplierE36_N15CosNotifyFilter17_impl_FilterAdminE @3686 DATA
    _ZTCN25POA_CosNotifyChannelAdmin27StructuredProxyPullSupplierE36_N19POA_CosNotifyFilter11FilterAdminE @3687 DATA
    _ZTCN25POA_CosNotifyChannelAdmin27StructuredProxyPullSupplierE40_N13CosNotifyComm21_impl_NotifySubscribeE @3688 DATA
    _ZTCN25POA_CosNotifyChannelAdmin27StructuredProxyPullSupplierE40_N13CosNotifyComm28_impl_StructuredPullSupplierE @3689 DATA
    _ZTCN25POA_CosNotifyChannelAdmin27StructuredProxyPullSupplierE40_N17POA_CosNotifyComm22StructuredPullSupplierE @3690 DATA
    _ZTCN25POA_CosNotifyChannelAdmin27StructuredProxyPullSupplierE44_N17POA_CosNotifyComm15NotifySubscribeE @3691 DATA
    _ZTCN25POA_CosNotifyChannelAdmin27StructuredProxyPushConsumerE0_N15CosNotification14_impl_QoSAdminE @3692 DATA
    _ZTCN25POA_CosNotifyChannelAdmin27StructuredProxyPushConsumerE0_N21CosNotifyChannelAdmin19_impl_ProxyConsumerE @3693 DATA
    _ZTCN25POA_CosNotifyChannelAdmin27StructuredProxyPushConsumerE0_N21CosNotifyChannelAdmin33_impl_StructuredProxyPushConsumerE @3694 DATA
    _ZTCN25POA_CosNotifyChannelAdmin27StructuredProxyPushConsumerE20_NS_13ProxyConsumerE @3695 DATA
    _ZTCN25POA_CosNotifyChannelAdmin27StructuredProxyPushConsumerE24_N19POA_CosNotification8QoSAdminE @3696 DATA
    _ZTCN25POA_CosNotifyChannelAdmin27StructuredProxyPushConsumerE28_N14PortableServer11ServantBaseE @3697 DATA
    _ZTCN25POA_CosNotifyChannelAdmin27StructuredProxyPushConsumerE36_N15CosNotifyFilter17_impl_FilterAdminE @3698 DATA
    _ZTCN25POA_CosNotifyChannelAdmin27StructuredProxyPushConsumerE36_N19POA_CosNotifyFilter11FilterAdminE @3699 DATA
    _ZTCN25POA_CosNotifyChannelAdmin27StructuredProxyPushConsumerE40_N13CosNotifyComm19_impl_NotifyPublishE @3700 DATA
    _ZTCN25POA_CosNotifyChannelAdmin27StructuredProxyPushConsumerE40_N13CosNotifyComm28_impl_StructuredPushConsumerE @3701 DATA
    _ZTCN25POA_CosNotifyChannelAdmin27StructuredProxyPushConsumerE40_N17POA_CosNotifyComm22StructuredPushConsumerE @3702 DATA
    _ZTCN25POA_CosNotifyChannelAdmin27StructuredProxyPushConsumerE44_N17POA_CosNotifyComm13NotifyPublishE @3703 DATA
    _ZTCN25POA_CosNotifyChannelAdmin27StructuredProxyPushSupplierE0_N15CosNotification14_impl_QoSAdminE @3704 DATA
    _ZTCN25POA_CosNotifyChannelAdmin27StructuredProxyPushSupplierE0_N21CosNotifyChannelAdmin19_impl_ProxySupplierE @3705 DATA
    _ZTCN25POA_CosNotifyChannelAdmin27StructuredProxyPushSupplierE0_N21CosNotifyChannelAdmin33_impl_StructuredProxyPushSupplierE @3706 DATA
    _ZTCN25POA_CosNotifyChannelAdmin27StructuredProxyPushSupplierE20_NS_13ProxySupplierE @3707 DATA
    _ZTCN25POA_CosNotifyChannelAdmin27StructuredProxyPushSupplierE24_N19POA_CosNotification8QoSAdminE @3708 DATA
    _ZTCN25POA_CosNotifyChannelAdmin27StructuredProxyPushSupplierE28_N14PortableServer11ServantBaseE @3709 DATA
    _ZTCN25POA_CosNotifyChannelAdmin27StructuredProxyPushSupplierE36_N15CosNotifyFilter17_impl_FilterAdminE @3710 DATA
    _ZTCN25POA_CosNotifyChannelAdmin27StructuredProxyPushSupplierE36_N19POA_CosNotifyFilter11FilterAdminE @3711 DATA
    _ZTCN25POA_CosNotifyChannelAdmin27StructuredProxyPushSupplierE40_N13CosNotifyComm21_impl_NotifySubscribeE @3712 DATA
    _ZTCN25POA_CosNotifyChannelAdmin27StructuredProxyPushSupplierE40_N13CosNotifyComm28_impl_StructuredPushSupplierE @3713 DATA
    _ZTCN25POA_CosNotifyChannelAdmin27StructuredProxyPushSupplierE40_N17POA_CosNotifyComm22StructuredPushSupplierE @3714 DATA
    _ZTCN25POA_CosNotifyChannelAdmin27StructuredProxyPushSupplierE44_N17POA_CosNotifyComm15NotifySubscribeE @3715 DATA
    _ZTI10omniObjRef @3716 DATA
    _ZTI11omniServant @3717 DATA
    _ZTI18omniCallDescriptor @3718 DATA
    _ZTI33_0RL_cd_1FE8F330207AFD15_00000000 @3719 DATA
    _ZTI33_0RL_cd_1FE8F330207AFD15_03000000 @3720 DATA
    _ZTI33_0RL_cd_1FE8F330207AFD15_11000000 @3721 DATA
    _ZTI33_0RL_cd_1FE8F330207AFD15_20000000 @3722 DATA
    _ZTI33_0RL_cd_1FE8F330207AFD15_23000000 @3723 DATA
    _ZTI33_0RL_cd_1FE8F330207AFD15_31000000 @3724 DATA
    _ZTI33_0RL_cd_1FE8F330207AFD15_32000000 @3725 DATA
    _ZTI33_0RL_cd_1FE8F330207AFD15_40000000 @3726 DATA
    _ZTI33_0RL_cd_1FE8F330207AFD15_43000000 @3727 DATA
    _ZTI33_0RL_cd_1FE8F330207AFD15_51000000 @3728 DATA
    _ZTI33_0RL_cd_1FE8F330207AFD15_52000000 @3729 DATA
    _ZTI33_0RL_cd_1FE8F330207AFD15_60000000 @3730 DATA
    _ZTI33_0RL_cd_1FE8F330207AFD15_63000000 @3731 DATA
    _ZTI33_0RL_cd_1FE8F330207AFD15_71000000 @3732 DATA
    _ZTI33_0RL_cd_1FE8F330207AFD15_72000000 @3733 DATA
    _ZTI33_0RL_cd_1FE8F330207AFD15_80000000 @3734 DATA
    _ZTI33_0RL_cd_1FE8F330207AFD15_83000000 @3735 DATA
    _ZTI33_0RL_cd_1FE8F330207AFD15_91000000 @3736 DATA
    _ZTI33_0RL_cd_1FE8F330207AFD15_a2000000 @3737 DATA
    _ZTI33_0RL_cd_1FE8F330207AFD15_b0000000 @3738 DATA
    _ZTI33_0RL_cd_1FE8F330207AFD15_b1000000 @3739 DATA
    _ZTI33_0RL_cd_1FE8F330207AFD15_c2000000 @3740 DATA
    _ZTI33_0RL_cd_1FE8F330207AFD15_d0000000 @3741 DATA
    _ZTI33_0RL_cd_1FE8F330207AFD15_d1000000 @3742 DATA
    _ZTI33_0RL_cd_1FE8F330207AFD15_e2000000 @3743 DATA
    _ZTI33_0RL_cd_1FE8F330207AFD15_f0000000 @3744 DATA
    _ZTI33_0RL_cd_1FE8F330207AFD15_f1000000 @3745 DATA
    _ZTI33_0RL_cd_25B2B9DD5B4AD98D_00000000 @3746 DATA
    _ZTI33_0RL_cd_25B2B9DD5B4AD98D_20000000 @3747 DATA
    _ZTI33_0RL_cd_25B2B9DD5B4AD98D_40000000 @3748 DATA
    _ZTI33_0RL_cd_25B2B9DD5B4AD98D_60000000 @3749 DATA
    _ZTI33_0RL_cd_25B2B9DD5B4AD98D_80000000 @3750 DATA
    _ZTI33_0RL_cd_25B2B9DD5B4AD98D_a0000000 @3751 DATA
    _ZTI33_0RL_cd_4B6B86183777B6C2_00000000 @3752 DATA
    _ZTI33_0RL_cd_4B6B86183777B6C2_21000000 @3753 DATA
    _ZTI33_0RL_cd_4B6B86183777B6C2_30000000 @3754 DATA
    _ZTI33_0RL_cd_4B6B86183777B6C2_41000000 @3755 DATA
    _ZTI33_0RL_cd_4B6B86183777B6C2_50000000 @3756 DATA
    _ZTI33_0RL_cd_4B6B86183777B6C2_80000000 @3757 DATA
    _ZTI33_0RL_cd_4B6B86183777B6C2_a0000000 @3758 DATA
    _ZTI33_0RL_cd_4B6B86183777B6C2_e0000000 @3759 DATA
    _ZTI33_0RL_cd_8B6214F5B3100E7E_00000000 @3760 DATA
    _ZTI33_0RL_cd_8B6214F5B3100E7E_20000000 @3761 DATA
    _ZTI33_0RL_cd_8B6214F5B3100E7E_40000000 @3762 DATA
    _ZTI33_0RL_cd_8B6214F5B3100E7E_70000000 @3763 DATA
    _ZTI33_0RL_cd_9043E11A9721DAB3_00000000 @3764 DATA
    _ZTI33_0RL_cd_9043E11A9721DAB3_04000000 @3765 DATA
    _ZTI33_0RL_cd_9043E11A9721DAB3_06000000 @3766 DATA
    _ZTI33_0RL_cd_9043E11A9721DAB3_12000000 @3767 DATA
    _ZTI33_0RL_cd_9043E11A9721DAB3_13000000 @3768 DATA
    _ZTI33_0RL_cd_9043E11A9721DAB3_20000000 @3769 DATA
    _ZTI33_0RL_cd_9043E11A9721DAB3_24000000 @3770 DATA
    _ZTI33_0RL_cd_9043E11A9721DAB3_31000000 @3771 DATA
    _ZTI33_0RL_cd_9043E11A9721DAB3_32000000 @3772 DATA
    _ZTI33_0RL_cd_9043E11A9721DAB3_36000000 @3773 DATA
    _ZTI33_0RL_cd_9043E11A9721DAB3_40000000 @3774 DATA
    _ZTI33_0RL_cd_9043E11A9721DAB3_44000000 @3775 DATA
    _ZTI33_0RL_cd_9043E11A9721DAB3_51000000 @3776 DATA
    _ZTI33_0RL_cd_9043E11A9721DAB3_52000000 @3777 DATA
    _ZTI33_0RL_cd_9043E11A9721DAB3_53000000 @3778 DATA
    _ZTI33_0RL_cd_9043E11A9721DAB3_60000000 @3779 DATA
    _ZTI33_0RL_cd_9043E11A9721DAB3_71000000 @3780 DATA
    _ZTI33_0RL_cd_9043E11A9721DAB3_76000000 @3781 DATA
    _ZTI33_0RL_cd_9043E11A9721DAB3_85000000 @3782 DATA
    _ZTI33_0RL_cd_9043E11A9721DAB3_91000000 @3783 DATA
    _ZTI33_0RL_cd_9043E11A9721DAB3_92000000 @3784 DATA
    _ZTI33_0RL_cd_9043E11A9721DAB3_93000000 @3785 DATA
    _ZTI33_0RL_cd_9043E11A9721DAB3_96000000 @3786 DATA
    _ZTI33_0RL_cd_9043E11A9721DAB3_a4000000 @3787 DATA
    _ZTI33_0RL_cd_9043E11A9721DAB3_a5000000 @3788 DATA
    _ZTI33_0RL_cd_9043E11A9721DAB3_b0000000 @3789 DATA
    _ZTI33_0RL_cd_9043E11A9721DAB3_b1000000 @3790 DATA
    _ZTI33_0RL_cd_9043E11A9721DAB3_b3000000 @3791 DATA
    _ZTI33_0RL_cd_9043E11A9721DAB3_b6000000 @3792 DATA
    _ZTI33_0RL_cd_9043E11A9721DAB3_c5000000 @3793 DATA
    _ZTI33_0RL_cd_9043E11A9721DAB3_d0000000 @3794 DATA
    _ZTI33_0RL_cd_9043E11A9721DAB3_d1000000 @3795 DATA
    _ZTI33_0RL_cd_9043E11A9721DAB3_d2000000 @3796 DATA
    _ZTI33_0RL_cd_9043E11A9721DAB3_d4000000 @3797 DATA
    _ZTI33_0RL_cd_9043E11A9721DAB3_d6000000 @3798 DATA
    _ZTI33_0RL_cd_9043E11A9721DAB3_e3000000 @3799 DATA
    _ZTI33_0RL_cd_9043E11A9721DAB3_e5000000 @3800 DATA
    _ZTI33_0RL_cd_9043E11A9721DAB3_f0000000 @3801 DATA
    _ZTI33_0RL_cd_9043E11A9721DAB3_f1000000 @3802 DATA
    _ZTI33_0RL_cd_9043E11A9721DAB3_f4000000 @3803 DATA
    _ZTI33_0RL_cd_99DFF546EA0F9974_00000000 @3804 DATA
    _ZTI33_0RL_cd_99DFF546EA0F9974_11000000 @3805 DATA
    _ZTI33_0RL_cd_99DFF546EA0F9974_20000000 @3806 DATA
    _ZTI33_0RL_cd_99DFF546EA0F9974_40000000 @3807 DATA
    _ZTI33_0RL_cd_99DFF546EA0F9974_41000000 @3808 DATA
    _ZTI33_0RL_cd_99DFF546EA0F9974_60000000 @3809 DATA
    _ZTI33_0RL_cd_99DFF546EA0F9974_61000000 @3810 DATA
    _ZTI33_0RL_cd_99DFF546EA0F9974_80000000 @3811 DATA
    _ZTI33_0RL_cd_99DFF546EA0F9974_91000000 @3812 DATA
    _ZTI33_0RL_cd_99DFF546EA0F9974_b0000000 @3813 DATA
    _ZTI33_0RL_cd_99DFF546EA0F9974_b1000000 @3814 DATA
    _ZTI33_0RL_cd_99DFF546EA0F9974_d0000000 @3815 DATA
    _ZTI33_0RL_cd_99DFF546EA0F9974_d1000000 @3816 DATA
    _ZTI33_0RL_cd_99DFF546EA0F9974_f0000000 @3817 DATA
    _ZTI33_0RL_cd_BD959CC57B2E138F_00000000 @3818 DATA
    _ZTI33_0RL_cd_BD959CC57B2E138F_20000000 @3819 DATA
    _ZTI33_0RL_cd_BD959CC57B2E138F_50000000 @3820 DATA
    _ZTI33_0RL_cd_BD959CC57B2E138F_70000000 @3821 DATA
    _ZTI33_0RL_cd_F894C8374A428E70_00000000 @3822 DATA
    _ZTI33_0RL_cd_F894C8374A428E70_01000000 @3823 DATA
    _ZTI33_0RL_cd_F894C8374A428E70_20000000 @3824 DATA
    _ZTI33_0RL_cd_F894C8374A428E70_21000000 @3825 DATA
    _ZTI33_0RL_cd_F894C8374A428E70_40000000 @3826 DATA
    _ZTI33_0RL_cd_F894C8374A428E70_41000000 @3827 DATA
    _ZTI33_0RL_cd_F894C8374A428E70_60000000 @3828 DATA
    _ZTI33_0RL_cd_F894C8374A428E70_80000000 @3829 DATA
    _ZTI33_0RL_cd_F894C8374A428E70_a0000000 @3830 DATA
    _ZTI33_0RL_cd_F894C8374A428E70_c0000000 @3831 DATA
    _ZTI33_0RL_cd_F894C8374A428E70_e0000000 @3832 DATA
    _ZTIN11POA_CosTime11TimeServiceE @3833 DATA
    _ZTIN11POA_CosTime3TIOE @3834 DATA
    _ZTIN11POA_CosTime3UTOE @3835 DATA
    _ZTIN12CosEventComm12DisconnectedE @3836 DATA
    _ZTIN12CosEventComm17_pof_PullConsumerE @3837 DATA
    _ZTIN12CosEventComm17_pof_PullSupplierE @3838 DATA
    _ZTIN12CosEventComm17_pof_PushConsumerE @3839 DATA
    _ZTIN12CosEventComm17_pof_PushSupplierE @3840 DATA
    _ZTIN12CosEventComm18_impl_PullConsumerE @3841 DATA
    _ZTIN12CosEventComm18_impl_PullSupplierE @3842 DATA
    _ZTIN12CosEventComm18_impl_PushConsumerE @3843 DATA
    _ZTIN12CosEventComm18_impl_PushSupplierE @3844 DATA
    _ZTIN12CosEventComm20_objref_PullConsumerE @3845 DATA
    _ZTIN12CosEventComm20_objref_PullSupplierE @3846 DATA
    _ZTIN12CosEventComm20_objref_PushConsumerE @3847 DATA
    _ZTIN12CosEventComm20_objref_PushSupplierE @3848 DATA
    _ZTIN12CosLifeCycle10NotMovableE @3849 DATA
    _ZTIN12CosLifeCycle11NotCopyableE @3850 DATA
    _ZTIN12CosLifeCycle12NotRemovableE @3851 DATA
    _ZTIN12CosLifeCycle15InvalidCriteriaE @3852 DATA
    _ZTIN12CosLifeCycle18CannotMeetCriteriaE @3853 DATA
    _ZTIN12CosLifeCycle18_pof_FactoryFinderE @3854 DATA
    _ZTIN12CosLifeCycle19_impl_FactoryFinderE @3855 DATA
    _ZTIN12CosLifeCycle19_pof_GenericFactoryE @3856 DATA
    _ZTIN12CosLifeCycle20_impl_GenericFactoryE @3857 DATA
    _ZTIN12CosLifeCycle20_pof_LifeCycleObjectE @3858 DATA
    _ZTIN12CosLifeCycle21_impl_LifeCycleObjectE @3859 DATA
    _ZTIN12CosLifeCycle21_objref_FactoryFinderE @3860 DATA
    _ZTIN12CosLifeCycle22_objref_GenericFactoryE @3861 DATA
    _ZTIN12CosLifeCycle23_objref_LifeCycleObjectE @3862 DATA
    _ZTIN12CosLifeCycle9NoFactoryE @3863 DATA
    _ZTIN13CosNotifyComm16InvalidEventTypeE @3864 DATA
    _ZTIN13CosNotifyComm17_pof_PullConsumerE @3865 DATA
    _ZTIN13CosNotifyComm17_pof_PullSupplierE @3866 DATA
    _ZTIN13CosNotifyComm17_pof_PushConsumerE @3867 DATA
    _ZTIN13CosNotifyComm17_pof_PushSupplierE @3868 DATA
    _ZTIN13CosNotifyComm18_impl_PullConsumerE @3869 DATA
    _ZTIN13CosNotifyComm18_impl_PullSupplierE @3870 DATA
    _ZTIN13CosNotifyComm18_impl_PushConsumerE @3871 DATA
    _ZTIN13CosNotifyComm18_impl_PushSupplierE @3872 DATA
    _ZTIN13CosNotifyComm18_pof_NotifyPublishE @3873 DATA
    _ZTIN13CosNotifyComm19_impl_NotifyPublishE @3874 DATA
    _ZTIN13CosNotifyComm20_objref_PullConsumerE @3875 DATA
    _ZTIN13CosNotifyComm20_objref_PullSupplierE @3876 DATA
    _ZTIN13CosNotifyComm20_objref_PushConsumerE @3877 DATA
    _ZTIN13CosNotifyComm20_objref_PushSupplierE @3878 DATA
    _ZTIN13CosNotifyComm20_pof_NotifySubscribeE @3879 DATA
    _ZTIN13CosNotifyComm21_impl_NotifySubscribeE @3880 DATA
    _ZTIN13CosNotifyComm21_objref_NotifyPublishE @3881 DATA
    _ZTIN13CosNotifyComm23_objref_NotifySubscribeE @3882 DATA
    _ZTIN13CosNotifyComm25_pof_SequencePullConsumerE @3883 DATA
    _ZTIN13CosNotifyComm25_pof_SequencePullSupplierE @3884 DATA
    _ZTIN13CosNotifyComm25_pof_SequencePushConsumerE @3885 DATA
    _ZTIN13CosNotifyComm25_pof_SequencePushSupplierE @3886 DATA
    _ZTIN13CosNotifyComm26_impl_SequencePullConsumerE @3887 DATA
    _ZTIN13CosNotifyComm26_impl_SequencePullSupplierE @3888 DATA
    _ZTIN13CosNotifyComm26_impl_SequencePushConsumerE @3889 DATA
    _ZTIN13CosNotifyComm26_impl_SequencePushSupplierE @3890 DATA
    _ZTIN13CosNotifyComm27_pof_StructuredPullConsumerE @3891 DATA
    _ZTIN13CosNotifyComm27_pof_StructuredPullSupplierE @3892 DATA
    _ZTIN13CosNotifyComm27_pof_StructuredPushConsumerE @3893 DATA
    _ZTIN13CosNotifyComm27_pof_StructuredPushSupplierE @3894 DATA
    _ZTIN13CosNotifyComm28_impl_StructuredPullConsumerE @3895 DATA
    _ZTIN13CosNotifyComm28_impl_StructuredPullSupplierE @3896 DATA
    _ZTIN13CosNotifyComm28_impl_StructuredPushConsumerE @3897 DATA
    _ZTIN13CosNotifyComm28_impl_StructuredPushSupplierE @3898 DATA
    _ZTIN13CosNotifyComm28_objref_SequencePullConsumerE @3899 DATA
    _ZTIN13CosNotifyComm28_objref_SequencePullSupplierE @3900 DATA
    _ZTIN13CosNotifyComm28_objref_SequencePushConsumerE @3901 DATA
    _ZTIN13CosNotifyComm28_objref_SequencePushSupplierE @3902 DATA
    _ZTIN13CosNotifyComm30_objref_StructuredPullConsumerE @3903 DATA
    _ZTIN13CosNotifyComm30_objref_StructuredPullSupplierE @3904 DATA
    _ZTIN13CosNotifyComm30_objref_StructuredPushConsumerE @3905 DATA
    _ZTIN13CosNotifyComm30_objref_StructuredPushSupplierE @3906 DATA
    _ZTIN14PortableServer11ServantBaseE @3907 DATA
    _ZTIN15CosNotification13_pof_QoSAdminE @3908 DATA
    _ZTIN15CosNotification14UnsupportedQoSE @3909 DATA
    _ZTIN15CosNotification14_impl_QoSAdminE @3910 DATA
    _ZTIN15CosNotification16UnsupportedAdminE @3911 DATA
    _ZTIN15CosNotification16_objref_QoSAdminE @3912 DATA
    _ZTIN15CosNotification25_pof_AdminPropertiesAdminE @3913 DATA
    _ZTIN15CosNotification26_impl_AdminPropertiesAdminE @3914 DATA
    _ZTIN15CosNotification28_objref_AdminPropertiesAdminE @3915 DATA
    _ZTIN15CosNotifyFilter11_pof_FilterE @3916 DATA
    _ZTIN15CosNotifyFilter12InvalidValueE @3917 DATA
    _ZTIN15CosNotifyFilter12_impl_FilterE @3918 DATA
    _ZTIN15CosNotifyFilter14FilterNotFoundE @3919 DATA
    _ZTIN15CosNotifyFilter14InvalidGrammarE @3920 DATA
    _ZTIN15CosNotifyFilter14_objref_FilterE @3921 DATA
    _ZTIN15CosNotifyFilter16CallbackNotFoundE @3922 DATA
    _ZTIN15CosNotifyFilter16_pof_FilterAdminE @3923 DATA
    _ZTIN15CosNotifyFilter17InvalidConstraintE @3924 DATA
    _ZTIN15CosNotifyFilter17_impl_FilterAdminE @3925 DATA
    _ZTIN15CosNotifyFilter18ConstraintNotFoundE @3926 DATA
    _ZTIN15CosNotifyFilter18_pof_FilterFactoryE @3927 DATA
    _ZTIN15CosNotifyFilter18_pof_MappingFilterE @3928 DATA
    _ZTIN15CosNotifyFilter19_impl_FilterFactoryE @3929 DATA
    _ZTIN15CosNotifyFilter19_impl_MappingFilterE @3930 DATA
    _ZTIN15CosNotifyFilter19_objref_FilterAdminE @3931 DATA
    _ZTIN15CosNotifyFilter21DuplicateConstraintIDE @3932 DATA
    _ZTIN15CosNotifyFilter21_objref_FilterFactoryE @3933 DATA
    _ZTIN15CosNotifyFilter21_objref_MappingFilterE @3934 DATA
    _ZTIN15CosNotifyFilter25UnsupportedFilterableDataE @3935 DATA
    _ZTIN16POA_CosEventComm12PullConsumerE @3936 DATA
    _ZTIN16POA_CosEventComm12PullSupplierE @3937 DATA
    _ZTIN16POA_CosEventComm12PushConsumerE @3938 DATA
    _ZTIN16POA_CosEventComm12PushSupplierE @3939 DATA
    _ZTIN16POA_CosLifeCycle13FactoryFinderE @3940 DATA
    _ZTIN16POA_CosLifeCycle14GenericFactoryE @3941 DATA
    _ZTIN16POA_CosLifeCycle15LifeCycleObjectE @3942 DATA
    _ZTIN17POA_CosNotifyComm12PullConsumerE @3943 DATA
    _ZTIN17POA_CosNotifyComm12PullSupplierE @3944 DATA
    _ZTIN17POA_CosNotifyComm12PushConsumerE @3945 DATA
    _ZTIN17POA_CosNotifyComm12PushSupplierE @3946 DATA
    _ZTIN17POA_CosNotifyComm13NotifyPublishE @3947 DATA
    _ZTIN17POA_CosNotifyComm15NotifySubscribeE @3948 DATA
    _ZTIN17POA_CosNotifyComm20SequencePullConsumerE @3949 DATA
    _ZTIN17POA_CosNotifyComm20SequencePullSupplierE @3950 DATA
    _ZTIN17POA_CosNotifyComm20SequencePushConsumerE @3951 DATA
    _ZTIN17POA_CosNotifyComm20SequencePushSupplierE @3952 DATA
    _ZTIN17POA_CosNotifyComm22StructuredPullConsumerE @3953 DATA
    _ZTIN17POA_CosNotifyComm22StructuredPullSupplierE @3954 DATA
    _ZTIN17POA_CosNotifyComm22StructuredPushConsumerE @3955 DATA
    _ZTIN17POA_CosNotifyComm22StructuredPushSupplierE @3956 DATA
    _ZTIN19POA_CosNotification20AdminPropertiesAdminE @3957 DATA
    _ZTIN19POA_CosNotification8QoSAdminE @3958 DATA
    _ZTIN19POA_CosNotifyFilter11FilterAdminE @3959 DATA
    _ZTIN19POA_CosNotifyFilter13FilterFactoryE @3960 DATA
    _ZTIN19POA_CosNotifyFilter13MappingFilterE @3961 DATA
    _ZTIN19POA_CosNotifyFilter6FilterE @3962 DATA
    _ZTIN20CosEventChannelAdmin16AlreadyConnectedE @3963 DATA
    _ZTIN20CosEventChannelAdmin17_pof_EventChannelE @3964 DATA
    _ZTIN20CosEventChannelAdmin18_impl_EventChannelE @3965 DATA
    _ZTIN20CosEventChannelAdmin18_pof_ConsumerAdminE @3966 DATA
    _ZTIN20CosEventChannelAdmin18_pof_SupplierAdminE @3967 DATA
    _ZTIN20CosEventChannelAdmin19_impl_ConsumerAdminE @3968 DATA
    _ZTIN20CosEventChannelAdmin19_impl_SupplierAdminE @3969 DATA
    _ZTIN20CosEventChannelAdmin20_objref_EventChannelE @3970 DATA
    _ZTIN20CosEventChannelAdmin21_objref_ConsumerAdminE @3971 DATA
    _ZTIN20CosEventChannelAdmin21_objref_SupplierAdminE @3972 DATA
    _ZTIN20CosEventChannelAdmin22_pof_ProxyPullConsumerE @3973 DATA
    _ZTIN20CosEventChannelAdmin22_pof_ProxyPullSupplierE @3974 DATA
    _ZTIN20CosEventChannelAdmin22_pof_ProxyPushConsumerE @3975 DATA
    _ZTIN20CosEventChannelAdmin22_pof_ProxyPushSupplierE @3976 DATA
    _ZTIN20CosEventChannelAdmin23_impl_ProxyPullConsumerE @3977 DATA
    _ZTIN20CosEventChannelAdmin23_impl_ProxyPullSupplierE @3978 DATA
    _ZTIN20CosEventChannelAdmin23_impl_ProxyPushConsumerE @3979 DATA
    _ZTIN20CosEventChannelAdmin23_impl_ProxyPushSupplierE @3980 DATA
    _ZTIN20CosEventChannelAdmin25_objref_ProxyPullConsumerE @3981 DATA
    _ZTIN20CosEventChannelAdmin25_objref_ProxyPullSupplierE @3982 DATA
    _ZTIN20CosEventChannelAdmin25_objref_ProxyPushConsumerE @3983 DATA
    _ZTIN20CosEventChannelAdmin25_objref_ProxyPushSupplierE @3984 DATA
    _ZTIN20CosEventChannelAdmin9TypeErrorE @3985 DATA
    _ZTIN21CosNotifyChannelAdmin12NotConnectedE @3986 DATA
    _ZTIN21CosNotifyChannelAdmin13AdminNotFoundE @3987 DATA
    _ZTIN21CosNotifyChannelAdmin13ProxyNotFoundE @3988 DATA
    _ZTIN21CosNotifyChannelAdmin15ChannelNotFoundE @3989 DATA
    _ZTIN21CosNotifyChannelAdmin17_pof_EventChannelE @3990 DATA
    _ZTIN21CosNotifyChannelAdmin18AdminLimitExceededE @3991 DATA
    _ZTIN21CosNotifyChannelAdmin18_impl_EventChannelE @3992 DATA
    _ZTIN21CosNotifyChannelAdmin18_pof_ConsumerAdminE @3993 DATA
    _ZTIN21CosNotifyChannelAdmin18_pof_ProxyConsumerE @3994 DATA
    _ZTIN21CosNotifyChannelAdmin18_pof_ProxySupplierE @3995 DATA
    _ZTIN21CosNotifyChannelAdmin18_pof_SupplierAdminE @3996 DATA
    _ZTIN21CosNotifyChannelAdmin19_impl_ConsumerAdminE @3997 DATA
    _ZTIN21CosNotifyChannelAdmin19_impl_ProxyConsumerE @3998 DATA
    _ZTIN21CosNotifyChannelAdmin19_impl_ProxySupplierE @3999 DATA
    _ZTIN21CosNotifyChannelAdmin19_impl_SupplierAdminE @4000 DATA
    _ZTIN21CosNotifyChannelAdmin20_objref_EventChannelE @4001 DATA
    _ZTIN21CosNotifyChannelAdmin21_objref_ConsumerAdminE @4002 DATA
    _ZTIN21CosNotifyChannelAdmin21_objref_ProxyConsumerE @4003 DATA
    _ZTIN21CosNotifyChannelAdmin21_objref_ProxySupplierE @4004 DATA
    _ZTIN21CosNotifyChannelAdmin21_objref_SupplierAdminE @4005 DATA
    _ZTIN21CosNotifyChannelAdmin22_pof_ProxyPullConsumerE @4006 DATA
    _ZTIN21CosNotifyChannelAdmin22_pof_ProxyPullSupplierE @4007 DATA
    _ZTIN21CosNotifyChannelAdmin22_pof_ProxyPushConsumerE @4008 DATA
    _ZTIN21CosNotifyChannelAdmin22_pof_ProxyPushSupplierE @4009 DATA
    _ZTIN21CosNotifyChannelAdmin23ConnectionAlreadyActiveE @4010 DATA
    _ZTIN21CosNotifyChannelAdmin23_impl_ProxyPullConsumerE @4011 DATA
    _ZTIN21CosNotifyChannelAdmin23_impl_ProxyPullSupplierE @4012 DATA
    _ZTIN21CosNotifyChannelAdmin23_impl_ProxyPushConsumerE @4013 DATA
    _ZTIN21CosNotifyChannelAdmin23_impl_ProxyPushSupplierE @4014 DATA
    _ZTIN21CosNotifyChannelAdmin24_pof_EventChannelFactoryE @4015 DATA
    _ZTIN21CosNotifyChannelAdmin25ConnectionAlreadyInactiveE @4016 DATA
    _ZTIN21CosNotifyChannelAdmin25_impl_EventChannelFactoryE @4017 DATA
    _ZTIN21CosNotifyChannelAdmin25_objref_ProxyPullConsumerE @4018 DATA
    _ZTIN21CosNotifyChannelAdmin25_objref_ProxyPullSupplierE @4019 DATA
    _ZTIN21CosNotifyChannelAdmin25_objref_ProxyPushConsumerE @4020 DATA
    _ZTIN21CosNotifyChannelAdmin25_objref_ProxyPushSupplierE @4021 DATA
    _ZTIN21CosNotifyChannelAdmin27_objref_EventChannelFactoryE @4022 DATA
    _ZTIN21CosNotifyChannelAdmin30_pof_SequenceProxyPullConsumerE @4023 DATA
    _ZTIN21CosNotifyChannelAdmin30_pof_SequenceProxyPullSupplierE @4024 DATA
    _ZTIN21CosNotifyChannelAdmin30_pof_SequenceProxyPushConsumerE @4025 DATA
    _ZTIN21CosNotifyChannelAdmin30_pof_SequenceProxyPushSupplierE @4026 DATA
    _ZTIN21CosNotifyChannelAdmin31_impl_SequenceProxyPullConsumerE @4027 DATA
    _ZTIN21CosNotifyChannelAdmin31_impl_SequenceProxyPullSupplierE @4028 DATA
    _ZTIN21CosNotifyChannelAdmin31_impl_SequenceProxyPushConsumerE @4029 DATA
    _ZTIN21CosNotifyChannelAdmin31_impl_SequenceProxyPushSupplierE @4030 DATA
    _ZTIN21CosNotifyChannelAdmin32_pof_StructuredProxyPullConsumerE @4031 DATA
    _ZTIN21CosNotifyChannelAdmin32_pof_StructuredProxyPullSupplierE @4032 DATA
    _ZTIN21CosNotifyChannelAdmin32_pof_StructuredProxyPushConsumerE @4033 DATA
    _ZTIN21CosNotifyChannelAdmin32_pof_StructuredProxyPushSupplierE @4034 DATA
    _ZTIN21CosNotifyChannelAdmin33_impl_StructuredProxyPullConsumerE @4035 DATA
    _ZTIN21CosNotifyChannelAdmin33_impl_StructuredProxyPullSupplierE @4036 DATA
    _ZTIN21CosNotifyChannelAdmin33_impl_StructuredProxyPushConsumerE @4037 DATA
    _ZTIN21CosNotifyChannelAdmin33_impl_StructuredProxyPushSupplierE @4038 DATA
    _ZTIN21CosNotifyChannelAdmin33_objref_SequenceProxyPullConsumerE @4039 DATA
    _ZTIN21CosNotifyChannelAdmin33_objref_SequenceProxyPullSupplierE @4040 DATA
    _ZTIN21CosNotifyChannelAdmin33_objref_SequenceProxyPushConsumerE @4041 DATA
    _ZTIN21CosNotifyChannelAdmin33_objref_SequenceProxyPushSupplierE @4042 DATA
    _ZTIN21CosNotifyChannelAdmin35_objref_StructuredProxyPullConsumerE @4043 DATA
    _ZTIN21CosNotifyChannelAdmin35_objref_StructuredProxyPullSupplierE @4044 DATA
    _ZTIN21CosNotifyChannelAdmin35_objref_StructuredProxyPushConsumerE @4045 DATA
    _ZTIN21CosNotifyChannelAdmin35_objref_StructuredProxyPushSupplierE @4046 DATA
    _ZTIN24POA_CosEventChannelAdmin12EventChannelE @4047 DATA
    _ZTIN24POA_CosEventChannelAdmin13ConsumerAdminE @4048 DATA
    _ZTIN24POA_CosEventChannelAdmin13SupplierAdminE @4049 DATA
    _ZTIN24POA_CosEventChannelAdmin17ProxyPullConsumerE @4050 DATA
    _ZTIN24POA_CosEventChannelAdmin17ProxyPullSupplierE @4051 DATA
    _ZTIN24POA_CosEventChannelAdmin17ProxyPushConsumerE @4052 DATA
    _ZTIN24POA_CosEventChannelAdmin17ProxyPushSupplierE @4053 DATA
    _ZTIN25POA_CosNotifyChannelAdmin12EventChannelE @4054 DATA
    _ZTIN25POA_CosNotifyChannelAdmin13ConsumerAdminE @4055 DATA
    _ZTIN25POA_CosNotifyChannelAdmin13ProxyConsumerE @4056 DATA
    _ZTIN25POA_CosNotifyChannelAdmin13ProxySupplierE @4057 DATA
    _ZTIN25POA_CosNotifyChannelAdmin13SupplierAdminE @4058 DATA
    _ZTIN25POA_CosNotifyChannelAdmin17ProxyPullConsumerE @4059 DATA
    _ZTIN25POA_CosNotifyChannelAdmin17ProxyPullSupplierE @4060 DATA
    _ZTIN25POA_CosNotifyChannelAdmin17ProxyPushConsumerE @4061 DATA
    _ZTIN25POA_CosNotifyChannelAdmin17ProxyPushSupplierE @4062 DATA
    _ZTIN25POA_CosNotifyChannelAdmin19EventChannelFactoryE @4063 DATA
    _ZTIN25POA_CosNotifyChannelAdmin25SequenceProxyPullConsumerE @4064 DATA
    _ZTIN25POA_CosNotifyChannelAdmin25SequenceProxyPullSupplierE @4065 DATA
    _ZTIN25POA_CosNotifyChannelAdmin25SequenceProxyPushConsumerE @4066 DATA
    _ZTIN25POA_CosNotifyChannelAdmin25SequenceProxyPushSupplierE @4067 DATA
    _ZTIN25POA_CosNotifyChannelAdmin27StructuredProxyPullConsumerE @4068 DATA
    _ZTIN25POA_CosNotifyChannelAdmin27StructuredProxyPullSupplierE @4069 DATA
    _ZTIN25POA_CosNotifyChannelAdmin27StructuredProxyPushConsumerE @4070 DATA
    _ZTIN25POA_CosNotifyChannelAdmin27StructuredProxyPushSupplierE @4071 DATA
    _ZTIN4omni18proxyObjectFactoryE @4072 DATA
    _ZTIN5CORBA13UserExceptionE @4073 DATA
    _ZTIN5CORBA6ObjectE @4074 DATA
    _ZTIN5CORBA9ExceptionE @4075 DATA
    _ZTIN7CosTime11_objref_TIOE @4076 DATA
    _ZTIN7CosTime11_objref_UTOE @4077 DATA
    _ZTIN7CosTime15TimeUnavailableE @4078 DATA
    _ZTIN7CosTime16_pof_TimeServiceE @4079 DATA
    _ZTIN7CosTime17_impl_TimeServiceE @4080 DATA
    _ZTIN7CosTime19_objref_TimeServiceE @4081 DATA
    _ZTIN7CosTime8_pof_TIOE @4082 DATA
    _ZTIN7CosTime8_pof_UTOE @4083 DATA
    _ZTIN7CosTime9_impl_TIOE @4084 DATA
    _ZTIN7CosTime9_impl_UTOE @4085 DATA
    _ZTS10omniObjRef @4086 DATA
    _ZTS11omniServant @4087 DATA
    _ZTS18omniCallDescriptor @4088 DATA
    _ZTS33_0RL_cd_1FE8F330207AFD15_00000000 @4089 DATA
    _ZTS33_0RL_cd_1FE8F330207AFD15_03000000 @4090 DATA
    _ZTS33_0RL_cd_1FE8F330207AFD15_11000000 @4091 DATA
    _ZTS33_0RL_cd_1FE8F330207AFD15_20000000 @4092 DATA
    _ZTS33_0RL_cd_1FE8F330207AFD15_23000000 @4093 DATA
    _ZTS33_0RL_cd_1FE8F330207AFD15_31000000 @4094 DATA
    _ZTS33_0RL_cd_1FE8F330207AFD15_32000000 @4095 DATA
    _ZTS33_0RL_cd_1FE8F330207AFD15_40000000 @4096 DATA
    _ZTS33_0RL_cd_1FE8F330207AFD15_43000000 @4097 DATA
    _ZTS33_0RL_cd_1FE8F330207AFD15_51000000 @4098 DATA
    _ZTS33_0RL_cd_1FE8F330207AFD15_52000000 @4099 DATA
    _ZTS33_0RL_cd_1FE8F330207AFD15_60000000 @4100 DATA
    _ZTS33_0RL_cd_1FE8F330207AFD15_63000000 @4101 DATA
    _ZTS33_0RL_cd_1FE8F330207AFD15_71000000 @4102 DATA
    _ZTS33_0RL_cd_1FE8F330207AFD15_72000000 @4103 DATA
    _ZTS33_0RL_cd_1FE8F330207AFD15_80000000 @4104 DATA
    _ZTS33_0RL_cd_1FE8F330207AFD15_83000000 @4105 DATA
    _ZTS33_0RL_cd_1FE8F330207AFD15_91000000 @4106 DATA
    _ZTS33_0RL_cd_1FE8F330207AFD15_a2000000 @4107 DATA
    _ZTS33_0RL_cd_1FE8F330207AFD15_b0000000 @4108 DATA
    _ZTS33_0RL_cd_1FE8F330207AFD15_b1000000 @4109 DATA
    _ZTS33_0RL_cd_1FE8F330207AFD15_c2000000 @4110 DATA
    _ZTS33_0RL_cd_1FE8F330207AFD15_d0000000 @4111 DATA
    _ZTS33_0RL_cd_1FE8F330207AFD15_d1000000 @4112 DATA
    _ZTS33_0RL_cd_1FE8F330207AFD15_e2000000 @4113 DATA
    _ZTS33_0RL_cd_1FE8F330207AFD15_f0000000 @4114 DATA
    _ZTS33_0RL_cd_1FE8F330207AFD15_f1000000 @4115 DATA
    _ZTS33_0RL_cd_25B2B9DD5B4AD98D_00000000 @4116 DATA
    _ZTS33_0RL_cd_25B2B9DD5B4AD98D_20000000 @4117 DATA
    _ZTS33_0RL_cd_25B2B9DD5B4AD98D_40000000 @4118 DATA
    _ZTS33_0RL_cd_25B2B9DD5B4AD98D_60000000 @4119 DATA
    _ZTS33_0RL_cd_25B2B9DD5B4AD98D_80000000 @4120 DATA
    _ZTS33_0RL_cd_25B2B9DD5B4AD98D_a0000000 @4121 DATA
    _ZTS33_0RL_cd_4B6B86183777B6C2_00000000 @4122 DATA
    _ZTS33_0RL_cd_4B6B86183777B6C2_21000000 @4123 DATA
    _ZTS33_0RL_cd_4B6B86183777B6C2_30000000 @4124 DATA
    _ZTS33_0RL_cd_4B6B86183777B6C2_41000000 @4125 DATA
    _ZTS33_0RL_cd_4B6B86183777B6C2_50000000 @4126 DATA
    _ZTS33_0RL_cd_4B6B86183777B6C2_80000000 @4127 DATA
    _ZTS33_0RL_cd_4B6B86183777B6C2_a0000000 @4128 DATA
    _ZTS33_0RL_cd_4B6B86183777B6C2_e0000000 @4129 DATA
    _ZTS33_0RL_cd_8B6214F5B3100E7E_00000000 @4130 DATA
    _ZTS33_0RL_cd_8B6214F5B3100E7E_20000000 @4131 DATA
    _ZTS33_0RL_cd_8B6214F5B3100E7E_40000000 @4132 DATA
    _ZTS33_0RL_cd_8B6214F5B3100E7E_70000000 @4133 DATA
    _ZTS33_0RL_cd_9043E11A9721DAB3_00000000 @4134 DATA
    _ZTS33_0RL_cd_9043E11A9721DAB3_04000000 @4135 DATA
    _ZTS33_0RL_cd_9043E11A9721DAB3_06000000 @4136 DATA
    _ZTS33_0RL_cd_9043E11A9721DAB3_12000000 @4137 DATA
    _ZTS33_0RL_cd_9043E11A9721DAB3_13000000 @4138 DATA
    _ZTS33_0RL_cd_9043E11A9721DAB3_20000000 @4139 DATA
    _ZTS33_0RL_cd_9043E11A9721DAB3_24000000 @4140 DATA
    _ZTS33_0RL_cd_9043E11A9721DAB3_31000000 @4141 DATA
    _ZTS33_0RL_cd_9043E11A9721DAB3_32000000 @4142 DATA
    _ZTS33_0RL_cd_9043E11A9721DAB3_36000000 @4143 DATA
    _ZTS33_0RL_cd_9043E11A9721DAB3_40000000 @4144 DATA
    _ZTS33_0RL_cd_9043E11A9721DAB3_44000000 @4145 DATA
    _ZTS33_0RL_cd_9043E11A9721DAB3_51000000 @4146 DATA
    _ZTS33_0RL_cd_9043E11A9721DAB3_52000000 @4147 DATA
    _ZTS33_0RL_cd_9043E11A9721DAB3_53000000 @4148 DATA
    _ZTS33_0RL_cd_9043E11A9721DAB3_60000000 @4149 DATA
    _ZTS33_0RL_cd_9043E11A9721DAB3_71000000 @4150 DATA
    _ZTS33_0RL_cd_9043E11A9721DAB3_76000000 @4151 DATA
    _ZTS33_0RL_cd_9043E11A9721DAB3_85000000 @4152 DATA
    _ZTS33_0RL_cd_9043E11A9721DAB3_91000000 @4153 DATA
    _ZTS33_0RL_cd_9043E11A9721DAB3_92000000 @4154 DATA
    _ZTS33_0RL_cd_9043E11A9721DAB3_93000000 @4155 DATA
    _ZTS33_0RL_cd_9043E11A9721DAB3_96000000 @4156 DATA
    _ZTS33_0RL_cd_9043E11A9721DAB3_a4000000 @4157 DATA
    _ZTS33_0RL_cd_9043E11A9721DAB3_a5000000 @4158 DATA
    _ZTS33_0RL_cd_9043E11A9721DAB3_b0000000 @4159 DATA
    _ZTS33_0RL_cd_9043E11A9721DAB3_b1000000 @4160 DATA
    _ZTS33_0RL_cd_9043E11A9721DAB3_b3000000 @4161 DATA
    _ZTS33_0RL_cd_9043E11A9721DAB3_b6000000 @4162 DATA
    _ZTS33_0RL_cd_9043E11A9721DAB3_c5000000 @4163 DATA
    _ZTS33_0RL_cd_9043E11A9721DAB3_d0000000 @4164 DATA
    _ZTS33_0RL_cd_9043E11A9721DAB3_d1000000 @4165 DATA
    _ZTS33_0RL_cd_9043E11A9721DAB3_d2000000 @4166 DATA
    _ZTS33_0RL_cd_9043E11A9721DAB3_d4000000 @4167 DATA
    _ZTS33_0RL_cd_9043E11A9721DAB3_d6000000 @4168 DATA
    _ZTS33_0RL_cd_9043E11A9721DAB3_e3000000 @4169 DATA
    _ZTS33_0RL_cd_9043E11A9721DAB3_e5000000 @4170 DATA
    _ZTS33_0RL_cd_9043E11A9721DAB3_f0000000 @4171 DATA
    _ZTS33_0RL_cd_9043E11A9721DAB3_f1000000 @4172 DATA
    _ZTS33_0RL_cd_9043E11A9721DAB3_f4000000 @4173 DATA
    _ZTS33_0RL_cd_99DFF546EA0F9974_00000000 @4174 DATA
    _ZTS33_0RL_cd_99DFF546EA0F9974_11000000 @4175 DATA
    _ZTS33_0RL_cd_99DFF546EA0F9974_20000000 @4176 DATA
    _ZTS33_0RL_cd_99DFF546EA0F9974_40000000 @4177 DATA
    _ZTS33_0RL_cd_99DFF546EA0F9974_41000000 @4178 DATA
    _ZTS33_0RL_cd_99DFF546EA0F9974_60000000 @4179 DATA
    _ZTS33_0RL_cd_99DFF546EA0F9974_61000000 @4180 DATA
    _ZTS33_0RL_cd_99DFF546EA0F9974_80000000 @4181 DATA
    _ZTS33_0RL_cd_99DFF546EA0F9974_91000000 @4182 DATA
    _ZTS33_0RL_cd_99DFF546EA0F9974_b0000000 @4183 DATA
    _ZTS33_0RL_cd_99DFF546EA0F9974_b1000000 @4184 DATA
    _ZTS33_0RL_cd_99DFF546EA0F9974_d0000000 @4185 DATA
    _ZTS33_0RL_cd_99DFF546EA0F9974_d1000000 @4186 DATA
    _ZTS33_0RL_cd_99DFF546EA0F9974_f0000000 @4187 DATA
    _ZTS33_0RL_cd_BD959CC57B2E138F_00000000 @4188 DATA
    _ZTS33_0RL_cd_BD959CC57B2E138F_20000000 @4189 DATA
    _ZTS33_0RL_cd_BD959CC57B2E138F_50000000 @4190 DATA
    _ZTS33_0RL_cd_BD959CC57B2E138F_70000000 @4191 DATA
    _ZTS33_0RL_cd_F894C8374A428E70_00000000 @4192 DATA
    _ZTS33_0RL_cd_F894C8374A428E70_01000000 @4193 DATA
    _ZTS33_0RL_cd_F894C8374A428E70_20000000 @4194 DATA
    _ZTS33_0RL_cd_F894C8374A428E70_21000000 @4195 DATA
    _ZTS33_0RL_cd_F894C8374A428E70_40000000 @4196 DATA
    _ZTS33_0RL_cd_F894C8374A428E70_41000000 @4197 DATA
    _ZTS33_0RL_cd_F894C8374A428E70_60000000 @4198 DATA
    _ZTS33_0RL_cd_F894C8374A428E70_80000000 @4199 DATA
    _ZTS33_0RL_cd_F894C8374A428E70_a0000000 @4200 DATA
    _ZTS33_0RL_cd_F894C8374A428E70_c0000000 @4201 DATA
    _ZTS33_0RL_cd_F894C8374A428E70_e0000000 @4202 DATA
    _ZTSN11POA_CosTime11TimeServiceE @4203 DATA
    _ZTSN11POA_CosTime3TIOE @4204 DATA
    _ZTSN11POA_CosTime3UTOE @4205 DATA
    _ZTSN12CosEventComm12DisconnectedE @4206 DATA
    _ZTSN12CosEventComm17_pof_PullConsumerE @4207 DATA
    _ZTSN12CosEventComm17_pof_PullSupplierE @4208 DATA
    _ZTSN12CosEventComm17_pof_PushConsumerE @4209 DATA
    _ZTSN12CosEventComm17_pof_PushSupplierE @4210 DATA
    _ZTSN12CosEventComm18_impl_PullConsumerE @4211 DATA
    _ZTSN12CosEventComm18_impl_PullSupplierE @4212 DATA
    _ZTSN12CosEventComm18_impl_PushConsumerE @4213 DATA
    _ZTSN12CosEventComm18_impl_PushSupplierE @4214 DATA
    _ZTSN12CosEventComm20_objref_PullConsumerE @4215 DATA
    _ZTSN12CosEventComm20_objref_PullSupplierE @4216 DATA
    _ZTSN12CosEventComm20_objref_PushConsumerE @4217 DATA
    _ZTSN12CosEventComm20_objref_PushSupplierE @4218 DATA
    _ZTSN12CosLifeCycle10NotMovableE @4219 DATA
    _ZTSN12CosLifeCycle11NotCopyableE @4220 DATA
    _ZTSN12CosLifeCycle12NotRemovableE @4221 DATA
    _ZTSN12CosLifeCycle15InvalidCriteriaE @4222 DATA
    _ZTSN12CosLifeCycle18CannotMeetCriteriaE @4223 DATA
    _ZTSN12CosLifeCycle18_pof_FactoryFinderE @4224 DATA
    _ZTSN12CosLifeCycle19_impl_FactoryFinderE @4225 DATA
    _ZTSN12CosLifeCycle19_pof_GenericFactoryE @4226 DATA
    _ZTSN12CosLifeCycle20_impl_GenericFactoryE @4227 DATA
    _ZTSN12CosLifeCycle20_pof_LifeCycleObjectE @4228 DATA
    _ZTSN12CosLifeCycle21_impl_LifeCycleObjectE @4229 DATA
    _ZTSN12CosLifeCycle21_objref_FactoryFinderE @4230 DATA
    _ZTSN12CosLifeCycle22_objref_GenericFactoryE @4231 DATA
    _ZTSN12CosLifeCycle23_objref_LifeCycleObjectE @4232 DATA
    _ZTSN12CosLifeCycle9NoFactoryE @4233 DATA
    _ZTSN13CosNotifyComm16InvalidEventTypeE @4234 DATA
    _ZTSN13CosNotifyComm17_pof_PullConsumerE @4235 DATA
    _ZTSN13CosNotifyComm17_pof_PullSupplierE @4236 DATA
    _ZTSN13CosNotifyComm17_pof_PushConsumerE @4237 DATA
    _ZTSN13CosNotifyComm17_pof_PushSupplierE @4238 DATA
    _ZTSN13CosNotifyComm18_impl_PullConsumerE @4239 DATA
    _ZTSN13CosNotifyComm18_impl_PullSupplierE @4240 DATA
    _ZTSN13CosNotifyComm18_impl_PushConsumerE @4241 DATA
    _ZTSN13CosNotifyComm18_impl_PushSupplierE @4242 DATA
    _ZTSN13CosNotifyComm18_pof_NotifyPublishE @4243 DATA
    _ZTSN13CosNotifyComm19_impl_NotifyPublishE @4244 DATA
    _ZTSN13CosNotifyComm20_objref_PullConsumerE @4245 DATA
    _ZTSN13CosNotifyComm20_objref_PullSupplierE @4246 DATA
    _ZTSN13CosNotifyComm20_objref_PushConsumerE @4247 DATA
    _ZTSN13CosNotifyComm20_objref_PushSupplierE @4248 DATA
    _ZTSN13CosNotifyComm20_pof_NotifySubscribeE @4249 DATA
    _ZTSN13CosNotifyComm21_impl_NotifySubscribeE @4250 DATA
    _ZTSN13CosNotifyComm21_objref_NotifyPublishE @4251 DATA
    _ZTSN13CosNotifyComm23_objref_NotifySubscribeE @4252 DATA
    _ZTSN13CosNotifyComm25_pof_SequencePullConsumerE @4253 DATA
    _ZTSN13CosNotifyComm25_pof_SequencePullSupplierE @4254 DATA
    _ZTSN13CosNotifyComm25_pof_SequencePushConsumerE @4255 DATA
    _ZTSN13CosNotifyComm25_pof_SequencePushSupplierE @4256 DATA
    _ZTSN13CosNotifyComm26_impl_SequencePullConsumerE @4257 DATA
    _ZTSN13CosNotifyComm26_impl_SequencePullSupplierE @4258 DATA
    _ZTSN13CosNotifyComm26_impl_SequencePushConsumerE @4259 DATA
    _ZTSN13CosNotifyComm26_impl_SequencePushSupplierE @4260 DATA
    _ZTSN13CosNotifyComm27_pof_StructuredPullConsumerE @4261 DATA
    _ZTSN13CosNotifyComm27_pof_StructuredPullSupplierE @4262 DATA
    _ZTSN13CosNotifyComm27_pof_StructuredPushConsumerE @4263 DATA
    _ZTSN13CosNotifyComm27_pof_StructuredPushSupplierE @4264 DATA
    _ZTSN13CosNotifyComm28_impl_StructuredPullConsumerE @4265 DATA
    _ZTSN13CosNotifyComm28_impl_StructuredPullSupplierE @4266 DATA
    _ZTSN13CosNotifyComm28_impl_StructuredPushConsumerE @4267 DATA
    _ZTSN13CosNotifyComm28_impl_StructuredPushSupplierE @4268 DATA
    _ZTSN13CosNotifyComm28_objref_SequencePullConsumerE @4269 DATA
    _ZTSN13CosNotifyComm28_objref_SequencePullSupplierE @4270 DATA
    _ZTSN13CosNotifyComm28_objref_SequencePushConsumerE @4271 DATA
    _ZTSN13CosNotifyComm28_objref_SequencePushSupplierE @4272 DATA
    _ZTSN13CosNotifyComm30_objref_StructuredPullConsumerE @4273 DATA
    _ZTSN13CosNotifyComm30_objref_StructuredPullSupplierE @4274 DATA
    _ZTSN13CosNotifyComm30_objref_StructuredPushConsumerE @4275 DATA
    _ZTSN13CosNotifyComm30_objref_StructuredPushSupplierE @4276 DATA
    _ZTSN14PortableServer11ServantBaseE @4277 DATA
    _ZTSN15CosNotification13_pof_QoSAdminE @4278 DATA
    _ZTSN15CosNotification14UnsupportedQoSE @4279 DATA
    _ZTSN15CosNotification14_impl_QoSAdminE @4280 DATA
    _ZTSN15CosNotification16UnsupportedAdminE @4281 DATA
    _ZTSN15CosNotification16_objref_QoSAdminE @4282 DATA
    _ZTSN15CosNotification25_pof_AdminPropertiesAdminE @4283 DATA
    _ZTSN15CosNotification26_impl_AdminPropertiesAdminE @4284 DATA
    _ZTSN15CosNotification28_objref_AdminPropertiesAdminE @4285 DATA
    _ZTSN15CosNotifyFilter11_pof_FilterE @4286 DATA
    _ZTSN15CosNotifyFilter12InvalidValueE @4287 DATA
    _ZTSN15CosNotifyFilter12_impl_FilterE @4288 DATA
    _ZTSN15CosNotifyFilter14FilterNotFoundE @4289 DATA
    _ZTSN15CosNotifyFilter14InvalidGrammarE @4290 DATA
    _ZTSN15CosNotifyFilter14_objref_FilterE @4291 DATA
    _ZTSN15CosNotifyFilter16CallbackNotFoundE @4292 DATA
    _ZTSN15CosNotifyFilter16_pof_FilterAdminE @4293 DATA
    _ZTSN15CosNotifyFilter17InvalidConstraintE @4294 DATA
    _ZTSN15CosNotifyFilter17_impl_FilterAdminE @4295 DATA
    _ZTSN15CosNotifyFilter18ConstraintNotFoundE @4296 DATA
    _ZTSN15CosNotifyFilter18_pof_FilterFactoryE @4297 DATA
    _ZTSN15CosNotifyFilter18_pof_MappingFilterE @4298 DATA
    _ZTSN15CosNotifyFilter19_impl_FilterFactoryE @4299 DATA
    _ZTSN15CosNotifyFilter19_impl_MappingFilterE @4300 DATA
    _ZTSN15CosNotifyFilter19_objref_FilterAdminE @4301 DATA
    _ZTSN15CosNotifyFilter21DuplicateConstraintIDE @4302 DATA
    _ZTSN15CosNotifyFilter21_objref_FilterFactoryE @4303 DATA
    _ZTSN15CosNotifyFilter21_objref_MappingFilterE @4304 DATA
    _ZTSN15CosNotifyFilter25UnsupportedFilterableDataE @4305 DATA
    _ZTSN16POA_CosEventComm12PullConsumerE @4306 DATA
    _ZTSN16POA_CosEventComm12PullSupplierE @4307 DATA
    _ZTSN16POA_CosEventComm12PushConsumerE @4308 DATA
    _ZTSN16POA_CosEventComm12PushSupplierE @4309 DATA
    _ZTSN16POA_CosLifeCycle13FactoryFinderE @4310 DATA
    _ZTSN16POA_CosLifeCycle14GenericFactoryE @4311 DATA
    _ZTSN16POA_CosLifeCycle15LifeCycleObjectE @4312 DATA
    _ZTSN17POA_CosNotifyComm12PullConsumerE @4313 DATA
    _ZTSN17POA_CosNotifyComm12PullSupplierE @4314 DATA
    _ZTSN17POA_CosNotifyComm12PushConsumerE @4315 DATA
    _ZTSN17POA_CosNotifyComm12PushSupplierE @4316 DATA
    _ZTSN17POA_CosNotifyComm13NotifyPublishE @4317 DATA
    _ZTSN17POA_CosNotifyComm15NotifySubscribeE @4318 DATA
    _ZTSN17POA_CosNotifyComm20SequencePullConsumerE @4319 DATA
    _ZTSN17POA_CosNotifyComm20SequencePullSupplierE @4320 DATA
    _ZTSN17POA_CosNotifyComm20SequencePushConsumerE @4321 DATA
    _ZTSN17POA_CosNotifyComm20SequencePushSupplierE @4322 DATA
    _ZTSN17POA_CosNotifyComm22StructuredPullConsumerE @4323 DATA
    _ZTSN17POA_CosNotifyComm22StructuredPullSupplierE @4324 DATA
    _ZTSN17POA_CosNotifyComm22StructuredPushConsumerE @4325 DATA
    _ZTSN17POA_CosNotifyComm22StructuredPushSupplierE @4326 DATA
    _ZTSN19POA_CosNotification20AdminPropertiesAdminE @4327 DATA
    _ZTSN19POA_CosNotification8QoSAdminE @4328 DATA
    _ZTSN19POA_CosNotifyFilter11FilterAdminE @4329 DATA
    _ZTSN19POA_CosNotifyFilter13FilterFactoryE @4330 DATA
    _ZTSN19POA_CosNotifyFilter13MappingFilterE @4331 DATA
    _ZTSN19POA_CosNotifyFilter6FilterE @4332 DATA
    _ZTSN20CosEventChannelAdmin16AlreadyConnectedE @4333 DATA
    _ZTSN20CosEventChannelAdmin17_pof_EventChannelE @4334 DATA
    _ZTSN20CosEventChannelAdmin18_impl_EventChannelE @4335 DATA
    _ZTSN20CosEventChannelAdmin18_pof_ConsumerAdminE @4336 DATA
    _ZTSN20CosEventChannelAdmin18_pof_SupplierAdminE @4337 DATA
    _ZTSN20CosEventChannelAdmin19_impl_ConsumerAdminE @4338 DATA
    _ZTSN20CosEventChannelAdmin19_impl_SupplierAdminE @4339 DATA
    _ZTSN20CosEventChannelAdmin20_objref_EventChannelE @4340 DATA
    _ZTSN20CosEventChannelAdmin21_objref_ConsumerAdminE @4341 DATA
    _ZTSN20CosEventChannelAdmin21_objref_SupplierAdminE @4342 DATA
    _ZTSN20CosEventChannelAdmin22_pof_ProxyPullConsumerE @4343 DATA
    _ZTSN20CosEventChannelAdmin22_pof_ProxyPullSupplierE @4344 DATA
    _ZTSN20CosEventChannelAdmin22_pof_ProxyPushConsumerE @4345 DATA
    _ZTSN20CosEventChannelAdmin22_pof_ProxyPushSupplierE @4346 DATA
    _ZTSN20CosEventChannelAdmin23_impl_ProxyPullConsumerE @4347 DATA
    _ZTSN20CosEventChannelAdmin23_impl_ProxyPullSupplierE @4348 DATA
    _ZTSN20CosEventChannelAdmin23_impl_ProxyPushConsumerE @4349 DATA
    _ZTSN20CosEventChannelAdmin23_impl_ProxyPushSupplierE @4350 DATA
    _ZTSN20CosEventChannelAdmin25_objref_ProxyPullConsumerE @4351 DATA
    _ZTSN20CosEventChannelAdmin25_objref_ProxyPullSupplierE @4352 DATA
    _ZTSN20CosEventChannelAdmin25_objref_ProxyPushConsumerE @4353 DATA
    _ZTSN20CosEventChannelAdmin25_objref_ProxyPushSupplierE @4354 DATA
    _ZTSN20CosEventChannelAdmin9TypeErrorE @4355 DATA
    _ZTSN21CosNotifyChannelAdmin12NotConnectedE @4356 DATA
    _ZTSN21CosNotifyChannelAdmin13AdminNotFoundE @4357 DATA
    _ZTSN21CosNotifyChannelAdmin13ProxyNotFoundE @4358 DATA
    _ZTSN21CosNotifyChannelAdmin15ChannelNotFoundE @4359 DATA
    _ZTSN21CosNotifyChannelAdmin17_pof_EventChannelE @4360 DATA
    _ZTSN21CosNotifyChannelAdmin18AdminLimitExceededE @4361 DATA
    _ZTSN21CosNotifyChannelAdmin18_impl_EventChannelE @4362 DATA
    _ZTSN21CosNotifyChannelAdmin18_pof_ConsumerAdminE @4363 DATA
    _ZTSN21CosNotifyChannelAdmin18_pof_ProxyConsumerE @4364 DATA
    _ZTSN21CosNotifyChannelAdmin18_pof_ProxySupplierE @4365 DATA
    _ZTSN21CosNotifyChannelAdmin18_pof_SupplierAdminE @4366 DATA
    _ZTSN21CosNotifyChannelAdmin19_impl_ConsumerAdminE @4367 DATA
    _ZTSN21CosNotifyChannelAdmin19_impl_ProxyConsumerE @4368 DATA
    _ZTSN21CosNotifyChannelAdmin19_impl_ProxySupplierE @4369 DATA
    _ZTSN21CosNotifyChannelAdmin19_impl_SupplierAdminE @4370 DATA
    _ZTSN21CosNotifyChannelAdmin20_objref_EventChannelE @4371 DATA
    _ZTSN21CosNotifyChannelAdmin21_objref_ConsumerAdminE @4372 DATA
    _ZTSN21CosNotifyChannelAdmin21_objref_ProxyConsumerE @4373 DATA
    _ZTSN21CosNotifyChannelAdmin21_objref_ProxySupplierE @4374 DATA
    _ZTSN21CosNotifyChannelAdmin21_objref_SupplierAdminE @4375 DATA
    _ZTSN21CosNotifyChannelAdmin22_pof_ProxyPullConsumerE @4376 DATA
    _ZTSN21CosNotifyChannelAdmin22_pof_ProxyPullSupplierE @4377 DATA
    _ZTSN21CosNotifyChannelAdmin22_pof_ProxyPushConsumerE @4378 DATA
    _ZTSN21CosNotifyChannelAdmin22_pof_ProxyPushSupplierE @4379 DATA
    _ZTSN21CosNotifyChannelAdmin23ConnectionAlreadyActiveE @4380 DATA
    _ZTSN21CosNotifyChannelAdmin23_impl_ProxyPullConsumerE @4381 DATA
    _ZTSN21CosNotifyChannelAdmin23_impl_ProxyPullSupplierE @4382 DATA
    _ZTSN21CosNotifyChannelAdmin23_impl_ProxyPushConsumerE @4383 DATA
    _ZTSN21CosNotifyChannelAdmin23_impl_ProxyPushSupplierE @4384 DATA
    _ZTSN21CosNotifyChannelAdmin24_pof_EventChannelFactoryE @4385 DATA
    _ZTSN21CosNotifyChannelAdmin25ConnectionAlreadyInactiveE @4386 DATA
    _ZTSN21CosNotifyChannelAdmin25_impl_EventChannelFactoryE @4387 DATA
    _ZTSN21CosNotifyChannelAdmin25_objref_ProxyPullConsumerE @4388 DATA
    _ZTSN21CosNotifyChannelAdmin25_objref_ProxyPullSupplierE @4389 DATA
    _ZTSN21CosNotifyChannelAdmin25_objref_ProxyPushConsumerE @4390 DATA
    _ZTSN21CosNotifyChannelAdmin25_objref_ProxyPushSupplierE @4391 DATA
    _ZTSN21CosNotifyChannelAdmin27_objref_EventChannelFactoryE @4392 DATA
    _ZTSN21CosNotifyChannelAdmin30_pof_SequenceProxyPullConsumerE @4393 DATA
    _ZTSN21CosNotifyChannelAdmin30_pof_SequenceProxyPullSupplierE @4394 DATA
    _ZTSN21CosNotifyChannelAdmin30_pof_SequenceProxyPushConsumerE @4395 DATA
    _ZTSN21CosNotifyChannelAdmin30_pof_SequenceProxyPushSupplierE @4396 DATA
    _ZTSN21CosNotifyChannelAdmin31_impl_SequenceProxyPullConsumerE @4397 DATA
    _ZTSN21CosNotifyChannelAdmin31_impl_SequenceProxyPullSupplierE @4398 DATA
    _ZTSN21CosNotifyChannelAdmin31_impl_SequenceProxyPushConsumerE @4399 DATA
    _ZTSN21CosNotifyChannelAdmin31_impl_SequenceProxyPushSupplierE @4400 DATA
    _ZTSN21CosNotifyChannelAdmin32_pof_StructuredProxyPullConsumerE @4401 DATA
    _ZTSN21CosNotifyChannelAdmin32_pof_StructuredProxyPullSupplierE @4402 DATA
    _ZTSN21CosNotifyChannelAdmin32_pof_StructuredProxyPushConsumerE @4403 DATA
    _ZTSN21CosNotifyChannelAdmin32_pof_StructuredProxyPushSupplierE @4404 DATA
    _ZTSN21CosNotifyChannelAdmin33_impl_StructuredProxyPullConsumerE @4405 DATA
    _ZTSN21CosNotifyChannelAdmin33_impl_StructuredProxyPullSupplierE @4406 DATA
    _ZTSN21CosNotifyChannelAdmin33_impl_StructuredProxyPushConsumerE @4407 DATA
    _ZTSN21CosNotifyChannelAdmin33_impl_StructuredProxyPushSupplierE @4408 DATA
    _ZTSN21CosNotifyChannelAdmin33_objref_SequenceProxyPullConsumerE @4409 DATA
    _ZTSN21CosNotifyChannelAdmin33_objref_SequenceProxyPullSupplierE @4410 DATA
    _ZTSN21CosNotifyChannelAdmin33_objref_SequenceProxyPushConsumerE @4411 DATA
    _ZTSN21CosNotifyChannelAdmin33_objref_SequenceProxyPushSupplierE @4412 DATA
    _ZTSN21CosNotifyChannelAdmin35_objref_StructuredProxyPullConsumerE @4413 DATA
    _ZTSN21CosNotifyChannelAdmin35_objref_StructuredProxyPullSupplierE @4414 DATA
    _ZTSN21CosNotifyChannelAdmin35_objref_StructuredProxyPushConsumerE @4415 DATA
    _ZTSN21CosNotifyChannelAdmin35_objref_StructuredProxyPushSupplierE @4416 DATA
    _ZTSN24POA_CosEventChannelAdmin12EventChannelE @4417 DATA
    _ZTSN24POA_CosEventChannelAdmin13ConsumerAdminE @4418 DATA
    _ZTSN24POA_CosEventChannelAdmin13SupplierAdminE @4419 DATA
    _ZTSN24POA_CosEventChannelAdmin17ProxyPullConsumerE @4420 DATA
    _ZTSN24POA_CosEventChannelAdmin17ProxyPullSupplierE @4421 DATA
    _ZTSN24POA_CosEventChannelAdmin17ProxyPushConsumerE @4422 DATA
    _ZTSN24POA_CosEventChannelAdmin17ProxyPushSupplierE @4423 DATA
    _ZTSN25POA_CosNotifyChannelAdmin12EventChannelE @4424 DATA
    _ZTSN25POA_CosNotifyChannelAdmin13ConsumerAdminE @4425 DATA
    _ZTSN25POA_CosNotifyChannelAdmin13ProxyConsumerE @4426 DATA
    _ZTSN25POA_CosNotifyChannelAdmin13ProxySupplierE @4427 DATA
    _ZTSN25POA_CosNotifyChannelAdmin13SupplierAdminE @4428 DATA
    _ZTSN25POA_CosNotifyChannelAdmin17ProxyPullConsumerE @4429 DATA
    _ZTSN25POA_CosNotifyChannelAdmin17ProxyPullSupplierE @4430 DATA
    _ZTSN25POA_CosNotifyChannelAdmin17ProxyPushConsumerE @4431 DATA
    _ZTSN25POA_CosNotifyChannelAdmin17ProxyPushSupplierE @4432 DATA
    _ZTSN25POA_CosNotifyChannelAdmin19EventChannelFactoryE @4433 DATA
    _ZTSN25POA_CosNotifyChannelAdmin25SequenceProxyPullConsumerE @4434 DATA
    _ZTSN25POA_CosNotifyChannelAdmin25SequenceProxyPullSupplierE @4435 DATA
    _ZTSN25POA_CosNotifyChannelAdmin25SequenceProxyPushConsumerE @4436 DATA
    _ZTSN25POA_CosNotifyChannelAdmin25SequenceProxyPushSupplierE @4437 DATA
    _ZTSN25POA_CosNotifyChannelAdmin27StructuredProxyPullConsumerE @4438 DATA
    _ZTSN25POA_CosNotifyChannelAdmin27StructuredProxyPullSupplierE @4439 DATA
    _ZTSN25POA_CosNotifyChannelAdmin27StructuredProxyPushConsumerE @4440 DATA
    _ZTSN25POA_CosNotifyChannelAdmin27StructuredProxyPushSupplierE @4441 DATA
    _ZTSN4omni18proxyObjectFactoryE @4442 DATA
    _ZTSN5CORBA13UserExceptionE @4443 DATA
    _ZTSN5CORBA6ObjectE @4444 DATA
    _ZTSN5CORBA9ExceptionE @4445 DATA
    _ZTSN7CosTime11_objref_TIOE @4446 DATA
    _ZTSN7CosTime11_objref_UTOE @4447 DATA
    _ZTSN7CosTime15TimeUnavailableE @4448 DATA
    _ZTSN7CosTime16_pof_TimeServiceE @4449 DATA
    _ZTSN7CosTime17_impl_TimeServiceE @4450 DATA
    _ZTSN7CosTime19_objref_TimeServiceE @4451 DATA
    _ZTSN7CosTime8_pof_TIOE @4452 DATA
    _ZTSN7CosTime8_pof_UTOE @4453 DATA
    _ZTSN7CosTime9_impl_TIOE @4454 DATA
    _ZTSN7CosTime9_impl_UTOE @4455 DATA
    _ZTTN11POA_CosTime11TimeServiceE @4456 DATA
    _ZTTN11POA_CosTime3TIOE @4457 DATA
    _ZTTN11POA_CosTime3UTOE @4458 DATA
    _ZTTN12CosEventComm18_impl_PullConsumerE @4459 DATA
    _ZTTN12CosEventComm18_impl_PullSupplierE @4460 DATA
    _ZTTN12CosEventComm18_impl_PushConsumerE @4461 DATA
    _ZTTN12CosEventComm18_impl_PushSupplierE @4462 DATA
    _ZTTN12CosEventComm20_objref_PullConsumerE @4463 DATA
    _ZTTN12CosEventComm20_objref_PullSupplierE @4464 DATA
    _ZTTN12CosEventComm20_objref_PushConsumerE @4465 DATA
    _ZTTN12CosEventComm20_objref_PushSupplierE @4466 DATA
    _ZTTN12CosLifeCycle19_impl_FactoryFinderE @4467 DATA
    _ZTTN12CosLifeCycle20_impl_GenericFactoryE @4468 DATA
    _ZTTN12CosLifeCycle21_impl_LifeCycleObjectE @4469 DATA
    _ZTTN12CosLifeCycle21_objref_FactoryFinderE @4470 DATA
    _ZTTN12CosLifeCycle22_objref_GenericFactoryE @4471 DATA
    _ZTTN12CosLifeCycle23_objref_LifeCycleObjectE @4472 DATA
    _ZTTN13CosNotifyComm18_impl_PullConsumerE @4473 DATA
    _ZTTN13CosNotifyComm18_impl_PullSupplierE @4474 DATA
    _ZTTN13CosNotifyComm18_impl_PushConsumerE @4475 DATA
    _ZTTN13CosNotifyComm18_impl_PushSupplierE @4476 DATA
    _ZTTN13CosNotifyComm19_impl_NotifyPublishE @4477 DATA
    _ZTTN13CosNotifyComm20_objref_PullConsumerE @4478 DATA
    _ZTTN13CosNotifyComm20_objref_PullSupplierE @4479 DATA
    _ZTTN13CosNotifyComm20_objref_PushConsumerE @4480 DATA
    _ZTTN13CosNotifyComm20_objref_PushSupplierE @4481 DATA
    _ZTTN13CosNotifyComm21_impl_NotifySubscribeE @4482 DATA
    _ZTTN13CosNotifyComm21_objref_NotifyPublishE @4483 DATA
    _ZTTN13CosNotifyComm23_objref_NotifySubscribeE @4484 DATA
    _ZTTN13CosNotifyComm26_impl_SequencePullConsumerE @4485 DATA
    _ZTTN13CosNotifyComm26_impl_SequencePullSupplierE @4486 DATA
    _ZTTN13CosNotifyComm26_impl_SequencePushConsumerE @4487 DATA
    _ZTTN13CosNotifyComm26_impl_SequencePushSupplierE @4488 DATA
    _ZTTN13CosNotifyComm28_impl_StructuredPullConsumerE @4489 DATA
    _ZTTN13CosNotifyComm28_impl_StructuredPullSupplierE @4490 DATA
    _ZTTN13CosNotifyComm28_impl_StructuredPushConsumerE @4491 DATA
    _ZTTN13CosNotifyComm28_impl_StructuredPushSupplierE @4492 DATA
    _ZTTN13CosNotifyComm28_objref_SequencePullConsumerE @4493 DATA
    _ZTTN13CosNotifyComm28_objref_SequencePullSupplierE @4494 DATA
    _ZTTN13CosNotifyComm28_objref_SequencePushConsumerE @4495 DATA
    _ZTTN13CosNotifyComm28_objref_SequencePushSupplierE @4496 DATA
    _ZTTN13CosNotifyComm30_objref_StructuredPullConsumerE @4497 DATA
    _ZTTN13CosNotifyComm30_objref_StructuredPullSupplierE @4498 DATA
    _ZTTN13CosNotifyComm30_objref_StructuredPushConsumerE @4499 DATA
    _ZTTN13CosNotifyComm30_objref_StructuredPushSupplierE @4500 DATA
    _ZTTN15CosNotification14_impl_QoSAdminE @4501 DATA
    _ZTTN15CosNotification16_objref_QoSAdminE @4502 DATA
    _ZTTN15CosNotification26_impl_AdminPropertiesAdminE @4503 DATA
    _ZTTN15CosNotification28_objref_AdminPropertiesAdminE @4504 DATA
    _ZTTN15CosNotifyFilter12_impl_FilterE @4505 DATA
    _ZTTN15CosNotifyFilter14_objref_FilterE @4506 DATA
    _ZTTN15CosNotifyFilter17_impl_FilterAdminE @4507 DATA
    _ZTTN15CosNotifyFilter19_impl_FilterFactoryE @4508 DATA
    _ZTTN15CosNotifyFilter19_impl_MappingFilterE @4509 DATA
    _ZTTN15CosNotifyFilter19_objref_FilterAdminE @4510 DATA
    _ZTTN15CosNotifyFilter21_objref_FilterFactoryE @4511 DATA
    _ZTTN15CosNotifyFilter21_objref_MappingFilterE @4512 DATA
    _ZTTN16POA_CosEventComm12PullConsumerE @4513 DATA
    _ZTTN16POA_CosEventComm12PullSupplierE @4514 DATA
    _ZTTN16POA_CosEventComm12PushConsumerE @4515 DATA
    _ZTTN16POA_CosEventComm12PushSupplierE @4516 DATA
    _ZTTN16POA_CosLifeCycle13FactoryFinderE @4517 DATA
    _ZTTN16POA_CosLifeCycle14GenericFactoryE @4518 DATA
    _ZTTN16POA_CosLifeCycle15LifeCycleObjectE @4519 DATA
    _ZTTN17POA_CosNotifyComm12PullConsumerE @4520 DATA
    _ZTTN17POA_CosNotifyComm12PullSupplierE @4521 DATA
    _ZTTN17POA_CosNotifyComm12PushConsumerE @4522 DATA
    _ZTTN17POA_CosNotifyComm12PushSupplierE @4523 DATA
    _ZTTN17POA_CosNotifyComm13NotifyPublishE @4524 DATA
    _ZTTN17POA_CosNotifyComm15NotifySubscribeE @4525 DATA
    _ZTTN17POA_CosNotifyComm20SequencePullConsumerE @4526 DATA
    _ZTTN17POA_CosNotifyComm20SequencePullSupplierE @4527 DATA
    _ZTTN17POA_CosNotifyComm20SequencePushConsumerE @4528 DATA
    _ZTTN17POA_CosNotifyComm20SequencePushSupplierE @4529 DATA
    _ZTTN17POA_CosNotifyComm22StructuredPullConsumerE @4530 DATA
    _ZTTN17POA_CosNotifyComm22StructuredPullSupplierE @4531 DATA
    _ZTTN17POA_CosNotifyComm22StructuredPushConsumerE @4532 DATA
    _ZTTN17POA_CosNotifyComm22StructuredPushSupplierE @4533 DATA
    _ZTTN19POA_CosNotification20AdminPropertiesAdminE @4534 DATA
    _ZTTN19POA_CosNotification8QoSAdminE @4535 DATA
    _ZTTN19POA_CosNotifyFilter11FilterAdminE @4536 DATA
    _ZTTN19POA_CosNotifyFilter13FilterFactoryE @4537 DATA
    _ZTTN19POA_CosNotifyFilter13MappingFilterE @4538 DATA
    _ZTTN19POA_CosNotifyFilter6FilterE @4539 DATA
    _ZTTN20CosEventChannelAdmin18_impl_EventChannelE @4540 DATA
    _ZTTN20CosEventChannelAdmin19_impl_ConsumerAdminE @4541 DATA
    _ZTTN20CosEventChannelAdmin19_impl_SupplierAdminE @4542 DATA
    _ZTTN20CosEventChannelAdmin20_objref_EventChannelE @4543 DATA
    _ZTTN20CosEventChannelAdmin21_objref_ConsumerAdminE @4544 DATA
    _ZTTN20CosEventChannelAdmin21_objref_SupplierAdminE @4545 DATA
    _ZTTN20CosEventChannelAdmin23_impl_ProxyPullConsumerE @4546 DATA
    _ZTTN20CosEventChannelAdmin23_impl_ProxyPullSupplierE @4547 DATA
    _ZTTN20CosEventChannelAdmin23_impl_ProxyPushConsumerE @4548 DATA
    _ZTTN20CosEventChannelAdmin23_impl_ProxyPushSupplierE @4549 DATA
    _ZTTN20CosEventChannelAdmin25_objref_ProxyPullConsumerE @4550 DATA
    _ZTTN20CosEventChannelAdmin25_objref_ProxyPullSupplierE @4551 DATA
    _ZTTN20CosEventChannelAdmin25_objref_ProxyPushConsumerE @4552 DATA
    _ZTTN20CosEventChannelAdmin25_objref_ProxyPushSupplierE @4553 DATA
    _ZTTN21CosNotifyChannelAdmin18_impl_EventChannelE @4554 DATA
    _ZTTN21CosNotifyChannelAdmin19_impl_ConsumerAdminE @4555 DATA
    _ZTTN21CosNotifyChannelAdmin19_impl_ProxyConsumerE @4556 DATA
    _ZTTN21CosNotifyChannelAdmin19_impl_ProxySupplierE @4557 DATA
    _ZTTN21CosNotifyChannelAdmin19_impl_SupplierAdminE @4558 DATA
    _ZTTN21CosNotifyChannelAdmin20_objref_EventChannelE @4559 DATA
    _ZTTN21CosNotifyChannelAdmin21_objref_ConsumerAdminE @4560 DATA
    _ZTTN21CosNotifyChannelAdmin21_objref_ProxyConsumerE @4561 DATA
    _ZTTN21CosNotifyChannelAdmin21_objref_ProxySupplierE @4562 DATA
    _ZTTN21CosNotifyChannelAdmin21_objref_SupplierAdminE @4563 DATA
    _ZTTN21CosNotifyChannelAdmin23_impl_ProxyPullConsumerE @4564 DATA
    _ZTTN21CosNotifyChannelAdmin23_impl_ProxyPullSupplierE @4565 DATA
    _ZTTN21CosNotifyChannelAdmin23_impl_ProxyPushConsumerE @4566 DATA
    _ZTTN21CosNotifyChannelAdmin23_impl_ProxyPushSupplierE @4567 DATA
    _ZTTN21CosNotifyChannelAdmin25_impl_EventChannelFactoryE @4568 DATA
    _ZTTN21CosNotifyChannelAdmin25_objref_ProxyPullConsumerE @4569 DATA
    _ZTTN21CosNotifyChannelAdmin25_objref_ProxyPullSupplierE @4570 DATA
    _ZTTN21CosNotifyChannelAdmin25_objref_ProxyPushConsumerE @4571 DATA
    _ZTTN21CosNotifyChannelAdmin25_objref_ProxyPushSupplierE @4572 DATA
    _ZTTN21CosNotifyChannelAdmin27_objref_EventChannelFactoryE @4573 DATA
    _ZTTN21CosNotifyChannelAdmin31_impl_SequenceProxyPullConsumerE @4574 DATA
    _ZTTN21CosNotifyChannelAdmin31_impl_SequenceProxyPullSupplierE @4575 DATA
    _ZTTN21CosNotifyChannelAdmin31_impl_SequenceProxyPushConsumerE @4576 DATA
    _ZTTN21CosNotifyChannelAdmin31_impl_SequenceProxyPushSupplierE @4577 DATA
    _ZTTN21CosNotifyChannelAdmin33_impl_StructuredProxyPullConsumerE @4578 DATA
    _ZTTN21CosNotifyChannelAdmin33_impl_StructuredProxyPullSupplierE @4579 DATA
    _ZTTN21CosNotifyChannelAdmin33_impl_StructuredProxyPushConsumerE @4580 DATA
    _ZTTN21CosNotifyChannelAdmin33_impl_StructuredProxyPushSupplierE @4581 DATA
    _ZTTN21CosNotifyChannelAdmin33_objref_SequenceProxyPullConsumerE @4582 DATA
    _ZTTN21CosNotifyChannelAdmin33_objref_SequenceProxyPullSupplierE @4583 DATA
    _ZTTN21CosNotifyChannelAdmin33_objref_SequenceProxyPushConsumerE @4584 DATA
    _ZTTN21CosNotifyChannelAdmin33_objref_SequenceProxyPushSupplierE @4585 DATA
    _ZTTN21CosNotifyChannelAdmin35_objref_StructuredProxyPullConsumerE @4586 DATA
    _ZTTN21CosNotifyChannelAdmin35_objref_StructuredProxyPullSupplierE @4587 DATA
    _ZTTN21CosNotifyChannelAdmin35_objref_StructuredProxyPushConsumerE @4588 DATA
    _ZTTN21CosNotifyChannelAdmin35_objref_StructuredProxyPushSupplierE @4589 DATA
    _ZTTN24POA_CosEventChannelAdmin12EventChannelE @4590 DATA
    _ZTTN24POA_CosEventChannelAdmin13ConsumerAdminE @4591 DATA
    _ZTTN24POA_CosEventChannelAdmin13SupplierAdminE @4592 DATA
    _ZTTN24POA_CosEventChannelAdmin17ProxyPullConsumerE @4593 DATA
    _ZTTN24POA_CosEventChannelAdmin17ProxyPullSupplierE @4594 DATA
    _ZTTN24POA_CosEventChannelAdmin17ProxyPushConsumerE @4595 DATA
    _ZTTN24POA_CosEventChannelAdmin17ProxyPushSupplierE @4596 DATA
    _ZTTN25POA_CosNotifyChannelAdmin12EventChannelE @4597 DATA
    _ZTTN25POA_CosNotifyChannelAdmin13ConsumerAdminE @4598 DATA
    _ZTTN25POA_CosNotifyChannelAdmin13ProxyConsumerE @4599 DATA
    _ZTTN25POA_CosNotifyChannelAdmin13ProxySupplierE @4600 DATA
    _ZTTN25POA_CosNotifyChannelAdmin13SupplierAdminE @4601 DATA
    _ZTTN25POA_CosNotifyChannelAdmin17ProxyPullConsumerE @4602 DATA
    _ZTTN25POA_CosNotifyChannelAdmin17ProxyPullSupplierE @4603 DATA
    _ZTTN25POA_CosNotifyChannelAdmin17ProxyPushConsumerE @4604 DATA
    _ZTTN25POA_CosNotifyChannelAdmin17ProxyPushSupplierE @4605 DATA
    _ZTTN25POA_CosNotifyChannelAdmin19EventChannelFactoryE @4606 DATA
    _ZTTN25POA_CosNotifyChannelAdmin25SequenceProxyPullConsumerE @4607 DATA
    _ZTTN25POA_CosNotifyChannelAdmin25SequenceProxyPullSupplierE @4608 DATA
    _ZTTN25POA_CosNotifyChannelAdmin25SequenceProxyPushConsumerE @4609 DATA
    _ZTTN25POA_CosNotifyChannelAdmin25SequenceProxyPushSupplierE @4610 DATA
    _ZTTN25POA_CosNotifyChannelAdmin27StructuredProxyPullConsumerE @4611 DATA
    _ZTTN25POA_CosNotifyChannelAdmin27StructuredProxyPullSupplierE @4612 DATA
    _ZTTN25POA_CosNotifyChannelAdmin27StructuredProxyPushConsumerE @4613 DATA
    _ZTTN25POA_CosNotifyChannelAdmin27StructuredProxyPushSupplierE @4614 DATA
    _ZTTN7CosTime11_objref_TIOE @4615 DATA
    _ZTTN7CosTime11_objref_UTOE @4616 DATA
    _ZTTN7CosTime17_impl_TimeServiceE @4617 DATA
    _ZTTN7CosTime19_objref_TimeServiceE @4618 DATA
    _ZTTN7CosTime9_impl_TIOE @4619 DATA
    _ZTTN7CosTime9_impl_UTOE @4620 DATA
    _ZTV33_0RL_cd_1FE8F330207AFD15_00000000 @4621 DATA
    _ZTV33_0RL_cd_1FE8F330207AFD15_03000000 @4622 DATA
    _ZTV33_0RL_cd_1FE8F330207AFD15_11000000 @4623 DATA
    _ZTV33_0RL_cd_1FE8F330207AFD15_20000000 @4624 DATA
    _ZTV33_0RL_cd_1FE8F330207AFD15_23000000 @4625 DATA
    _ZTV33_0RL_cd_1FE8F330207AFD15_31000000 @4626 DATA
    _ZTV33_0RL_cd_1FE8F330207AFD15_32000000 @4627 DATA
    _ZTV33_0RL_cd_1FE8F330207AFD15_40000000 @4628 DATA
    _ZTV33_0RL_cd_1FE8F330207AFD15_43000000 @4629 DATA
    _ZTV33_0RL_cd_1FE8F330207AFD15_51000000 @4630 DATA
    _ZTV33_0RL_cd_1FE8F330207AFD15_52000000 @4631 DATA
    _ZTV33_0RL_cd_1FE8F330207AFD15_60000000 @4632 DATA
    _ZTV33_0RL_cd_1FE8F330207AFD15_63000000 @4633 DATA
    _ZTV33_0RL_cd_1FE8F330207AFD15_71000000 @4634 DATA
    _ZTV33_0RL_cd_1FE8F330207AFD15_72000000 @4635 DATA
    _ZTV33_0RL_cd_1FE8F330207AFD15_80000000 @4636 DATA
    _ZTV33_0RL_cd_1FE8F330207AFD15_83000000 @4637 DATA
    _ZTV33_0RL_cd_1FE8F330207AFD15_91000000 @4638 DATA
    _ZTV33_0RL_cd_1FE8F330207AFD15_a2000000 @4639 DATA
    _ZTV33_0RL_cd_1FE8F330207AFD15_b0000000 @4640 DATA
    _ZTV33_0RL_cd_1FE8F330207AFD15_b1000000 @4641 DATA
    _ZTV33_0RL_cd_1FE8F330207AFD15_c2000000 @4642 DATA
    _ZTV33_0RL_cd_1FE8F330207AFD15_d0000000 @4643 DATA
    _ZTV33_0RL_cd_1FE8F330207AFD15_d1000000 @4644 DATA
    _ZTV33_0RL_cd_1FE8F330207AFD15_e2000000 @4645 DATA
    _ZTV33_0RL_cd_1FE8F330207AFD15_f0000000 @4646 DATA
    _ZTV33_0RL_cd_1FE8F330207AFD15_f1000000 @4647 DATA
    _ZTV33_0RL_cd_25B2B9DD5B4AD98D_00000000 @4648 DATA
    _ZTV33_0RL_cd_25B2B9DD5B4AD98D_20000000 @4649 DATA
    _ZTV33_0RL_cd_25B2B9DD5B4AD98D_40000000 @4650 DATA
    _ZTV33_0RL_cd_25B2B9DD5B4AD98D_60000000 @4651 DATA
    _ZTV33_0RL_cd_25B2B9DD5B4AD98D_80000000 @4652 DATA
    _ZTV33_0RL_cd_25B2B9DD5B4AD98D_a0000000 @4653 DATA
    _ZTV33_0RL_cd_4B6B86183777B6C2_00000000 @4654 DATA
    _ZTV33_0RL_cd_4B6B86183777B6C2_21000000 @4655 DATA
    _ZTV33_0RL_cd_4B6B86183777B6C2_30000000 @4656 DATA
    _ZTV33_0RL_cd_4B6B86183777B6C2_41000000 @4657 DATA
    _ZTV33_0RL_cd_4B6B86183777B6C2_50000000 @4658 DATA
    _ZTV33_0RL_cd_4B6B86183777B6C2_80000000 @4659 DATA
    _ZTV33_0RL_cd_4B6B86183777B6C2_a0000000 @4660 DATA
    _ZTV33_0RL_cd_4B6B86183777B6C2_e0000000 @4661 DATA
    _ZTV33_0RL_cd_8B6214F5B3100E7E_00000000 @4662 DATA
    _ZTV33_0RL_cd_8B6214F5B3100E7E_20000000 @4663 DATA
    _ZTV33_0RL_cd_8B6214F5B3100E7E_40000000 @4664 DATA
    _ZTV33_0RL_cd_8B6214F5B3100E7E_70000000 @4665 DATA
    _ZTV33_0RL_cd_9043E11A9721DAB3_00000000 @4666 DATA
    _ZTV33_0RL_cd_9043E11A9721DAB3_04000000 @4667 DATA
    _ZTV33_0RL_cd_9043E11A9721DAB3_06000000 @4668 DATA
    _ZTV33_0RL_cd_9043E11A9721DAB3_12000000 @4669 DATA
    _ZTV33_0RL_cd_9043E11A9721DAB3_13000000 @4670 DATA
    _ZTV33_0RL_cd_9043E11A9721DAB3_20000000 @4671 DATA
    _ZTV33_0RL_cd_9043E11A9721DAB3_24000000 @4672 DATA
    _ZTV33_0RL_cd_9043E11A9721DAB3_31000000 @4673 DATA
    _ZTV33_0RL_cd_9043E11A9721DAB3_32000000 @4674 DATA
    _ZTV33_0RL_cd_9043E11A9721DAB3_36000000 @4675 DATA
    _ZTV33_0RL_cd_9043E11A9721DAB3_40000000 @4676 DATA
    _ZTV33_0RL_cd_9043E11A9721DAB3_44000000 @4677 DATA
    _ZTV33_0RL_cd_9043E11A9721DAB3_51000000 @4678 DATA
    _ZTV33_0RL_cd_9043E11A9721DAB3_52000000 @4679 DATA
    _ZTV33_0RL_cd_9043E11A9721DAB3_53000000 @4680 DATA
    _ZTV33_0RL_cd_9043E11A9721DAB3_60000000 @4681 DATA
    _ZTV33_0RL_cd_9043E11A9721DAB3_71000000 @4682 DATA
    _ZTV33_0RL_cd_9043E11A9721DAB3_76000000 @4683 DATA
    _ZTV33_0RL_cd_9043E11A9721DAB3_85000000 @4684 DATA
    _ZTV33_0RL_cd_9043E11A9721DAB3_91000000 @4685 DATA
    _ZTV33_0RL_cd_9043E11A9721DAB3_92000000 @4686 DATA
    _ZTV33_0RL_cd_9043E11A9721DAB3_93000000 @4687 DATA
    _ZTV33_0RL_cd_9043E11A9721DAB3_96000000 @4688 DATA
    _ZTV33_0RL_cd_9043E11A9721DAB3_a4000000 @4689 DATA
    _ZTV33_0RL_cd_9043E11A9721DAB3_a5000000 @4690 DATA
    _ZTV33_0RL_cd_9043E11A9721DAB3_b0000000 @4691 DATA
    _ZTV33_0RL_cd_9043E11A9721DAB3_b1000000 @4692 DATA
    _ZTV33_0RL_cd_9043E11A9721DAB3_b3000000 @4693 DATA
    _ZTV33_0RL_cd_9043E11A9721DAB3_b6000000 @4694 DATA
    _ZTV33_0RL_cd_9043E11A9721DAB3_c5000000 @4695 DATA
    _ZTV33_0RL_cd_9043E11A9721DAB3_d0000000 @4696 DATA
    _ZTV33_0RL_cd_9043E11A9721DAB3_d1000000 @4697 DATA
    _ZTV33_0RL_cd_9043E11A9721DAB3_d2000000 @4698 DATA
    _ZTV33_0RL_cd_9043E11A9721DAB3_d4000000 @4699 DATA
    _ZTV33_0RL_cd_9043E11A9721DAB3_d6000000 @4700 DATA
    _ZTV33_0RL_cd_9043E11A9721DAB3_e3000000 @4701 DATA
    _ZTV33_0RL_cd_9043E11A9721DAB3_e5000000 @4702 DATA
    _ZTV33_0RL_cd_9043E11A9721DAB3_f0000000 @4703 DATA
    _ZTV33_0RL_cd_9043E11A9721DAB3_f1000000 @4704 DATA
    _ZTV33_0RL_cd_9043E11A9721DAB3_f4000000 @4705 DATA
    _ZTV33_0RL_cd_99DFF546EA0F9974_00000000 @4706 DATA
    _ZTV33_0RL_cd_99DFF546EA0F9974_11000000 @4707 DATA
    _ZTV33_0RL_cd_99DFF546EA0F9974_20000000 @4708 DATA
    _ZTV33_0RL_cd_99DFF546EA0F9974_40000000 @4709 DATA
    _ZTV33_0RL_cd_99DFF546EA0F9974_41000000 @4710 DATA
    _ZTV33_0RL_cd_99DFF546EA0F9974_60000000 @4711 DATA
    _ZTV33_0RL_cd_99DFF546EA0F9974_61000000 @4712 DATA
    _ZTV33_0RL_cd_99DFF546EA0F9974_80000000 @4713 DATA
    _ZTV33_0RL_cd_99DFF546EA0F9974_91000000 @4714 DATA
    _ZTV33_0RL_cd_99DFF546EA0F9974_b0000000 @4715 DATA
    _ZTV33_0RL_cd_99DFF546EA0F9974_b1000000 @4716 DATA
    _ZTV33_0RL_cd_99DFF546EA0F9974_d0000000 @4717 DATA
    _ZTV33_0RL_cd_99DFF546EA0F9974_d1000000 @4718 DATA
    _ZTV33_0RL_cd_99DFF546EA0F9974_f0000000 @4719 DATA
    _ZTV33_0RL_cd_BD959CC57B2E138F_00000000 @4720 DATA
    _ZTV33_0RL_cd_BD959CC57B2E138F_20000000 @4721 DATA
    _ZTV33_0RL_cd_BD959CC57B2E138F_50000000 @4722 DATA
    _ZTV33_0RL_cd_BD959CC57B2E138F_70000000 @4723 DATA
    _ZTV33_0RL_cd_F894C8374A428E70_00000000 @4724 DATA
    _ZTV33_0RL_cd_F894C8374A428E70_01000000 @4725 DATA
    _ZTV33_0RL_cd_F894C8374A428E70_20000000 @4726 DATA
    _ZTV33_0RL_cd_F894C8374A428E70_21000000 @4727 DATA
    _ZTV33_0RL_cd_F894C8374A428E70_40000000 @4728 DATA
    _ZTV33_0RL_cd_F894C8374A428E70_41000000 @4729 DATA
    _ZTV33_0RL_cd_F894C8374A428E70_60000000 @4730 DATA
    _ZTV33_0RL_cd_F894C8374A428E70_80000000 @4731 DATA
    _ZTV33_0RL_cd_F894C8374A428E70_a0000000 @4732 DATA
    _ZTV33_0RL_cd_F894C8374A428E70_c0000000 @4733 DATA
    _ZTV33_0RL_cd_F894C8374A428E70_e0000000 @4734 DATA
    _ZTVN11POA_CosTime11TimeServiceE @4735 DATA
    _ZTVN11POA_CosTime3TIOE @4736 DATA
    _ZTVN11POA_CosTime3UTOE @4737 DATA
    _ZTVN12CosEventComm12DisconnectedE @4738 DATA
    _ZTVN12CosEventComm17_pof_PullConsumerE @4739 DATA
    _ZTVN12CosEventComm17_pof_PullSupplierE @4740 DATA
    _ZTVN12CosEventComm17_pof_PushConsumerE @4741 DATA
    _ZTVN12CosEventComm17_pof_PushSupplierE @4742 DATA
    _ZTVN12CosEventComm18_impl_PullConsumerE @4743 DATA
    _ZTVN12CosEventComm18_impl_PullSupplierE @4744 DATA
    _ZTVN12CosEventComm18_impl_PushConsumerE @4745 DATA
    _ZTVN12CosEventComm18_impl_PushSupplierE @4746 DATA
    _ZTVN12CosEventComm20_objref_PullConsumerE @4747 DATA
    _ZTVN12CosEventComm20_objref_PullSupplierE @4748 DATA
    _ZTVN12CosEventComm20_objref_PushConsumerE @4749 DATA
    _ZTVN12CosEventComm20_objref_PushSupplierE @4750 DATA
    _ZTVN12CosLifeCycle10NotMovableE @4751 DATA
    _ZTVN12CosLifeCycle11NotCopyableE @4752 DATA
    _ZTVN12CosLifeCycle12NotRemovableE @4753 DATA
    _ZTVN12CosLifeCycle15InvalidCriteriaE @4754 DATA
    _ZTVN12CosLifeCycle18CannotMeetCriteriaE @4755 DATA
    _ZTVN12CosLifeCycle18_pof_FactoryFinderE @4756 DATA
    _ZTVN12CosLifeCycle19_impl_FactoryFinderE @4757 DATA
    _ZTVN12CosLifeCycle19_pof_GenericFactoryE @4758 DATA
    _ZTVN12CosLifeCycle20_impl_GenericFactoryE @4759 DATA
    _ZTVN12CosLifeCycle20_pof_LifeCycleObjectE @4760 DATA
    _ZTVN12CosLifeCycle21_impl_LifeCycleObjectE @4761 DATA
    _ZTVN12CosLifeCycle21_objref_FactoryFinderE @4762 DATA
    _ZTVN12CosLifeCycle22_objref_GenericFactoryE @4763 DATA
    _ZTVN12CosLifeCycle23_objref_LifeCycleObjectE @4764 DATA
    _ZTVN12CosLifeCycle9NoFactoryE @4765 DATA
    _ZTVN13CosNotifyComm16InvalidEventTypeE @4766 DATA
    _ZTVN13CosNotifyComm17_pof_PullConsumerE @4767 DATA
    _ZTVN13CosNotifyComm17_pof_PullSupplierE @4768 DATA
    _ZTVN13CosNotifyComm17_pof_PushConsumerE @4769 DATA
    _ZTVN13CosNotifyComm17_pof_PushSupplierE @4770 DATA
    _ZTVN13CosNotifyComm18_impl_PullConsumerE @4771 DATA
    _ZTVN13CosNotifyComm18_impl_PullSupplierE @4772 DATA
    _ZTVN13CosNotifyComm18_impl_PushConsumerE @4773 DATA
    _ZTVN13CosNotifyComm18_impl_PushSupplierE @4774 DATA
    _ZTVN13CosNotifyComm18_pof_NotifyPublishE @4775 DATA
    _ZTVN13CosNotifyComm19_impl_NotifyPublishE @4776 DATA
    _ZTVN13CosNotifyComm20_objref_PullConsumerE @4777 DATA
    _ZTVN13CosNotifyComm20_objref_PullSupplierE @4778 DATA
    _ZTVN13CosNotifyComm20_objref_PushConsumerE @4779 DATA
    _ZTVN13CosNotifyComm20_objref_PushSupplierE @4780 DATA
    _ZTVN13CosNotifyComm20_pof_NotifySubscribeE @4781 DATA
    _ZTVN13CosNotifyComm21_impl_NotifySubscribeE @4782 DATA
    _ZTVN13CosNotifyComm21_objref_NotifyPublishE @4783 DATA
    _ZTVN13CosNotifyComm23_objref_NotifySubscribeE @4784 DATA
    _ZTVN13CosNotifyComm25_pof_SequencePullConsumerE @4785 DATA
    _ZTVN13CosNotifyComm25_pof_SequencePullSupplierE @4786 DATA
    _ZTVN13CosNotifyComm25_pof_SequencePushConsumerE @4787 DATA
    _ZTVN13CosNotifyComm25_pof_SequencePushSupplierE @4788 DATA
    _ZTVN13CosNotifyComm26_impl_SequencePullConsumerE @4789 DATA
    _ZTVN13CosNotifyComm26_impl_SequencePullSupplierE @4790 DATA
    _ZTVN13CosNotifyComm26_impl_SequencePushConsumerE @4791 DATA
    _ZTVN13CosNotifyComm26_impl_SequencePushSupplierE @4792 DATA
    _ZTVN13CosNotifyComm27_pof_StructuredPullConsumerE @4793 DATA
    _ZTVN13CosNotifyComm27_pof_StructuredPullSupplierE @4794 DATA
    _ZTVN13CosNotifyComm27_pof_StructuredPushConsumerE @4795 DATA
    _ZTVN13CosNotifyComm27_pof_StructuredPushSupplierE @4796 DATA
    _ZTVN13CosNotifyComm28_impl_StructuredPullConsumerE @4797 DATA
    _ZTVN13CosNotifyComm28_impl_StructuredPullSupplierE @4798 DATA
    _ZTVN13CosNotifyComm28_impl_StructuredPushConsumerE @4799 DATA
    _ZTVN13CosNotifyComm28_impl_StructuredPushSupplierE @4800 DATA
    _ZTVN13CosNotifyComm28_objref_SequencePullConsumerE @4801 DATA
    _ZTVN13CosNotifyComm28_objref_SequencePullSupplierE @4802 DATA
    _ZTVN13CosNotifyComm28_objref_SequencePushConsumerE @4803 DATA
    _ZTVN13CosNotifyComm28_objref_SequencePushSupplierE @4804 DATA
    _ZTVN13CosNotifyComm30_objref_StructuredPullConsumerE @4805 DATA
    _ZTVN13CosNotifyComm30_objref_StructuredPullSupplierE @4806 DATA
    _ZTVN13CosNotifyComm30_objref_StructuredPushConsumerE @4807 DATA
    _ZTVN13CosNotifyComm30_objref_StructuredPushSupplierE @4808 DATA
    _ZTVN15CosNotification13_pof_QoSAdminE @4809 DATA
    _ZTVN15CosNotification14UnsupportedQoSE @4810 DATA
    _ZTVN15CosNotification14_impl_QoSAdminE @4811 DATA
    _ZTVN15CosNotification16UnsupportedAdminE @4812 DATA
    _ZTVN15CosNotification16_objref_QoSAdminE @4813 DATA
    _ZTVN15CosNotification25_pof_AdminPropertiesAdminE @4814 DATA
    _ZTVN15CosNotification26_impl_AdminPropertiesAdminE @4815 DATA
    _ZTVN15CosNotification28_objref_AdminPropertiesAdminE @4816 DATA
    _ZTVN15CosNotifyFilter11_pof_FilterE @4817 DATA
    _ZTVN15CosNotifyFilter12InvalidValueE @4818 DATA
    _ZTVN15CosNotifyFilter12_impl_FilterE @4819 DATA
    _ZTVN15CosNotifyFilter14FilterNotFoundE @4820 DATA
    _ZTVN15CosNotifyFilter14InvalidGrammarE @4821 DATA
    _ZTVN15CosNotifyFilter14_objref_FilterE @4822 DATA
    _ZTVN15CosNotifyFilter16CallbackNotFoundE @4823 DATA
    _ZTVN15CosNotifyFilter16_pof_FilterAdminE @4824 DATA
    _ZTVN15CosNotifyFilter17InvalidConstraintE @4825 DATA
    _ZTVN15CosNotifyFilter17_impl_FilterAdminE @4826 DATA
    _ZTVN15CosNotifyFilter18ConstraintNotFoundE @4827 DATA
    _ZTVN15CosNotifyFilter18_pof_FilterFactoryE @4828 DATA
    _ZTVN15CosNotifyFilter18_pof_MappingFilterE @4829 DATA
    _ZTVN15CosNotifyFilter19_impl_FilterFactoryE @4830 DATA
    _ZTVN15CosNotifyFilter19_impl_MappingFilterE @4831 DATA
    _ZTVN15CosNotifyFilter19_objref_FilterAdminE @4832 DATA
    _ZTVN15CosNotifyFilter21DuplicateConstraintIDE @4833 DATA
    _ZTVN15CosNotifyFilter21_objref_FilterFactoryE @4834 DATA
    _ZTVN15CosNotifyFilter21_objref_MappingFilterE @4835 DATA
    _ZTVN15CosNotifyFilter25UnsupportedFilterableDataE @4836 DATA
    _ZTVN16POA_CosEventComm12PullConsumerE @4837 DATA
    _ZTVN16POA_CosEventComm12PullSupplierE @4838 DATA
    _ZTVN16POA_CosEventComm12PushConsumerE @4839 DATA
    _ZTVN16POA_CosEventComm12PushSupplierE @4840 DATA
    _ZTVN16POA_CosLifeCycle13FactoryFinderE @4841 DATA
    _ZTVN16POA_CosLifeCycle14GenericFactoryE @4842 DATA
    _ZTVN16POA_CosLifeCycle15LifeCycleObjectE @4843 DATA
    _ZTVN17POA_CosNotifyComm12PullConsumerE @4844 DATA
    _ZTVN17POA_CosNotifyComm12PullSupplierE @4845 DATA
    _ZTVN17POA_CosNotifyComm12PushConsumerE @4846 DATA
    _ZTVN17POA_CosNotifyComm12PushSupplierE @4847 DATA
    _ZTVN17POA_CosNotifyComm13NotifyPublishE @4848 DATA
    _ZTVN17POA_CosNotifyComm15NotifySubscribeE @4849 DATA
    _ZTVN17POA_CosNotifyComm20SequencePullConsumerE @4850 DATA
    _ZTVN17POA_CosNotifyComm20SequencePullSupplierE @4851 DATA
    _ZTVN17POA_CosNotifyComm20SequencePushConsumerE @4852 DATA
    _ZTVN17POA_CosNotifyComm20SequencePushSupplierE @4853 DATA
    _ZTVN17POA_CosNotifyComm22StructuredPullConsumerE @4854 DATA
    _ZTVN17POA_CosNotifyComm22StructuredPullSupplierE @4855 DATA
    _ZTVN17POA_CosNotifyComm22StructuredPushConsumerE @4856 DATA
    _ZTVN17POA_CosNotifyComm22StructuredPushSupplierE @4857 DATA
    _ZTVN19POA_CosNotification20AdminPropertiesAdminE @4858 DATA
    _ZTVN19POA_CosNotification8QoSAdminE @4859 DATA
    _ZTVN19POA_CosNotifyFilter11FilterAdminE @4860 DATA
    _ZTVN19POA_CosNotifyFilter13FilterFactoryE @4861 DATA
    _ZTVN19POA_CosNotifyFilter13MappingFilterE @4862 DATA
    _ZTVN19POA_CosNotifyFilter6FilterE @4863 DATA
    _ZTVN20CosEventChannelAdmin16AlreadyConnectedE @4864 DATA
    _ZTVN20CosEventChannelAdmin17_pof_EventChannelE @4865 DATA
    _ZTVN20CosEventChannelAdmin18_impl_EventChannelE @4866 DATA
    _ZTVN20CosEventChannelAdmin18_pof_ConsumerAdminE @4867 DATA
    _ZTVN20CosEventChannelAdmin18_pof_SupplierAdminE @4868 DATA
    _ZTVN20CosEventChannelAdmin19_impl_ConsumerAdminE @4869 DATA
    _ZTVN20CosEventChannelAdmin19_impl_SupplierAdminE @4870 DATA
    _ZTVN20CosEventChannelAdmin20_objref_EventChannelE @4871 DATA
    _ZTVN20CosEventChannelAdmin21_objref_ConsumerAdminE @4872 DATA
    _ZTVN20CosEventChannelAdmin21_objref_SupplierAdminE @4873 DATA
    _ZTVN20CosEventChannelAdmin22_pof_ProxyPullConsumerE @4874 DATA
    _ZTVN20CosEventChannelAdmin22_pof_ProxyPullSupplierE @4875 DATA
    _ZTVN20CosEventChannelAdmin22_pof_ProxyPushConsumerE @4876 DATA
    _ZTVN20CosEventChannelAdmin22_pof_ProxyPushSupplierE @4877 DATA
    _ZTVN20CosEventChannelAdmin23_impl_ProxyPullConsumerE @4878 DATA
    _ZTVN20CosEventChannelAdmin23_impl_ProxyPullSupplierE @4879 DATA
    _ZTVN20CosEventChannelAdmin23_impl_ProxyPushConsumerE @4880 DATA
    _ZTVN20CosEventChannelAdmin23_impl_ProxyPushSupplierE @4881 DATA
    _ZTVN20CosEventChannelAdmin25_objref_ProxyPullConsumerE @4882 DATA
    _ZTVN20CosEventChannelAdmin25_objref_ProxyPullSupplierE @4883 DATA
    _ZTVN20CosEventChannelAdmin25_objref_ProxyPushConsumerE @4884 DATA
    _ZTVN20CosEventChannelAdmin25_objref_ProxyPushSupplierE @4885 DATA
    _ZTVN20CosEventChannelAdmin9TypeErrorE @4886 DATA
    _ZTVN21CosNotifyChannelAdmin12NotConnectedE @4887 DATA
    _ZTVN21CosNotifyChannelAdmin13AdminNotFoundE @4888 DATA
    _ZTVN21CosNotifyChannelAdmin13ProxyNotFoundE @4889 DATA
    _ZTVN21CosNotifyChannelAdmin15ChannelNotFoundE @4890 DATA
    _ZTVN21CosNotifyChannelAdmin17_pof_EventChannelE @4891 DATA
    _ZTVN21CosNotifyChannelAdmin18AdminLimitExceededE @4892 DATA
    _ZTVN21CosNotifyChannelAdmin18_impl_EventChannelE @4893 DATA
    _ZTVN21CosNotifyChannelAdmin18_pof_ConsumerAdminE @4894 DATA
    _ZTVN21CosNotifyChannelAdmin18_pof_ProxyConsumerE @4895 DATA
    _ZTVN21CosNotifyChannelAdmin18_pof_ProxySupplierE @4896 DATA
    _ZTVN21CosNotifyChannelAdmin18_pof_SupplierAdminE @4897 DATA
    _ZTVN21CosNotifyChannelAdmin19_impl_ConsumerAdminE @4898 DATA
    _ZTVN21CosNotifyChannelAdmin19_impl_ProxyConsumerE @4899 DATA
    _ZTVN21CosNotifyChannelAdmin19_impl_ProxySupplierE @4900 DATA
    _ZTVN21CosNotifyChannelAdmin19_impl_SupplierAdminE @4901 DATA
    _ZTVN21CosNotifyChannelAdmin20_objref_EventChannelE @4902 DATA
    _ZTVN21CosNotifyChannelAdmin21_objref_ConsumerAdminE @4903 DATA
    _ZTVN21CosNotifyChannelAdmin21_objref_ProxyConsumerE @4904 DATA
    _ZTVN21CosNotifyChannelAdmin21_objref_ProxySupplierE @4905 DATA
    _ZTVN21CosNotifyChannelAdmin21_objref_SupplierAdminE @4906 DATA
    _ZTVN21CosNotifyChannelAdmin22_pof_ProxyPullConsumerE @4907 DATA
    _ZTVN21CosNotifyChannelAdmin22_pof_ProxyPullSupplierE @4908 DATA
    _ZTVN21CosNotifyChannelAdmin22_pof_ProxyPushConsumerE @4909 DATA
    _ZTVN21CosNotifyChannelAdmin22_pof_ProxyPushSupplierE @4910 DATA
    _ZTVN21CosNotifyChannelAdmin23ConnectionAlreadyActiveE @4911 DATA
    _ZTVN21CosNotifyChannelAdmin23_impl_ProxyPullConsumerE @4912 DATA
    _ZTVN21CosNotifyChannelAdmin23_impl_ProxyPullSupplierE @4913 DATA
    _ZTVN21CosNotifyChannelAdmin23_impl_ProxyPushConsumerE @4914 DATA
    _ZTVN21CosNotifyChannelAdmin23_impl_ProxyPushSupplierE @4915 DATA
    _ZTVN21CosNotifyChannelAdmin24_pof_EventChannelFactoryE @4916 DATA
    _ZTVN21CosNotifyChannelAdmin25ConnectionAlreadyInactiveE @4917 DATA
    _ZTVN21CosNotifyChannelAdmin25_impl_EventChannelFactoryE @4918 DATA
    _ZTVN21CosNotifyChannelAdmin25_objref_ProxyPullConsumerE @4919 DATA
    _ZTVN21CosNotifyChannelAdmin25_objref_ProxyPullSupplierE @4920 DATA
    _ZTVN21CosNotifyChannelAdmin25_objref_ProxyPushConsumerE @4921 DATA
    _ZTVN21CosNotifyChannelAdmin25_objref_ProxyPushSupplierE @4922 DATA
    _ZTVN21CosNotifyChannelAdmin27_objref_EventChannelFactoryE @4923 DATA
    _ZTVN21CosNotifyChannelAdmin30_pof_SequenceProxyPullConsumerE @4924 DATA
    _ZTVN21CosNotifyChannelAdmin30_pof_SequenceProxyPullSupplierE @4925 DATA
    _ZTVN21CosNotifyChannelAdmin30_pof_SequenceProxyPushConsumerE @4926 DATA
    _ZTVN21CosNotifyChannelAdmin30_pof_SequenceProxyPushSupplierE @4927 DATA
    _ZTVN21CosNotifyChannelAdmin31_impl_SequenceProxyPullConsumerE @4928 DATA
    _ZTVN21CosNotifyChannelAdmin31_impl_SequenceProxyPullSupplierE @4929 DATA
    _ZTVN21CosNotifyChannelAdmin31_impl_SequenceProxyPushConsumerE @4930 DATA
    _ZTVN21CosNotifyChannelAdmin31_impl_SequenceProxyPushSupplierE @4931 DATA
    _ZTVN21CosNotifyChannelAdmin32_pof_StructuredProxyPullConsumerE @4932 DATA
    _ZTVN21CosNotifyChannelAdmin32_pof_StructuredProxyPullSupplierE @4933 DATA
    _ZTVN21CosNotifyChannelAdmin32_pof_StructuredProxyPushConsumerE @4934 DATA
    _ZTVN21CosNotifyChannelAdmin32_pof_StructuredProxyPushSupplierE @4935 DATA
    _ZTVN21CosNotifyChannelAdmin33_impl_StructuredProxyPullConsumerE @4936 DATA
    _ZTVN21CosNotifyChannelAdmin33_impl_StructuredProxyPullSupplierE @4937 DATA
    _ZTVN21CosNotifyChannelAdmin33_impl_StructuredProxyPushConsumerE @4938 DATA
    _ZTVN21CosNotifyChannelAdmin33_impl_StructuredProxyPushSupplierE @4939 DATA
    _ZTVN21CosNotifyChannelAdmin33_objref_SequenceProxyPullConsumerE @4940 DATA
    _ZTVN21CosNotifyChannelAdmin33_objref_SequenceProxyPullSupplierE @4941 DATA
    _ZTVN21CosNotifyChannelAdmin33_objref_SequenceProxyPushConsumerE @4942 DATA
    _ZTVN21CosNotifyChannelAdmin33_objref_SequenceProxyPushSupplierE @4943 DATA
    _ZTVN21CosNotifyChannelAdmin35_objref_StructuredProxyPullConsumerE @4944 DATA
    _ZTVN21CosNotifyChannelAdmin35_objref_StructuredProxyPullSupplierE @4945 DATA
    _ZTVN21CosNotifyChannelAdmin35_objref_StructuredProxyPushConsumerE @4946 DATA
    _ZTVN21CosNotifyChannelAdmin35_objref_StructuredProxyPushSupplierE @4947 DATA
    _ZTVN24POA_CosEventChannelAdmin12EventChannelE @4948 DATA
    _ZTVN24POA_CosEventChannelAdmin13ConsumerAdminE @4949 DATA
    _ZTVN24POA_CosEventChannelAdmin13SupplierAdminE @4950 DATA
    _ZTVN24POA_CosEventChannelAdmin17ProxyPullConsumerE @4951 DATA
    _ZTVN24POA_CosEventChannelAdmin17ProxyPullSupplierE @4952 DATA
    _ZTVN24POA_CosEventChannelAdmin17ProxyPushConsumerE @4953 DATA
    _ZTVN24POA_CosEventChannelAdmin17ProxyPushSupplierE @4954 DATA
    _ZTVN25POA_CosNotifyChannelAdmin12EventChannelE @4955 DATA
    _ZTVN25POA_CosNotifyChannelAdmin13ConsumerAdminE @4956 DATA
    _ZTVN25POA_CosNotifyChannelAdmin13ProxyConsumerE @4957 DATA
    _ZTVN25POA_CosNotifyChannelAdmin13ProxySupplierE @4958 DATA
    _ZTVN25POA_CosNotifyChannelAdmin13SupplierAdminE @4959 DATA
    _ZTVN25POA_CosNotifyChannelAdmin17ProxyPullConsumerE @4960 DATA
    _ZTVN25POA_CosNotifyChannelAdmin17ProxyPullSupplierE @4961 DATA
    _ZTVN25POA_CosNotifyChannelAdmin17ProxyPushConsumerE @4962 DATA
    _ZTVN25POA_CosNotifyChannelAdmin17ProxyPushSupplierE @4963 DATA
    _ZTVN25POA_CosNotifyChannelAdmin19EventChannelFactoryE @4964 DATA
    _ZTVN25POA_CosNotifyChannelAdmin25SequenceProxyPullConsumerE @4965 DATA
    _ZTVN25POA_CosNotifyChannelAdmin25SequenceProxyPullSupplierE @4966 DATA
    _ZTVN25POA_CosNotifyChannelAdmin25SequenceProxyPushConsumerE @4967 DATA
    _ZTVN25POA_CosNotifyChannelAdmin25SequenceProxyPushSupplierE @4968 DATA
    _ZTVN25POA_CosNotifyChannelAdmin27StructuredProxyPullConsumerE @4969 DATA
    _ZTVN25POA_CosNotifyChannelAdmin27StructuredProxyPullSupplierE @4970 DATA
    _ZTVN25POA_CosNotifyChannelAdmin27StructuredProxyPushConsumerE @4971 DATA
    _ZTVN25POA_CosNotifyChannelAdmin27StructuredProxyPushSupplierE @4972 DATA
    _ZTVN7CosTime11_objref_TIOE @4973 DATA
    _ZTVN7CosTime11_objref_UTOE @4974 DATA
    _ZTVN7CosTime15TimeUnavailableE @4975 DATA
    _ZTVN7CosTime16_pof_TimeServiceE @4976 DATA
    _ZTVN7CosTime17_impl_TimeServiceE @4977 DATA
    _ZTVN7CosTime19_objref_TimeServiceE @4978 DATA
    _ZTVN7CosTime8_pof_TIOE @4979 DATA
    _ZTVN7CosTime8_pof_UTOE @4980 DATA
    _ZTVN7CosTime9_impl_TIOE @4981 DATA
    _ZTVN7CosTime9_impl_UTOE @4982 DATA
    _ZTv0_n12_N11POA_CosTime11TimeServiceD0Ev @4983
    _ZTv0_n12_N11POA_CosTime11TimeServiceD1Ev @4984
    _ZTv0_n12_N11POA_CosTime3TIOD0Ev @4985
    _ZTv0_n12_N11POA_CosTime3TIOD1Ev @4986
    _ZTv0_n12_N11POA_CosTime3UTOD0Ev @4987
    _ZTv0_n12_N11POA_CosTime3UTOD1Ev @4988
    _ZTv0_n12_N12CosEventComm18_impl_PullConsumerD0Ev @4989
    _ZTv0_n12_N12CosEventComm18_impl_PullConsumerD1Ev @4990
    _ZTv0_n12_N12CosEventComm18_impl_PullSupplierD0Ev @4991
    _ZTv0_n12_N12CosEventComm18_impl_PullSupplierD1Ev @4992
    _ZTv0_n12_N12CosEventComm18_impl_PushConsumerD0Ev @4993
    _ZTv0_n12_N12CosEventComm18_impl_PushConsumerD1Ev @4994
    _ZTv0_n12_N12CosEventComm18_impl_PushSupplierD0Ev @4995
    _ZTv0_n12_N12CosEventComm18_impl_PushSupplierD1Ev @4996
    _ZTv0_n12_N12CosEventComm20_objref_PullConsumer12_ptrToObjRefEPKc @4997
    _ZTv0_n12_N12CosEventComm20_objref_PullConsumerD0Ev @4998
    _ZTv0_n12_N12CosEventComm20_objref_PullConsumerD1Ev @4999
    _ZTv0_n12_N12CosEventComm20_objref_PullSupplier12_ptrToObjRefEPKc @5000
    _ZTv0_n12_N12CosEventComm20_objref_PullSupplierD0Ev @5001
    _ZTv0_n12_N12CosEventComm20_objref_PullSupplierD1Ev @5002
    _ZTv0_n12_N12CosEventComm20_objref_PushConsumer12_ptrToObjRefEPKc @5003
    _ZTv0_n12_N12CosEventComm20_objref_PushConsumerD0Ev @5004
    _ZTv0_n12_N12CosEventComm20_objref_PushConsumerD1Ev @5005
    _ZTv0_n12_N12CosEventComm20_objref_PushSupplier12_ptrToObjRefEPKc @5006
    _ZTv0_n12_N12CosEventComm20_objref_PushSupplierD0Ev @5007
    _ZTv0_n12_N12CosEventComm20_objref_PushSupplierD1Ev @5008
    _ZTv0_n12_N12CosLifeCycle19_impl_FactoryFinderD0Ev @5009
    _ZTv0_n12_N12CosLifeCycle19_impl_FactoryFinderD1Ev @5010
    _ZTv0_n12_N12CosLifeCycle20_impl_GenericFactoryD0Ev @5011
    _ZTv0_n12_N12CosLifeCycle20_impl_GenericFactoryD1Ev @5012
    _ZTv0_n12_N12CosLifeCycle21_impl_LifeCycleObjectD0Ev @5013
    _ZTv0_n12_N12CosLifeCycle21_impl_LifeCycleObjectD1Ev @5014
    _ZTv0_n12_N12CosLifeCycle21_objref_FactoryFinder12_ptrToObjRefEPKc @5015
    _ZTv0_n12_N12CosLifeCycle21_objref_FactoryFinderD0Ev @5016
    _ZTv0_n12_N12CosLifeCycle21_objref_FactoryFinderD1Ev @5017
    _ZTv0_n12_N12CosLifeCycle22_objref_GenericFactory12_ptrToObjRefEPKc @5018
    _ZTv0_n12_N12CosLifeCycle22_objref_GenericFactoryD0Ev @5019
    _ZTv0_n12_N12CosLifeCycle22_objref_GenericFactoryD1Ev @5020
    _ZTv0_n12_N12CosLifeCycle23_objref_LifeCycleObject12_ptrToObjRefEPKc @5021
    _ZTv0_n12_N12CosLifeCycle23_objref_LifeCycleObjectD0Ev @5022
    _ZTv0_n12_N12CosLifeCycle23_objref_LifeCycleObjectD1Ev @5023
    _ZTv0_n12_N13CosNotifyComm18_impl_PullConsumerD0Ev @5024
    _ZTv0_n12_N13CosNotifyComm18_impl_PullConsumerD1Ev @5025
    _ZTv0_n12_N13CosNotifyComm18_impl_PullSupplierD0Ev @5026
    _ZTv0_n12_N13CosNotifyComm18_impl_PullSupplierD1Ev @5027
    _ZTv0_n12_N13CosNotifyComm18_impl_PushConsumerD0Ev @5028
    _ZTv0_n12_N13CosNotifyComm18_impl_PushConsumerD1Ev @5029
    _ZTv0_n12_N13CosNotifyComm18_impl_PushSupplierD0Ev @5030
    _ZTv0_n12_N13CosNotifyComm18_impl_PushSupplierD1Ev @5031
    _ZTv0_n12_N13CosNotifyComm19_impl_NotifyPublishD0Ev @5032
    _ZTv0_n12_N13CosNotifyComm19_impl_NotifyPublishD1Ev @5033
    _ZTv0_n12_N13CosNotifyComm20_objref_PullConsumer12_ptrToObjRefEPKc @5034
    _ZTv0_n12_N13CosNotifyComm20_objref_PullConsumerD0Ev @5035
    _ZTv0_n12_N13CosNotifyComm20_objref_PullConsumerD1Ev @5036
    _ZTv0_n12_N13CosNotifyComm20_objref_PullSupplier12_ptrToObjRefEPKc @5037
    _ZTv0_n12_N13CosNotifyComm20_objref_PullSupplierD0Ev @5038
    _ZTv0_n12_N13CosNotifyComm20_objref_PullSupplierD1Ev @5039
    _ZTv0_n12_N13CosNotifyComm20_objref_PushConsumer12_ptrToObjRefEPKc @5040
    _ZTv0_n12_N13CosNotifyComm20_objref_PushConsumerD0Ev @5041
    _ZTv0_n12_N13CosNotifyComm20_objref_PushConsumerD1Ev @5042
    _ZTv0_n12_N13CosNotifyComm20_objref_PushSupplier12_ptrToObjRefEPKc @5043
    _ZTv0_n12_N13CosNotifyComm20_objref_PushSupplierD0Ev @5044
    _ZTv0_n12_N13CosNotifyComm20_objref_PushSupplierD1Ev @5045
    _ZTv0_n12_N13CosNotifyComm21_impl_NotifySubscribeD0Ev @5046
    _ZTv0_n12_N13CosNotifyComm21_impl_NotifySubscribeD1Ev @5047
    _ZTv0_n12_N13CosNotifyComm21_objref_NotifyPublish12_ptrToObjRefEPKc @5048
    _ZTv0_n12_N13CosNotifyComm21_objref_NotifyPublishD0Ev @5049
    _ZTv0_n12_N13CosNotifyComm21_objref_NotifyPublishD1Ev @5050
    _ZTv0_n12_N13CosNotifyComm23_objref_NotifySubscribe12_ptrToObjRefEPKc @5051
    _ZTv0_n12_N13CosNotifyComm23_objref_NotifySubscribeD0Ev @5052
    _ZTv0_n12_N13CosNotifyComm23_objref_NotifySubscribeD1Ev @5053
    _ZTv0_n12_N13CosNotifyComm26_impl_SequencePullConsumerD0Ev @5054
    _ZTv0_n12_N13CosNotifyComm26_impl_SequencePullConsumerD1Ev @5055
    _ZTv0_n12_N13CosNotifyComm26_impl_SequencePullSupplierD0Ev @5056
    _ZTv0_n12_N13CosNotifyComm26_impl_SequencePullSupplierD1Ev @5057
    _ZTv0_n12_N13CosNotifyComm26_impl_SequencePushConsumerD0Ev @5058
    _ZTv0_n12_N13CosNotifyComm26_impl_SequencePushConsumerD1Ev @5059
    _ZTv0_n12_N13CosNotifyComm26_impl_SequencePushSupplierD0Ev @5060
    _ZTv0_n12_N13CosNotifyComm26_impl_SequencePushSupplierD1Ev @5061
    _ZTv0_n12_N13CosNotifyComm28_impl_StructuredPullConsumerD0Ev @5062
    _ZTv0_n12_N13CosNotifyComm28_impl_StructuredPullConsumerD1Ev @5063
    _ZTv0_n12_N13CosNotifyComm28_impl_StructuredPullSupplierD0Ev @5064
    _ZTv0_n12_N13CosNotifyComm28_impl_StructuredPullSupplierD1Ev @5065
    _ZTv0_n12_N13CosNotifyComm28_impl_StructuredPushConsumerD0Ev @5066
    _ZTv0_n12_N13CosNotifyComm28_impl_StructuredPushConsumerD1Ev @5067
    _ZTv0_n12_N13CosNotifyComm28_impl_StructuredPushSupplierD0Ev @5068
    _ZTv0_n12_N13CosNotifyComm28_impl_StructuredPushSupplierD1Ev @5069
    _ZTv0_n12_N13CosNotifyComm28_objref_SequencePullConsumer12_ptrToObjRefEPKc @5070
    _ZTv0_n12_N13CosNotifyComm28_objref_SequencePullConsumerD0Ev @5071
    _ZTv0_n12_N13CosNotifyComm28_objref_SequencePullConsumerD1Ev @5072
    _ZTv0_n12_N13CosNotifyComm28_objref_SequencePullSupplier12_ptrToObjRefEPKc @5073
    _ZTv0_n12_N13CosNotifyComm28_objref_SequencePullSupplierD0Ev @5074
    _ZTv0_n12_N13CosNotifyComm28_objref_SequencePullSupplierD1Ev @5075
    _ZTv0_n12_N13CosNotifyComm28_objref_SequencePushConsumer12_ptrToObjRefEPKc @5076
    _ZTv0_n12_N13CosNotifyComm28_objref_SequencePushConsumerD0Ev @5077
    _ZTv0_n12_N13CosNotifyComm28_objref_SequencePushConsumerD1Ev @5078
    _ZTv0_n12_N13CosNotifyComm28_objref_SequencePushSupplier12_ptrToObjRefEPKc @5079
    _ZTv0_n12_N13CosNotifyComm28_objref_SequencePushSupplierD0Ev @5080
    _ZTv0_n12_N13CosNotifyComm28_objref_SequencePushSupplierD1Ev @5081
    _ZTv0_n12_N13CosNotifyComm30_objref_StructuredPullConsumer12_ptrToObjRefEPKc @5082
    _ZTv0_n12_N13CosNotifyComm30_objref_StructuredPullConsumerD0Ev @5083
    _ZTv0_n12_N13CosNotifyComm30_objref_StructuredPullConsumerD1Ev @5084
    _ZTv0_n12_N13CosNotifyComm30_objref_StructuredPullSupplier12_ptrToObjRefEPKc @5085
    _ZTv0_n12_N13CosNotifyComm30_objref_StructuredPullSupplierD0Ev @5086
    _ZTv0_n12_N13CosNotifyComm30_objref_StructuredPullSupplierD1Ev @5087
    _ZTv0_n12_N13CosNotifyComm30_objref_StructuredPushConsumer12_ptrToObjRefEPKc @5088
    _ZTv0_n12_N13CosNotifyComm30_objref_StructuredPushConsumerD0Ev @5089
    _ZTv0_n12_N13CosNotifyComm30_objref_StructuredPushConsumerD1Ev @5090
    _ZTv0_n12_N13CosNotifyComm30_objref_StructuredPushSupplier12_ptrToObjRefEPKc @5091
    _ZTv0_n12_N13CosNotifyComm30_objref_StructuredPushSupplierD0Ev @5092
    _ZTv0_n12_N13CosNotifyComm30_objref_StructuredPushSupplierD1Ev @5093
    _ZTv0_n12_N15CosNotification14_impl_QoSAdminD0Ev @5094
    _ZTv0_n12_N15CosNotification14_impl_QoSAdminD1Ev @5095
    _ZTv0_n12_N15CosNotification16_objref_QoSAdmin12_ptrToObjRefEPKc @5096
    _ZTv0_n12_N15CosNotification16_objref_QoSAdminD0Ev @5097
    _ZTv0_n12_N15CosNotification16_objref_QoSAdminD1Ev @5098
    _ZTv0_n12_N15CosNotification26_impl_AdminPropertiesAdminD0Ev @5099
    _ZTv0_n12_N15CosNotification26_impl_AdminPropertiesAdminD1Ev @5100
    _ZTv0_n12_N15CosNotification28_objref_AdminPropertiesAdmin12_ptrToObjRefEPKc @5101
    _ZTv0_n12_N15CosNotification28_objref_AdminPropertiesAdminD0Ev @5102
    _ZTv0_n12_N15CosNotification28_objref_AdminPropertiesAdminD1Ev @5103
    _ZTv0_n12_N15CosNotifyFilter12_impl_FilterD0Ev @5104
    _ZTv0_n12_N15CosNotifyFilter12_impl_FilterD1Ev @5105
    _ZTv0_n12_N15CosNotifyFilter14_objref_Filter12_ptrToObjRefEPKc @5106
    _ZTv0_n12_N15CosNotifyFilter14_objref_FilterD0Ev @5107
    _ZTv0_n12_N15CosNotifyFilter14_objref_FilterD1Ev @5108
    _ZTv0_n12_N15CosNotifyFilter17_impl_FilterAdminD0Ev @5109
    _ZTv0_n12_N15CosNotifyFilter17_impl_FilterAdminD1Ev @5110
    _ZTv0_n12_N15CosNotifyFilter19_impl_FilterFactoryD0Ev @5111
    _ZTv0_n12_N15CosNotifyFilter19_impl_FilterFactoryD1Ev @5112
    _ZTv0_n12_N15CosNotifyFilter19_impl_MappingFilterD0Ev @5113
    _ZTv0_n12_N15CosNotifyFilter19_impl_MappingFilterD1Ev @5114
    _ZTv0_n12_N15CosNotifyFilter19_objref_FilterAdmin12_ptrToObjRefEPKc @5115
    _ZTv0_n12_N15CosNotifyFilter19_objref_FilterAdminD0Ev @5116
    _ZTv0_n12_N15CosNotifyFilter19_objref_FilterAdminD1Ev @5117
    _ZTv0_n12_N15CosNotifyFilter21_objref_FilterFactory12_ptrToObjRefEPKc @5118
    _ZTv0_n12_N15CosNotifyFilter21_objref_FilterFactoryD0Ev @5119
    _ZTv0_n12_N15CosNotifyFilter21_objref_FilterFactoryD1Ev @5120
    _ZTv0_n12_N15CosNotifyFilter21_objref_MappingFilter12_ptrToObjRefEPKc @5121
    _ZTv0_n12_N15CosNotifyFilter21_objref_MappingFilterD0Ev @5122
    _ZTv0_n12_N15CosNotifyFilter21_objref_MappingFilterD1Ev @5123
    _ZTv0_n12_N16POA_CosEventComm12PullConsumerD0Ev @5124
    _ZTv0_n12_N16POA_CosEventComm12PullConsumerD1Ev @5125
    _ZTv0_n12_N16POA_CosEventComm12PullSupplierD0Ev @5126
    _ZTv0_n12_N16POA_CosEventComm12PullSupplierD1Ev @5127
    _ZTv0_n12_N16POA_CosEventComm12PushConsumerD0Ev @5128
    _ZTv0_n12_N16POA_CosEventComm12PushConsumerD1Ev @5129
    _ZTv0_n12_N16POA_CosEventComm12PushSupplierD0Ev @5130
    _ZTv0_n12_N16POA_CosEventComm12PushSupplierD1Ev @5131
    _ZTv0_n12_N16POA_CosLifeCycle13FactoryFinderD0Ev @5132
    _ZTv0_n12_N16POA_CosLifeCycle13FactoryFinderD1Ev @5133
    _ZTv0_n12_N16POA_CosLifeCycle14GenericFactoryD0Ev @5134
    _ZTv0_n12_N16POA_CosLifeCycle14GenericFactoryD1Ev @5135
    _ZTv0_n12_N16POA_CosLifeCycle15LifeCycleObjectD0Ev @5136
    _ZTv0_n12_N16POA_CosLifeCycle15LifeCycleObjectD1Ev @5137
    _ZTv0_n12_N17POA_CosNotifyComm12PullConsumerD0Ev @5138
    _ZTv0_n12_N17POA_CosNotifyComm12PullConsumerD1Ev @5139
    _ZTv0_n12_N17POA_CosNotifyComm12PullSupplierD0Ev @5140
    _ZTv0_n12_N17POA_CosNotifyComm12PullSupplierD1Ev @5141
    _ZTv0_n12_N17POA_CosNotifyComm12PushConsumerD0Ev @5142
    _ZTv0_n12_N17POA_CosNotifyComm12PushConsumerD1Ev @5143
    _ZTv0_n12_N17POA_CosNotifyComm12PushSupplierD0Ev @5144
    _ZTv0_n12_N17POA_CosNotifyComm12PushSupplierD1Ev @5145
    _ZTv0_n12_N17POA_CosNotifyComm13NotifyPublishD0Ev @5146
    _ZTv0_n12_N17POA_CosNotifyComm13NotifyPublishD1Ev @5147
    _ZTv0_n12_N17POA_CosNotifyComm15NotifySubscribeD0Ev @5148
    _ZTv0_n12_N17POA_CosNotifyComm15NotifySubscribeD1Ev @5149
    _ZTv0_n12_N17POA_CosNotifyComm20SequencePullConsumerD0Ev @5150
    _ZTv0_n12_N17POA_CosNotifyComm20SequencePullConsumerD1Ev @5151
    _ZTv0_n12_N17POA_CosNotifyComm20SequencePullSupplierD0Ev @5152
    _ZTv0_n12_N17POA_CosNotifyComm20SequencePullSupplierD1Ev @5153
    _ZTv0_n12_N17POA_CosNotifyComm20SequencePushConsumerD0Ev @5154
    _ZTv0_n12_N17POA_CosNotifyComm20SequencePushConsumerD1Ev @5155
    _ZTv0_n12_N17POA_CosNotifyComm20SequencePushSupplierD0Ev @5156
    _ZTv0_n12_N17POA_CosNotifyComm20SequencePushSupplierD1Ev @5157
    _ZTv0_n12_N17POA_CosNotifyComm22StructuredPullConsumerD0Ev @5158
    _ZTv0_n12_N17POA_CosNotifyComm22StructuredPullConsumerD1Ev @5159
    _ZTv0_n12_N17POA_CosNotifyComm22StructuredPullSupplierD0Ev @5160
    _ZTv0_n12_N17POA_CosNotifyComm22StructuredPullSupplierD1Ev @5161
    _ZTv0_n12_N17POA_CosNotifyComm22StructuredPushConsumerD0Ev @5162
    _ZTv0_n12_N17POA_CosNotifyComm22StructuredPushConsumerD1Ev @5163
    _ZTv0_n12_N17POA_CosNotifyComm22StructuredPushSupplierD0Ev @5164
    _ZTv0_n12_N17POA_CosNotifyComm22StructuredPushSupplierD1Ev @5165
    _ZTv0_n12_N19POA_CosNotification20AdminPropertiesAdminD0Ev @5166
    _ZTv0_n12_N19POA_CosNotification20AdminPropertiesAdminD1Ev @5167
    _ZTv0_n12_N19POA_CosNotification8QoSAdminD0Ev @5168
    _ZTv0_n12_N19POA_CosNotification8QoSAdminD1Ev @5169
    _ZTv0_n12_N19POA_CosNotifyFilter11FilterAdminD0Ev @5170
    _ZTv0_n12_N19POA_CosNotifyFilter11FilterAdminD1Ev @5171
    _ZTv0_n12_N19POA_CosNotifyFilter13FilterFactoryD0Ev @5172
    _ZTv0_n12_N19POA_CosNotifyFilter13FilterFactoryD1Ev @5173
    _ZTv0_n12_N19POA_CosNotifyFilter13MappingFilterD0Ev @5174
    _ZTv0_n12_N19POA_CosNotifyFilter13MappingFilterD1Ev @5175
    _ZTv0_n12_N19POA_CosNotifyFilter6FilterD0Ev @5176
    _ZTv0_n12_N19POA_CosNotifyFilter6FilterD1Ev @5177
    _ZTv0_n12_N20CosEventChannelAdmin18_impl_EventChannelD0Ev @5178
    _ZTv0_n12_N20CosEventChannelAdmin18_impl_EventChannelD1Ev @5179
    _ZTv0_n12_N20CosEventChannelAdmin19_impl_ConsumerAdminD0Ev @5180
    _ZTv0_n12_N20CosEventChannelAdmin19_impl_ConsumerAdminD1Ev @5181
    _ZTv0_n12_N20CosEventChannelAdmin19_impl_SupplierAdminD0Ev @5182
    _ZTv0_n12_N20CosEventChannelAdmin19_impl_SupplierAdminD1Ev @5183
    _ZTv0_n12_N20CosEventChannelAdmin20_objref_EventChannel12_ptrToObjRefEPKc @5184
    _ZTv0_n12_N20CosEventChannelAdmin20_objref_EventChannelD0Ev @5185
    _ZTv0_n12_N20CosEventChannelAdmin20_objref_EventChannelD1Ev @5186
    _ZTv0_n12_N20CosEventChannelAdmin21_objref_ConsumerAdmin12_ptrToObjRefEPKc @5187
    _ZTv0_n12_N20CosEventChannelAdmin21_objref_ConsumerAdminD0Ev @5188
    _ZTv0_n12_N20CosEventChannelAdmin21_objref_ConsumerAdminD1Ev @5189
    _ZTv0_n12_N20CosEventChannelAdmin21_objref_SupplierAdmin12_ptrToObjRefEPKc @5190
    _ZTv0_n12_N20CosEventChannelAdmin21_objref_SupplierAdminD0Ev @5191
    _ZTv0_n12_N20CosEventChannelAdmin21_objref_SupplierAdminD1Ev @5192
    _ZTv0_n12_N20CosEventChannelAdmin23_impl_ProxyPullConsumerD0Ev @5193
    _ZTv0_n12_N20CosEventChannelAdmin23_impl_ProxyPullConsumerD1Ev @5194
    _ZTv0_n12_N20CosEventChannelAdmin23_impl_ProxyPullSupplierD0Ev @5195
    _ZTv0_n12_N20CosEventChannelAdmin23_impl_ProxyPullSupplierD1Ev @5196
    _ZTv0_n12_N20CosEventChannelAdmin23_impl_ProxyPushConsumerD0Ev @5197
    _ZTv0_n12_N20CosEventChannelAdmin23_impl_ProxyPushConsumerD1Ev @5198
    _ZTv0_n12_N20CosEventChannelAdmin23_impl_ProxyPushSupplierD0Ev @5199
    _ZTv0_n12_N20CosEventChannelAdmin23_impl_ProxyPushSupplierD1Ev @5200
    _ZTv0_n12_N20CosEventChannelAdmin25_objref_ProxyPullConsumer12_ptrToObjRefEPKc @5201
    _ZTv0_n12_N20CosEventChannelAdmin25_objref_ProxyPullConsumerD0Ev @5202
    _ZTv0_n12_N20CosEventChannelAdmin25_objref_ProxyPullConsumerD1Ev @5203
    _ZTv0_n12_N20CosEventChannelAdmin25_objref_ProxyPullSupplier12_ptrToObjRefEPKc @5204
    _ZTv0_n12_N20CosEventChannelAdmin25_objref_ProxyPullSupplierD0Ev @5205
    _ZTv0_n12_N20CosEventChannelAdmin25_objref_ProxyPullSupplierD1Ev @5206
    _ZTv0_n12_N20CosEventChannelAdmin25_objref_ProxyPushConsumer12_ptrToObjRefEPKc @5207
    _ZTv0_n12_N20CosEventChannelAdmin25_objref_ProxyPushConsumerD0Ev @5208
    _ZTv0_n12_N20CosEventChannelAdmin25_objref_ProxyPushConsumerD1Ev @5209
    _ZTv0_n12_N20CosEventChannelAdmin25_objref_ProxyPushSupplier12_ptrToObjRefEPKc @5210
    _ZTv0_n12_N20CosEventChannelAdmin25_objref_ProxyPushSupplierD0Ev @5211
    _ZTv0_n12_N20CosEventChannelAdmin25_objref_ProxyPushSupplierD1Ev @5212
    _ZTv0_n12_N21CosNotifyChannelAdmin18_impl_EventChannelD0Ev @5213
    _ZTv0_n12_N21CosNotifyChannelAdmin18_impl_EventChannelD1Ev @5214
    _ZTv0_n12_N21CosNotifyChannelAdmin19_impl_ConsumerAdminD0Ev @5215
    _ZTv0_n12_N21CosNotifyChannelAdmin19_impl_ConsumerAdminD1Ev @5216
    _ZTv0_n12_N21CosNotifyChannelAdmin19_impl_ProxyConsumerD0Ev @5217
    _ZTv0_n12_N21CosNotifyChannelAdmin19_impl_ProxyConsumerD1Ev @5218
    _ZTv0_n12_N21CosNotifyChannelAdmin19_impl_ProxySupplierD0Ev @5219
    _ZTv0_n12_N21CosNotifyChannelAdmin19_impl_ProxySupplierD1Ev @5220
    _ZTv0_n12_N21CosNotifyChannelAdmin19_impl_SupplierAdminD0Ev @5221
    _ZTv0_n12_N21CosNotifyChannelAdmin19_impl_SupplierAdminD1Ev @5222
    _ZTv0_n12_N21CosNotifyChannelAdmin20_objref_EventChannel12_ptrToObjRefEPKc @5223
    _ZTv0_n12_N21CosNotifyChannelAdmin20_objref_EventChannelD0Ev @5224
    _ZTv0_n12_N21CosNotifyChannelAdmin20_objref_EventChannelD1Ev @5225
    _ZTv0_n12_N21CosNotifyChannelAdmin21_objref_ConsumerAdmin12_ptrToObjRefEPKc @5226
    _ZTv0_n12_N21CosNotifyChannelAdmin21_objref_ConsumerAdminD0Ev @5227
    _ZTv0_n12_N21CosNotifyChannelAdmin21_objref_ConsumerAdminD1Ev @5228
    _ZTv0_n12_N21CosNotifyChannelAdmin21_objref_ProxyConsumer12_ptrToObjRefEPKc @5229
    _ZTv0_n12_N21CosNotifyChannelAdmin21_objref_ProxyConsumerD0Ev @5230
    _ZTv0_n12_N21CosNotifyChannelAdmin21_objref_ProxyConsumerD1Ev @5231
    _ZTv0_n12_N21CosNotifyChannelAdmin21_objref_ProxySupplier12_ptrToObjRefEPKc @5232
    _ZTv0_n12_N21CosNotifyChannelAdmin21_objref_ProxySupplierD0Ev @5233
    _ZTv0_n12_N21CosNotifyChannelAdmin21_objref_ProxySupplierD1Ev @5234
    _ZTv0_n12_N21CosNotifyChannelAdmin21_objref_SupplierAdmin12_ptrToObjRefEPKc @5235
    _ZTv0_n12_N21CosNotifyChannelAdmin21_objref_SupplierAdminD0Ev @5236
    _ZTv0_n12_N21CosNotifyChannelAdmin21_objref_SupplierAdminD1Ev @5237
    _ZTv0_n12_N21CosNotifyChannelAdmin23_impl_ProxyPullConsumerD0Ev @5238
    _ZTv0_n12_N21CosNotifyChannelAdmin23_impl_ProxyPullConsumerD1Ev @5239
    _ZTv0_n12_N21CosNotifyChannelAdmin23_impl_ProxyPullSupplierD0Ev @5240
    _ZTv0_n12_N21CosNotifyChannelAdmin23_impl_ProxyPullSupplierD1Ev @5241
    _ZTv0_n12_N21CosNotifyChannelAdmin23_impl_ProxyPushConsumerD0Ev @5242
    _ZTv0_n12_N21CosNotifyChannelAdmin23_impl_ProxyPushConsumerD1Ev @5243
    _ZTv0_n12_N21CosNotifyChannelAdmin23_impl_ProxyPushSupplierD0Ev @5244
    _ZTv0_n12_N21CosNotifyChannelAdmin23_impl_ProxyPushSupplierD1Ev @5245
    _ZTv0_n12_N21CosNotifyChannelAdmin25_impl_EventChannelFactoryD0Ev @5246
    _ZTv0_n12_N21CosNotifyChannelAdmin25_impl_EventChannelFactoryD1Ev @5247
    _ZTv0_n12_N21CosNotifyChannelAdmin25_objref_ProxyPullConsumer12_ptrToObjRefEPKc @5248
    _ZTv0_n12_N21CosNotifyChannelAdmin25_objref_ProxyPullConsumerD0Ev @5249
    _ZTv0_n12_N21CosNotifyChannelAdmin25_objref_ProxyPullConsumerD1Ev @5250
    _ZTv0_n12_N21CosNotifyChannelAdmin25_objref_ProxyPullSupplier12_ptrToObjRefEPKc @5251
    _ZTv0_n12_N21CosNotifyChannelAdmin25_objref_ProxyPullSupplierD0Ev @5252
    _ZTv0_n12_N21CosNotifyChannelAdmin25_objref_ProxyPullSupplierD1Ev @5253
    _ZTv0_n12_N21CosNotifyChannelAdmin25_objref_ProxyPushConsumer12_ptrToObjRefEPKc @5254
    _ZTv0_n12_N21CosNotifyChannelAdmin25_objref_ProxyPushConsumerD0Ev @5255
    _ZTv0_n12_N21CosNotifyChannelAdmin25_objref_ProxyPushConsumerD1Ev @5256
    _ZTv0_n12_N21CosNotifyChannelAdmin25_objref_ProxyPushSupplier12_ptrToObjRefEPKc @5257
    _ZTv0_n12_N21CosNotifyChannelAdmin25_objref_ProxyPushSupplierD0Ev @5258
    _ZTv0_n12_N21CosNotifyChannelAdmin25_objref_ProxyPushSupplierD1Ev @5259
    _ZTv0_n12_N21CosNotifyChannelAdmin27_objref_EventChannelFactory12_ptrToObjRefEPKc @5260
    _ZTv0_n12_N21CosNotifyChannelAdmin27_objref_EventChannelFactoryD0Ev @5261
    _ZTv0_n12_N21CosNotifyChannelAdmin27_objref_EventChannelFactoryD1Ev @5262
    _ZTv0_n12_N21CosNotifyChannelAdmin31_impl_SequenceProxyPullConsumerD0Ev @5263
    _ZTv0_n12_N21CosNotifyChannelAdmin31_impl_SequenceProxyPullConsumerD1Ev @5264
    _ZTv0_n12_N21CosNotifyChannelAdmin31_impl_SequenceProxyPullSupplierD0Ev @5265
    _ZTv0_n12_N21CosNotifyChannelAdmin31_impl_SequenceProxyPullSupplierD1Ev @5266
    _ZTv0_n12_N21CosNotifyChannelAdmin31_impl_SequenceProxyPushConsumerD0Ev @5267
    _ZTv0_n12_N21CosNotifyChannelAdmin31_impl_SequenceProxyPushConsumerD1Ev @5268
    _ZTv0_n12_N21CosNotifyChannelAdmin31_impl_SequenceProxyPushSupplierD0Ev @5269
    _ZTv0_n12_N21CosNotifyChannelAdmin31_impl_SequenceProxyPushSupplierD1Ev @5270
    _ZTv0_n12_N21CosNotifyChannelAdmin33_impl_StructuredProxyPullConsumerD0Ev @5271
    _ZTv0_n12_N21CosNotifyChannelAdmin33_impl_StructuredProxyPullConsumerD1Ev @5272
    _ZTv0_n12_N21CosNotifyChannelAdmin33_impl_StructuredProxyPullSupplierD0Ev @5273
    _ZTv0_n12_N21CosNotifyChannelAdmin33_impl_StructuredProxyPullSupplierD1Ev @5274
    _ZTv0_n12_N21CosNotifyChannelAdmin33_impl_StructuredProxyPushConsumerD0Ev @5275
    _ZTv0_n12_N21CosNotifyChannelAdmin33_impl_StructuredProxyPushConsumerD1Ev @5276
    _ZTv0_n12_N21CosNotifyChannelAdmin33_impl_StructuredProxyPushSupplierD0Ev @5277
    _ZTv0_n12_N21CosNotifyChannelAdmin33_impl_StructuredProxyPushSupplierD1Ev @5278
    _ZTv0_n12_N21CosNotifyChannelAdmin33_objref_SequenceProxyPullConsumer12_ptrToObjRefEPKc @5279
    _ZTv0_n12_N21CosNotifyChannelAdmin33_objref_SequenceProxyPullConsumerD0Ev @5280
    _ZTv0_n12_N21CosNotifyChannelAdmin33_objref_SequenceProxyPullConsumerD1Ev @5281
    _ZTv0_n12_N21CosNotifyChannelAdmin33_objref_SequenceProxyPullSupplier12_ptrToObjRefEPKc @5282
    _ZTv0_n12_N21CosNotifyChannelAdmin33_objref_SequenceProxyPullSupplierD0Ev @5283
    _ZTv0_n12_N21CosNotifyChannelAdmin33_objref_SequenceProxyPullSupplierD1Ev @5284
    _ZTv0_n12_N21CosNotifyChannelAdmin33_objref_SequenceProxyPushConsumer12_ptrToObjRefEPKc @5285
    _ZTv0_n12_N21CosNotifyChannelAdmin33_objref_SequenceProxyPushConsumerD0Ev @5286
    _ZTv0_n12_N21CosNotifyChannelAdmin33_objref_SequenceProxyPushConsumerD1Ev @5287
    _ZTv0_n12_N21CosNotifyChannelAdmin33_objref_SequenceProxyPushSupplier12_ptrToObjRefEPKc @5288
    _ZTv0_n12_N21CosNotifyChannelAdmin33_objref_SequenceProxyPushSupplierD0Ev @5289
    _ZTv0_n12_N21CosNotifyChannelAdmin33_objref_SequenceProxyPushSupplierD1Ev @5290
    _ZTv0_n12_N21CosNotifyChannelAdmin35_objref_StructuredProxyPullConsumer12_ptrToObjRefEPKc @5291
    _ZTv0_n12_N21CosNotifyChannelAdmin35_objref_StructuredProxyPullConsumerD0Ev @5292
    _ZTv0_n12_N21CosNotifyChannelAdmin35_objref_StructuredProxyPullConsumerD1Ev @5293
    _ZTv0_n12_N21CosNotifyChannelAdmin35_objref_StructuredProxyPullSupplier12_ptrToObjRefEPKc @5294
    _ZTv0_n12_N21CosNotifyChannelAdmin35_objref_StructuredProxyPullSupplierD0Ev @5295
    _ZTv0_n12_N21CosNotifyChannelAdmin35_objref_StructuredProxyPullSupplierD1Ev @5296
    _ZTv0_n12_N21CosNotifyChannelAdmin35_objref_StructuredProxyPushConsumer12_ptrToObjRefEPKc @5297
    _ZTv0_n12_N21CosNotifyChannelAdmin35_objref_StructuredProxyPushConsumerD0Ev @5298
    _ZTv0_n12_N21CosNotifyChannelAdmin35_objref_StructuredProxyPushConsumerD1Ev @5299
    _ZTv0_n12_N21CosNotifyChannelAdmin35_objref_StructuredProxyPushSupplier12_ptrToObjRefEPKc @5300
    _ZTv0_n12_N21CosNotifyChannelAdmin35_objref_StructuredProxyPushSupplierD0Ev @5301
    _ZTv0_n12_N21CosNotifyChannelAdmin35_objref_StructuredProxyPushSupplierD1Ev @5302
    _ZTv0_n12_N24POA_CosEventChannelAdmin12EventChannelD0Ev @5303
    _ZTv0_n12_N24POA_CosEventChannelAdmin12EventChannelD1Ev @5304
    _ZTv0_n12_N24POA_CosEventChannelAdmin13ConsumerAdminD0Ev @5305
    _ZTv0_n12_N24POA_CosEventChannelAdmin13ConsumerAdminD1Ev @5306
    _ZTv0_n12_N24POA_CosEventChannelAdmin13SupplierAdminD0Ev @5307
    _ZTv0_n12_N24POA_CosEventChannelAdmin13SupplierAdminD1Ev @5308
    _ZTv0_n12_N24POA_CosEventChannelAdmin17ProxyPullConsumerD0Ev @5309
    _ZTv0_n12_N24POA_CosEventChannelAdmin17ProxyPullConsumerD1Ev @5310
    _ZTv0_n12_N24POA_CosEventChannelAdmin17ProxyPullSupplierD0Ev @5311
    _ZTv0_n12_N24POA_CosEventChannelAdmin17ProxyPullSupplierD1Ev @5312
    _ZTv0_n12_N24POA_CosEventChannelAdmin17ProxyPushConsumerD0Ev @5313
    _ZTv0_n12_N24POA_CosEventChannelAdmin17ProxyPushConsumerD1Ev @5314
    _ZTv0_n12_N24POA_CosEventChannelAdmin17ProxyPushSupplierD0Ev @5315
    _ZTv0_n12_N24POA_CosEventChannelAdmin17ProxyPushSupplierD1Ev @5316
    _ZTv0_n12_N25POA_CosNotifyChannelAdmin12EventChannelD0Ev @5317
    _ZTv0_n12_N25POA_CosNotifyChannelAdmin12EventChannelD1Ev @5318
    _ZTv0_n12_N25POA_CosNotifyChannelAdmin13ConsumerAdminD0Ev @5319
    _ZTv0_n12_N25POA_CosNotifyChannelAdmin13ConsumerAdminD1Ev @5320
    _ZTv0_n12_N25POA_CosNotifyChannelAdmin13ProxyConsumerD0Ev @5321
    _ZTv0_n12_N25POA_CosNotifyChannelAdmin13ProxyConsumerD1Ev @5322
    _ZTv0_n12_N25POA_CosNotifyChannelAdmin13ProxySupplierD0Ev @5323
    _ZTv0_n12_N25POA_CosNotifyChannelAdmin13ProxySupplierD1Ev @5324
    _ZTv0_n12_N25POA_CosNotifyChannelAdmin13SupplierAdminD0Ev @5325
    _ZTv0_n12_N25POA_CosNotifyChannelAdmin13SupplierAdminD1Ev @5326
    _ZTv0_n12_N25POA_CosNotifyChannelAdmin17ProxyPullConsumerD0Ev @5327
    _ZTv0_n12_N25POA_CosNotifyChannelAdmin17ProxyPullConsumerD1Ev @5328
    _ZTv0_n12_N25POA_CosNotifyChannelAdmin17ProxyPullSupplierD0Ev @5329
    _ZTv0_n12_N25POA_CosNotifyChannelAdmin17ProxyPullSupplierD1Ev @5330
    _ZTv0_n12_N25POA_CosNotifyChannelAdmin17ProxyPushConsumerD0Ev @5331
    _ZTv0_n12_N25POA_CosNotifyChannelAdmin17ProxyPushConsumerD1Ev @5332
    _ZTv0_n12_N25POA_CosNotifyChannelAdmin17ProxyPushSupplierD0Ev @5333
    _ZTv0_n12_N25POA_CosNotifyChannelAdmin17ProxyPushSupplierD1Ev @5334
    _ZTv0_n12_N25POA_CosNotifyChannelAdmin19EventChannelFactoryD0Ev @5335
    _ZTv0_n12_N25POA_CosNotifyChannelAdmin19EventChannelFactoryD1Ev @5336
    _ZTv0_n12_N25POA_CosNotifyChannelAdmin25SequenceProxyPullConsumerD0Ev @5337
    _ZTv0_n12_N25POA_CosNotifyChannelAdmin25SequenceProxyPullConsumerD1Ev @5338
    _ZTv0_n12_N25POA_CosNotifyChannelAdmin25SequenceProxyPullSupplierD0Ev @5339
    _ZTv0_n12_N25POA_CosNotifyChannelAdmin25SequenceProxyPullSupplierD1Ev @5340
    _ZTv0_n12_N25POA_CosNotifyChannelAdmin25SequenceProxyPushConsumerD0Ev @5341
    _ZTv0_n12_N25POA_CosNotifyChannelAdmin25SequenceProxyPushConsumerD1Ev @5342
    _ZTv0_n12_N25POA_CosNotifyChannelAdmin25SequenceProxyPushSupplierD0Ev @5343
    _ZTv0_n12_N25POA_CosNotifyChannelAdmin25SequenceProxyPushSupplierD1Ev @5344
    _ZTv0_n12_N25POA_CosNotifyChannelAdmin27StructuredProxyPullConsumerD0Ev @5345
    _ZTv0_n12_N25POA_CosNotifyChannelAdmin27StructuredProxyPullConsumerD1Ev @5346
    _ZTv0_n12_N25POA_CosNotifyChannelAdmin27StructuredProxyPullSupplierD0Ev @5347
    _ZTv0_n12_N25POA_CosNotifyChannelAdmin27StructuredProxyPullSupplierD1Ev @5348
    _ZTv0_n12_N25POA_CosNotifyChannelAdmin27StructuredProxyPushConsumerD0Ev @5349
    _ZTv0_n12_N25POA_CosNotifyChannelAdmin27StructuredProxyPushConsumerD1Ev @5350
    _ZTv0_n12_N25POA_CosNotifyChannelAdmin27StructuredProxyPushSupplierD0Ev @5351
    _ZTv0_n12_N25POA_CosNotifyChannelAdmin27StructuredProxyPushSupplierD1Ev @5352
    _ZTv0_n12_N7CosTime11_objref_TIO12_ptrToObjRefEPKc @5353
    _ZTv0_n12_N7CosTime11_objref_TIOD0Ev @5354
    _ZTv0_n12_N7CosTime11_objref_TIOD1Ev @5355
    _ZTv0_n12_N7CosTime11_objref_UTO12_ptrToObjRefEPKc @5356
    _ZTv0_n12_N7CosTime11_objref_UTOD0Ev @5357
    _ZTv0_n12_N7CosTime11_objref_UTOD1Ev @5358
    _ZTv0_n12_N7CosTime17_impl_TimeServiceD0Ev @5359
    _ZTv0_n12_N7CosTime17_impl_TimeServiceD1Ev @5360
    _ZTv0_n12_N7CosTime19_objref_TimeService12_ptrToObjRefEPKc @5361
    _ZTv0_n12_N7CosTime19_objref_TimeServiceD0Ev @5362
    _ZTv0_n12_N7CosTime19_objref_TimeServiceD1Ev @5363
    _ZTv0_n12_N7CosTime9_impl_TIOD0Ev @5364
    _ZTv0_n12_N7CosTime9_impl_TIOD1Ev @5365
    _ZTv0_n12_N7CosTime9_impl_UTOD0Ev @5366
    _ZTv0_n12_N7CosTime9_impl_UTOD1Ev @5367
    _ZTv0_n16_N11POA_CosTime11TimeServiceD0Ev @5368
    _ZTv0_n16_N11POA_CosTime11TimeServiceD1Ev @5369
    _ZTv0_n16_N11POA_CosTime3TIOD0Ev @5370
    _ZTv0_n16_N11POA_CosTime3TIOD1Ev @5371
    _ZTv0_n16_N11POA_CosTime3UTOD0Ev @5372
    _ZTv0_n16_N11POA_CosTime3UTOD1Ev @5373
    _ZTv0_n16_N12CosEventComm18_impl_PullConsumer15_ptrToInterfaceEPKc @5374
    _ZTv0_n16_N12CosEventComm18_impl_PullSupplier15_ptrToInterfaceEPKc @5375
    _ZTv0_n16_N12CosEventComm18_impl_PushConsumer15_ptrToInterfaceEPKc @5376
    _ZTv0_n16_N12CosEventComm18_impl_PushSupplier15_ptrToInterfaceEPKc @5377
    _ZTv0_n16_N12CosLifeCycle19_impl_FactoryFinder15_ptrToInterfaceEPKc @5378
    _ZTv0_n16_N12CosLifeCycle20_impl_GenericFactory15_ptrToInterfaceEPKc @5379
    _ZTv0_n16_N12CosLifeCycle21_impl_LifeCycleObject15_ptrToInterfaceEPKc @5380
    _ZTv0_n16_N13CosNotifyComm18_impl_PullConsumer15_ptrToInterfaceEPKc @5381
    _ZTv0_n16_N13CosNotifyComm18_impl_PullConsumerD0Ev @5382
    _ZTv0_n16_N13CosNotifyComm18_impl_PullConsumerD1Ev @5383
    _ZTv0_n16_N13CosNotifyComm18_impl_PullSupplier15_ptrToInterfaceEPKc @5384
    _ZTv0_n16_N13CosNotifyComm18_impl_PullSupplierD0Ev @5385
    _ZTv0_n16_N13CosNotifyComm18_impl_PullSupplierD1Ev @5386
    _ZTv0_n16_N13CosNotifyComm18_impl_PushConsumer15_ptrToInterfaceEPKc @5387
    _ZTv0_n16_N13CosNotifyComm18_impl_PushConsumerD0Ev @5388
    _ZTv0_n16_N13CosNotifyComm18_impl_PushConsumerD1Ev @5389
    _ZTv0_n16_N13CosNotifyComm18_impl_PushSupplier15_ptrToInterfaceEPKc @5390
    _ZTv0_n16_N13CosNotifyComm18_impl_PushSupplierD0Ev @5391
    _ZTv0_n16_N13CosNotifyComm18_impl_PushSupplierD1Ev @5392
    _ZTv0_n16_N13CosNotifyComm19_impl_NotifyPublish15_ptrToInterfaceEPKc @5393
    _ZTv0_n16_N13CosNotifyComm21_impl_NotifySubscribe15_ptrToInterfaceEPKc @5394
    _ZTv0_n16_N13CosNotifyComm26_impl_SequencePullConsumer15_ptrToInterfaceEPKc @5395
    _ZTv0_n16_N13CosNotifyComm26_impl_SequencePullConsumerD0Ev @5396
    _ZTv0_n16_N13CosNotifyComm26_impl_SequencePullConsumerD1Ev @5397
    _ZTv0_n16_N13CosNotifyComm26_impl_SequencePullSupplier15_ptrToInterfaceEPKc @5398
    _ZTv0_n16_N13CosNotifyComm26_impl_SequencePullSupplierD0Ev @5399
    _ZTv0_n16_N13CosNotifyComm26_impl_SequencePullSupplierD1Ev @5400
    _ZTv0_n16_N13CosNotifyComm26_impl_SequencePushConsumer15_ptrToInterfaceEPKc @5401
    _ZTv0_n16_N13CosNotifyComm26_impl_SequencePushConsumerD0Ev @5402
    _ZTv0_n16_N13CosNotifyComm26_impl_SequencePushConsumerD1Ev @5403
    _ZTv0_n16_N13CosNotifyComm26_impl_SequencePushSupplier15_ptrToInterfaceEPKc @5404
    _ZTv0_n16_N13CosNotifyComm26_impl_SequencePushSupplierD0Ev @5405
    _ZTv0_n16_N13CosNotifyComm26_impl_SequencePushSupplierD1Ev @5406
    _ZTv0_n16_N13CosNotifyComm28_impl_StructuredPullConsumer15_ptrToInterfaceEPKc @5407
    _ZTv0_n16_N13CosNotifyComm28_impl_StructuredPullConsumerD0Ev @5408
    _ZTv0_n16_N13CosNotifyComm28_impl_StructuredPullConsumerD1Ev @5409
    _ZTv0_n16_N13CosNotifyComm28_impl_StructuredPullSupplier15_ptrToInterfaceEPKc @5410
    _ZTv0_n16_N13CosNotifyComm28_impl_StructuredPullSupplierD0Ev @5411
    _ZTv0_n16_N13CosNotifyComm28_impl_StructuredPullSupplierD1Ev @5412
    _ZTv0_n16_N13CosNotifyComm28_impl_StructuredPushConsumer15_ptrToInterfaceEPKc @5413
    _ZTv0_n16_N13CosNotifyComm28_impl_StructuredPushConsumerD0Ev @5414
    _ZTv0_n16_N13CosNotifyComm28_impl_StructuredPushConsumerD1Ev @5415
    _ZTv0_n16_N13CosNotifyComm28_impl_StructuredPushSupplier15_ptrToInterfaceEPKc @5416
    _ZTv0_n16_N13CosNotifyComm28_impl_StructuredPushSupplierD0Ev @5417
    _ZTv0_n16_N13CosNotifyComm28_impl_StructuredPushSupplierD1Ev @5418
    _ZTv0_n16_N15CosNotification14_impl_QoSAdmin15_ptrToInterfaceEPKc @5419
    _ZTv0_n16_N15CosNotification26_impl_AdminPropertiesAdmin15_ptrToInterfaceEPKc @5420
    _ZTv0_n16_N15CosNotifyFilter12_impl_Filter15_ptrToInterfaceEPKc @5421
    _ZTv0_n16_N15CosNotifyFilter17_impl_FilterAdmin15_ptrToInterfaceEPKc @5422
    _ZTv0_n16_N15CosNotifyFilter19_impl_FilterFactory15_ptrToInterfaceEPKc @5423
    _ZTv0_n16_N15CosNotifyFilter19_impl_MappingFilter15_ptrToInterfaceEPKc @5424
    _ZTv0_n16_N16POA_CosEventComm12PullConsumerD0Ev @5425
    _ZTv0_n16_N16POA_CosEventComm12PullConsumerD1Ev @5426
    _ZTv0_n16_N16POA_CosEventComm12PullSupplierD0Ev @5427
    _ZTv0_n16_N16POA_CosEventComm12PullSupplierD1Ev @5428
    _ZTv0_n16_N16POA_CosEventComm12PushConsumerD0Ev @5429
    _ZTv0_n16_N16POA_CosEventComm12PushConsumerD1Ev @5430
    _ZTv0_n16_N16POA_CosEventComm12PushSupplierD0Ev @5431
    _ZTv0_n16_N16POA_CosEventComm12PushSupplierD1Ev @5432
    _ZTv0_n16_N16POA_CosLifeCycle13FactoryFinderD0Ev @5433
    _ZTv0_n16_N16POA_CosLifeCycle13FactoryFinderD1Ev @5434
    _ZTv0_n16_N16POA_CosLifeCycle14GenericFactoryD0Ev @5435
    _ZTv0_n16_N16POA_CosLifeCycle14GenericFactoryD1Ev @5436
    _ZTv0_n16_N16POA_CosLifeCycle15LifeCycleObjectD0Ev @5437
    _ZTv0_n16_N16POA_CosLifeCycle15LifeCycleObjectD1Ev @5438
    _ZTv0_n16_N17POA_CosNotifyComm12PullConsumerD0Ev @5439
    _ZTv0_n16_N17POA_CosNotifyComm12PullConsumerD1Ev @5440
    _ZTv0_n16_N17POA_CosNotifyComm12PullSupplierD0Ev @5441
    _ZTv0_n16_N17POA_CosNotifyComm12PullSupplierD1Ev @5442
    _ZTv0_n16_N17POA_CosNotifyComm12PushConsumerD0Ev @5443
    _ZTv0_n16_N17POA_CosNotifyComm12PushConsumerD1Ev @5444
    _ZTv0_n16_N17POA_CosNotifyComm12PushSupplierD0Ev @5445
    _ZTv0_n16_N17POA_CosNotifyComm12PushSupplierD1Ev @5446
    _ZTv0_n16_N17POA_CosNotifyComm13NotifyPublishD0Ev @5447
    _ZTv0_n16_N17POA_CosNotifyComm13NotifyPublishD1Ev @5448
    _ZTv0_n16_N17POA_CosNotifyComm15NotifySubscribeD0Ev @5449
    _ZTv0_n16_N17POA_CosNotifyComm15NotifySubscribeD1Ev @5450
    _ZTv0_n16_N17POA_CosNotifyComm20SequencePullConsumerD0Ev @5451
    _ZTv0_n16_N17POA_CosNotifyComm20SequencePullConsumerD1Ev @5452
    _ZTv0_n16_N17POA_CosNotifyComm20SequencePullSupplierD0Ev @5453
    _ZTv0_n16_N17POA_CosNotifyComm20SequencePullSupplierD1Ev @5454
    _ZTv0_n16_N17POA_CosNotifyComm20SequencePushConsumerD0Ev @5455
    _ZTv0_n16_N17POA_CosNotifyComm20SequencePushConsumerD1Ev @5456
    _ZTv0_n16_N17POA_CosNotifyComm20SequencePushSupplierD0Ev @5457
    _ZTv0_n16_N17POA_CosNotifyComm20SequencePushSupplierD1Ev @5458
    _ZTv0_n16_N17POA_CosNotifyComm22StructuredPullConsumerD0Ev @5459
    _ZTv0_n16_N17POA_CosNotifyComm22StructuredPullConsumerD1Ev @5460
    _ZTv0_n16_N17POA_CosNotifyComm22StructuredPullSupplierD0Ev @5461
    _ZTv0_n16_N17POA_CosNotifyComm22StructuredPullSupplierD1Ev @5462
    _ZTv0_n16_N17POA_CosNotifyComm22StructuredPushConsumerD0Ev @5463
    _ZTv0_n16_N17POA_CosNotifyComm22StructuredPushConsumerD1Ev @5464
    _ZTv0_n16_N17POA_CosNotifyComm22StructuredPushSupplierD0Ev @5465
    _ZTv0_n16_N17POA_CosNotifyComm22StructuredPushSupplierD1Ev @5466
    _ZTv0_n16_N19POA_CosNotification20AdminPropertiesAdminD0Ev @5467
    _ZTv0_n16_N19POA_CosNotification20AdminPropertiesAdminD1Ev @5468
    _ZTv0_n16_N19POA_CosNotification8QoSAdminD0Ev @5469
    _ZTv0_n16_N19POA_CosNotification8QoSAdminD1Ev @5470
    _ZTv0_n16_N19POA_CosNotifyFilter11FilterAdminD0Ev @5471
    _ZTv0_n16_N19POA_CosNotifyFilter11FilterAdminD1Ev @5472
    _ZTv0_n16_N19POA_CosNotifyFilter13FilterFactoryD0Ev @5473
    _ZTv0_n16_N19POA_CosNotifyFilter13FilterFactoryD1Ev @5474
    _ZTv0_n16_N19POA_CosNotifyFilter13MappingFilterD0Ev @5475
    _ZTv0_n16_N19POA_CosNotifyFilter13MappingFilterD1Ev @5476
    _ZTv0_n16_N19POA_CosNotifyFilter6FilterD0Ev @5477
    _ZTv0_n16_N19POA_CosNotifyFilter6FilterD1Ev @5478
    _ZTv0_n16_N20CosEventChannelAdmin18_impl_EventChannel15_ptrToInterfaceEPKc @5479
    _ZTv0_n16_N20CosEventChannelAdmin19_impl_ConsumerAdmin15_ptrToInterfaceEPKc @5480
    _ZTv0_n16_N20CosEventChannelAdmin19_impl_SupplierAdmin15_ptrToInterfaceEPKc @5481
    _ZTv0_n16_N20CosEventChannelAdmin23_impl_ProxyPullConsumer15_ptrToInterfaceEPKc @5482
    _ZTv0_n16_N20CosEventChannelAdmin23_impl_ProxyPullConsumerD0Ev @5483
    _ZTv0_n16_N20CosEventChannelAdmin23_impl_ProxyPullConsumerD1Ev @5484
    _ZTv0_n16_N20CosEventChannelAdmin23_impl_ProxyPullSupplier15_ptrToInterfaceEPKc @5485
    _ZTv0_n16_N20CosEventChannelAdmin23_impl_ProxyPullSupplierD0Ev @5486
    _ZTv0_n16_N20CosEventChannelAdmin23_impl_ProxyPullSupplierD1Ev @5487
    _ZTv0_n16_N20CosEventChannelAdmin23_impl_ProxyPushConsumer15_ptrToInterfaceEPKc @5488
    _ZTv0_n16_N20CosEventChannelAdmin23_impl_ProxyPushConsumerD0Ev @5489
    _ZTv0_n16_N20CosEventChannelAdmin23_impl_ProxyPushConsumerD1Ev @5490
    _ZTv0_n16_N20CosEventChannelAdmin23_impl_ProxyPushSupplier15_ptrToInterfaceEPKc @5491
    _ZTv0_n16_N20CosEventChannelAdmin23_impl_ProxyPushSupplierD0Ev @5492
    _ZTv0_n16_N20CosEventChannelAdmin23_impl_ProxyPushSupplierD1Ev @5493
    _ZTv0_n16_N21CosNotifyChannelAdmin18_impl_EventChannel15_ptrToInterfaceEPKc @5494
    _ZTv0_n16_N21CosNotifyChannelAdmin18_impl_EventChannelD0Ev @5495
    _ZTv0_n16_N21CosNotifyChannelAdmin18_impl_EventChannelD1Ev @5496
    _ZTv0_n16_N21CosNotifyChannelAdmin19_impl_ConsumerAdmin15_ptrToInterfaceEPKc @5497
    _ZTv0_n16_N21CosNotifyChannelAdmin19_impl_ConsumerAdminD0Ev @5498
    _ZTv0_n16_N21CosNotifyChannelAdmin19_impl_ConsumerAdminD1Ev @5499
    _ZTv0_n16_N21CosNotifyChannelAdmin19_impl_ProxyConsumer15_ptrToInterfaceEPKc @5500
    _ZTv0_n16_N21CosNotifyChannelAdmin19_impl_ProxyConsumerD0Ev @5501
    _ZTv0_n16_N21CosNotifyChannelAdmin19_impl_ProxyConsumerD1Ev @5502
    _ZTv0_n16_N21CosNotifyChannelAdmin19_impl_ProxySupplier15_ptrToInterfaceEPKc @5503
    _ZTv0_n16_N21CosNotifyChannelAdmin19_impl_ProxySupplierD0Ev @5504
    _ZTv0_n16_N21CosNotifyChannelAdmin19_impl_ProxySupplierD1Ev @5505
    _ZTv0_n16_N21CosNotifyChannelAdmin19_impl_SupplierAdmin15_ptrToInterfaceEPKc @5506
    _ZTv0_n16_N21CosNotifyChannelAdmin19_impl_SupplierAdminD0Ev @5507
    _ZTv0_n16_N21CosNotifyChannelAdmin19_impl_SupplierAdminD1Ev @5508
    _ZTv0_n16_N21CosNotifyChannelAdmin23_impl_ProxyPullConsumer15_ptrToInterfaceEPKc @5509
    _ZTv0_n16_N21CosNotifyChannelAdmin23_impl_ProxyPullConsumerD0Ev @5510
    _ZTv0_n16_N21CosNotifyChannelAdmin23_impl_ProxyPullConsumerD1Ev @5511
    _ZTv0_n16_N21CosNotifyChannelAdmin23_impl_ProxyPullSupplier15_ptrToInterfaceEPKc @5512
    _ZTv0_n16_N21CosNotifyChannelAdmin23_impl_ProxyPullSupplierD0Ev @5513
    _ZTv0_n16_N21CosNotifyChannelAdmin23_impl_ProxyPullSupplierD1Ev @5514
    _ZTv0_n16_N21CosNotifyChannelAdmin23_impl_ProxyPushConsumer15_ptrToInterfaceEPKc @5515
    _ZTv0_n16_N21CosNotifyChannelAdmin23_impl_ProxyPushConsumerD0Ev @5516
    _ZTv0_n16_N21CosNotifyChannelAdmin23_impl_ProxyPushConsumerD1Ev @5517
    _ZTv0_n16_N21CosNotifyChannelAdmin23_impl_ProxyPushSupplier15_ptrToInterfaceEPKc @5518
    _ZTv0_n16_N21CosNotifyChannelAdmin23_impl_ProxyPushSupplierD0Ev @5519
    _ZTv0_n16_N21CosNotifyChannelAdmin23_impl_ProxyPushSupplierD1Ev @5520
    _ZTv0_n16_N21CosNotifyChannelAdmin25_impl_EventChannelFactory15_ptrToInterfaceEPKc @5521
    _ZTv0_n16_N21CosNotifyChannelAdmin31_impl_SequenceProxyPullConsumer15_ptrToInterfaceEPKc @5522
    _ZTv0_n16_N21CosNotifyChannelAdmin31_impl_SequenceProxyPullConsumerD0Ev @5523
    _ZTv0_n16_N21CosNotifyChannelAdmin31_impl_SequenceProxyPullConsumerD1Ev @5524
    _ZTv0_n16_N21CosNotifyChannelAdmin31_impl_SequenceProxyPullSupplier15_ptrToInterfaceEPKc @5525
    _ZTv0_n16_N21CosNotifyChannelAdmin31_impl_SequenceProxyPullSupplierD0Ev @5526
    _ZTv0_n16_N21CosNotifyChannelAdmin31_impl_SequenceProxyPullSupplierD1Ev @5527
    _ZTv0_n16_N21CosNotifyChannelAdmin31_impl_SequenceProxyPushConsumer15_ptrToInterfaceEPKc @5528
    _ZTv0_n16_N21CosNotifyChannelAdmin31_impl_SequenceProxyPushConsumerD0Ev @5529
    _ZTv0_n16_N21CosNotifyChannelAdmin31_impl_SequenceProxyPushConsumerD1Ev @5530
    _ZTv0_n16_N21CosNotifyChannelAdmin31_impl_SequenceProxyPushSupplier15_ptrToInterfaceEPKc @5531
    _ZTv0_n16_N21CosNotifyChannelAdmin31_impl_SequenceProxyPushSupplierD0Ev @5532
    _ZTv0_n16_N21CosNotifyChannelAdmin31_impl_SequenceProxyPushSupplierD1Ev @5533
    _ZTv0_n16_N21CosNotifyChannelAdmin33_impl_StructuredProxyPullConsumer15_ptrToInterfaceEPKc @5534
    _ZTv0_n16_N21CosNotifyChannelAdmin33_impl_StructuredProxyPullConsumerD0Ev @5535
    _ZTv0_n16_N21CosNotifyChannelAdmin33_impl_StructuredProxyPullConsumerD1Ev @5536
    _ZTv0_n16_N21CosNotifyChannelAdmin33_impl_StructuredProxyPullSupplier15_ptrToInterfaceEPKc @5537
    _ZTv0_n16_N21CosNotifyChannelAdmin33_impl_StructuredProxyPullSupplierD0Ev @5538
    _ZTv0_n16_N21CosNotifyChannelAdmin33_impl_StructuredProxyPullSupplierD1Ev @5539
    _ZTv0_n16_N21CosNotifyChannelAdmin33_impl_StructuredProxyPushConsumer15_ptrToInterfaceEPKc @5540
    _ZTv0_n16_N21CosNotifyChannelAdmin33_impl_StructuredProxyPushConsumerD0Ev @5541
    _ZTv0_n16_N21CosNotifyChannelAdmin33_impl_StructuredProxyPushConsumerD1Ev @5542
    _ZTv0_n16_N21CosNotifyChannelAdmin33_impl_StructuredProxyPushSupplier15_ptrToInterfaceEPKc @5543
    _ZTv0_n16_N21CosNotifyChannelAdmin33_impl_StructuredProxyPushSupplierD0Ev @5544
    _ZTv0_n16_N21CosNotifyChannelAdmin33_impl_StructuredProxyPushSupplierD1Ev @5545
    _ZTv0_n16_N24POA_CosEventChannelAdmin12EventChannelD0Ev @5546
    _ZTv0_n16_N24POA_CosEventChannelAdmin12EventChannelD1Ev @5547
    _ZTv0_n16_N24POA_CosEventChannelAdmin13ConsumerAdminD0Ev @5548
    _ZTv0_n16_N24POA_CosEventChannelAdmin13ConsumerAdminD1Ev @5549
    _ZTv0_n16_N24POA_CosEventChannelAdmin13SupplierAdminD0Ev @5550
    _ZTv0_n16_N24POA_CosEventChannelAdmin13SupplierAdminD1Ev @5551
    _ZTv0_n16_N24POA_CosEventChannelAdmin17ProxyPullConsumerD0Ev @5552
    _ZTv0_n16_N24POA_CosEventChannelAdmin17ProxyPullConsumerD1Ev @5553
    _ZTv0_n16_N24POA_CosEventChannelAdmin17ProxyPullSupplierD0Ev @5554
    _ZTv0_n16_N24POA_CosEventChannelAdmin17ProxyPullSupplierD1Ev @5555
    _ZTv0_n16_N24POA_CosEventChannelAdmin17ProxyPushConsumerD0Ev @5556
    _ZTv0_n16_N24POA_CosEventChannelAdmin17ProxyPushConsumerD1Ev @5557
    _ZTv0_n16_N24POA_CosEventChannelAdmin17ProxyPushSupplierD0Ev @5558
    _ZTv0_n16_N24POA_CosEventChannelAdmin17ProxyPushSupplierD1Ev @5559
    _ZTv0_n16_N25POA_CosNotifyChannelAdmin12EventChannelD0Ev @5560
    _ZTv0_n16_N25POA_CosNotifyChannelAdmin12EventChannelD1Ev @5561
    _ZTv0_n16_N25POA_CosNotifyChannelAdmin13ConsumerAdminD0Ev @5562
    _ZTv0_n16_N25POA_CosNotifyChannelAdmin13ConsumerAdminD1Ev @5563
    _ZTv0_n16_N25POA_CosNotifyChannelAdmin13ProxyConsumerD0Ev @5564
    _ZTv0_n16_N25POA_CosNotifyChannelAdmin13ProxyConsumerD1Ev @5565
    _ZTv0_n16_N25POA_CosNotifyChannelAdmin13ProxySupplierD0Ev @5566
    _ZTv0_n16_N25POA_CosNotifyChannelAdmin13ProxySupplierD1Ev @5567
    _ZTv0_n16_N25POA_CosNotifyChannelAdmin13SupplierAdminD0Ev @5568
    _ZTv0_n16_N25POA_CosNotifyChannelAdmin13SupplierAdminD1Ev @5569
    _ZTv0_n16_N25POA_CosNotifyChannelAdmin17ProxyPullConsumerD0Ev @5570
    _ZTv0_n16_N25POA_CosNotifyChannelAdmin17ProxyPullConsumerD1Ev @5571
    _ZTv0_n16_N25POA_CosNotifyChannelAdmin17ProxyPullSupplierD0Ev @5572
    _ZTv0_n16_N25POA_CosNotifyChannelAdmin17ProxyPullSupplierD1Ev @5573
    _ZTv0_n16_N25POA_CosNotifyChannelAdmin17ProxyPushConsumerD0Ev @5574
    _ZTv0_n16_N25POA_CosNotifyChannelAdmin17ProxyPushConsumerD1Ev @5575
    _ZTv0_n16_N25POA_CosNotifyChannelAdmin17ProxyPushSupplierD0Ev @5576
    _ZTv0_n16_N25POA_CosNotifyChannelAdmin17ProxyPushSupplierD1Ev @5577
    _ZTv0_n16_N25POA_CosNotifyChannelAdmin19EventChannelFactoryD0Ev @5578
    _ZTv0_n16_N25POA_CosNotifyChannelAdmin19EventChannelFactoryD1Ev @5579
    _ZTv0_n16_N25POA_CosNotifyChannelAdmin25SequenceProxyPullConsumerD0Ev @5580
    _ZTv0_n16_N25POA_CosNotifyChannelAdmin25SequenceProxyPullConsumerD1Ev @5581
    _ZTv0_n16_N25POA_CosNotifyChannelAdmin25SequenceProxyPullSupplierD0Ev @5582
    _ZTv0_n16_N25POA_CosNotifyChannelAdmin25SequenceProxyPullSupplierD1Ev @5583
    _ZTv0_n16_N25POA_CosNotifyChannelAdmin25SequenceProxyPushConsumerD0Ev @5584
    _ZTv0_n16_N25POA_CosNotifyChannelAdmin25SequenceProxyPushConsumerD1Ev @5585
    _ZTv0_n16_N25POA_CosNotifyChannelAdmin25SequenceProxyPushSupplierD0Ev @5586
    _ZTv0_n16_N25POA_CosNotifyChannelAdmin25SequenceProxyPushSupplierD1Ev @5587
    _ZTv0_n16_N25POA_CosNotifyChannelAdmin27StructuredProxyPullConsumerD0Ev @5588
    _ZTv0_n16_N25POA_CosNotifyChannelAdmin27StructuredProxyPullConsumerD1Ev @5589
    _ZTv0_n16_N25POA_CosNotifyChannelAdmin27StructuredProxyPullSupplierD0Ev @5590
    _ZTv0_n16_N25POA_CosNotifyChannelAdmin27StructuredProxyPullSupplierD1Ev @5591
    _ZTv0_n16_N25POA_CosNotifyChannelAdmin27StructuredProxyPushConsumerD0Ev @5592
    _ZTv0_n16_N25POA_CosNotifyChannelAdmin27StructuredProxyPushConsumerD1Ev @5593
    _ZTv0_n16_N25POA_CosNotifyChannelAdmin27StructuredProxyPushSupplierD0Ev @5594
    _ZTv0_n16_N25POA_CosNotifyChannelAdmin27StructuredProxyPushSupplierD1Ev @5595
    _ZTv0_n16_N7CosTime17_impl_TimeService15_ptrToInterfaceEPKc @5596
    _ZTv0_n16_N7CosTime9_impl_TIO15_ptrToInterfaceEPKc @5597
    _ZTv0_n16_N7CosTime9_impl_UTO15_ptrToInterfaceEPKc @5598
    _ZTv0_n20_N13CosNotifyComm20_objref_PullConsumerD0Ev @5599
    _ZTv0_n20_N13CosNotifyComm20_objref_PullConsumerD1Ev @5600
    _ZTv0_n20_N13CosNotifyComm20_objref_PullSupplierD0Ev @5601
    _ZTv0_n20_N13CosNotifyComm20_objref_PullSupplierD1Ev @5602
    _ZTv0_n20_N13CosNotifyComm20_objref_PushConsumerD0Ev @5603
    _ZTv0_n20_N13CosNotifyComm20_objref_PushConsumerD1Ev @5604
    _ZTv0_n20_N13CosNotifyComm20_objref_PushSupplierD0Ev @5605
    _ZTv0_n20_N13CosNotifyComm20_objref_PushSupplierD1Ev @5606
    _ZTv0_n20_N13CosNotifyComm28_objref_SequencePullConsumerD0Ev @5607
    _ZTv0_n20_N13CosNotifyComm28_objref_SequencePullConsumerD1Ev @5608
    _ZTv0_n20_N13CosNotifyComm28_objref_SequencePullSupplierD0Ev @5609
    _ZTv0_n20_N13CosNotifyComm28_objref_SequencePullSupplierD1Ev @5610
    _ZTv0_n20_N13CosNotifyComm28_objref_SequencePushConsumerD0Ev @5611
    _ZTv0_n20_N13CosNotifyComm28_objref_SequencePushConsumerD1Ev @5612
    _ZTv0_n20_N13CosNotifyComm28_objref_SequencePushSupplierD0Ev @5613
    _ZTv0_n20_N13CosNotifyComm28_objref_SequencePushSupplierD1Ev @5614
    _ZTv0_n20_N13CosNotifyComm30_objref_StructuredPullConsumerD0Ev @5615
    _ZTv0_n20_N13CosNotifyComm30_objref_StructuredPullConsumerD1Ev @5616
    _ZTv0_n20_N13CosNotifyComm30_objref_StructuredPullSupplierD0Ev @5617
    _ZTv0_n20_N13CosNotifyComm30_objref_StructuredPullSupplierD1Ev @5618
    _ZTv0_n20_N13CosNotifyComm30_objref_StructuredPushConsumerD0Ev @5619
    _ZTv0_n20_N13CosNotifyComm30_objref_StructuredPushConsumerD1Ev @5620
    _ZTv0_n20_N13CosNotifyComm30_objref_StructuredPushSupplierD0Ev @5621
    _ZTv0_n20_N13CosNotifyComm30_objref_StructuredPushSupplierD1Ev @5622
    _ZTv0_n20_N20CosEventChannelAdmin25_objref_ProxyPullConsumerD0Ev @5623
    _ZTv0_n20_N20CosEventChannelAdmin25_objref_ProxyPullConsumerD1Ev @5624
    _ZTv0_n20_N20CosEventChannelAdmin25_objref_ProxyPullSupplierD0Ev @5625
    _ZTv0_n20_N20CosEventChannelAdmin25_objref_ProxyPullSupplierD1Ev @5626
    _ZTv0_n20_N20CosEventChannelAdmin25_objref_ProxyPushConsumerD0Ev @5627
    _ZTv0_n20_N20CosEventChannelAdmin25_objref_ProxyPushConsumerD1Ev @5628
    _ZTv0_n20_N20CosEventChannelAdmin25_objref_ProxyPushSupplierD0Ev @5629
    _ZTv0_n20_N20CosEventChannelAdmin25_objref_ProxyPushSupplierD1Ev @5630
    _ZTv0_n20_N21CosNotifyChannelAdmin20_objref_EventChannelD0Ev @5631
    _ZTv0_n20_N21CosNotifyChannelAdmin20_objref_EventChannelD1Ev @5632
    _ZTv0_n20_N21CosNotifyChannelAdmin21_objref_ConsumerAdminD0Ev @5633
    _ZTv0_n20_N21CosNotifyChannelAdmin21_objref_ConsumerAdminD1Ev @5634
    _ZTv0_n20_N21CosNotifyChannelAdmin21_objref_ProxyConsumerD0Ev @5635
    _ZTv0_n20_N21CosNotifyChannelAdmin21_objref_ProxyConsumerD1Ev @5636
    _ZTv0_n20_N21CosNotifyChannelAdmin21_objref_ProxySupplierD0Ev @5637
    _ZTv0_n20_N21CosNotifyChannelAdmin21_objref_ProxySupplierD1Ev @5638
    _ZTv0_n20_N21CosNotifyChannelAdmin21_objref_SupplierAdminD0Ev @5639
    _ZTv0_n20_N21CosNotifyChannelAdmin21_objref_SupplierAdminD1Ev @5640
    _ZTv0_n20_N21CosNotifyChannelAdmin25_objref_ProxyPullConsumerD0Ev @5641
    _ZTv0_n20_N21CosNotifyChannelAdmin25_objref_ProxyPullConsumerD1Ev @5642
    _ZTv0_n20_N21CosNotifyChannelAdmin25_objref_ProxyPullSupplierD0Ev @5643
    _ZTv0_n20_N21CosNotifyChannelAdmin25_objref_ProxyPullSupplierD1Ev @5644
    _ZTv0_n20_N21CosNotifyChannelAdmin25_objref_ProxyPushConsumerD0Ev @5645
    _ZTv0_n20_N21CosNotifyChannelAdmin25_objref_ProxyPushConsumerD1Ev @5646
    _ZTv0_n20_N21CosNotifyChannelAdmin25_objref_ProxyPushSupplierD0Ev @5647
    _ZTv0_n20_N21CosNotifyChannelAdmin25_objref_ProxyPushSupplierD1Ev @5648
    _ZTv0_n20_N21CosNotifyChannelAdmin33_objref_SequenceProxyPullConsumerD0Ev @5649
    _ZTv0_n20_N21CosNotifyChannelAdmin33_objref_SequenceProxyPullConsumerD1Ev @5650
    _ZTv0_n20_N21CosNotifyChannelAdmin33_objref_SequenceProxyPullSupplierD0Ev @5651
    _ZTv0_n20_N21CosNotifyChannelAdmin33_objref_SequenceProxyPullSupplierD1Ev @5652
    _ZTv0_n20_N21CosNotifyChannelAdmin33_objref_SequenceProxyPushConsumerD0Ev @5653
    _ZTv0_n20_N21CosNotifyChannelAdmin33_objref_SequenceProxyPushConsumerD1Ev @5654
    _ZTv0_n20_N21CosNotifyChannelAdmin33_objref_SequenceProxyPushSupplierD0Ev @5655
    _ZTv0_n20_N21CosNotifyChannelAdmin33_objref_SequenceProxyPushSupplierD1Ev @5656
    _ZTv0_n20_N21CosNotifyChannelAdmin35_objref_StructuredProxyPullConsumerD0Ev @5657
    _ZTv0_n20_N21CosNotifyChannelAdmin35_objref_StructuredProxyPullConsumerD1Ev @5658
    _ZTv0_n20_N21CosNotifyChannelAdmin35_objref_StructuredProxyPullSupplierD0Ev @5659
    _ZTv0_n20_N21CosNotifyChannelAdmin35_objref_StructuredProxyPullSupplierD1Ev @5660
    _ZTv0_n20_N21CosNotifyChannelAdmin35_objref_StructuredProxyPushConsumerD0Ev @5661
    _ZTv0_n20_N21CosNotifyChannelAdmin35_objref_StructuredProxyPushConsumerD1Ev @5662
    _ZTv0_n20_N21CosNotifyChannelAdmin35_objref_StructuredProxyPushSupplierD0Ev @5663
    _ZTv0_n20_N21CosNotifyChannelAdmin35_objref_StructuredProxyPushSupplierD1Ev @5664
    _ZTv0_n24_N12CosEventComm18_impl_PullConsumer18_mostDerivedRepoIdEv @5665
    _ZTv0_n24_N12CosEventComm18_impl_PullSupplier18_mostDerivedRepoIdEv @5666
    _ZTv0_n24_N12CosEventComm18_impl_PushConsumer18_mostDerivedRepoIdEv @5667
    _ZTv0_n24_N12CosEventComm18_impl_PushSupplier18_mostDerivedRepoIdEv @5668
    _ZTv0_n24_N12CosEventComm20_objref_PullConsumerD0Ev @5669
    _ZTv0_n24_N12CosEventComm20_objref_PullConsumerD1Ev @5670
    _ZTv0_n24_N12CosEventComm20_objref_PullSupplierD0Ev @5671
    _ZTv0_n24_N12CosEventComm20_objref_PullSupplierD1Ev @5672
    _ZTv0_n24_N12CosEventComm20_objref_PushConsumerD0Ev @5673
    _ZTv0_n24_N12CosEventComm20_objref_PushConsumerD1Ev @5674
    _ZTv0_n24_N12CosEventComm20_objref_PushSupplierD0Ev @5675
    _ZTv0_n24_N12CosEventComm20_objref_PushSupplierD1Ev @5676
    _ZTv0_n24_N12CosLifeCycle19_impl_FactoryFinder18_mostDerivedRepoIdEv @5677
    _ZTv0_n24_N12CosLifeCycle20_impl_GenericFactory18_mostDerivedRepoIdEv @5678
    _ZTv0_n24_N12CosLifeCycle21_impl_LifeCycleObject18_mostDerivedRepoIdEv @5679
    _ZTv0_n24_N12CosLifeCycle21_objref_FactoryFinderD0Ev @5680
    _ZTv0_n24_N12CosLifeCycle21_objref_FactoryFinderD1Ev @5681
    _ZTv0_n24_N12CosLifeCycle22_objref_GenericFactoryD0Ev @5682
    _ZTv0_n24_N12CosLifeCycle22_objref_GenericFactoryD1Ev @5683
    _ZTv0_n24_N12CosLifeCycle23_objref_LifeCycleObjectD0Ev @5684
    _ZTv0_n24_N12CosLifeCycle23_objref_LifeCycleObjectD1Ev @5685
    _ZTv0_n24_N13CosNotifyComm18_impl_PullConsumer18_mostDerivedRepoIdEv @5686
    _ZTv0_n24_N13CosNotifyComm18_impl_PullConsumer9_dispatchER14omniCallHandle @5687
    _ZTv0_n24_N13CosNotifyComm18_impl_PullSupplier18_mostDerivedRepoIdEv @5688
    _ZTv0_n24_N13CosNotifyComm18_impl_PullSupplier9_dispatchER14omniCallHandle @5689
    _ZTv0_n24_N13CosNotifyComm18_impl_PushConsumer18_mostDerivedRepoIdEv @5690
    _ZTv0_n24_N13CosNotifyComm18_impl_PushConsumer9_dispatchER14omniCallHandle @5691
    _ZTv0_n24_N13CosNotifyComm18_impl_PushSupplier18_mostDerivedRepoIdEv @5692
    _ZTv0_n24_N13CosNotifyComm18_impl_PushSupplier9_dispatchER14omniCallHandle @5693
    _ZTv0_n24_N13CosNotifyComm19_impl_NotifyPublish18_mostDerivedRepoIdEv @5694
    _ZTv0_n24_N13CosNotifyComm20_objref_PullConsumer12_ptrToObjRefEPKc @5695
    _ZTv0_n24_N13CosNotifyComm20_objref_PullConsumerD0Ev @5696
    _ZTv0_n24_N13CosNotifyComm20_objref_PullConsumerD1Ev @5697
    _ZTv0_n24_N13CosNotifyComm20_objref_PullSupplier12_ptrToObjRefEPKc @5698
    _ZTv0_n24_N13CosNotifyComm20_objref_PullSupplierD0Ev @5699
    _ZTv0_n24_N13CosNotifyComm20_objref_PullSupplierD1Ev @5700
    _ZTv0_n24_N13CosNotifyComm20_objref_PushConsumer12_ptrToObjRefEPKc @5701
    _ZTv0_n24_N13CosNotifyComm20_objref_PushConsumerD0Ev @5702
    _ZTv0_n24_N13CosNotifyComm20_objref_PushConsumerD1Ev @5703
    _ZTv0_n24_N13CosNotifyComm20_objref_PushSupplier12_ptrToObjRefEPKc @5704
    _ZTv0_n24_N13CosNotifyComm20_objref_PushSupplierD0Ev @5705
    _ZTv0_n24_N13CosNotifyComm20_objref_PushSupplierD1Ev @5706
    _ZTv0_n24_N13CosNotifyComm21_impl_NotifySubscribe18_mostDerivedRepoIdEv @5707
    _ZTv0_n24_N13CosNotifyComm21_objref_NotifyPublishD0Ev @5708
    _ZTv0_n24_N13CosNotifyComm21_objref_NotifyPublishD1Ev @5709
    _ZTv0_n24_N13CosNotifyComm23_objref_NotifySubscribeD0Ev @5710
    _ZTv0_n24_N13CosNotifyComm23_objref_NotifySubscribeD1Ev @5711
    _ZTv0_n24_N13CosNotifyComm26_impl_SequencePullConsumer18_mostDerivedRepoIdEv @5712
    _ZTv0_n24_N13CosNotifyComm26_impl_SequencePullConsumer9_dispatchER14omniCallHandle @5713
    _ZTv0_n24_N13CosNotifyComm26_impl_SequencePullSupplier18_mostDerivedRepoIdEv @5714
    _ZTv0_n24_N13CosNotifyComm26_impl_SequencePullSupplier9_dispatchER14omniCallHandle @5715
    _ZTv0_n24_N13CosNotifyComm26_impl_SequencePushConsumer18_mostDerivedRepoIdEv @5716
    _ZTv0_n24_N13CosNotifyComm26_impl_SequencePushConsumer9_dispatchER14omniCallHandle @5717
    _ZTv0_n24_N13CosNotifyComm26_impl_SequencePushSupplier18_mostDerivedRepoIdEv @5718
    _ZTv0_n24_N13CosNotifyComm26_impl_SequencePushSupplier9_dispatchER14omniCallHandle @5719
    _ZTv0_n24_N13CosNotifyComm28_impl_StructuredPullConsumer18_mostDerivedRepoIdEv @5720
    _ZTv0_n24_N13CosNotifyComm28_impl_StructuredPullConsumer9_dispatchER14omniCallHandle @5721
    _ZTv0_n24_N13CosNotifyComm28_impl_StructuredPullSupplier18_mostDerivedRepoIdEv @5722
    _ZTv0_n24_N13CosNotifyComm28_impl_StructuredPullSupplier9_dispatchER14omniCallHandle @5723
    _ZTv0_n24_N13CosNotifyComm28_impl_StructuredPushConsumer18_mostDerivedRepoIdEv @5724
    _ZTv0_n24_N13CosNotifyComm28_impl_StructuredPushConsumer9_dispatchER14omniCallHandle @5725
    _ZTv0_n24_N13CosNotifyComm28_impl_StructuredPushSupplier18_mostDerivedRepoIdEv @5726
    _ZTv0_n24_N13CosNotifyComm28_impl_StructuredPushSupplier9_dispatchER14omniCallHandle @5727
    _ZTv0_n24_N13CosNotifyComm28_objref_SequencePullConsumer12_ptrToObjRefEPKc @5728
    _ZTv0_n24_N13CosNotifyComm28_objref_SequencePullConsumerD0Ev @5729
    _ZTv0_n24_N13CosNotifyComm28_objref_SequencePullConsumerD1Ev @5730
    _ZTv0_n24_N13CosNotifyComm28_objref_SequencePullSupplier12_ptrToObjRefEPKc @5731
    _ZTv0_n24_N13CosNotifyComm28_objref_SequencePullSupplierD0Ev @5732
    _ZTv0_n24_N13CosNotifyComm28_objref_SequencePullSupplierD1Ev @5733
    _ZTv0_n24_N13CosNotifyComm28_objref_SequencePushConsumer12_ptrToObjRefEPKc @5734
    _ZTv0_n24_N13CosNotifyComm28_objref_SequencePushConsumerD0Ev @5735
    _ZTv0_n24_N13CosNotifyComm28_objref_SequencePushConsumerD1Ev @5736
    _ZTv0_n24_N13CosNotifyComm28_objref_SequencePushSupplier12_ptrToObjRefEPKc @5737
    _ZTv0_n24_N13CosNotifyComm28_objref_SequencePushSupplierD0Ev @5738
    _ZTv0_n24_N13CosNotifyComm28_objref_SequencePushSupplierD1Ev @5739
    _ZTv0_n24_N13CosNotifyComm30_objref_StructuredPullConsumer12_ptrToObjRefEPKc @5740
    _ZTv0_n24_N13CosNotifyComm30_objref_StructuredPullConsumerD0Ev @5741
    _ZTv0_n24_N13CosNotifyComm30_objref_StructuredPullConsumerD1Ev @5742
    _ZTv0_n24_N13CosNotifyComm30_objref_StructuredPullSupplier12_ptrToObjRefEPKc @5743
    _ZTv0_n24_N13CosNotifyComm30_objref_StructuredPullSupplierD0Ev @5744
    _ZTv0_n24_N13CosNotifyComm30_objref_StructuredPullSupplierD1Ev @5745
    _ZTv0_n24_N13CosNotifyComm30_objref_StructuredPushConsumer12_ptrToObjRefEPKc @5746
    _ZTv0_n24_N13CosNotifyComm30_objref_StructuredPushConsumerD0Ev @5747
    _ZTv0_n24_N13CosNotifyComm30_objref_StructuredPushConsumerD1Ev @5748
    _ZTv0_n24_N13CosNotifyComm30_objref_StructuredPushSupplier12_ptrToObjRefEPKc @5749
    _ZTv0_n24_N13CosNotifyComm30_objref_StructuredPushSupplierD0Ev @5750
    _ZTv0_n24_N13CosNotifyComm30_objref_StructuredPushSupplierD1Ev @5751
    _ZTv0_n24_N15CosNotification14_impl_QoSAdmin18_mostDerivedRepoIdEv @5752
    _ZTv0_n24_N15CosNotification16_objref_QoSAdminD0Ev @5753
    _ZTv0_n24_N15CosNotification16_objref_QoSAdminD1Ev @5754
    _ZTv0_n24_N15CosNotification26_impl_AdminPropertiesAdmin18_mostDerivedRepoIdEv @5755
    _ZTv0_n24_N15CosNotification28_objref_AdminPropertiesAdminD0Ev @5756
    _ZTv0_n24_N15CosNotification28_objref_AdminPropertiesAdminD1Ev @5757
    _ZTv0_n24_N15CosNotifyFilter12_impl_Filter18_mostDerivedRepoIdEv @5758
    _ZTv0_n24_N15CosNotifyFilter14_objref_FilterD0Ev @5759
    _ZTv0_n24_N15CosNotifyFilter14_objref_FilterD1Ev @5760
    _ZTv0_n24_N15CosNotifyFilter17_impl_FilterAdmin18_mostDerivedRepoIdEv @5761
    _ZTv0_n24_N15CosNotifyFilter19_impl_FilterFactory18_mostDerivedRepoIdEv @5762
    _ZTv0_n24_N15CosNotifyFilter19_impl_MappingFilter18_mostDerivedRepoIdEv @5763
    _ZTv0_n24_N15CosNotifyFilter19_objref_FilterAdminD0Ev @5764
    _ZTv0_n24_N15CosNotifyFilter19_objref_FilterAdminD1Ev @5765
    _ZTv0_n24_N15CosNotifyFilter21_objref_FilterFactoryD0Ev @5766
    _ZTv0_n24_N15CosNotifyFilter21_objref_FilterFactoryD1Ev @5767
    _ZTv0_n24_N15CosNotifyFilter21_objref_MappingFilterD0Ev @5768
    _ZTv0_n24_N15CosNotifyFilter21_objref_MappingFilterD1Ev @5769
    _ZTv0_n24_N20CosEventChannelAdmin18_impl_EventChannel18_mostDerivedRepoIdEv @5770
    _ZTv0_n24_N20CosEventChannelAdmin19_impl_ConsumerAdmin18_mostDerivedRepoIdEv @5771
    _ZTv0_n24_N20CosEventChannelAdmin19_impl_SupplierAdmin18_mostDerivedRepoIdEv @5772
    _ZTv0_n24_N20CosEventChannelAdmin20_objref_EventChannelD0Ev @5773
    _ZTv0_n24_N20CosEventChannelAdmin20_objref_EventChannelD1Ev @5774
    _ZTv0_n24_N20CosEventChannelAdmin21_objref_ConsumerAdminD0Ev @5775
    _ZTv0_n24_N20CosEventChannelAdmin21_objref_ConsumerAdminD1Ev @5776
    _ZTv0_n24_N20CosEventChannelAdmin21_objref_SupplierAdminD0Ev @5777
    _ZTv0_n24_N20CosEventChannelAdmin21_objref_SupplierAdminD1Ev @5778
    _ZTv0_n24_N20CosEventChannelAdmin23_impl_ProxyPullConsumer18_mostDerivedRepoIdEv @5779
    _ZTv0_n24_N20CosEventChannelAdmin23_impl_ProxyPullConsumer9_dispatchER14omniCallHandle @5780
    _ZTv0_n24_N20CosEventChannelAdmin23_impl_ProxyPullSupplier18_mostDerivedRepoIdEv @5781
    _ZTv0_n24_N20CosEventChannelAdmin23_impl_ProxyPushConsumer18_mostDerivedRepoIdEv @5782
    _ZTv0_n24_N20CosEventChannelAdmin23_impl_ProxyPushSupplier18_mostDerivedRepoIdEv @5783
    _ZTv0_n24_N20CosEventChannelAdmin23_impl_ProxyPushSupplier9_dispatchER14omniCallHandle @5784
    _ZTv0_n24_N20CosEventChannelAdmin25_objref_ProxyPullConsumer12_ptrToObjRefEPKc @5785
    _ZTv0_n24_N20CosEventChannelAdmin25_objref_ProxyPullConsumerD0Ev @5786
    _ZTv0_n24_N20CosEventChannelAdmin25_objref_ProxyPullConsumerD1Ev @5787
    _ZTv0_n24_N20CosEventChannelAdmin25_objref_ProxyPullSupplier12_ptrToObjRefEPKc @5788
    _ZTv0_n24_N20CosEventChannelAdmin25_objref_ProxyPullSupplierD0Ev @5789
    _ZTv0_n24_N20CosEventChannelAdmin25_objref_ProxyPullSupplierD1Ev @5790
    _ZTv0_n24_N20CosEventChannelAdmin25_objref_ProxyPushConsumer12_ptrToObjRefEPKc @5791
    _ZTv0_n24_N20CosEventChannelAdmin25_objref_ProxyPushConsumerD0Ev @5792
    _ZTv0_n24_N20CosEventChannelAdmin25_objref_ProxyPushConsumerD1Ev @5793
    _ZTv0_n24_N20CosEventChannelAdmin25_objref_ProxyPushSupplier12_ptrToObjRefEPKc @5794
    _ZTv0_n24_N20CosEventChannelAdmin25_objref_ProxyPushSupplierD0Ev @5795
    _ZTv0_n24_N20CosEventChannelAdmin25_objref_ProxyPushSupplierD1Ev @5796
    _ZTv0_n24_N21CosNotifyChannelAdmin18_impl_EventChannel18_mostDerivedRepoIdEv @5797
    _ZTv0_n24_N21CosNotifyChannelAdmin19_impl_ConsumerAdmin18_mostDerivedRepoIdEv @5798
    _ZTv0_n24_N21CosNotifyChannelAdmin19_impl_ConsumerAdmin9_dispatchER14omniCallHandle @5799
    _ZTv0_n24_N21CosNotifyChannelAdmin19_impl_ProxyConsumer18_mostDerivedRepoIdEv @5800
    _ZTv0_n24_N21CosNotifyChannelAdmin19_impl_ProxySupplier18_mostDerivedRepoIdEv @5801
    _ZTv0_n24_N21CosNotifyChannelAdmin19_impl_SupplierAdmin18_mostDerivedRepoIdEv @5802
    _ZTv0_n24_N21CosNotifyChannelAdmin19_impl_SupplierAdmin9_dispatchER14omniCallHandle @5803
    _ZTv0_n24_N21CosNotifyChannelAdmin20_objref_EventChannel12_ptrToObjRefEPKc @5804
    _ZTv0_n24_N21CosNotifyChannelAdmin20_objref_EventChannelD0Ev @5805
    _ZTv0_n24_N21CosNotifyChannelAdmin20_objref_EventChannelD1Ev @5806
    _ZTv0_n24_N21CosNotifyChannelAdmin21_objref_ConsumerAdmin12_ptrToObjRefEPKc @5807
    _ZTv0_n24_N21CosNotifyChannelAdmin21_objref_ConsumerAdminD0Ev @5808
    _ZTv0_n24_N21CosNotifyChannelAdmin21_objref_ConsumerAdminD1Ev @5809
    _ZTv0_n24_N21CosNotifyChannelAdmin21_objref_ProxyConsumer12_ptrToObjRefEPKc @5810
    _ZTv0_n24_N21CosNotifyChannelAdmin21_objref_ProxyConsumerD0Ev @5811
    _ZTv0_n24_N21CosNotifyChannelAdmin21_objref_ProxyConsumerD1Ev @5812
    _ZTv0_n24_N21CosNotifyChannelAdmin21_objref_ProxySupplier12_ptrToObjRefEPKc @5813
    _ZTv0_n24_N21CosNotifyChannelAdmin21_objref_ProxySupplierD0Ev @5814
    _ZTv0_n24_N21CosNotifyChannelAdmin21_objref_ProxySupplierD1Ev @5815
    _ZTv0_n24_N21CosNotifyChannelAdmin21_objref_SupplierAdmin12_ptrToObjRefEPKc @5816
    _ZTv0_n24_N21CosNotifyChannelAdmin21_objref_SupplierAdminD0Ev @5817
    _ZTv0_n24_N21CosNotifyChannelAdmin21_objref_SupplierAdminD1Ev @5818
    _ZTv0_n24_N21CosNotifyChannelAdmin23_impl_ProxyPullConsumer18_mostDerivedRepoIdEv @5819
    _ZTv0_n24_N21CosNotifyChannelAdmin23_impl_ProxyPullConsumer9_dispatchER14omniCallHandle @5820
    _ZTv0_n24_N21CosNotifyChannelAdmin23_impl_ProxyPullSupplier18_mostDerivedRepoIdEv @5821
    _ZTv0_n24_N21CosNotifyChannelAdmin23_impl_ProxyPullSupplier9_dispatchER14omniCallHandle @5822
    _ZTv0_n24_N21CosNotifyChannelAdmin23_impl_ProxyPushConsumer18_mostDerivedRepoIdEv @5823
    _ZTv0_n24_N21CosNotifyChannelAdmin23_impl_ProxyPushConsumer9_dispatchER14omniCallHandle @5824
    _ZTv0_n24_N21CosNotifyChannelAdmin23_impl_ProxyPushSupplier18_mostDerivedRepoIdEv @5825
    _ZTv0_n24_N21CosNotifyChannelAdmin23_impl_ProxyPushSupplier9_dispatchER14omniCallHandle @5826
    _ZTv0_n24_N21CosNotifyChannelAdmin25_impl_EventChannelFactory18_mostDerivedRepoIdEv @5827
    _ZTv0_n24_N21CosNotifyChannelAdmin25_objref_ProxyPullConsumer12_ptrToObjRefEPKc @5828
    _ZTv0_n24_N21CosNotifyChannelAdmin25_objref_ProxyPullConsumerD0Ev @5829
    _ZTv0_n24_N21CosNotifyChannelAdmin25_objref_ProxyPullConsumerD1Ev @5830
    _ZTv0_n24_N21CosNotifyChannelAdmin25_objref_ProxyPullSupplier12_ptrToObjRefEPKc @5831
    _ZTv0_n24_N21CosNotifyChannelAdmin25_objref_ProxyPullSupplierD0Ev @5832
    _ZTv0_n24_N21CosNotifyChannelAdmin25_objref_ProxyPullSupplierD1Ev @5833
    _ZTv0_n24_N21CosNotifyChannelAdmin25_objref_ProxyPushConsumer12_ptrToObjRefEPKc @5834
    _ZTv0_n24_N21CosNotifyChannelAdmin25_objref_ProxyPushConsumerD0Ev @5835
    _ZTv0_n24_N21CosNotifyChannelAdmin25_objref_ProxyPushConsumerD1Ev @5836
    _ZTv0_n24_N21CosNotifyChannelAdmin25_objref_ProxyPushSupplier12_ptrToObjRefEPKc @5837
    _ZTv0_n24_N21CosNotifyChannelAdmin25_objref_ProxyPushSupplierD0Ev @5838
    _ZTv0_n24_N21CosNotifyChannelAdmin25_objref_ProxyPushSupplierD1Ev @5839
    _ZTv0_n24_N21CosNotifyChannelAdmin27_objref_EventChannelFactoryD0Ev @5840
    _ZTv0_n24_N21CosNotifyChannelAdmin27_objref_EventChannelFactoryD1Ev @5841
    _ZTv0_n24_N21CosNotifyChannelAdmin31_impl_SequenceProxyPullConsumer18_mostDerivedRepoIdEv @5842
    _ZTv0_n24_N21CosNotifyChannelAdmin31_impl_SequenceProxyPullConsumer9_dispatchER14omniCallHandle @5843
    _ZTv0_n24_N21CosNotifyChannelAdmin31_impl_SequenceProxyPullSupplier18_mostDerivedRepoIdEv @5844
    _ZTv0_n24_N21CosNotifyChannelAdmin31_impl_SequenceProxyPullSupplier9_dispatchER14omniCallHandle @5845
    _ZTv0_n24_N21CosNotifyChannelAdmin31_impl_SequenceProxyPushConsumer18_mostDerivedRepoIdEv @5846
    _ZTv0_n24_N21CosNotifyChannelAdmin31_impl_SequenceProxyPushConsumer9_dispatchER14omniCallHandle @5847
    _ZTv0_n24_N21CosNotifyChannelAdmin31_impl_SequenceProxyPushSupplier18_mostDerivedRepoIdEv @5848
    _ZTv0_n24_N21CosNotifyChannelAdmin31_impl_SequenceProxyPushSupplier9_dispatchER14omniCallHandle @5849
    _ZTv0_n24_N21CosNotifyChannelAdmin33_impl_StructuredProxyPullConsumer18_mostDerivedRepoIdEv @5850
    _ZTv0_n24_N21CosNotifyChannelAdmin33_impl_StructuredProxyPullConsumer9_dispatchER14omniCallHandle @5851
    _ZTv0_n24_N21CosNotifyChannelAdmin33_impl_StructuredProxyPullSupplier18_mostDerivedRepoIdEv @5852
    _ZTv0_n24_N21CosNotifyChannelAdmin33_impl_StructuredProxyPullSupplier9_dispatchER14omniCallHandle @5853
    _ZTv0_n24_N21CosNotifyChannelAdmin33_impl_StructuredProxyPushConsumer18_mostDerivedRepoIdEv @5854
    _ZTv0_n24_N21CosNotifyChannelAdmin33_impl_StructuredProxyPushConsumer9_dispatchER14omniCallHandle @5855
    _ZTv0_n24_N21CosNotifyChannelAdmin33_impl_StructuredProxyPushSupplier18_mostDerivedRepoIdEv @5856
    _ZTv0_n24_N21CosNotifyChannelAdmin33_impl_StructuredProxyPushSupplier9_dispatchER14omniCallHandle @5857
    _ZTv0_n24_N21CosNotifyChannelAdmin33_objref_SequenceProxyPullConsumer12_ptrToObjRefEPKc @5858
    _ZTv0_n24_N21CosNotifyChannelAdmin33_objref_SequenceProxyPullConsumerD0Ev @5859
    _ZTv0_n24_N21CosNotifyChannelAdmin33_objref_SequenceProxyPullConsumerD1Ev @5860
    _ZTv0_n24_N21CosNotifyChannelAdmin33_objref_SequenceProxyPullSupplier12_ptrToObjRefEPKc @5861
    _ZTv0_n24_N21CosNotifyChannelAdmin33_objref_SequenceProxyPullSupplierD0Ev @5862
    _ZTv0_n24_N21CosNotifyChannelAdmin33_objref_SequenceProxyPullSupplierD1Ev @5863
    _ZTv0_n24_N21CosNotifyChannelAdmin33_objref_SequenceProxyPushConsumer12_ptrToObjRefEPKc @5864
    _ZTv0_n24_N21CosNotifyChannelAdmin33_objref_SequenceProxyPushConsumerD0Ev @5865
    _ZTv0_n24_N21CosNotifyChannelAdmin33_objref_SequenceProxyPushConsumerD1Ev @5866
    _ZTv0_n24_N21CosNotifyChannelAdmin33_objref_SequenceProxyPushSupplier12_ptrToObjRefEPKc @5867
    _ZTv0_n24_N21CosNotifyChannelAdmin33_objref_SequenceProxyPushSupplierD0Ev @5868
    _ZTv0_n24_N21CosNotifyChannelAdmin33_objref_SequenceProxyPushSupplierD1Ev @5869
    _ZTv0_n24_N21CosNotifyChannelAdmin35_objref_StructuredProxyPullConsumer12_ptrToObjRefEPKc @5870
    _ZTv0_n24_N21CosNotifyChannelAdmin35_objref_StructuredProxyPullConsumerD0Ev @5871
    _ZTv0_n24_N21CosNotifyChannelAdmin35_objref_StructuredProxyPullConsumerD1Ev @5872
    _ZTv0_n24_N21CosNotifyChannelAdmin35_objref_StructuredProxyPullSupplier12_ptrToObjRefEPKc @5873
    _ZTv0_n24_N21CosNotifyChannelAdmin35_objref_StructuredProxyPullSupplierD0Ev @5874
    _ZTv0_n24_N21CosNotifyChannelAdmin35_objref_StructuredProxyPullSupplierD1Ev @5875
    _ZTv0_n24_N21CosNotifyChannelAdmin35_objref_StructuredProxyPushConsumer12_ptrToObjRefEPKc @5876
    _ZTv0_n24_N21CosNotifyChannelAdmin35_objref_StructuredProxyPushConsumerD0Ev @5877
    _ZTv0_n24_N21CosNotifyChannelAdmin35_objref_StructuredProxyPushConsumerD1Ev @5878
    _ZTv0_n24_N21CosNotifyChannelAdmin35_objref_StructuredProxyPushSupplier12_ptrToObjRefEPKc @5879
    _ZTv0_n24_N21CosNotifyChannelAdmin35_objref_StructuredProxyPushSupplierD0Ev @5880
    _ZTv0_n24_N21CosNotifyChannelAdmin35_objref_StructuredProxyPushSupplierD1Ev @5881
    _ZTv0_n24_N7CosTime11_objref_TIOD0Ev @5882
    _ZTv0_n24_N7CosTime11_objref_TIOD1Ev @5883
    _ZTv0_n24_N7CosTime11_objref_UTOD0Ev @5884
    _ZTv0_n24_N7CosTime11_objref_UTOD1Ev @5885
    _ZTv0_n24_N7CosTime17_impl_TimeService18_mostDerivedRepoIdEv @5886
    _ZTv0_n24_N7CosTime19_objref_TimeServiceD0Ev @5887
    _ZTv0_n24_N7CosTime19_objref_TimeServiceD1Ev @5888
    _ZTv0_n24_N7CosTime9_impl_TIO18_mostDerivedRepoIdEv @5889
    _ZTv0_n24_N7CosTime9_impl_UTO18_mostDerivedRepoIdEv @5890
    _ZTv0_n28_N12CosEventComm20_objref_PullConsumer12_ptrToObjRefEPKc @5891
    _ZTv0_n28_N12CosEventComm20_objref_PullSupplier12_ptrToObjRefEPKc @5892
    _ZTv0_n28_N12CosEventComm20_objref_PushConsumer12_ptrToObjRefEPKc @5893
    _ZTv0_n28_N12CosEventComm20_objref_PushSupplier12_ptrToObjRefEPKc @5894
    _ZTv0_n28_N12CosLifeCycle21_objref_FactoryFinder12_ptrToObjRefEPKc @5895
    _ZTv0_n28_N12CosLifeCycle22_objref_GenericFactory12_ptrToObjRefEPKc @5896
    _ZTv0_n28_N12CosLifeCycle23_objref_LifeCycleObject12_ptrToObjRefEPKc @5897
    _ZTv0_n28_N13CosNotifyComm18_impl_PullConsumer15_ptrToInterfaceEPKc @5898
    _ZTv0_n28_N13CosNotifyComm18_impl_PullSupplier15_ptrToInterfaceEPKc @5899
    _ZTv0_n28_N13CosNotifyComm18_impl_PushConsumer15_ptrToInterfaceEPKc @5900
    _ZTv0_n28_N13CosNotifyComm18_impl_PushConsumer9_dispatchER14omniCallHandle @5901
    _ZTv0_n28_N13CosNotifyComm18_impl_PushSupplier15_ptrToInterfaceEPKc @5902
    _ZTv0_n28_N13CosNotifyComm20_objref_PullConsumer12_ptrToObjRefEPKc @5903
    _ZTv0_n28_N13CosNotifyComm20_objref_PullSupplier12_ptrToObjRefEPKc @5904
    _ZTv0_n28_N13CosNotifyComm20_objref_PushConsumer12_ptrToObjRefEPKc @5905
    _ZTv0_n28_N13CosNotifyComm20_objref_PushSupplier12_ptrToObjRefEPKc @5906
    _ZTv0_n28_N13CosNotifyComm21_objref_NotifyPublish12_ptrToObjRefEPKc @5907
    _ZTv0_n28_N13CosNotifyComm23_objref_NotifySubscribe12_ptrToObjRefEPKc @5908
    _ZTv0_n28_N13CosNotifyComm26_impl_SequencePullConsumer15_ptrToInterfaceEPKc @5909
    _ZTv0_n28_N13CosNotifyComm26_impl_SequencePullSupplier15_ptrToInterfaceEPKc @5910
    _ZTv0_n28_N13CosNotifyComm26_impl_SequencePushConsumer15_ptrToInterfaceEPKc @5911
    _ZTv0_n28_N13CosNotifyComm26_impl_SequencePushSupplier15_ptrToInterfaceEPKc @5912
    _ZTv0_n28_N13CosNotifyComm28_impl_StructuredPullConsumer15_ptrToInterfaceEPKc @5913
    _ZTv0_n28_N13CosNotifyComm28_impl_StructuredPullSupplier15_ptrToInterfaceEPKc @5914
    _ZTv0_n28_N13CosNotifyComm28_impl_StructuredPushConsumer15_ptrToInterfaceEPKc @5915
    _ZTv0_n28_N13CosNotifyComm28_impl_StructuredPushSupplier15_ptrToInterfaceEPKc @5916
    _ZTv0_n28_N13CosNotifyComm28_objref_SequencePullConsumer12_ptrToObjRefEPKc @5917
    _ZTv0_n28_N13CosNotifyComm28_objref_SequencePullSupplier12_ptrToObjRefEPKc @5918
    _ZTv0_n28_N13CosNotifyComm28_objref_SequencePushConsumer12_ptrToObjRefEPKc @5919
    _ZTv0_n28_N13CosNotifyComm28_objref_SequencePushSupplier12_ptrToObjRefEPKc @5920
    _ZTv0_n28_N13CosNotifyComm30_objref_StructuredPullConsumer12_ptrToObjRefEPKc @5921
    _ZTv0_n28_N13CosNotifyComm30_objref_StructuredPullSupplier12_ptrToObjRefEPKc @5922
    _ZTv0_n28_N13CosNotifyComm30_objref_StructuredPushConsumer12_ptrToObjRefEPKc @5923
    _ZTv0_n28_N13CosNotifyComm30_objref_StructuredPushSupplier12_ptrToObjRefEPKc @5924
    _ZTv0_n28_N15CosNotification16_objref_QoSAdmin12_ptrToObjRefEPKc @5925
    _ZTv0_n28_N15CosNotification28_objref_AdminPropertiesAdmin12_ptrToObjRefEPKc @5926
    _ZTv0_n28_N15CosNotifyFilter14_objref_Filter12_ptrToObjRefEPKc @5927
    _ZTv0_n28_N15CosNotifyFilter19_objref_FilterAdmin12_ptrToObjRefEPKc @5928
    _ZTv0_n28_N15CosNotifyFilter21_objref_FilterFactory12_ptrToObjRefEPKc @5929
    _ZTv0_n28_N15CosNotifyFilter21_objref_MappingFilter12_ptrToObjRefEPKc @5930
    _ZTv0_n28_N20CosEventChannelAdmin20_objref_EventChannel12_ptrToObjRefEPKc @5931
    _ZTv0_n28_N20CosEventChannelAdmin21_objref_ConsumerAdmin12_ptrToObjRefEPKc @5932
    _ZTv0_n28_N20CosEventChannelAdmin21_objref_SupplierAdmin12_ptrToObjRefEPKc @5933
    _ZTv0_n28_N20CosEventChannelAdmin23_impl_ProxyPullConsumer15_ptrToInterfaceEPKc @5934
    _ZTv0_n28_N20CosEventChannelAdmin23_impl_ProxyPushConsumer9_dispatchER14omniCallHandle @5935
    _ZTv0_n28_N20CosEventChannelAdmin23_impl_ProxyPushSupplier15_ptrToInterfaceEPKc @5936
    _ZTv0_n28_N20CosEventChannelAdmin25_objref_ProxyPullConsumer12_ptrToObjRefEPKc @5937
    _ZTv0_n28_N20CosEventChannelAdmin25_objref_ProxyPullSupplier12_ptrToObjRefEPKc @5938
    _ZTv0_n28_N20CosEventChannelAdmin25_objref_ProxyPushConsumer12_ptrToObjRefEPKc @5939
    _ZTv0_n28_N20CosEventChannelAdmin25_objref_ProxyPushSupplier12_ptrToObjRefEPKc @5940
    _ZTv0_n28_N21CosNotifyChannelAdmin18_impl_EventChannel9_dispatchER14omniCallHandle @5941
    _ZTv0_n28_N21CosNotifyChannelAdmin19_impl_ConsumerAdmin15_ptrToInterfaceEPKc @5942
    _ZTv0_n28_N21CosNotifyChannelAdmin19_impl_ConsumerAdmin9_dispatchER14omniCallHandle @5943
    _ZTv0_n28_N21CosNotifyChannelAdmin19_impl_SupplierAdmin15_ptrToInterfaceEPKc @5944
    _ZTv0_n28_N21CosNotifyChannelAdmin19_impl_SupplierAdmin9_dispatchER14omniCallHandle @5945
    _ZTv0_n28_N21CosNotifyChannelAdmin20_objref_EventChannel12_ptrToObjRefEPKc @5946
    _ZTv0_n28_N21CosNotifyChannelAdmin21_objref_ConsumerAdmin12_ptrToObjRefEPKc @5947
    _ZTv0_n28_N21CosNotifyChannelAdmin21_objref_ProxyConsumer12_ptrToObjRefEPKc @5948
    _ZTv0_n28_N21CosNotifyChannelAdmin21_objref_ProxySupplier12_ptrToObjRefEPKc @5949
    _ZTv0_n28_N21CosNotifyChannelAdmin21_objref_SupplierAdmin12_ptrToObjRefEPKc @5950
    _ZTv0_n28_N21CosNotifyChannelAdmin23_impl_ProxyPullConsumer15_ptrToInterfaceEPKc @5951
    _ZTv0_n28_N21CosNotifyChannelAdmin23_impl_ProxyPullSupplier15_ptrToInterfaceEPKc @5952
    _ZTv0_n28_N21CosNotifyChannelAdmin23_impl_ProxyPushConsumer15_ptrToInterfaceEPKc @5953
    _ZTv0_n28_N21CosNotifyChannelAdmin23_impl_ProxyPushConsumer9_dispatchER14omniCallHandle @5954
    _ZTv0_n28_N21CosNotifyChannelAdmin23_impl_ProxyPushSupplier15_ptrToInterfaceEPKc @5955
    _ZTv0_n28_N21CosNotifyChannelAdmin25_objref_ProxyPullConsumer12_ptrToObjRefEPKc @5956
    _ZTv0_n28_N21CosNotifyChannelAdmin25_objref_ProxyPullSupplier12_ptrToObjRefEPKc @5957
    _ZTv0_n28_N21CosNotifyChannelAdmin25_objref_ProxyPushConsumer12_ptrToObjRefEPKc @5958
    _ZTv0_n28_N21CosNotifyChannelAdmin25_objref_ProxyPushSupplier12_ptrToObjRefEPKc @5959
    _ZTv0_n28_N21CosNotifyChannelAdmin27_objref_EventChannelFactory12_ptrToObjRefEPKc @5960
    _ZTv0_n28_N21CosNotifyChannelAdmin31_impl_SequenceProxyPullConsumer15_ptrToInterfaceEPKc @5961
    _ZTv0_n28_N21CosNotifyChannelAdmin31_impl_SequenceProxyPullSupplier15_ptrToInterfaceEPKc @5962
    _ZTv0_n28_N21CosNotifyChannelAdmin31_impl_SequenceProxyPushConsumer15_ptrToInterfaceEPKc @5963
    _ZTv0_n28_N21CosNotifyChannelAdmin31_impl_SequenceProxyPushSupplier15_ptrToInterfaceEPKc @5964
    _ZTv0_n28_N21CosNotifyChannelAdmin33_impl_StructuredProxyPullConsumer15_ptrToInterfaceEPKc @5965
    _ZTv0_n28_N21CosNotifyChannelAdmin33_impl_StructuredProxyPullSupplier15_ptrToInterfaceEPKc @5966
    _ZTv0_n28_N21CosNotifyChannelAdmin33_impl_StructuredProxyPushConsumer15_ptrToInterfaceEPKc @5967
    _ZTv0_n28_N21CosNotifyChannelAdmin33_impl_StructuredProxyPushSupplier15_ptrToInterfaceEPKc @5968
    _ZTv0_n28_N21CosNotifyChannelAdmin33_objref_SequenceProxyPullConsumer12_ptrToObjRefEPKc @5969
    _ZTv0_n28_N21CosNotifyChannelAdmin33_objref_SequenceProxyPullSupplier12_ptrToObjRefEPKc @5970
    _ZTv0_n28_N21CosNotifyChannelAdmin33_objref_SequenceProxyPushConsumer12_ptrToObjRefEPKc @5971
    _ZTv0_n28_N21CosNotifyChannelAdmin33_objref_SequenceProxyPushSupplier12_ptrToObjRefEPKc @5972
    _ZTv0_n28_N21CosNotifyChannelAdmin35_objref_StructuredProxyPullConsumer12_ptrToObjRefEPKc @5973
    _ZTv0_n28_N21CosNotifyChannelAdmin35_objref_StructuredProxyPullSupplier12_ptrToObjRefEPKc @5974
    _ZTv0_n28_N21CosNotifyChannelAdmin35_objref_StructuredProxyPushConsumer12_ptrToObjRefEPKc @5975
    _ZTv0_n28_N21CosNotifyChannelAdmin35_objref_StructuredProxyPushSupplier12_ptrToObjRefEPKc @5976
    _ZTv0_n28_N7CosTime11_objref_TIO12_ptrToObjRefEPKc @5977
    _ZTv0_n28_N7CosTime11_objref_UTO12_ptrToObjRefEPKc @5978
    _ZTv0_n28_N7CosTime19_objref_TimeService12_ptrToObjRefEPKc @5979
    _ZTv0_n32_N13CosNotifyComm18_impl_PullConsumer18_mostDerivedRepoIdEv @5980
    _ZTv0_n32_N13CosNotifyComm18_impl_PullSupplier18_mostDerivedRepoIdEv @5981
    _ZTv0_n32_N13CosNotifyComm18_impl_PullSupplier9_dispatchER14omniCallHandle @5982
    _ZTv0_n32_N13CosNotifyComm18_impl_PushConsumer15_ptrToInterfaceEPKc @5983
    _ZTv0_n32_N13CosNotifyComm18_impl_PushConsumer18_mostDerivedRepoIdEv @5984
    _ZTv0_n32_N13CosNotifyComm18_impl_PushSupplier18_mostDerivedRepoIdEv @5985
    _ZTv0_n32_N13CosNotifyComm26_impl_SequencePullConsumer18_mostDerivedRepoIdEv @5986
    _ZTv0_n32_N13CosNotifyComm26_impl_SequencePullSupplier18_mostDerivedRepoIdEv @5987
    _ZTv0_n32_N13CosNotifyComm26_impl_SequencePushConsumer18_mostDerivedRepoIdEv @5988
    _ZTv0_n32_N13CosNotifyComm26_impl_SequencePushSupplier18_mostDerivedRepoIdEv @5989
    _ZTv0_n32_N13CosNotifyComm28_impl_StructuredPullConsumer18_mostDerivedRepoIdEv @5990
    _ZTv0_n32_N13CosNotifyComm28_impl_StructuredPullSupplier18_mostDerivedRepoIdEv @5991
    _ZTv0_n32_N13CosNotifyComm28_impl_StructuredPushConsumer18_mostDerivedRepoIdEv @5992
    _ZTv0_n32_N13CosNotifyComm28_impl_StructuredPushSupplier18_mostDerivedRepoIdEv @5993
    _ZTv0_n32_N20CosEventChannelAdmin23_impl_ProxyPullConsumer18_mostDerivedRepoIdEv @5994
    _ZTv0_n32_N20CosEventChannelAdmin23_impl_ProxyPullSupplier9_dispatchER14omniCallHandle @5995
    _ZTv0_n32_N20CosEventChannelAdmin23_impl_ProxyPushConsumer15_ptrToInterfaceEPKc @5996
    _ZTv0_n32_N20CosEventChannelAdmin23_impl_ProxyPushSupplier18_mostDerivedRepoIdEv @5997
    _ZTv0_n32_N21CosNotifyChannelAdmin18_impl_EventChannel15_ptrToInterfaceEPKc @5998
    _ZTv0_n32_N21CosNotifyChannelAdmin18_impl_EventChannel9_dispatchER14omniCallHandle @5999
    _ZTv0_n32_N21CosNotifyChannelAdmin19_impl_ConsumerAdmin15_ptrToInterfaceEPKc @6000
    _ZTv0_n32_N21CosNotifyChannelAdmin19_impl_ConsumerAdmin18_mostDerivedRepoIdEv @6001
    _ZTv0_n32_N21CosNotifyChannelAdmin19_impl_ConsumerAdmin9_dispatchER14omniCallHandle @6002
    _ZTv0_n32_N21CosNotifyChannelAdmin19_impl_ProxyConsumer9_dispatchER14omniCallHandle @6003
    _ZTv0_n32_N21CosNotifyChannelAdmin19_impl_ProxySupplier9_dispatchER14omniCallHandle @6004
    _ZTv0_n32_N21CosNotifyChannelAdmin19_impl_SupplierAdmin15_ptrToInterfaceEPKc @6005
    _ZTv0_n32_N21CosNotifyChannelAdmin19_impl_SupplierAdmin18_mostDerivedRepoIdEv @6006
    _ZTv0_n32_N21CosNotifyChannelAdmin19_impl_SupplierAdmin9_dispatchER14omniCallHandle @6007
    _ZTv0_n32_N21CosNotifyChannelAdmin23_impl_ProxyPullConsumer18_mostDerivedRepoIdEv @6008
    _ZTv0_n32_N21CosNotifyChannelAdmin23_impl_ProxyPullConsumer9_dispatchER14omniCallHandle @6009
    _ZTv0_n32_N21CosNotifyChannelAdmin23_impl_ProxyPullSupplier18_mostDerivedRepoIdEv @6010
    _ZTv0_n32_N21CosNotifyChannelAdmin23_impl_ProxyPullSupplier9_dispatchER14omniCallHandle @6011
    _ZTv0_n32_N21CosNotifyChannelAdmin23_impl_ProxyPushConsumer15_ptrToInterfaceEPKc @6012
    _ZTv0_n32_N21CosNotifyChannelAdmin23_impl_ProxyPushConsumer18_mostDerivedRepoIdEv @6013
    _ZTv0_n32_N21CosNotifyChannelAdmin23_impl_ProxyPushConsumer9_dispatchER14omniCallHandle @6014
    _ZTv0_n32_N21CosNotifyChannelAdmin23_impl_ProxyPushSupplier18_mostDerivedRepoIdEv @6015
    _ZTv0_n32_N21CosNotifyChannelAdmin23_impl_ProxyPushSupplier9_dispatchER14omniCallHandle @6016
    _ZTv0_n32_N21CosNotifyChannelAdmin31_impl_SequenceProxyPullConsumer18_mostDerivedRepoIdEv @6017
    _ZTv0_n32_N21CosNotifyChannelAdmin31_impl_SequenceProxyPullConsumer9_dispatchER14omniCallHandle @6018
    _ZTv0_n32_N21CosNotifyChannelAdmin31_impl_SequenceProxyPullSupplier18_mostDerivedRepoIdEv @6019
    _ZTv0_n32_N21CosNotifyChannelAdmin31_impl_SequenceProxyPullSupplier9_dispatchER14omniCallHandle @6020
    _ZTv0_n32_N21CosNotifyChannelAdmin31_impl_SequenceProxyPushConsumer18_mostDerivedRepoIdEv @6021
    _ZTv0_n32_N21CosNotifyChannelAdmin31_impl_SequenceProxyPushConsumer9_dispatchER14omniCallHandle @6022
    _ZTv0_n32_N21CosNotifyChannelAdmin31_impl_SequenceProxyPushSupplier18_mostDerivedRepoIdEv @6023
    _ZTv0_n32_N21CosNotifyChannelAdmin31_impl_SequenceProxyPushSupplier9_dispatchER14omniCallHandle @6024
    _ZTv0_n32_N21CosNotifyChannelAdmin33_impl_StructuredProxyPullConsumer18_mostDerivedRepoIdEv @6025
    _ZTv0_n32_N21CosNotifyChannelAdmin33_impl_StructuredProxyPullConsumer9_dispatchER14omniCallHandle @6026
    _ZTv0_n32_N21CosNotifyChannelAdmin33_impl_StructuredProxyPullSupplier18_mostDerivedRepoIdEv @6027
    _ZTv0_n32_N21CosNotifyChannelAdmin33_impl_StructuredProxyPullSupplier9_dispatchER14omniCallHandle @6028
    _ZTv0_n32_N21CosNotifyChannelAdmin33_impl_StructuredProxyPushConsumer18_mostDerivedRepoIdEv @6029
    _ZTv0_n32_N21CosNotifyChannelAdmin33_impl_StructuredProxyPushConsumer9_dispatchER14omniCallHandle @6030
    _ZTv0_n32_N21CosNotifyChannelAdmin33_impl_StructuredProxyPushSupplier18_mostDerivedRepoIdEv @6031
    _ZTv0_n32_N21CosNotifyChannelAdmin33_impl_StructuredProxyPushSupplier9_dispatchER14omniCallHandle @6032
    _ZTv0_n36_N13CosNotifyComm18_impl_PullSupplier15_ptrToInterfaceEPKc @6033
    _ZTv0_n36_N13CosNotifyComm18_impl_PushConsumer18_mostDerivedRepoIdEv @6034
    _ZTv0_n36_N20CosEventChannelAdmin23_impl_ProxyPullSupplier15_ptrToInterfaceEPKc @6035
    _ZTv0_n36_N20CosEventChannelAdmin23_impl_ProxyPushConsumer18_mostDerivedRepoIdEv @6036
    _ZTv0_n36_N21CosNotifyChannelAdmin18_impl_EventChannel15_ptrToInterfaceEPKc @6037
    _ZTv0_n36_N21CosNotifyChannelAdmin18_impl_EventChannel18_mostDerivedRepoIdEv @6038
    _ZTv0_n36_N21CosNotifyChannelAdmin19_impl_ConsumerAdmin15_ptrToInterfaceEPKc @6039
    _ZTv0_n36_N21CosNotifyChannelAdmin19_impl_ConsumerAdmin18_mostDerivedRepoIdEv @6040
    _ZTv0_n36_N21CosNotifyChannelAdmin19_impl_ProxyConsumer15_ptrToInterfaceEPKc @6041
    _ZTv0_n36_N21CosNotifyChannelAdmin19_impl_ProxySupplier15_ptrToInterfaceEPKc @6042
    _ZTv0_n36_N21CosNotifyChannelAdmin19_impl_SupplierAdmin15_ptrToInterfaceEPKc @6043
    _ZTv0_n36_N21CosNotifyChannelAdmin19_impl_SupplierAdmin18_mostDerivedRepoIdEv @6044
    _ZTv0_n36_N21CosNotifyChannelAdmin23_impl_ProxyPullConsumer15_ptrToInterfaceEPKc @6045
    _ZTv0_n36_N21CosNotifyChannelAdmin23_impl_ProxyPullSupplier15_ptrToInterfaceEPKc @6046
    _ZTv0_n36_N21CosNotifyChannelAdmin23_impl_ProxyPushConsumer15_ptrToInterfaceEPKc @6047
    _ZTv0_n36_N21CosNotifyChannelAdmin23_impl_ProxyPushConsumer18_mostDerivedRepoIdEv @6048
    _ZTv0_n36_N21CosNotifyChannelAdmin23_impl_ProxyPushSupplier15_ptrToInterfaceEPKc @6049
    _ZTv0_n36_N21CosNotifyChannelAdmin31_impl_SequenceProxyPullConsumer15_ptrToInterfaceEPKc @6050
    _ZTv0_n36_N21CosNotifyChannelAdmin31_impl_SequenceProxyPullSupplier15_ptrToInterfaceEPKc @6051
    _ZTv0_n36_N21CosNotifyChannelAdmin31_impl_SequenceProxyPushConsumer15_ptrToInterfaceEPKc @6052
    _ZTv0_n36_N21CosNotifyChannelAdmin31_impl_SequenceProxyPushSupplier15_ptrToInterfaceEPKc @6053
    _ZTv0_n36_N21CosNotifyChannelAdmin33_impl_StructuredProxyPullConsumer15_ptrToInterfaceEPKc @6054
    _ZTv0_n36_N21CosNotifyChannelAdmin33_impl_StructuredProxyPullSupplier15_ptrToInterfaceEPKc @6055
    _ZTv0_n36_N21CosNotifyChannelAdmin33_impl_StructuredProxyPushConsumer15_ptrToInterfaceEPKc @6056
    _ZTv0_n36_N21CosNotifyChannelAdmin33_impl_StructuredProxyPushSupplier15_ptrToInterfaceEPKc @6057
    _ZTv0_n40_N12CosEventComm18_impl_PullConsumer9_dispatchER14omniCallHandle @6058
    _ZTv0_n40_N12CosEventComm18_impl_PullSupplier9_dispatchER14omniCallHandle @6059
    _ZTv0_n40_N12CosEventComm18_impl_PushConsumer9_dispatchER14omniCallHandle @6060
    _ZTv0_n40_N12CosEventComm18_impl_PushSupplier9_dispatchER14omniCallHandle @6061
    _ZTv0_n40_N12CosLifeCycle19_impl_FactoryFinder9_dispatchER14omniCallHandle @6062
    _ZTv0_n40_N12CosLifeCycle20_impl_GenericFactory9_dispatchER14omniCallHandle @6063
    _ZTv0_n40_N12CosLifeCycle21_impl_LifeCycleObject9_dispatchER14omniCallHandle @6064
    _ZTv0_n40_N13CosNotifyComm18_impl_PullConsumer9_dispatchER14omniCallHandle @6065
    _ZTv0_n40_N13CosNotifyComm18_impl_PullSupplier18_mostDerivedRepoIdEv @6066
    _ZTv0_n40_N13CosNotifyComm18_impl_PullSupplier9_dispatchER14omniCallHandle @6067
    _ZTv0_n40_N13CosNotifyComm18_impl_PushConsumer9_dispatchER14omniCallHandle @6068
    _ZTv0_n40_N13CosNotifyComm18_impl_PushSupplier9_dispatchER14omniCallHandle @6069
    _ZTv0_n40_N13CosNotifyComm19_impl_NotifyPublish9_dispatchER14omniCallHandle @6070
    _ZTv0_n40_N13CosNotifyComm21_impl_NotifySubscribe9_dispatchER14omniCallHandle @6071
    _ZTv0_n40_N13CosNotifyComm26_impl_SequencePullConsumer9_dispatchER14omniCallHandle @6072
    _ZTv0_n40_N13CosNotifyComm26_impl_SequencePullSupplier9_dispatchER14omniCallHandle @6073
    _ZTv0_n40_N13CosNotifyComm26_impl_SequencePushConsumer9_dispatchER14omniCallHandle @6074
    _ZTv0_n40_N13CosNotifyComm26_impl_SequencePushSupplier9_dispatchER14omniCallHandle @6075
    _ZTv0_n40_N13CosNotifyComm28_impl_StructuredPullConsumer9_dispatchER14omniCallHandle @6076
    _ZTv0_n40_N13CosNotifyComm28_impl_StructuredPullSupplier9_dispatchER14omniCallHandle @6077
    _ZTv0_n40_N13CosNotifyComm28_impl_StructuredPushConsumer9_dispatchER14omniCallHandle @6078
    _ZTv0_n40_N13CosNotifyComm28_impl_StructuredPushSupplier9_dispatchER14omniCallHandle @6079
    _ZTv0_n40_N15CosNotification14_impl_QoSAdmin9_dispatchER14omniCallHandle @6080
    _ZTv0_n40_N15CosNotification26_impl_AdminPropertiesAdmin9_dispatchER14omniCallHandle @6081
    _ZTv0_n40_N15CosNotifyFilter12_impl_Filter9_dispatchER14omniCallHandle @6082
    _ZTv0_n40_N15CosNotifyFilter17_impl_FilterAdmin9_dispatchER14omniCallHandle @6083
    _ZTv0_n40_N15CosNotifyFilter19_impl_FilterFactory9_dispatchER14omniCallHandle @6084
    _ZTv0_n40_N15CosNotifyFilter19_impl_MappingFilter9_dispatchER14omniCallHandle @6085
    _ZTv0_n40_N20CosEventChannelAdmin18_impl_EventChannel9_dispatchER14omniCallHandle @6086
    _ZTv0_n40_N20CosEventChannelAdmin19_impl_ConsumerAdmin9_dispatchER14omniCallHandle @6087
    _ZTv0_n40_N20CosEventChannelAdmin19_impl_SupplierAdmin9_dispatchER14omniCallHandle @6088
    _ZTv0_n40_N20CosEventChannelAdmin23_impl_ProxyPullConsumer9_dispatchER14omniCallHandle @6089
    _ZTv0_n40_N20CosEventChannelAdmin23_impl_ProxyPullSupplier18_mostDerivedRepoIdEv @6090
    _ZTv0_n40_N20CosEventChannelAdmin23_impl_ProxyPullSupplier9_dispatchER14omniCallHandle @6091
    _ZTv0_n40_N20CosEventChannelAdmin23_impl_ProxyPushConsumer9_dispatchER14omniCallHandle @6092
    _ZTv0_n40_N20CosEventChannelAdmin23_impl_ProxyPushSupplier9_dispatchER14omniCallHandle @6093
    _ZTv0_n40_N21CosNotifyChannelAdmin18_impl_EventChannel18_mostDerivedRepoIdEv @6094
    _ZTv0_n40_N21CosNotifyChannelAdmin18_impl_EventChannel9_dispatchER14omniCallHandle @6095
    _ZTv0_n40_N21CosNotifyChannelAdmin19_impl_ConsumerAdmin18_mostDerivedRepoIdEv @6096
    _ZTv0_n40_N21CosNotifyChannelAdmin19_impl_ConsumerAdmin9_dispatchER14omniCallHandle @6097
    _ZTv0_n40_N21CosNotifyChannelAdmin19_impl_ProxyConsumer18_mostDerivedRepoIdEv @6098
    _ZTv0_n40_N21CosNotifyChannelAdmin19_impl_ProxyConsumer9_dispatchER14omniCallHandle @6099
    _ZTv0_n40_N21CosNotifyChannelAdmin19_impl_ProxySupplier18_mostDerivedRepoIdEv @6100
    _ZTv0_n40_N21CosNotifyChannelAdmin19_impl_ProxySupplier9_dispatchER14omniCallHandle @6101
    _ZTv0_n40_N21CosNotifyChannelAdmin19_impl_SupplierAdmin18_mostDerivedRepoIdEv @6102
    _ZTv0_n40_N21CosNotifyChannelAdmin19_impl_SupplierAdmin9_dispatchER14omniCallHandle @6103
    _ZTv0_n40_N21CosNotifyChannelAdmin23_impl_ProxyPullConsumer18_mostDerivedRepoIdEv @6104
    _ZTv0_n40_N21CosNotifyChannelAdmin23_impl_ProxyPullConsumer9_dispatchER14omniCallHandle @6105
    _ZTv0_n40_N21CosNotifyChannelAdmin23_impl_ProxyPullSupplier18_mostDerivedRepoIdEv @6106
    _ZTv0_n40_N21CosNotifyChannelAdmin23_impl_ProxyPullSupplier9_dispatchER14omniCallHandle @6107
    _ZTv0_n40_N21CosNotifyChannelAdmin23_impl_ProxyPushConsumer18_mostDerivedRepoIdEv @6108
    _ZTv0_n40_N21CosNotifyChannelAdmin23_impl_ProxyPushConsumer9_dispatchER14omniCallHandle @6109
    _ZTv0_n40_N21CosNotifyChannelAdmin23_impl_ProxyPushSupplier18_mostDerivedRepoIdEv @6110
    _ZTv0_n40_N21CosNotifyChannelAdmin23_impl_ProxyPushSupplier9_dispatchER14omniCallHandle @6111
    _ZTv0_n40_N21CosNotifyChannelAdmin25_impl_EventChannelFactory9_dispatchER14omniCallHandle @6112
    _ZTv0_n40_N21CosNotifyChannelAdmin31_impl_SequenceProxyPullConsumer18_mostDerivedRepoIdEv @6113
    _ZTv0_n40_N21CosNotifyChannelAdmin31_impl_SequenceProxyPullConsumer9_dispatchER14omniCallHandle @6114
    _ZTv0_n40_N21CosNotifyChannelAdmin31_impl_SequenceProxyPullSupplier18_mostDerivedRepoIdEv @6115
    _ZTv0_n40_N21CosNotifyChannelAdmin31_impl_SequenceProxyPullSupplier9_dispatchER14omniCallHandle @6116
    _ZTv0_n40_N21CosNotifyChannelAdmin31_impl_SequenceProxyPushConsumer18_mostDerivedRepoIdEv @6117
    _ZTv0_n40_N21CosNotifyChannelAdmin31_impl_SequenceProxyPushConsumer9_dispatchER14omniCallHandle @6118
    _ZTv0_n40_N21CosNotifyChannelAdmin31_impl_SequenceProxyPushSupplier18_mostDerivedRepoIdEv @6119
    _ZTv0_n40_N21CosNotifyChannelAdmin31_impl_SequenceProxyPushSupplier9_dispatchER14omniCallHandle @6120
    _ZTv0_n40_N21CosNotifyChannelAdmin33_impl_StructuredProxyPullConsumer18_mostDerivedRepoIdEv @6121
    _ZTv0_n40_N21CosNotifyChannelAdmin33_impl_StructuredProxyPullConsumer9_dispatchER14omniCallHandle @6122
    _ZTv0_n40_N21CosNotifyChannelAdmin33_impl_StructuredProxyPullSupplier18_mostDerivedRepoIdEv @6123
    _ZTv0_n40_N21CosNotifyChannelAdmin33_impl_StructuredProxyPullSupplier9_dispatchER14omniCallHandle @6124
    _ZTv0_n40_N21CosNotifyChannelAdmin33_impl_StructuredProxyPushConsumer18_mostDerivedRepoIdEv @6125
    _ZTv0_n40_N21CosNotifyChannelAdmin33_impl_StructuredProxyPushConsumer9_dispatchER14omniCallHandle @6126
    _ZTv0_n40_N21CosNotifyChannelAdmin33_impl_StructuredProxyPushSupplier18_mostDerivedRepoIdEv @6127
    _ZTv0_n40_N21CosNotifyChannelAdmin33_impl_StructuredProxyPushSupplier9_dispatchER14omniCallHandle @6128
    _ZTv0_n40_N7CosTime17_impl_TimeService9_dispatchER14omniCallHandle @6129
    _ZTv0_n40_N7CosTime9_impl_TIO9_dispatchER14omniCallHandle @6130
    _ZTv0_n40_N7CosTime9_impl_UTO9_dispatchER14omniCallHandle @6131
    _ZTv0_n44_N21CosNotifyChannelAdmin19_impl_ConsumerAdmin15_ptrToInterfaceEPKc @6132
    _ZTv0_n44_N21CosNotifyChannelAdmin19_impl_ProxyConsumer15_ptrToInterfaceEPKc @6133
    _ZTv0_n44_N21CosNotifyChannelAdmin19_impl_ProxySupplier15_ptrToInterfaceEPKc @6134
    _ZTv0_n44_N21CosNotifyChannelAdmin19_impl_SupplierAdmin15_ptrToInterfaceEPKc @6135
    _ZTv0_n44_N21CosNotifyChannelAdmin23_impl_ProxyPullConsumer15_ptrToInterfaceEPKc @6136
    _ZTv0_n44_N21CosNotifyChannelAdmin23_impl_ProxyPullSupplier15_ptrToInterfaceEPKc @6137
    _ZTv0_n44_N21CosNotifyChannelAdmin23_impl_ProxyPushConsumer15_ptrToInterfaceEPKc @6138
    _ZTv0_n44_N21CosNotifyChannelAdmin23_impl_ProxyPushSupplier15_ptrToInterfaceEPKc @6139
    _ZTv0_n44_N21CosNotifyChannelAdmin31_impl_SequenceProxyPullConsumer15_ptrToInterfaceEPKc @6140
    _ZTv0_n44_N21CosNotifyChannelAdmin31_impl_SequenceProxyPullSupplier15_ptrToInterfaceEPKc @6141
    _ZTv0_n44_N21CosNotifyChannelAdmin31_impl_SequenceProxyPushConsumer15_ptrToInterfaceEPKc @6142
    _ZTv0_n44_N21CosNotifyChannelAdmin31_impl_SequenceProxyPushSupplier15_ptrToInterfaceEPKc @6143
    _ZTv0_n44_N21CosNotifyChannelAdmin33_impl_StructuredProxyPullConsumer15_ptrToInterfaceEPKc @6144
    _ZTv0_n44_N21CosNotifyChannelAdmin33_impl_StructuredProxyPullSupplier15_ptrToInterfaceEPKc @6145
    _ZTv0_n44_N21CosNotifyChannelAdmin33_impl_StructuredProxyPushConsumer15_ptrToInterfaceEPKc @6146
    _ZTv0_n44_N21CosNotifyChannelAdmin33_impl_StructuredProxyPushSupplier15_ptrToInterfaceEPKc @6147
    _ZTv0_n48_N21CosNotifyChannelAdmin19_impl_ConsumerAdmin18_mostDerivedRepoIdEv @6148
    _ZTv0_n48_N21CosNotifyChannelAdmin19_impl_ProxyConsumer18_mostDerivedRepoIdEv @6149
    _ZTv0_n48_N21CosNotifyChannelAdmin19_impl_ProxySupplier18_mostDerivedRepoIdEv @6150
    _ZTv0_n48_N21CosNotifyChannelAdmin19_impl_SupplierAdmin18_mostDerivedRepoIdEv @6151
    _ZTv0_n48_N21CosNotifyChannelAdmin23_impl_ProxyPullConsumer18_mostDerivedRepoIdEv @6152
    _ZTv0_n48_N21CosNotifyChannelAdmin23_impl_ProxyPullSupplier18_mostDerivedRepoIdEv @6153
    _ZTv0_n48_N21CosNotifyChannelAdmin23_impl_ProxyPushConsumer18_mostDerivedRepoIdEv @6154
    _ZTv0_n48_N21CosNotifyChannelAdmin23_impl_ProxyPushSupplier18_mostDerivedRepoIdEv @6155
    _ZTv0_n48_N21CosNotifyChannelAdmin31_impl_SequenceProxyPullConsumer18_mostDerivedRepoIdEv @6156
    _ZTv0_n48_N21CosNotifyChannelAdmin31_impl_SequenceProxyPullSupplier18_mostDerivedRepoIdEv @6157
    _ZTv0_n48_N21CosNotifyChannelAdmin31_impl_SequenceProxyPushConsumer18_mostDerivedRepoIdEv @6158
    _ZTv0_n48_N21CosNotifyChannelAdmin31_impl_SequenceProxyPushSupplier18_mostDerivedRepoIdEv @6159
    _ZTv0_n48_N21CosNotifyChannelAdmin33_impl_StructuredProxyPullConsumer18_mostDerivedRepoIdEv @6160
    _ZTv0_n48_N21CosNotifyChannelAdmin33_impl_StructuredProxyPullSupplier18_mostDerivedRepoIdEv @6161
    _ZTv0_n48_N21CosNotifyChannelAdmin33_impl_StructuredProxyPushConsumer18_mostDerivedRepoIdEv @6162
    _ZTv0_n48_N21CosNotifyChannelAdmin33_impl_StructuredProxyPushSupplier18_mostDerivedRepoIdEv @6163
    _ZlSRlR9cdrStream @6164
