EXPORTS
    _CRT_MT @1 DATA
    _ZN10DynamicAny11DynSequence10_PD_repoIdE @2 DATA
    _ZN10DynamicAny11DynSequence10_duplicateEPS0_ @3
    _ZN10DynamicAny11DynSequence4_nilEv @4
    _ZN10DynamicAny11DynSequence7_narrowEPN5CORBA6ObjectE @5
    _ZN10DynamicAny11DynSequenceD0Ev @6
    _ZN10DynamicAny11DynSequenceD1Ev @7
    _ZN10DynamicAny11DynSequenceD2Ev @8
    _ZN10DynamicAny11DynValueBox10_PD_repoIdE @9 DATA
    _ZN10DynamicAny11DynValueBox10_duplicateEPS0_ @10
    _ZN10DynamicAny11DynValueBox4_nilEv @11
    _ZN10DynamicAny11DynValueBox7_narrowEPN5CORBA6ObjectE @12
    _ZN10DynamicAny11DynValueBoxD0Ev @13
    _ZN10DynamicAny11DynValueBoxD1Ev @14
    _ZN10DynamicAny11DynValueBoxD2Ev @15
    _ZN10DynamicAny13DynAnyFactory10_PD_repoIdE @16 DATA
    _ZN10DynamicAny13DynAnyFactory10_duplicateEPS0_ @17
    _ZN10DynamicAny13DynAnyFactory20InconsistentTypeCode10_PD_repoIdE @18 DATA
    _ZN10DynamicAny13DynAnyFactory20InconsistentTypeCode13insertToAnyFnE @19 DATA
    _ZN10DynamicAny13DynAnyFactory20InconsistentTypeCode16insertToAnyFnNCPE @20 DATA
    _ZN10DynamicAny13DynAnyFactory20InconsistentTypeCode9_downcastEPKN5CORBA9ExceptionE @21
    _ZN10DynamicAny13DynAnyFactory20InconsistentTypeCode9_downcastEPN5CORBA9ExceptionE @22
    _ZN10DynamicAny13DynAnyFactory20InconsistentTypeCodeD0Ev @23
    _ZN10DynamicAny13DynAnyFactory20InconsistentTypeCodeD1Ev @24
    _ZN10DynamicAny13DynAnyFactory20InconsistentTypeCodeD2Ev @25
    _ZN10DynamicAny13DynAnyFactory4_nilEv @26
    _ZN10DynamicAny13DynAnyFactory7_narrowEPN5CORBA6ObjectE @27
    _ZN10DynamicAny13DynAnyFactoryD0Ev @28
    _ZN10DynamicAny13DynAnyFactoryD1Ev @29
    _ZN10DynamicAny13DynAnyFactoryD2Ev @30
    _ZN10DynamicAny13DynAny_Helper4_nilEv @31
    _ZN10DynamicAny13DynAny_Helper6is_nilEPNS_6DynAnyE @32
    _ZN10DynamicAny13DynAny_Helper7releaseEPNS_6DynAnyE @33
    _ZN10DynamicAny13DynAny_Helper9duplicateEPNS_6DynAnyE @34
    _ZN10DynamicAny13NameValuePairD1Ev @35
    _ZN10DynamicAny14DynValueCommon10_PD_repoIdE @36 DATA
    _ZN10DynamicAny14DynValueCommon4_nilEv @37
    _ZN10DynamicAny14DynValueCommonD0Ev @38
    _ZN10DynamicAny14DynValueCommonD1Ev @39
    _ZN10DynamicAny14DynValueCommonD2Ev @40
    _ZN10DynamicAny14NameDynAnyPairD1Ev @41
    _ZN10DynamicAny6DynAny10_PD_repoIdE @42 DATA
    _ZN10DynamicAny6DynAny10_duplicateEPS0_ @43
    _ZN10DynamicAny6DynAny12InvalidValue10_PD_repoIdE @44 DATA
    _ZN10DynamicAny6DynAny12InvalidValue13insertToAnyFnE @45 DATA
    _ZN10DynamicAny6DynAny12InvalidValue16insertToAnyFnNCPE @46 DATA
    _ZN10DynamicAny6DynAny12InvalidValue9_downcastEPKN5CORBA9ExceptionE @47
    _ZN10DynamicAny6DynAny12InvalidValue9_downcastEPN5CORBA9ExceptionE @48
    _ZN10DynamicAny6DynAny12InvalidValueD0Ev @49
    _ZN10DynamicAny6DynAny12InvalidValueD1Ev @50
    _ZN10DynamicAny6DynAny12InvalidValueD2Ev @51
    _ZN10DynamicAny6DynAny12TypeMismatch10_PD_repoIdE @52 DATA
    _ZN10DynamicAny6DynAny12TypeMismatch13insertToAnyFnE @53 DATA
    _ZN10DynamicAny6DynAny12TypeMismatch16insertToAnyFnNCPE @54 DATA
    _ZN10DynamicAny6DynAny12TypeMismatch9_downcastEPKN5CORBA9ExceptionE @55
    _ZN10DynamicAny6DynAny12TypeMismatch9_downcastEPN5CORBA9ExceptionE @56
    _ZN10DynamicAny6DynAny12TypeMismatchD0Ev @57
    _ZN10DynamicAny6DynAny12TypeMismatchD1Ev @58
    _ZN10DynamicAny6DynAny12TypeMismatchD2Ev @59
    _ZN10DynamicAny6DynAny4_nilEv @60
    _ZN10DynamicAny6DynAny7_narrowEPN5CORBA6ObjectE @61
    _ZN10DynamicAny6DynAny8PR_magicE @62 DATA
    _ZN10DynamicAny6DynAnyD0Ev @63
    _ZN10DynamicAny6DynAnyD1Ev @64
    _ZN10DynamicAny6DynAnyD2Ev @65
    _ZN10DynamicAny7DynEnum10_PD_repoIdE @66 DATA
    _ZN10DynamicAny7DynEnum10_duplicateEPS0_ @67
    _ZN10DynamicAny7DynEnum4_nilEv @68
    _ZN10DynamicAny7DynEnum7_narrowEPN5CORBA6ObjectE @69
    _ZN10DynamicAny7DynEnumD0Ev @70
    _ZN10DynamicAny7DynEnumD1Ev @71
    _ZN10DynamicAny7DynEnumD2Ev @72
    _ZN10DynamicAny8DynArray10_PD_repoIdE @73 DATA
    _ZN10DynamicAny8DynArray10_duplicateEPS0_ @74
    _ZN10DynamicAny8DynArray4_nilEv @75
    _ZN10DynamicAny8DynArray7_narrowEPN5CORBA6ObjectE @76
    _ZN10DynamicAny8DynArrayD0Ev @77
    _ZN10DynamicAny8DynArrayD1Ev @78
    _ZN10DynamicAny8DynArrayD2Ev @79
    _ZN10DynamicAny8DynFixed10_PD_repoIdE @80 DATA
    _ZN10DynamicAny8DynFixed10_duplicateEPS0_ @81
    _ZN10DynamicAny8DynFixed4_nilEv @82
    _ZN10DynamicAny8DynFixed7_narrowEPN5CORBA6ObjectE @83
    _ZN10DynamicAny8DynFixedD0Ev @84
    _ZN10DynamicAny8DynFixedD1Ev @85
    _ZN10DynamicAny8DynFixedD2Ev @86
    _ZN10DynamicAny8DynUnion10_PD_repoIdE @87 DATA
    _ZN10DynamicAny8DynUnion10_duplicateEPS0_ @88
    _ZN10DynamicAny8DynUnion4_nilEv @89
    _ZN10DynamicAny8DynUnion7_narrowEPN5CORBA6ObjectE @90
    _ZN10DynamicAny8DynUnionD0Ev @91
    _ZN10DynamicAny8DynUnionD1Ev @92
    _ZN10DynamicAny8DynUnionD2Ev @93
    _ZN10DynamicAny8DynValue10_PD_repoIdE @94 DATA
    _ZN10DynamicAny8DynValue10_duplicateEPS0_ @95
    _ZN10DynamicAny8DynValue4_nilEv @96
    _ZN10DynamicAny8DynValue7_narrowEPN5CORBA6ObjectE @97
    _ZN10DynamicAny8DynValueD0Ev @98
    _ZN10DynamicAny8DynValueD1Ev @99
    _ZN10DynamicAny8DynValueD2Ev @100
    _ZN10DynamicAny9DynStruct10_PD_repoIdE @101 DATA
    _ZN10DynamicAny9DynStruct10_duplicateEPS0_ @102
    _ZN10DynamicAny9DynStruct4_nilEv @103
    _ZN10DynamicAny9DynStruct7_narrowEPN5CORBA6ObjectE @104
    _ZN10DynamicAny9DynStructD0Ev @105
    _ZN10DynamicAny9DynStructD1Ev @106
    _ZN10DynamicAny9DynStructD2Ev @107
    _ZN10omnivectorIPN4omni14DynAnyImplBaseEED1Ev @108
    _ZN12omniTypedefs11TypeCodeSeqD1Ev @109
    _ZN12omniTypedefs16ValueBaseSeq_varD1Ev @110
    _ZN13omniValueType23handleIncompatibleValueEPKcmPN5CORBA9ValueBaseENS2_16CompletionStatusE @111
    _ZN13omniValueType7marshalEPN5CORBA9ValueBaseEPKcR9cdrStream @112
    _ZN13omniValueType9unmarshalEPKcmPN5CORBA8TypeCodeER9cdrStream @113
    _ZN14PortableServer17ValueRefCountBase11_remove_refEv @114
    _ZN14PortableServer17ValueRefCountBase15_refcount_valueEv @115
    _ZN14PortableServer17ValueRefCountBase8_add_refEv @116
    _ZN14PortableServer17ValueRefCountBaseD0Ev @117
    _ZN14PortableServer17ValueRefCountBaseD1Ev @118
    _ZN14PortableServer17ValueRefCountBaseD2Ev @119
    _ZN14PortableServer18_tc_ForwardRequestE @120 DATA
    _ZN14PortableServer21DynamicImplementation17_do_get_interfaceEv @121
    _ZN14PortableServer21DynamicImplementation5_is_aEPKc @122
    _ZN14PortableServer21DynamicImplementation5_thisEv @123
    _ZN14PortableServer21DynamicImplementation9_dispatchER14omniCallHandle @124
    _ZN14PortableServer21DynamicImplementationD0Ev @125
    _ZN14PortableServer21DynamicImplementationD1Ev @126
    _ZN14PortableServer21DynamicImplementationD2Ev @127
    _ZN14PortableServer21_tc_ThreadPolicyValueE @128 DATA
    _ZN14PortableServer23_tc_LifespanPolicyValueE @129 DATA
    _ZN14PortableServer27_tc_IdAssignmentPolicyValueE @130 DATA
    _ZN14PortableServer27_tc_IdUniquenessPolicyValueE @131 DATA
    _ZN14PortableServer31_tc_ServantRetentionPolicyValueE @132 DATA
    _ZN14PortableServer32_tc_RequestProcessingPolicyValueE @133 DATA
    _ZN14PortableServer33_tc_ImplicitActivationPolicyValueE @134 DATA
    _ZN14PortableServer3POA17_tc_InvalidPolicyE @135 DATA
    _ZN14PortableServer8ObjectIdD1Ev @136
    _ZN15_CORBA_SequenceIN5CORBA11InitializerEE6lengthEm @137
    _ZN15_CORBA_SequenceIN5CORBA11InitializerEE7freebufEPS1_ @138
    _ZN15_CORBA_SequenceIN5CORBA11UnionMemberEE6lengthEm @139
    _ZN15_CORBA_SequenceIN5CORBA11UnionMemberEE7freebufEPS1_ @140
    _ZN15_CORBA_SequenceIN5CORBA11ValueMemberEE6lengthEm @141
    _ZN15_CORBA_SequenceIN5CORBA11ValueMemberEE7freebufEPS1_ @142
    _ZN15_CORBA_SequenceIN5CORBA12StructMemberEE6lengthEm @143
    _ZN15_CORBA_SequenceIN5CORBA12StructMemberEE7freebufEPS1_ @144
    _ZN15_CORBA_SequenceIN5CORBA20AttributeDescriptionEE6lengthEm @145
    _ZN15_CORBA_SequenceIN5CORBA20AttributeDescriptionEE7freebufEPS1_ @146
    _ZN15_CORBA_SequenceIN5CORBA20ExceptionDescriptionEE6lengthEm @147
    _ZN15_CORBA_SequenceIN5CORBA20ExceptionDescriptionEE7freebufEPS1_ @148
    _ZN15_CORBA_SequenceIN5CORBA20OperationDescriptionEE10copybufferEm @149
    _ZN15_CORBA_SequenceIN5CORBA20OperationDescriptionEE6lengthEm @150
    _ZN15_CORBA_SequenceIN5CORBA20OperationDescriptionEE7freebufEPS1_ @151
    _ZN15_CORBA_SequenceIN5CORBA20ParameterDescriptionEE6lengthEm @152
    _ZN15_CORBA_SequenceIN5CORBA20ParameterDescriptionEE7freebufEPS1_ @153
    _ZN15_CORBA_SequenceIN5CORBA3AnyEE6lengthEm @154
    _ZN15_CORBA_SequenceIN5CORBA9Container11DescriptionEE6lengthEm @155
    _ZN15_CORBA_SequenceIN5CORBA9Container11DescriptionEE7freebufEPS2_ @156
    _ZN17_CORBA_String_varD1Ev @157
    _ZN18cdrAnyMemoryStream10ptrToClassEPi @158
    _ZN18cdrAnyMemoryStream8_classidE @159 DATA
    _ZN18cdrAnyMemoryStreamC1EPvb @160
    _ZN18cdrAnyMemoryStreamC1ERKS_b @161
    _ZN18cdrAnyMemoryStreamC1Ev @162
    _ZN18cdrAnyMemoryStreamC2EPvb @163
    _ZN18cdrAnyMemoryStreamC2ERKS_b @164
    _ZN18cdrAnyMemoryStreamC2Ev @165
    _ZN18cdrAnyMemoryStreamD0Ev @166
    _ZN18cdrAnyMemoryStreamD1Ev @167
    _ZN18cdrAnyMemoryStreamD2Ev @168
    _ZN18cdrAnyMemoryStreamaSERK15cdrMemoryStream @169
    _ZN19cdrValueChunkStreamC1ER9cdrStream @170
    _ZN20_CORBA_String_helper3dupEPKc @171
    _ZN20_CORBA_String_helper4freeEPc @172
    _ZN20_CORBA_String_memberaSERKS_ @173
    _ZN21_CORBA_Sequence_ValueIN5CORBA9ValueBaseE20_CORBA_Value_ElementIS1_NS0_16ValueBase_HelperEES3_E7freebufEPPS1_ @174
    _ZN22_CORBA_Sequence_ObjRefIN5CORBA16_objref_ValueDefE21_CORBA_ObjRef_ElementIS1_NS0_15ValueDef_HelperEES3_E6lengthEm @175
    _ZN22_CORBA_Sequence_ObjRefIN5CORBA16_objref_ValueDefE21_CORBA_ObjRef_ElementIS1_NS0_15ValueDef_HelperEES3_E7freebufEPPS1_ @176
    _ZN22_CORBA_Sequence_ObjRefIN5CORBA16_objref_ValueDefE21_CORBA_ObjRef_ElementIS1_NS0_15ValueDef_HelperEES3_ElSER9cdrStream @177
    _ZN22_CORBA_Sequence_ObjRefIN5CORBA17_objref_ContainedE21_CORBA_ObjRef_ElementIS1_NS0_16Contained_HelperEES3_E6lengthEm @178
    _ZN22_CORBA_Sequence_ObjRefIN5CORBA17_objref_ContainedE21_CORBA_ObjRef_ElementIS1_NS0_16Contained_HelperEES3_E7freebufEPPS1_ @179
    _ZN22_CORBA_Sequence_ObjRefIN5CORBA20_objref_ExceptionDefE21_CORBA_ObjRef_ElementIS1_NS0_19ExceptionDef_HelperEES3_E6lengthEm @180
    _ZN22_CORBA_Sequence_ObjRefIN5CORBA20_objref_ExceptionDefE21_CORBA_ObjRef_ElementIS1_NS0_19ExceptionDef_HelperEES3_E7freebufEPPS1_ @181
    _ZN22_CORBA_Sequence_ObjRefIN5CORBA20_objref_ExceptionDefE21_CORBA_ObjRef_ElementIS1_NS0_19ExceptionDef_HelperEES3_ElSER9cdrStream @182
    _ZN22_CORBA_Sequence_ObjRefIN5CORBA20_objref_InterfaceDefE21_CORBA_ObjRef_ElementIS1_NS0_19InterfaceDef_HelperEES3_E6lengthEm @183
    _ZN22_CORBA_Sequence_ObjRefIN5CORBA20_objref_InterfaceDefE21_CORBA_ObjRef_ElementIS1_NS0_19InterfaceDef_HelperEES3_E7freebufEPPS1_ @184
    _ZN22_CORBA_Sequence_ObjRefIN5CORBA20_objref_InterfaceDefE21_CORBA_ObjRef_ElementIS1_NS0_19InterfaceDef_HelperEES3_ElSER9cdrStream @185
    _ZN22_CORBA_Sequence_ObjRefIN5CORBA28_objref_AbstractInterfaceDefE21_CORBA_ObjRef_ElementIS1_NS0_27AbstractInterfaceDef_HelperEES3_E6lengthEm @186
    _ZN22_CORBA_Sequence_ObjRefIN5CORBA28_objref_AbstractInterfaceDefE21_CORBA_ObjRef_ElementIS1_NS0_27AbstractInterfaceDef_HelperEES3_E7freebufEPPS1_ @187
    _ZN22_CORBA_Sequence_String10copybufferEm @188
    _ZN22_CORBA_Sequence_String6lengthEm @189
    _ZN22_CORBA_Sequence_String7freebufEPPc @190
    _ZN23CORBA_InitialReferences13_tc_ObjIdListE @191 DATA
    _ZN23CORBA_InitialReferences9_tc_ObjIdE @192 DATA
    _ZN23_CORBA_Sequence_WString7freebufEPPw @193
    _ZN25_CORBA_Unbounded_SequenceIN5CORBA11InitializerEElSER9cdrStream @194
    _ZN25_CORBA_Unbounded_SequenceIN5CORBA11UnionMemberEElSER9cdrStream @195
    _ZN25_CORBA_Unbounded_SequenceIN5CORBA20AttributeDescriptionEElSER9cdrStream @196
    _ZN25_omni_ValueFactoryManager16register_factoryEPKcmPN5CORBA16ValueFactoryBaseEb @197
    _ZN25_omni_ValueFactoryManager18unregister_factoryEPKcm @198
    _ZN25_omni_ValueFactoryManager20create_for_unmarshalEPKcm @199
    _ZN25_omni_ValueFactoryManager6lookupEPKcm @200
    _ZN27_0RL_CORBA_StringValue_init20create_for_unmarshalEv @201
    _ZN27_0RL_CORBA_StringValue_initD0Ev @202
    _ZN27_0RL_CORBA_StringValue_initD1Ev @203
    _ZN27_CORBA_PseudoValue_SequenceIN4omni11ContextImpl5EntryEED1Ev @204
    _ZN27_CORBA_PseudoValue_SequenceIN4omni14TypeCode_union13TcUnionMemberEED1Ev @205
    _ZN27_CORBA_PseudoValue_SequenceIPN5CORBA10NamedValueEED1Ev @206
    _ZN27_CORBA_PseudoValue_SequenceIPN5CORBA8TypeCodeEED1Ev @207
    _ZN27_CORBA_PseudoValue_SequenceIPcED1Ev @208
    _ZN28_0RL_CORBA_WStringValue_init20create_for_unmarshalEv @209
    _ZN28_0RL_CORBA_WStringValue_initD0Ev @210
    _ZN28_0RL_CORBA_WStringValue_initD1Ev @211
    _ZN32_CORBA_Unbounded_Sequence_StringC2ERKS_ @212
    _ZN33_0RL_cd_7963219A43724A61_0000000010_user_exnsE @213 DATA
    _ZN33_0RL_cd_7963219A43724A61_00000000D0Ev @214
    _ZN33_0RL_cd_7963219A43724A61_00000000D1Ev @215
    _ZN33_0RL_cd_7963219A43724A61_0100000010_user_exnsE @216 DATA
    _ZN33_0RL_cd_7963219A43724A61_0100000021marshalReturnedValuesER9cdrStream @217
    _ZN33_0RL_cd_7963219A43724A61_0100000023unmarshalReturnedValuesER9cdrStream @218
    _ZN33_0RL_cd_7963219A43724A61_01000000D0Ev @219
    _ZN33_0RL_cd_7963219A43724A61_01000000D1Ev @220
    _ZN33_0RL_cd_7963219A43724A61_0400000010_user_exnsE @221 DATA
    _ZN33_0RL_cd_7963219A43724A61_0400000016marshalArgumentsER9cdrStream @222
    _ZN33_0RL_cd_7963219A43724A61_0400000018unmarshalArgumentsER9cdrStream @223
    _ZN33_0RL_cd_7963219A43724A61_0400000021marshalReturnedValuesER9cdrStream @224
    _ZN33_0RL_cd_7963219A43724A61_0400000023unmarshalReturnedValuesER9cdrStream @225
    _ZN33_0RL_cd_7963219A43724A61_04000000D0Ev @226
    _ZN33_0RL_cd_7963219A43724A61_04000000D1Ev @227
    _ZN33_0RL_cd_7963219A43724A61_0600000010_user_exnsE @228 DATA
    _ZN33_0RL_cd_7963219A43724A61_0600000021marshalReturnedValuesER9cdrStream @229
    _ZN33_0RL_cd_7963219A43724A61_0600000023unmarshalReturnedValuesER9cdrStream @230
    _ZN33_0RL_cd_7963219A43724A61_06000000D0Ev @231
    _ZN33_0RL_cd_7963219A43724A61_06000000D1Ev @232
    _ZN33_0RL_cd_7963219A43724A61_0800000010_user_exnsE @233 DATA
    _ZN33_0RL_cd_7963219A43724A61_0800000021marshalReturnedValuesER9cdrStream @234
    _ZN33_0RL_cd_7963219A43724A61_0800000023unmarshalReturnedValuesER9cdrStream @235
    _ZN33_0RL_cd_7963219A43724A61_08000000D0Ev @236
    _ZN33_0RL_cd_7963219A43724A61_08000000D1Ev @237
    _ZN33_0RL_cd_7963219A43724A61_1200000010_user_exnsE @238 DATA
    _ZN33_0RL_cd_7963219A43724A61_1200000016marshalArgumentsER9cdrStream @239
    _ZN33_0RL_cd_7963219A43724A61_1200000018unmarshalArgumentsER9cdrStream @240
    _ZN33_0RL_cd_7963219A43724A61_1200000021marshalReturnedValuesER9cdrStream @241
    _ZN33_0RL_cd_7963219A43724A61_1200000023unmarshalReturnedValuesER9cdrStream @242
    _ZN33_0RL_cd_7963219A43724A61_12000000D0Ev @243
    _ZN33_0RL_cd_7963219A43724A61_12000000D1Ev @244
    _ZN33_0RL_cd_7963219A43724A61_1300000010_user_exnsE @245 DATA
    _ZN33_0RL_cd_7963219A43724A61_1300000016marshalArgumentsER9cdrStream @246
    _ZN33_0RL_cd_7963219A43724A61_1300000018unmarshalArgumentsER9cdrStream @247
    _ZN33_0RL_cd_7963219A43724A61_1300000021marshalReturnedValuesER9cdrStream @248
    _ZN33_0RL_cd_7963219A43724A61_1300000023unmarshalReturnedValuesER9cdrStream @249
    _ZN33_0RL_cd_7963219A43724A61_13000000D0Ev @250
    _ZN33_0RL_cd_7963219A43724A61_13000000D1Ev @251
    _ZN33_0RL_cd_7963219A43724A61_1500000010_user_exnsE @252 DATA
    _ZN33_0RL_cd_7963219A43724A61_1500000016marshalArgumentsER9cdrStream @253
    _ZN33_0RL_cd_7963219A43724A61_1500000018unmarshalArgumentsER9cdrStream @254
    _ZN33_0RL_cd_7963219A43724A61_15000000D0Ev @255
    _ZN33_0RL_cd_7963219A43724A61_15000000D1Ev @256
    _ZN33_0RL_cd_7963219A43724A61_1900000010_user_exnsE @257 DATA
    _ZN33_0RL_cd_7963219A43724A61_1900000016marshalArgumentsER9cdrStream @258
    _ZN33_0RL_cd_7963219A43724A61_1900000018unmarshalArgumentsER9cdrStream @259
    _ZN33_0RL_cd_7963219A43724A61_19000000D0Ev @260
    _ZN33_0RL_cd_7963219A43724A61_19000000D1Ev @261
    _ZN33_0RL_cd_7963219A43724A61_1a00000010_user_exnsE @262 DATA
    _ZN33_0RL_cd_7963219A43724A61_1a00000016marshalArgumentsER9cdrStream @263
    _ZN33_0RL_cd_7963219A43724A61_1a00000018unmarshalArgumentsER9cdrStream @264
    _ZN33_0RL_cd_7963219A43724A61_1a000000D0Ev @265
    _ZN33_0RL_cd_7963219A43724A61_1a000000D1Ev @266
    _ZN33_0RL_cd_7963219A43724A61_1b00000010_user_exnsE @267 DATA
    _ZN33_0RL_cd_7963219A43724A61_1b00000021marshalReturnedValuesER9cdrStream @268
    _ZN33_0RL_cd_7963219A43724A61_1b00000023unmarshalReturnedValuesER9cdrStream @269
    _ZN33_0RL_cd_7963219A43724A61_1b000000D0Ev @270
    _ZN33_0RL_cd_7963219A43724A61_1b000000D1Ev @271
    _ZN33_0RL_cd_7963219A43724A61_2000000010_user_exnsE @272 DATA
    _ZN33_0RL_cd_7963219A43724A61_2000000021marshalReturnedValuesER9cdrStream @273
    _ZN33_0RL_cd_7963219A43724A61_2000000023unmarshalReturnedValuesER9cdrStream @274
    _ZN33_0RL_cd_7963219A43724A61_20000000D0Ev @275
    _ZN33_0RL_cd_7963219A43724A61_20000000D1Ev @276
    _ZN33_0RL_cd_7963219A43724A61_2400000010_user_exnsE @277 DATA
    _ZN33_0RL_cd_7963219A43724A61_2400000016marshalArgumentsER9cdrStream @278
    _ZN33_0RL_cd_7963219A43724A61_2400000018unmarshalArgumentsER9cdrStream @279
    _ZN33_0RL_cd_7963219A43724A61_2400000021marshalReturnedValuesER9cdrStream @280
    _ZN33_0RL_cd_7963219A43724A61_2400000023unmarshalReturnedValuesER9cdrStream @281
    _ZN33_0RL_cd_7963219A43724A61_24000000D0Ev @282
    _ZN33_0RL_cd_7963219A43724A61_24000000D1Ev @283
    _ZN33_0RL_cd_7963219A43724A61_2600000010_user_exnsE @284 DATA
    _ZN33_0RL_cd_7963219A43724A61_2600000021marshalReturnedValuesER9cdrStream @285
    _ZN33_0RL_cd_7963219A43724A61_2600000023unmarshalReturnedValuesER9cdrStream @286
    _ZN33_0RL_cd_7963219A43724A61_26000000D0Ev @287
    _ZN33_0RL_cd_7963219A43724A61_26000000D1Ev @288
    _ZN33_0RL_cd_7963219A43724A61_2800000010_user_exnsE @289 DATA
    _ZN33_0RL_cd_7963219A43724A61_2800000016marshalArgumentsER9cdrStream @290
    _ZN33_0RL_cd_7963219A43724A61_2800000018unmarshalArgumentsER9cdrStream @291
    _ZN33_0RL_cd_7963219A43724A61_28000000D0Ev @292
    _ZN33_0RL_cd_7963219A43724A61_28000000D1Ev @293
    _ZN33_0RL_cd_7963219A43724A61_3100000010_user_exnsE @294 DATA
    _ZN33_0RL_cd_7963219A43724A61_3100000021marshalReturnedValuesER9cdrStream @295
    _ZN33_0RL_cd_7963219A43724A61_3100000023unmarshalReturnedValuesER9cdrStream @296
    _ZN33_0RL_cd_7963219A43724A61_31000000D0Ev @297
    _ZN33_0RL_cd_7963219A43724A61_31000000D1Ev @298
    _ZN33_0RL_cd_7963219A43724A61_3200000010_user_exnsE @299 DATA
    _ZN33_0RL_cd_7963219A43724A61_3200000016marshalArgumentsER9cdrStream @300
    _ZN33_0RL_cd_7963219A43724A61_3200000018unmarshalArgumentsER9cdrStream @301
    _ZN33_0RL_cd_7963219A43724A61_3200000021marshalReturnedValuesER9cdrStream @302
    _ZN33_0RL_cd_7963219A43724A61_3200000023unmarshalReturnedValuesER9cdrStream @303
    _ZN33_0RL_cd_7963219A43724A61_32000000D0Ev @304
    _ZN33_0RL_cd_7963219A43724A61_32000000D1Ev @305
    _ZN33_0RL_cd_7963219A43724A61_3300000010_user_exnsE @306 DATA
    _ZN33_0RL_cd_7963219A43724A61_3300000016marshalArgumentsER9cdrStream @307
    _ZN33_0RL_cd_7963219A43724A61_3300000018unmarshalArgumentsER9cdrStream @308
    _ZN33_0RL_cd_7963219A43724A61_3300000021marshalReturnedValuesER9cdrStream @309
    _ZN33_0RL_cd_7963219A43724A61_3300000023unmarshalReturnedValuesER9cdrStream @310
    _ZN33_0RL_cd_7963219A43724A61_33000000D0Ev @311
    _ZN33_0RL_cd_7963219A43724A61_33000000D1Ev @312
    _ZN33_0RL_cd_7963219A43724A61_3900000010_user_exnsE @313 DATA
    _ZN33_0RL_cd_7963219A43724A61_3900000021marshalReturnedValuesER9cdrStream @314
    _ZN33_0RL_cd_7963219A43724A61_3900000023unmarshalReturnedValuesER9cdrStream @315
    _ZN33_0RL_cd_7963219A43724A61_39000000D0Ev @316
    _ZN33_0RL_cd_7963219A43724A61_39000000D1Ev @317
    _ZN33_0RL_cd_7963219A43724A61_3b00000010_user_exnsE @318 DATA
    _ZN33_0RL_cd_7963219A43724A61_3b00000016marshalArgumentsER9cdrStream @319
    _ZN33_0RL_cd_7963219A43724A61_3b00000018unmarshalArgumentsER9cdrStream @320
    _ZN33_0RL_cd_7963219A43724A61_3b000000D0Ev @321
    _ZN33_0RL_cd_7963219A43724A61_3b000000D1Ev @322
    _ZN33_0RL_cd_7963219A43724A61_4000000010_user_exnsE @323 DATA
    _ZN33_0RL_cd_7963219A43724A61_4000000021marshalReturnedValuesER9cdrStream @324
    _ZN33_0RL_cd_7963219A43724A61_4000000023unmarshalReturnedValuesER9cdrStream @325
    _ZN33_0RL_cd_7963219A43724A61_40000000D0Ev @326
    _ZN33_0RL_cd_7963219A43724A61_40000000D1Ev @327
    _ZN33_0RL_cd_7963219A43724A61_4400000010_user_exnsE @328 DATA
    _ZN33_0RL_cd_7963219A43724A61_4400000016marshalArgumentsER9cdrStream @329
    _ZN33_0RL_cd_7963219A43724A61_4400000018unmarshalArgumentsER9cdrStream @330
    _ZN33_0RL_cd_7963219A43724A61_4400000021marshalReturnedValuesER9cdrStream @331
    _ZN33_0RL_cd_7963219A43724A61_4400000023unmarshalReturnedValuesER9cdrStream @332
    _ZN33_0RL_cd_7963219A43724A61_44000000D0Ev @333
    _ZN33_0RL_cd_7963219A43724A61_44000000D1Ev @334
    _ZN33_0RL_cd_7963219A43724A61_4600000010_user_exnsE @335 DATA
    _ZN33_0RL_cd_7963219A43724A61_4600000016marshalArgumentsER9cdrStream @336
    _ZN33_0RL_cd_7963219A43724A61_4600000018unmarshalArgumentsER9cdrStream @337
    _ZN33_0RL_cd_7963219A43724A61_46000000D0Ev @338
    _ZN33_0RL_cd_7963219A43724A61_46000000D1Ev @339
    _ZN33_0RL_cd_7963219A43724A61_5100000010_user_exnsE @340 DATA
    _ZN33_0RL_cd_7963219A43724A61_5100000016marshalArgumentsER9cdrStream @341
    _ZN33_0RL_cd_7963219A43724A61_5100000018unmarshalArgumentsER9cdrStream @342
    _ZN33_0RL_cd_7963219A43724A61_5100000021marshalReturnedValuesER9cdrStream @343
    _ZN33_0RL_cd_7963219A43724A61_5100000023unmarshalReturnedValuesER9cdrStream @344
    _ZN33_0RL_cd_7963219A43724A61_51000000D0Ev @345
    _ZN33_0RL_cd_7963219A43724A61_51000000D1Ev @346
    _ZN33_0RL_cd_7963219A43724A61_5200000010_user_exnsE @347 DATA
    _ZN33_0RL_cd_7963219A43724A61_5200000016marshalArgumentsER9cdrStream @348
    _ZN33_0RL_cd_7963219A43724A61_5200000018unmarshalArgumentsER9cdrStream @349
    _ZN33_0RL_cd_7963219A43724A61_5200000021marshalReturnedValuesER9cdrStream @350
    _ZN33_0RL_cd_7963219A43724A61_5200000023unmarshalReturnedValuesER9cdrStream @351
    _ZN33_0RL_cd_7963219A43724A61_52000000D0Ev @352
    _ZN33_0RL_cd_7963219A43724A61_52000000D1Ev @353
    _ZN33_0RL_cd_7963219A43724A61_5300000010_user_exnsE @354 DATA
    _ZN33_0RL_cd_7963219A43724A61_5300000021marshalReturnedValuesER9cdrStream @355
    _ZN33_0RL_cd_7963219A43724A61_5300000023unmarshalReturnedValuesER9cdrStream @356
    _ZN33_0RL_cd_7963219A43724A61_53000000D0Ev @357
    _ZN33_0RL_cd_7963219A43724A61_53000000D1Ev @358
    _ZN33_0RL_cd_7963219A43724A61_5900000010_user_exnsE @359 DATA
    _ZN33_0RL_cd_7963219A43724A61_5900000016marshalArgumentsER9cdrStream @360
    _ZN33_0RL_cd_7963219A43724A61_5900000018unmarshalArgumentsER9cdrStream @361
    _ZN33_0RL_cd_7963219A43724A61_59000000D0Ev @362
    _ZN33_0RL_cd_7963219A43724A61_59000000D1Ev @363
    _ZN33_0RL_cd_7963219A43724A61_5b00000010_user_exnsE @364 DATA
    _ZN33_0RL_cd_7963219A43724A61_5b00000021marshalReturnedValuesER9cdrStream @365
    _ZN33_0RL_cd_7963219A43724A61_5b00000023unmarshalReturnedValuesER9cdrStream @366
    _ZN33_0RL_cd_7963219A43724A61_5b000000D0Ev @367
    _ZN33_0RL_cd_7963219A43724A61_5b000000D1Ev @368
    _ZN33_0RL_cd_7963219A43724A61_6000000010_user_exnsE @369 DATA
    _ZN33_0RL_cd_7963219A43724A61_6000000016marshalArgumentsER9cdrStream @370
    _ZN33_0RL_cd_7963219A43724A61_6000000018unmarshalArgumentsER9cdrStream @371
    _ZN33_0RL_cd_7963219A43724A61_60000000D0Ev @372
    _ZN33_0RL_cd_7963219A43724A61_60000000D1Ev @373
    _ZN33_0RL_cd_7963219A43724A61_6500000010_user_exnsE @374 DATA
    _ZN33_0RL_cd_7963219A43724A61_6500000021marshalReturnedValuesER9cdrStream @375
    _ZN33_0RL_cd_7963219A43724A61_6500000023unmarshalReturnedValuesER9cdrStream @376
    _ZN33_0RL_cd_7963219A43724A61_65000000D0Ev @377
    _ZN33_0RL_cd_7963219A43724A61_65000000D1Ev @378
    _ZN33_0RL_cd_7963219A43724A61_7100000010_user_exnsE @379 DATA
    _ZN33_0RL_cd_7963219A43724A61_7100000016marshalArgumentsER9cdrStream @380
    _ZN33_0RL_cd_7963219A43724A61_7100000018unmarshalArgumentsER9cdrStream @381
    _ZN33_0RL_cd_7963219A43724A61_7100000021marshalReturnedValuesER9cdrStream @382
    _ZN33_0RL_cd_7963219A43724A61_7100000023unmarshalReturnedValuesER9cdrStream @383
    _ZN33_0RL_cd_7963219A43724A61_71000000D0Ev @384
    _ZN33_0RL_cd_7963219A43724A61_71000000D1Ev @385
    _ZN33_0RL_cd_7963219A43724A61_7200000010_user_exnsE @386 DATA
    _ZN33_0RL_cd_7963219A43724A61_7200000016marshalArgumentsER9cdrStream @387
    _ZN33_0RL_cd_7963219A43724A61_7200000018unmarshalArgumentsER9cdrStream @388
    _ZN33_0RL_cd_7963219A43724A61_7200000021marshalReturnedValuesER9cdrStream @389
    _ZN33_0RL_cd_7963219A43724A61_7200000023unmarshalReturnedValuesER9cdrStream @390
    _ZN33_0RL_cd_7963219A43724A61_72000000D0Ev @391
    _ZN33_0RL_cd_7963219A43724A61_72000000D1Ev @392
    _ZN33_0RL_cd_7963219A43724A61_7400000010_user_exnsE @393 DATA
    _ZN33_0RL_cd_7963219A43724A61_7400000021marshalReturnedValuesER9cdrStream @394
    _ZN33_0RL_cd_7963219A43724A61_7400000023unmarshalReturnedValuesER9cdrStream @395
    _ZN33_0RL_cd_7963219A43724A61_74000000D0Ev @396
    _ZN33_0RL_cd_7963219A43724A61_74000000D1Ev @397
    _ZN33_0RL_cd_7963219A43724A61_7800000010_user_exnsE @398 DATA
    _ZN33_0RL_cd_7963219A43724A61_7800000021marshalReturnedValuesER9cdrStream @399
    _ZN33_0RL_cd_7963219A43724A61_7800000023unmarshalReturnedValuesER9cdrStream @400
    _ZN33_0RL_cd_7963219A43724A61_78000000D0Ev @401
    _ZN33_0RL_cd_7963219A43724A61_78000000D1Ev @402
    _ZN33_0RL_cd_7963219A43724A61_7900000010_user_exnsE @403 DATA
    _ZN33_0RL_cd_7963219A43724A61_7900000016marshalArgumentsER9cdrStream @404
    _ZN33_0RL_cd_7963219A43724A61_7900000018unmarshalArgumentsER9cdrStream @405
    _ZN33_0RL_cd_7963219A43724A61_7900000021marshalReturnedValuesER9cdrStream @406
    _ZN33_0RL_cd_7963219A43724A61_7900000023unmarshalReturnedValuesER9cdrStream @407
    _ZN33_0RL_cd_7963219A43724A61_79000000D0Ev @408
    _ZN33_0RL_cd_7963219A43724A61_79000000D1Ev @409
    _ZN33_0RL_cd_7963219A43724A61_7b00000010_user_exnsE @410 DATA
    _ZN33_0RL_cd_7963219A43724A61_7b00000016marshalArgumentsER9cdrStream @411
    _ZN33_0RL_cd_7963219A43724A61_7b00000018unmarshalArgumentsER9cdrStream @412
    _ZN33_0RL_cd_7963219A43724A61_7b000000D0Ev @413
    _ZN33_0RL_cd_7963219A43724A61_7b000000D1Ev @414
    _ZN33_0RL_cd_7963219A43724A61_8000000010_user_exnsE @415 DATA
    _ZN33_0RL_cd_7963219A43724A61_8000000021marshalReturnedValuesER9cdrStream @416
    _ZN33_0RL_cd_7963219A43724A61_8000000023unmarshalReturnedValuesER9cdrStream @417
    _ZN33_0RL_cd_7963219A43724A61_80000000D0Ev @418
    _ZN33_0RL_cd_7963219A43724A61_80000000D1Ev @419
    _ZN33_0RL_cd_7963219A43724A61_8300000010_user_exnsE @420 DATA
    _ZN33_0RL_cd_7963219A43724A61_8300000016marshalArgumentsER9cdrStream @421
    _ZN33_0RL_cd_7963219A43724A61_8300000018unmarshalArgumentsER9cdrStream @422
    _ZN33_0RL_cd_7963219A43724A61_8300000021marshalReturnedValuesER9cdrStream @423
    _ZN33_0RL_cd_7963219A43724A61_8300000023unmarshalReturnedValuesER9cdrStream @424
    _ZN33_0RL_cd_7963219A43724A61_83000000D0Ev @425
    _ZN33_0RL_cd_7963219A43724A61_83000000D1Ev @426
    _ZN33_0RL_cd_7963219A43724A61_8500000010_user_exnsE @427 DATA
    _ZN33_0RL_cd_7963219A43724A61_8500000016marshalArgumentsER9cdrStream @428
    _ZN33_0RL_cd_7963219A43724A61_8500000018unmarshalArgumentsER9cdrStream @429
    _ZN33_0RL_cd_7963219A43724A61_85000000D0Ev @430
    _ZN33_0RL_cd_7963219A43724A61_85000000D1Ev @431
    _ZN33_0RL_cd_7963219A43724A61_8600000010_user_exnsE @432 DATA
    _ZN33_0RL_cd_7963219A43724A61_8600000021marshalReturnedValuesER9cdrStream @433
    _ZN33_0RL_cd_7963219A43724A61_8600000023unmarshalReturnedValuesER9cdrStream @434
    _ZN33_0RL_cd_7963219A43724A61_86000000D0Ev @435
    _ZN33_0RL_cd_7963219A43724A61_86000000D1Ev @436
    _ZN33_0RL_cd_7963219A43724A61_9100000010_user_exnsE @437 DATA
    _ZN33_0RL_cd_7963219A43724A61_9100000016marshalArgumentsER9cdrStream @438
    _ZN33_0RL_cd_7963219A43724A61_9100000018unmarshalArgumentsER9cdrStream @439
    _ZN33_0RL_cd_7963219A43724A61_9100000021marshalReturnedValuesER9cdrStream @440
    _ZN33_0RL_cd_7963219A43724A61_9100000023unmarshalReturnedValuesER9cdrStream @441
    _ZN33_0RL_cd_7963219A43724A61_91000000D0Ev @442
    _ZN33_0RL_cd_7963219A43724A61_91000000D1Ev @443
    _ZN33_0RL_cd_7963219A43724A61_9200000010_user_exnsE @444 DATA
    _ZN33_0RL_cd_7963219A43724A61_9200000016marshalArgumentsER9cdrStream @445
    _ZN33_0RL_cd_7963219A43724A61_9200000018unmarshalArgumentsER9cdrStream @446
    _ZN33_0RL_cd_7963219A43724A61_9200000021marshalReturnedValuesER9cdrStream @447
    _ZN33_0RL_cd_7963219A43724A61_9200000023unmarshalReturnedValuesER9cdrStream @448
    _ZN33_0RL_cd_7963219A43724A61_92000000D0Ev @449
    _ZN33_0RL_cd_7963219A43724A61_92000000D1Ev @450
    _ZN33_0RL_cd_7963219A43724A61_9400000010_user_exnsE @451 DATA
    _ZN33_0RL_cd_7963219A43724A61_9400000016marshalArgumentsER9cdrStream @452
    _ZN33_0RL_cd_7963219A43724A61_9400000018unmarshalArgumentsER9cdrStream @453
    _ZN33_0RL_cd_7963219A43724A61_94000000D0Ev @454
    _ZN33_0RL_cd_7963219A43724A61_94000000D1Ev @455
    _ZN33_0RL_cd_7963219A43724A61_9800000010_user_exnsE @456 DATA
    _ZN33_0RL_cd_7963219A43724A61_9800000016marshalArgumentsER9cdrStream @457
    _ZN33_0RL_cd_7963219A43724A61_9800000018unmarshalArgumentsER9cdrStream @458
    _ZN33_0RL_cd_7963219A43724A61_98000000D0Ev @459
    _ZN33_0RL_cd_7963219A43724A61_98000000D1Ev @460
    _ZN33_0RL_cd_7963219A43724A61_9900000010_user_exnsE @461 DATA
    _ZN33_0RL_cd_7963219A43724A61_9900000021marshalReturnedValuesER9cdrStream @462
    _ZN33_0RL_cd_7963219A43724A61_9900000023unmarshalReturnedValuesER9cdrStream @463
    _ZN33_0RL_cd_7963219A43724A61_99000000D0Ev @464
    _ZN33_0RL_cd_7963219A43724A61_99000000D1Ev @465
    _ZN33_0RL_cd_7963219A43724A61_9a00000010_user_exnsE @466 DATA
    _ZN33_0RL_cd_7963219A43724A61_9a00000021marshalReturnedValuesER9cdrStream @467
    _ZN33_0RL_cd_7963219A43724A61_9a00000023unmarshalReturnedValuesER9cdrStream @468
    _ZN33_0RL_cd_7963219A43724A61_9a000000D0Ev @469
    _ZN33_0RL_cd_7963219A43724A61_9a000000D1Ev @470
    _ZN33_0RL_cd_7963219A43724A61_9b00000010_user_exnsE @471 DATA
    _ZN33_0RL_cd_7963219A43724A61_9b00000021marshalReturnedValuesER9cdrStream @472
    _ZN33_0RL_cd_7963219A43724A61_9b00000023unmarshalReturnedValuesER9cdrStream @473
    _ZN33_0RL_cd_7963219A43724A61_9b000000D0Ev @474
    _ZN33_0RL_cd_7963219A43724A61_9b000000D1Ev @475
    _ZN33_0RL_cd_7963219A43724A61_a000000010_user_exnsE @476 DATA
    _ZN33_0RL_cd_7963219A43724A61_a000000016marshalArgumentsER9cdrStream @477
    _ZN33_0RL_cd_7963219A43724A61_a000000018unmarshalArgumentsER9cdrStream @478
    _ZN33_0RL_cd_7963219A43724A61_a0000000D0Ev @479
    _ZN33_0RL_cd_7963219A43724A61_a0000000D1Ev @480
    _ZN33_0RL_cd_7963219A43724A61_a300000010_user_exnsE @481 DATA
    _ZN33_0RL_cd_7963219A43724A61_a300000016marshalArgumentsER9cdrStream @482
    _ZN33_0RL_cd_7963219A43724A61_a300000018unmarshalArgumentsER9cdrStream @483
    _ZN33_0RL_cd_7963219A43724A61_a300000021marshalReturnedValuesER9cdrStream @484
    _ZN33_0RL_cd_7963219A43724A61_a300000023unmarshalReturnedValuesER9cdrStream @485
    _ZN33_0RL_cd_7963219A43724A61_a3000000D0Ev @486
    _ZN33_0RL_cd_7963219A43724A61_a3000000D1Ev @487
    _ZN33_0RL_cd_7963219A43724A61_a500000010_user_exnsE @488 DATA
    _ZN33_0RL_cd_7963219A43724A61_a500000021marshalReturnedValuesER9cdrStream @489
    _ZN33_0RL_cd_7963219A43724A61_a500000023unmarshalReturnedValuesER9cdrStream @490
    _ZN33_0RL_cd_7963219A43724A61_a5000000D0Ev @491
    _ZN33_0RL_cd_7963219A43724A61_a5000000D1Ev @492
    _ZN33_0RL_cd_7963219A43724A61_a600000010_user_exnsE @493 DATA
    _ZN33_0RL_cd_7963219A43724A61_a600000016marshalArgumentsER9cdrStream @494
    _ZN33_0RL_cd_7963219A43724A61_a600000018unmarshalArgumentsER9cdrStream @495
    _ZN33_0RL_cd_7963219A43724A61_a6000000D0Ev @496
    _ZN33_0RL_cd_7963219A43724A61_a6000000D1Ev @497
    _ZN33_0RL_cd_7963219A43724A61_b100000010_user_exnsE @498 DATA
    _ZN33_0RL_cd_7963219A43724A61_b100000016marshalArgumentsER9cdrStream @499
    _ZN33_0RL_cd_7963219A43724A61_b100000018unmarshalArgumentsER9cdrStream @500
    _ZN33_0RL_cd_7963219A43724A61_b100000021marshalReturnedValuesER9cdrStream @501
    _ZN33_0RL_cd_7963219A43724A61_b100000023unmarshalReturnedValuesER9cdrStream @502
    _ZN33_0RL_cd_7963219A43724A61_b1000000D0Ev @503
    _ZN33_0RL_cd_7963219A43724A61_b1000000D1Ev @504
    _ZN33_0RL_cd_7963219A43724A61_b200000010_user_exnsE @505 DATA
    _ZN33_0RL_cd_7963219A43724A61_b200000016marshalArgumentsER9cdrStream @506
    _ZN33_0RL_cd_7963219A43724A61_b200000018unmarshalArgumentsER9cdrStream @507
    _ZN33_0RL_cd_7963219A43724A61_b200000021marshalReturnedValuesER9cdrStream @508
    _ZN33_0RL_cd_7963219A43724A61_b200000023unmarshalReturnedValuesER9cdrStream @509
    _ZN33_0RL_cd_7963219A43724A61_b2000000D0Ev @510
    _ZN33_0RL_cd_7963219A43724A61_b2000000D1Ev @511
    _ZN33_0RL_cd_7963219A43724A61_b400000010_user_exnsE @512 DATA
    _ZN33_0RL_cd_7963219A43724A61_b400000021marshalReturnedValuesER9cdrStream @513
    _ZN33_0RL_cd_7963219A43724A61_b400000023unmarshalReturnedValuesER9cdrStream @514
    _ZN33_0RL_cd_7963219A43724A61_b4000000D0Ev @515
    _ZN33_0RL_cd_7963219A43724A61_b4000000D1Ev @516
    _ZN33_0RL_cd_7963219A43724A61_b800000010_user_exnsE @517 DATA
    _ZN33_0RL_cd_7963219A43724A61_b800000021marshalReturnedValuesER9cdrStream @518
    _ZN33_0RL_cd_7963219A43724A61_b800000023unmarshalReturnedValuesER9cdrStream @519
    _ZN33_0RL_cd_7963219A43724A61_b8000000D0Ev @520
    _ZN33_0RL_cd_7963219A43724A61_b8000000D1Ev @521
    _ZN33_0RL_cd_7963219A43724A61_b900000010_user_exnsE @522 DATA
    _ZN33_0RL_cd_7963219A43724A61_b900000016marshalArgumentsER9cdrStream @523
    _ZN33_0RL_cd_7963219A43724A61_b900000018unmarshalArgumentsER9cdrStream @524
    _ZN33_0RL_cd_7963219A43724A61_b900000021marshalReturnedValuesER9cdrStream @525
    _ZN33_0RL_cd_7963219A43724A61_b900000023unmarshalReturnedValuesER9cdrStream @526
    _ZN33_0RL_cd_7963219A43724A61_b9000000D0Ev @527
    _ZN33_0RL_cd_7963219A43724A61_b9000000D1Ev @528
    _ZN33_0RL_cd_7963219A43724A61_ba00000010_user_exnsE @529 DATA
    _ZN33_0RL_cd_7963219A43724A61_ba00000016marshalArgumentsER9cdrStream @530
    _ZN33_0RL_cd_7963219A43724A61_ba00000018unmarshalArgumentsER9cdrStream @531
    _ZN33_0RL_cd_7963219A43724A61_ba00000021marshalReturnedValuesER9cdrStream @532
    _ZN33_0RL_cd_7963219A43724A61_ba00000023unmarshalReturnedValuesER9cdrStream @533
    _ZN33_0RL_cd_7963219A43724A61_ba000000D0Ev @534
    _ZN33_0RL_cd_7963219A43724A61_ba000000D1Ev @535
    _ZN33_0RL_cd_7963219A43724A61_bb00000010_user_exnsE @536 DATA
    _ZN33_0RL_cd_7963219A43724A61_bb00000016marshalArgumentsER9cdrStream @537
    _ZN33_0RL_cd_7963219A43724A61_bb00000018unmarshalArgumentsER9cdrStream @538
    _ZN33_0RL_cd_7963219A43724A61_bb000000D0Ev @539
    _ZN33_0RL_cd_7963219A43724A61_bb000000D1Ev @540
    _ZN33_0RL_cd_7963219A43724A61_c300000010_user_exnsE @541 DATA
    _ZN33_0RL_cd_7963219A43724A61_c300000016marshalArgumentsER9cdrStream @542
    _ZN33_0RL_cd_7963219A43724A61_c300000018unmarshalArgumentsER9cdrStream @543
    _ZN33_0RL_cd_7963219A43724A61_c300000021marshalReturnedValuesER9cdrStream @544
    _ZN33_0RL_cd_7963219A43724A61_c300000023unmarshalReturnedValuesER9cdrStream @545
    _ZN33_0RL_cd_7963219A43724A61_c3000000D0Ev @546
    _ZN33_0RL_cd_7963219A43724A61_c3000000D1Ev @547
    _ZN33_0RL_cd_7963219A43724A61_c500000010_user_exnsE @548 DATA
    _ZN33_0RL_cd_7963219A43724A61_c500000016marshalArgumentsER9cdrStream @549
    _ZN33_0RL_cd_7963219A43724A61_c500000018unmarshalArgumentsER9cdrStream @550
    _ZN33_0RL_cd_7963219A43724A61_c5000000D0Ev @551
    _ZN33_0RL_cd_7963219A43724A61_c5000000D1Ev @552
    _ZN33_0RL_cd_7963219A43724A61_c600000010_user_exnsE @553 DATA
    _ZN33_0RL_cd_7963219A43724A61_c600000021marshalReturnedValuesER9cdrStream @554
    _ZN33_0RL_cd_7963219A43724A61_c600000023unmarshalReturnedValuesER9cdrStream @555
    _ZN33_0RL_cd_7963219A43724A61_c6000000D0Ev @556
    _ZN33_0RL_cd_7963219A43724A61_c6000000D1Ev @557
    _ZN33_0RL_cd_7963219A43724A61_d100000010_user_exnsE @558 DATA
    _ZN33_0RL_cd_7963219A43724A61_d100000016marshalArgumentsER9cdrStream @559
    _ZN33_0RL_cd_7963219A43724A61_d100000018unmarshalArgumentsER9cdrStream @560
    _ZN33_0RL_cd_7963219A43724A61_d100000021marshalReturnedValuesER9cdrStream @561
    _ZN33_0RL_cd_7963219A43724A61_d100000023unmarshalReturnedValuesER9cdrStream @562
    _ZN33_0RL_cd_7963219A43724A61_d1000000D0Ev @563
    _ZN33_0RL_cd_7963219A43724A61_d1000000D1Ev @564
    _ZN33_0RL_cd_7963219A43724A61_d200000010_user_exnsE @565 DATA
    _ZN33_0RL_cd_7963219A43724A61_d200000016marshalArgumentsER9cdrStream @566
    _ZN33_0RL_cd_7963219A43724A61_d200000018unmarshalArgumentsER9cdrStream @567
    _ZN33_0RL_cd_7963219A43724A61_d200000021marshalReturnedValuesER9cdrStream @568
    _ZN33_0RL_cd_7963219A43724A61_d200000023unmarshalReturnedValuesER9cdrStream @569
    _ZN33_0RL_cd_7963219A43724A61_d2000000D0Ev @570
    _ZN33_0RL_cd_7963219A43724A61_d2000000D1Ev @571
    _ZN33_0RL_cd_7963219A43724A61_d400000010_user_exnsE @572 DATA
    _ZN33_0RL_cd_7963219A43724A61_d400000016marshalArgumentsER9cdrStream @573
    _ZN33_0RL_cd_7963219A43724A61_d400000018unmarshalArgumentsER9cdrStream @574
    _ZN33_0RL_cd_7963219A43724A61_d4000000D0Ev @575
    _ZN33_0RL_cd_7963219A43724A61_d4000000D1Ev @576
    _ZN33_0RL_cd_7963219A43724A61_d800000010_user_exnsE @577 DATA
    _ZN33_0RL_cd_7963219A43724A61_d800000016marshalArgumentsER9cdrStream @578
    _ZN33_0RL_cd_7963219A43724A61_d800000018unmarshalArgumentsER9cdrStream @579
    _ZN33_0RL_cd_7963219A43724A61_d8000000D0Ev @580
    _ZN33_0RL_cd_7963219A43724A61_d8000000D1Ev @581
    _ZN33_0RL_cd_7963219A43724A61_d900000010_user_exnsE @582 DATA
    _ZN33_0RL_cd_7963219A43724A61_d900000016marshalArgumentsER9cdrStream @583
    _ZN33_0RL_cd_7963219A43724A61_d900000018unmarshalArgumentsER9cdrStream @584
    _ZN33_0RL_cd_7963219A43724A61_d900000021marshalReturnedValuesER9cdrStream @585
    _ZN33_0RL_cd_7963219A43724A61_d900000023unmarshalReturnedValuesER9cdrStream @586
    _ZN33_0RL_cd_7963219A43724A61_d9000000D0Ev @587
    _ZN33_0RL_cd_7963219A43724A61_d9000000D1Ev @588
    _ZN33_0RL_cd_7963219A43724A61_db00000010_user_exnsE @589 DATA
    _ZN33_0RL_cd_7963219A43724A61_db00000021marshalReturnedValuesER9cdrStream @590
    _ZN33_0RL_cd_7963219A43724A61_db00000023unmarshalReturnedValuesER9cdrStream @591
    _ZN33_0RL_cd_7963219A43724A61_db000000D0Ev @592
    _ZN33_0RL_cd_7963219A43724A61_db000000D1Ev @593
    _ZN33_0RL_cd_7963219A43724A61_e300000010_user_exnsE @594 DATA
    _ZN33_0RL_cd_7963219A43724A61_e300000016marshalArgumentsER9cdrStream @595
    _ZN33_0RL_cd_7963219A43724A61_e300000018unmarshalArgumentsER9cdrStream @596
    _ZN33_0RL_cd_7963219A43724A61_e300000021marshalReturnedValuesER9cdrStream @597
    _ZN33_0RL_cd_7963219A43724A61_e300000023unmarshalReturnedValuesER9cdrStream @598
    _ZN33_0RL_cd_7963219A43724A61_e3000000D0Ev @599
    _ZN33_0RL_cd_7963219A43724A61_e3000000D1Ev @600
    _ZN33_0RL_cd_7963219A43724A61_e600000010_user_exnsE @601 DATA
    _ZN33_0RL_cd_7963219A43724A61_e600000016marshalArgumentsER9cdrStream @602
    _ZN33_0RL_cd_7963219A43724A61_e600000018unmarshalArgumentsER9cdrStream @603
    _ZN33_0RL_cd_7963219A43724A61_e6000000D0Ev @604
    _ZN33_0RL_cd_7963219A43724A61_e6000000D1Ev @605
    _ZN33_0RL_cd_7963219A43724A61_f100000010_user_exnsE @606 DATA
    _ZN33_0RL_cd_7963219A43724A61_f100000016marshalArgumentsER9cdrStream @607
    _ZN33_0RL_cd_7963219A43724A61_f100000018unmarshalArgumentsER9cdrStream @608
    _ZN33_0RL_cd_7963219A43724A61_f100000021marshalReturnedValuesER9cdrStream @609
    _ZN33_0RL_cd_7963219A43724A61_f100000023unmarshalReturnedValuesER9cdrStream @610
    _ZN33_0RL_cd_7963219A43724A61_f1000000D0Ev @611
    _ZN33_0RL_cd_7963219A43724A61_f1000000D1Ev @612
    _ZN33_0RL_cd_7963219A43724A61_f200000010_user_exnsE @613 DATA
    _ZN33_0RL_cd_7963219A43724A61_f200000016marshalArgumentsER9cdrStream @614
    _ZN33_0RL_cd_7963219A43724A61_f200000018unmarshalArgumentsER9cdrStream @615
    _ZN33_0RL_cd_7963219A43724A61_f200000021marshalReturnedValuesER9cdrStream @616
    _ZN33_0RL_cd_7963219A43724A61_f200000023unmarshalReturnedValuesER9cdrStream @617
    _ZN33_0RL_cd_7963219A43724A61_f2000000D0Ev @618
    _ZN33_0RL_cd_7963219A43724A61_f2000000D1Ev @619
    _ZN33_0RL_cd_7963219A43724A61_f400000010_user_exnsE @620 DATA
    _ZN33_0RL_cd_7963219A43724A61_f400000021marshalReturnedValuesER9cdrStream @621
    _ZN33_0RL_cd_7963219A43724A61_f400000023unmarshalReturnedValuesER9cdrStream @622
    _ZN33_0RL_cd_7963219A43724A61_f4000000D0Ev @623
    _ZN33_0RL_cd_7963219A43724A61_f4000000D1Ev @624
    _ZN33_0RL_cd_7963219A43724A61_f800000010_user_exnsE @625 DATA
    _ZN33_0RL_cd_7963219A43724A61_f800000021marshalReturnedValuesER9cdrStream @626
    _ZN33_0RL_cd_7963219A43724A61_f800000023unmarshalReturnedValuesER9cdrStream @627
    _ZN33_0RL_cd_7963219A43724A61_f8000000D0Ev @628
    _ZN33_0RL_cd_7963219A43724A61_f8000000D1Ev @629
    _ZN33_0RL_cd_7963219A43724A61_f900000010_user_exnsE @630 DATA
    _ZN33_0RL_cd_7963219A43724A61_f900000021marshalReturnedValuesER9cdrStream @631
    _ZN33_0RL_cd_7963219A43724A61_f900000023unmarshalReturnedValuesER9cdrStream @632
    _ZN33_0RL_cd_7963219A43724A61_f9000000D0Ev @633
    _ZN33_0RL_cd_7963219A43724A61_f9000000D1Ev @634
    _ZN33_0RL_cd_7963219A43724A61_fb00000010_user_exnsE @635 DATA
    _ZN33_0RL_cd_7963219A43724A61_fb00000016marshalArgumentsER9cdrStream @636
    _ZN33_0RL_cd_7963219A43724A61_fb00000018unmarshalArgumentsER9cdrStream @637
    _ZN33_0RL_cd_7963219A43724A61_fb000000D0Ev @638
    _ZN33_0RL_cd_7963219A43724A61_fb000000D1Ev @639
    _ZN4omni10DynAnyImpl10_PD_repoIdE @640 DATA
    _ZN4omni10DynAnyImpl10get_doubleEv @641
    _ZN4omni10DynAnyImpl10get_stringEv @642
    _ZN4omni10DynAnyImpl10get_ushortEv @643
    _ZN4omni10DynAnyImpl10insert_anyERKN5CORBA3AnyE @644
    _ZN4omni10DynAnyImpl10insert_valEPN5CORBA9ValueBaseE @645
    _ZN4omni10DynAnyImpl11get_booleanEv @646
    _ZN4omni10DynAnyImpl11get_dyn_anyEv @647
    _ZN4omni10DynAnyImpl11get_wstringEv @648
    _ZN4omni10DynAnyImpl11insert_charEh @649
    _ZN4omni10DynAnyImpl11insert_longEl @650
    _ZN4omni10DynAnyImpl12_ptrToObjRefEPKc @651
    _ZN4omni10DynAnyImpl12get_abstractEv @652
    _ZN4omni10DynAnyImpl12get_char_seqEv @653
    _ZN4omni10DynAnyImpl12get_long_seqEv @654
    _ZN4omni10DynAnyImpl12get_longlongEv @655
    _ZN4omni10DynAnyImpl12get_typecodeEv @656
    _ZN4omni10DynAnyImpl12insert_floatEf @657
    _ZN4omni10DynAnyImpl12insert_octetEh @658
    _ZN4omni10DynAnyImpl12insert_shortEs @659
    _ZN4omni10DynAnyImpl12insert_ulongEm @660
    _ZN4omni10DynAnyImpl12insert_wcharEw @661
    _ZN4omni10DynAnyImpl13get_float_seqEv @662
    _ZN4omni10DynAnyImpl13get_octet_seqEv @663
    _ZN4omni10DynAnyImpl13get_referenceEv @664
    _ZN4omni10DynAnyImpl13get_short_seqEv @665
    _ZN4omni10DynAnyImpl13get_ulong_seqEv @666
    _ZN4omni10DynAnyImpl13get_ulonglongEv @667
    _ZN4omni10DynAnyImpl13get_wchar_seqEv @668
    _ZN4omni10DynAnyImpl13insert_doubleEd @669
    _ZN4omni10DynAnyImpl13insert_stringEPKc @670
    _ZN4omni10DynAnyImpl13insert_ushortEt @671
    _ZN4omni10DynAnyImpl14get_double_seqEv @672
    _ZN4omni10DynAnyImpl14get_longdoubleEv @673
    _ZN4omni10DynAnyImpl14get_ushort_seqEv @674
    _ZN4omni10DynAnyImpl14insert_booleanEb @675
    _ZN4omni10DynAnyImpl14insert_dyn_anyEPN10DynamicAny6DynAnyE @676
    _ZN4omni10DynAnyImpl14insert_wstringEPKw @677
    _ZN4omni10DynAnyImpl15component_countEv @678
    _ZN4omni10DynAnyImpl15get_boolean_seqEv @679
    _ZN4omni10DynAnyImpl15insert_abstractEPN5CORBA12AbstractBaseE @680
    _ZN4omni10DynAnyImpl15insert_char_seqERN5CORBA7CharSeqE @681
    _ZN4omni10DynAnyImpl15insert_long_seqERN5CORBA7LongSeqE @682
    _ZN4omni10DynAnyImpl15insert_longlongEx @683
    _ZN4omni10DynAnyImpl15insert_typecodeEPN5CORBA8TypeCodeE @684
    _ZN4omni10DynAnyImpl16get_longlong_seqEv @685
    _ZN4omni10DynAnyImpl16insert_float_seqERN5CORBA8FloatSeqE @686
    _ZN4omni10DynAnyImpl16insert_octet_seqERN5CORBA8OctetSeqE @687
    _ZN4omni10DynAnyImpl16insert_referenceEPN5CORBA6ObjectE @688
    _ZN4omni10DynAnyImpl16insert_short_seqERN5CORBA8ShortSeqE @689
    _ZN4omni10DynAnyImpl16insert_ulong_seqERN5CORBA8ULongSeqE @690
    _ZN4omni10DynAnyImpl16insert_ulonglongEy @691
    _ZN4omni10DynAnyImpl16insert_wchar_seqERN5CORBA8WCharSeqE @692
    _ZN4omni10DynAnyImpl17current_componentEv @693
    _ZN4omni10DynAnyImpl17get_ulonglong_seqEv @694
    _ZN4omni10DynAnyImpl17insert_double_seqERN5CORBA9DoubleSeqE @695
    _ZN4omni10DynAnyImpl17insert_longdoubleEe @696
    _ZN4omni10DynAnyImpl17insert_ushort_seqERN5CORBA9UShortSeqE @697
    _ZN4omni10DynAnyImpl18get_longdouble_seqEv @698
    _ZN4omni10DynAnyImpl18insert_boolean_seqERN5CORBA10BooleanSeqE @699
    _ZN4omni10DynAnyImpl19insert_longlong_seqERN5CORBA11LongLongSeqE @700
    _ZN4omni10DynAnyImpl20insert_ulonglong_seqERN5CORBA12ULongLongSeqE @701
    _ZN4omni10DynAnyImpl20set_to_initial_valueEv @702
    _ZN4omni10DynAnyImpl21insert_longdouble_seqERN5CORBA13LongDoubleSeqE @703
    _ZN4omni10DynAnyImpl4copyEv @704
    _ZN4omni10DynAnyImpl4nextEv @705
    _ZN4omni10DynAnyImpl4seekEl @706
    _ZN4omni10DynAnyImpl5equalEPN10DynamicAny6DynAnyE @707
    _ZN4omni10DynAnyImpl6assignEPN10DynamicAny6DynAnyE @708
    _ZN4omni10DynAnyImpl6rewindEv @709
    _ZN4omni10DynAnyImpl7copy_toER18cdrAnyMemoryStream @710
    _ZN4omni10DynAnyImpl7get_anyEv @711
    _ZN4omni10DynAnyImpl7get_valEv @712
    _ZN4omni10DynAnyImpl8get_charEv @713
    _ZN4omni10DynAnyImpl8get_longEv @714
    _ZN4omni10DynAnyImpl9copy_fromER18cdrAnyMemoryStream @715
    _ZN4omni10DynAnyImpl9get_floatEv @716
    _ZN4omni10DynAnyImpl9get_octetEv @717
    _ZN4omni10DynAnyImpl9get_shortEv @718
    _ZN4omni10DynAnyImpl9get_ulongEv @719
    _ZN4omni10DynAnyImpl9get_wcharEv @720
    _ZN4omni10DynAnyImplC1EPNS_13TypeCode_baseEib @721
    _ZN4omni10DynAnyImplC2EPNS_13TypeCode_baseEib @722
    _ZN4omni10DynAnyImplD0Ev @723
    _ZN4omni10DynAnyImplD1Ev @724
    _ZN4omni10DynAnyImplD2Ev @725
    _ZN4omni10NVListImpl12NP_duplicateEv @726
    _ZN4omni10NVListImpl16add_item_consumeEPcm @727
    _ZN4omni10NVListImpl17add_value_consumeEPcPN5CORBA3AnyEm @728
    _ZN4omni10NVListImpl3addEm @729
    _ZN4omni10NVListImpl4itemEm @730
    _ZN4omni10NVListImpl6removeEm @731
    _ZN4omni10NVListImpl8add_itemEPKcm @732
    _ZN4omni10NVListImpl9add_valueEPKcRKN5CORBA3AnyEm @733
    _ZN4omni10NVListImplC1Ev @734
    _ZN4omni10NVListImplC2Ev @735
    _ZN4omni10NVListImplD0Ev @736
    _ZN4omni10NVListImplD1Ev @737
    _ZN4omni10NVListImplD2Ev @738
    _ZN4omni10giopStream8downcastEP9cdrStream @739
    _ZN4omni10omniNilEnv12NP_duplicateEv @740
    _ZN4omni10omniNilEnv5clearEv @741
    _ZN4omni10omniNilEnv9exceptionEPN5CORBA9ExceptionE @742
    _ZN4omni10omniNilEnvD0Ev @743
    _ZN4omni10omniNilEnvD1Ev @744
    _ZN4omni11ContextImpl10add_valuesEPS0_mPKciPN5CORBA6NVListE @745
    _ZN4omni11ContextImpl10get_valuesEPKcmS2_20_CORBA_PseudoObj_OutIN5CORBA6NVListE20_CORBA_PseudoObj_VarIS5_EE @746
    _ZN4omni11ContextImpl10set_valuesEPN5CORBA6NVListE @747
    _ZN4omni11ContextImpl12NP_duplicateEv @748
    _ZN4omni11ContextImpl12create_childEPKc20_CORBA_PseudoObj_OutIN5CORBA7ContextE20_CORBA_PseudoObj_VarIS5_EE @749
    _ZN4omni11ContextImpl12decrRefCountEv @750
    _ZN4omni11ContextImpl13delete_valuesEPKc @751
    _ZN4omni11ContextImpl13set_one_valueEPKcRKN5CORBA3AnyE @752
    _ZN4omni11ContextImpl14releaseDefaultEv @753
    _ZN4omni11ContextImpl18check_context_nameEPKc @754
    _ZN4omni11ContextImpl19check_property_nameEPKc @755
    _ZN4omni11ContextImpl21insert_single_consumeEPcS1_ @756
    _ZN4omni11ContextImpl9loseChildEPS0_ @757
    _ZN4omni11ContextImplC1EPKcPN5CORBA7ContextE @758
    _ZN4omni11ContextImplC2EPKcPN5CORBA7ContextE @759
    _ZN4omni11ContextImplD0Ev @760
    _ZN4omni11ContextImplD1Ev @761
    _ZN4omni11ContextImplD2Ev @762
    _ZN4omni11DynEnumImpl12_ptrToObjRefEPKc @763
    _ZN4omni11DynEnumImpl12get_as_ulongEv @764
    _ZN4omni11DynEnumImpl12set_as_ulongEm @765
    _ZN4omni11DynEnumImpl13get_as_stringEv @766
    _ZN4omni11DynEnumImpl13set_as_stringEPKc @767
    _ZN4omni11DynEnumImpl16_NP_decrRefCountEv @768
    _ZN4omni11DynEnumImpl16_NP_incrRefCountEv @769
    _ZN4omni11DynEnumImpl20set_to_initial_valueEv @770
    _ZN4omni11DynEnumImpl4copyEv @771
    _ZN4omni11DynEnumImplC1EPNS_13TypeCode_baseEb @772
    _ZN4omni11DynEnumImplC2EPNS_13TypeCode_baseEb @773
    _ZN4omni11DynEnumImplD0Ev @774
    _ZN4omni11DynEnumImplD1Ev @775
    _ZN4omni11DynEnumImplD2Ev @776
    _ZN4omni11RequestImpl10add_in_argEPKc @777
    _ZN4omni11RequestImpl10add_in_argEv @778
    _ZN4omni11RequestImpl10exceptionsEv @779
    _ZN4omni11RequestImpl11add_out_argEPKc @780
    _ZN4omni11RequestImpl11add_out_argEv @781
    _ZN4omni11RequestImpl11marshalArgsER9cdrStream @782
    _ZN4omni11RequestImpl11send_onewayEv @783
    _ZN4omni11RequestImpl12NP_duplicateEv @784
    _ZN4omni11RequestImpl12get_responseEv @785
    _ZN4omni11RequestImpl12return_valueEv @786
    _ZN4omni11RequestImpl13add_inout_argEPKc @787
    _ZN4omni11RequestImpl13add_inout_argEv @788
    _ZN4omni11RequestImpl13poll_responseEv @789
    _ZN4omni11RequestImpl13send_deferredEv @790
    _ZN4omni11RequestImpl15deferred_invokeEv @791
    _ZN4omni11RequestImpl15set_return_typeEPN5CORBA8TypeCodeE @792
    _ZN4omni11RequestImpl16unmarshalResultsER9cdrStream @793
    _ZN4omni11RequestImpl22unmarshalUserExceptionER9cdrStreamPKc @794
    _ZN4omni11RequestImpl3ctxEPN5CORBA7ContextE @795
    _ZN4omni11RequestImpl3envEv @796
    _ZN4omni11RequestImpl6invokeEv @797
    _ZN4omni11RequestImpl6resultEv @798
    _ZN4omni11RequestImpl8contextsEv @799
    _ZN4omni11RequestImpl9argumentsEv @800
    _ZN4omni11RequestImplC1EPN5CORBA6ObjectEPKc @801
    _ZN4omni11RequestImplC1EPN5CORBA6ObjectEPKcPNS1_7ContextEPNS1_6NVListEPNS1_10NamedValueE @802
    _ZN4omni11RequestImplC1EPN5CORBA6ObjectEPKcPNS1_7ContextEPNS1_6NVListEPNS1_10NamedValueEPNS1_13ExceptionListEPNS1_11ContextListE @803
    _ZN4omni11RequestImplC2EPN5CORBA6ObjectEPKc @804
    _ZN4omni11RequestImplC2EPN5CORBA6ObjectEPKcPNS1_7ContextEPNS1_6NVListEPNS1_10NamedValueE @805
    _ZN4omni11RequestImplC2EPN5CORBA6ObjectEPKcPNS1_7ContextEPNS1_6NVListEPNS1_10NamedValueEPNS1_13ExceptionListEPNS1_11ContextListE @806
    _ZN4omni11RequestImplD0Ev @807
    _ZN4omni11RequestImplD1Ev @808
    _ZN4omni11RequestImplD2Ev @809
    _ZN4omni11copyUsingTCEPNS_13TypeCode_baseER9cdrStreamS3_ @810
    _ZN4omni11skipUsingTCEPNS_13TypeCode_baseER9cdrStream @811
    _ZN4omni12DynArrayImpl12_ptrToObjRefEPKc @812
    _ZN4omni12DynArrayImpl12get_elementsEv @813
    _ZN4omni12DynArrayImpl12set_elementsERKN10DynamicAny6AnySeqE @814
    _ZN4omni12DynArrayImpl14nthComponentTCEj @815
    _ZN4omni12DynArrayImpl16_NP_decrRefCountEv @816
    _ZN4omni12DynArrayImpl16_NP_incrRefCountEv @817
    _ZN4omni12DynArrayImpl19prepareSequenceReadEN5CORBA6TCKindE @818
    _ZN4omni12DynArrayImpl20prepareSequenceWriteEN5CORBA6TCKindEm @819
    _ZN4omni12DynArrayImpl23get_elements_as_dyn_anyEv @820
    _ZN4omni12DynArrayImpl23set_elements_as_dyn_anyERKN10DynamicAny9DynAnySeqE @821
    _ZN4omni12DynArrayImpl4copyEv @822
    _ZN4omni12DynArrayImplC1EPNS_13TypeCode_baseEb @823
    _ZN4omni12DynArrayImplC2EPNS_13TypeCode_baseEb @824
    _ZN4omni12DynArrayImplD0Ev @825
    _ZN4omni12DynArrayImplD1Ev @826
    _ZN4omni12DynArrayImplD2Ev @827
    _ZN4omni12DynFixedImpl12_ptrToObjRefEPKc @828
    _ZN4omni12DynFixedImpl16_NP_decrRefCountEv @829
    _ZN4omni12DynFixedImpl16_NP_incrRefCountEv @830
    _ZN4omni12DynFixedImpl20set_to_initial_valueEv @831
    _ZN4omni12DynFixedImpl4copyEv @832
    _ZN4omni12DynFixedImpl9get_valueEv @833
    _ZN4omni12DynFixedImpl9set_valueEPKc @834
    _ZN4omni12DynFixedImplC1EPNS_13TypeCode_baseEb @835
    _ZN4omni12DynFixedImplC2EPNS_13TypeCode_baseEb @836
    _ZN4omni12DynFixedImplD0Ev @837
    _ZN4omni12DynFixedImplD1Ev @838
    _ZN4omni12DynFixedImplD2Ev @839
    _ZN4omni12DynUnionDisc10insert_anyERKN5CORBA3AnyE @840
    _ZN4omni12DynUnionDisc10insert_valEPN5CORBA9ValueBaseE @841
    _ZN4omni12DynUnionDisc11insert_charEh @842
    _ZN4omni12DynUnionDisc11insert_longEl @843
    _ZN4omni12DynUnionDisc12insert_floatEf @844
    _ZN4omni12DynUnionDisc12insert_octetEh @845
    _ZN4omni12DynUnionDisc12insert_shortEs @846
    _ZN4omni12DynUnionDisc12insert_ulongEm @847
    _ZN4omni12DynUnionDisc12insert_wcharEw @848
    _ZN4omni12DynUnionDisc13insert_doubleEd @849
    _ZN4omni12DynUnionDisc13insert_stringEPKc @850
    _ZN4omni12DynUnionDisc13insert_ushortEt @851
    _ZN4omni12DynUnionDisc14insert_booleanEb @852
    _ZN4omni12DynUnionDisc14insert_dyn_anyEPN10DynamicAny6DynAnyE @853
    _ZN4omni12DynUnionDisc14insert_wstringEPKw @854
    _ZN4omni12DynUnionDisc15insert_abstractEPN5CORBA12AbstractBaseE @855
    _ZN4omni12DynUnionDisc15insert_longlongEx @856
    _ZN4omni12DynUnionDisc15insert_typecodeEPN5CORBA8TypeCodeE @857
    _ZN4omni12DynUnionDisc16insert_referenceEPN5CORBA6ObjectE @858
    _ZN4omni12DynUnionDisc16insert_ulonglongEy @859
    _ZN4omni12DynUnionDisc17insert_longdoubleEe @860
    _ZN4omni12DynUnionDisc20set_to_initial_valueEv @861
    _ZN4omni12DynUnionDisc6assignEPN10DynamicAny6DynAnyE @862
    _ZN4omni12DynUnionDisc9set_valueEy @863
    _ZN4omni12DynUnionDiscD0Ev @864
    _ZN4omni12DynUnionDiscD1Ev @865
    _ZN4omni12DynUnionDiscD2Ev @866
    _ZN4omni12DynUnionImpl10_PD_repoIdE @867 DATA
    _ZN4omni12DynUnionImpl10get_doubleEv @868
    _ZN4omni12DynUnionImpl10get_stringEv @869
    _ZN4omni12DynUnionImpl10get_ushortEv @870
    _ZN4omni12DynUnionImpl10insert_anyERKN5CORBA3AnyE @871
    _ZN4omni12DynUnionImpl10insert_valEPN5CORBA9ValueBaseE @872
    _ZN4omni12DynUnionImpl11get_booleanEv @873
    _ZN4omni12DynUnionImpl11get_dyn_anyEv @874
    _ZN4omni12DynUnionImpl11get_wstringEv @875
    _ZN4omni12DynUnionImpl11insert_charEh @876
    _ZN4omni12DynUnionImpl11insert_longEl @877
    _ZN4omni12DynUnionImpl11member_kindEv @878
    _ZN4omni12DynUnionImpl11member_nameEv @879
    _ZN4omni12DynUnionImpl11readCurrentEN5CORBA6TCKindE @880
    _ZN4omni12DynUnionImpl12_ptrToObjRefEPKc @881
    _ZN4omni12DynUnionImpl12detachMemberEv @882
    _ZN4omni12DynUnionImpl12get_abstractEv @883
    _ZN4omni12DynUnionImpl12get_char_seqEv @884
    _ZN4omni12DynUnionImpl12get_long_seqEv @885
    _ZN4omni12DynUnionImpl12get_longlongEv @886
    _ZN4omni12DynUnionImpl12get_typecodeEv @887
    _ZN4omni12DynUnionImpl12insert_floatEf @888
    _ZN4omni12DynUnionImpl12insert_octetEh @889
    _ZN4omni12DynUnionImpl12insert_shortEs @890
    _ZN4omni12DynUnionImpl12insert_ulongEm @891
    _ZN4omni12DynUnionImpl12insert_wcharEw @892
    _ZN4omni12DynUnionImpl13get_float_seqEv @893
    _ZN4omni12DynUnionImpl13get_octet_seqEv @894
    _ZN4omni12DynUnionImpl13get_referenceEv @895
    _ZN4omni12DynUnionImpl13get_short_seqEv @896
    _ZN4omni12DynUnionImpl13get_ulong_seqEv @897
    _ZN4omni12DynUnionImpl13get_ulonglongEv @898
    _ZN4omni12DynUnionImpl13get_wchar_seqEv @899
    _ZN4omni12DynUnionImpl13insert_doubleEd @900
    _ZN4omni12DynUnionImpl13insert_stringEPKc @901
    _ZN4omni12DynUnionImpl13insert_ushortEt @902
    _ZN4omni12DynUnionImpl14get_double_seqEv @903
    _ZN4omni12DynUnionImpl14get_longdoubleEv @904
    _ZN4omni12DynUnionImpl14get_ushort_seqEv @905
    _ZN4omni12DynUnionImpl14insert_booleanEb @906
    _ZN4omni12DynUnionImpl14insert_dyn_anyEPN10DynamicAny6DynAnyE @907
    _ZN4omni12DynUnionImpl14insert_wstringEPKw @908
    _ZN4omni12DynUnionImpl15component_countEv @909
    _ZN4omni12DynUnionImpl15get_boolean_seqEv @910
    _ZN4omni12DynUnionImpl15insert_abstractEPN5CORBA12AbstractBaseE @911
    _ZN4omni12DynUnionImpl15insert_char_seqERN5CORBA7CharSeqE @912
    _ZN4omni12DynUnionImpl15insert_long_seqERN5CORBA7LongSeqE @913
    _ZN4omni12DynUnionImpl15insert_longlongEx @914
    _ZN4omni12DynUnionImpl15insert_typecodeEPN5CORBA8TypeCodeE @915
    _ZN4omni12DynUnionImpl16_NP_decrRefCountEv @916
    _ZN4omni12DynUnionImpl16_NP_incrRefCountEv @917
    _ZN4omni12DynUnionImpl16get_longlong_seqEv @918
    _ZN4omni12DynUnionImpl16insert_float_seqERN5CORBA8FloatSeqE @919
    _ZN4omni12DynUnionImpl16insert_octet_seqERN5CORBA8OctetSeqE @920
    _ZN4omni12DynUnionImpl16insert_referenceEPN5CORBA6ObjectE @921
    _ZN4omni12DynUnionImpl16insert_short_seqERN5CORBA8ShortSeqE @922
    _ZN4omni12DynUnionImpl16insert_ulong_seqERN5CORBA8ULongSeqE @923
    _ZN4omni12DynUnionImpl16insert_ulonglongEy @924
    _ZN4omni12DynUnionImpl16insert_wchar_seqERN5CORBA8WCharSeqE @925
    _ZN4omni12DynUnionImpl17current_componentEv @926
    _ZN4omni12DynUnionImpl17get_discriminatorEv @927
    _ZN4omni12DynUnionImpl17get_ulonglong_seqEv @928
    _ZN4omni12DynUnionImpl17insert_double_seqERN5CORBA9DoubleSeqE @929
    _ZN4omni12DynUnionImpl17insert_longdoubleEe @930
    _ZN4omni12DynUnionImpl17insert_ushort_seqERN5CORBA9UShortSeqE @931
    _ZN4omni12DynUnionImpl17set_discriminatorEPN10DynamicAny6DynAnyE @932
    _ZN4omni12DynUnionImpl18discriminator_kindEv @933
    _ZN4omni12DynUnionImpl18get_longdouble_seqEv @934
    _ZN4omni12DynUnionImpl18insert_boolean_seqERN5CORBA10BooleanSeqE @935
    _ZN4omni12DynUnionImpl19insert_longlong_seqERN5CORBA11LongLongSeqE @936
    _ZN4omni12DynUnionImpl20has_no_active_memberEv @937
    _ZN4omni12DynUnionImpl20insert_ulonglong_seqERN5CORBA12ULongLongSeqE @938
    _ZN4omni12DynUnionImpl20set_to_initial_valueEv @939
    _ZN4omni12DynUnionImpl21insert_longdouble_seqERN5CORBA13LongDoubleSeqE @940
    _ZN4omni12DynUnionImpl21set_to_default_memberEv @941
    _ZN4omni12DynUnionImpl23discriminatorHasChangedEv @942
    _ZN4omni12DynUnionImpl23set_to_no_active_memberEv @943
    _ZN4omni12DynUnionImpl24is_set_to_default_memberEv @944
    _ZN4omni12DynUnionImpl4copyEv @945
    _ZN4omni12DynUnionImpl4nextEv @946
    _ZN4omni12DynUnionImpl4seekEl @947
    _ZN4omni12DynUnionImpl5equalEPN10DynamicAny6DynAnyE @948
    _ZN4omni12DynUnionImpl6assignEPN10DynamicAny6DynAnyE @949
    _ZN4omni12DynUnionImpl6memberEv @950
    _ZN4omni12DynUnionImpl6rewindEv @951
    _ZN4omni12DynUnionImpl7copy_toER18cdrAnyMemoryStream @952
    _ZN4omni12DynUnionImpl7get_anyEv @953
    _ZN4omni12DynUnionImpl7get_valEv @954
    _ZN4omni12DynUnionImpl8get_charEv @955
    _ZN4omni12DynUnionImpl8get_longEv @956
    _ZN4omni12DynUnionImpl9copy_fromER18cdrAnyMemoryStream @957
    _ZN4omni12DynUnionImpl9get_floatEv @958
    _ZN4omni12DynUnionImpl9get_octetEv @959
    _ZN4omni12DynUnionImpl9get_shortEv @960
    _ZN4omni12DynUnionImpl9get_ulongEv @961
    _ZN4omni12DynUnionImpl9get_wcharEv @962
    _ZN4omni12DynUnionImpl9onDisposeEv @963
    _ZN4omni12DynUnionImplC1EPNS_13TypeCode_baseEb @964
    _ZN4omni12DynUnionImplC2EPNS_13TypeCode_baseEb @965
    _ZN4omni12DynUnionImplD0Ev @966
    _ZN4omni12DynUnionImplD1Ev @967
    _ZN4omni12DynUnionImplD2Ev @968
    _ZN4omni12DynValueImpl11get_membersEv @969
    _ZN4omni12DynValueImpl11set_membersERKN10DynamicAny16NameValuePairSeqE @970
    _ZN4omni12DynValueImpl11set_to_nullEv @971
    _ZN4omni12DynValueImpl12_ptrToObjRefEPKc @972
    _ZN4omni12DynValueImpl12set_to_valueEv @973
    _ZN4omni12DynValueImpl14nthComponentTCEj @974
    _ZN4omni12DynValueImpl16_NP_decrRefCountEv @975
    _ZN4omni12DynValueImpl16_NP_incrRefCountEv @976
    _ZN4omni12DynValueImpl19current_member_kindEv @977
    _ZN4omni12DynValueImpl19current_member_nameEv @978
    _ZN4omni12DynValueImpl19prepareSequenceReadEN5CORBA6TCKindE @979
    _ZN4omni12DynValueImpl20prepareSequenceWriteEN5CORBA6TCKindEm @980
    _ZN4omni12DynValueImpl20set_to_initial_valueEv @981
    _ZN4omni12DynValueImpl22get_members_as_dyn_anyEv @982
    _ZN4omni12DynValueImpl22set_members_as_dyn_anyERKN10DynamicAny17NameDynAnyPairSeqE @983
    _ZN4omni12DynValueImpl4copyEv @984
    _ZN4omni12DynValueImpl7copy_toER18cdrAnyMemoryStream @985
    _ZN4omni12DynValueImpl7is_nullEv @986
    _ZN4omni12DynValueImpl9copy_fromER18cdrAnyMemoryStream @987
    _ZN4omni12DynValueImplC1EPNS_13TypeCode_baseEb @988
    _ZN4omni12DynValueImplC2EPNS_13TypeCode_baseEb @989
    _ZN4omni12DynValueImplD0Ev @990
    _ZN4omni12DynValueImplD1Ev @991
    _ZN4omni12DynValueImplD2Ev @992
    _ZN4omni12ToDynAnyImplEPN10DynamicAny6DynAnyE @993
    _ZN4omni12UnknownValue10_PD_repoIdE @994 DATA
    _ZN4omni12UnknownValue11_copy_valueEv @995
    _ZN4omni12UnknownValue11_ptrToValueEPKc @996
    _ZN4omni12UnknownValue19_PR_unmarshal_stateER9cdrStream @997
    _ZN4omni12UnknownValue9_downcastEPN5CORBA9ValueBaseE @998
    _ZN4omni12UnknownValueC1EPN5CORBA8TypeCodeE @999
    _ZN4omni12UnknownValueC1ERKS0_ @1000
    _ZN4omni12UnknownValueC2EPN5CORBA8TypeCodeE @1001
    _ZN4omni12UnknownValueC2ERKS0_ @1002
    _ZN4omni12UnknownValueD0Ev @1003
    _ZN4omni12UnknownValueD1Ev @1004
    _ZN4omni12UnknownValueD2Ev @1005
    _ZN4omni13DynStructImpl11get_membersEv @1006
    _ZN4omni13DynStructImpl11set_membersERKN10DynamicAny16NameValuePairSeqE @1007
    _ZN4omni13DynStructImpl12_ptrToObjRefEPKc @1008
    _ZN4omni13DynStructImpl14nthComponentTCEj @1009
    _ZN4omni13DynStructImpl16_NP_decrRefCountEv @1010
    _ZN4omni13DynStructImpl16_NP_incrRefCountEv @1011
    _ZN4omni13DynStructImpl19current_member_kindEv @1012
    _ZN4omni13DynStructImpl19current_member_nameEv @1013
    _ZN4omni13DynStructImpl19prepareSequenceReadEN5CORBA6TCKindE @1014
    _ZN4omni13DynStructImpl20prepareSequenceWriteEN5CORBA6TCKindEm @1015
    _ZN4omni13DynStructImpl22get_members_as_dyn_anyEv @1016
    _ZN4omni13DynStructImpl22set_members_as_dyn_anyERKN10DynamicAny17NameDynAnyPairSeqE @1017
    _ZN4omni13DynStructImpl4copyEv @1018
    _ZN4omni13DynStructImplC1EPNS_13TypeCode_baseEb @1019
    _ZN4omni13DynStructImplC2EPNS_13TypeCode_baseEb @1020
    _ZN4omni13DynStructImplD0Ev @1021
    _ZN4omni13DynStructImplD1Ev @1022
    _ZN4omni13DynStructImplD2Ev @1023
    _ZN4omni13PseudoObjBase12decrRefCountEv @1024
    _ZN4omni13PseudoObjBaseD0Ev @1025
    _ZN4omni13PseudoObjBaseD1Ev @1026
    _ZN4omni13PseudoObjBaseD2Ev @1027
    _ZN4omni13TypeCode_base11aliasExpandEPS0_ @1028
    _ZN4omni13TypeCode_base12NP_compactTcEv @1029
    _ZN4omni13TypeCode_base13NP_namesEqualEPKcS2_ @1030
    _ZN4omni13TypeCode_base14NP_aliasExpandEPNS_17TypeCode_pairlistE @1031
    _ZN4omni13TypeCode_base18NP_containsAnAliasEv @1032
    _ZN4omni13TypeCode_base18NP_releaseChildrenEv @1033
    _ZN4omni13TypeCode_base19removeOptionalNamesEv @1034
    _ZN4omni13TypeCode_base21NP_complete_recursiveEPS0_PKc @1035
    _ZN4omni13TypeCode_base31NP_complete_recursive_sequencesEPS0_m @1036
    _ZN4omni13TypeCode_base9NP_expandEPKS0_ @1037
    _ZN4omni13TypeCode_baseC1EN5CORBA6TCKindE @1038
    _ZN4omni13TypeCode_baseC2EN5CORBA6TCKindE @1039
    _ZN4omni13TypeCode_baseD0Ev @1040
    _ZN4omni13TypeCode_baseD1Ev @1041
    _ZN4omni13TypeCode_baseD2Ev @1042
    _ZN4omni13TypeCode_enum19removeOptionalNamesEv @1043
    _ZN4omni13TypeCode_enum25NP_unmarshalComplexParamsER9cdrStreamPNS_20TypeCode_offsetTableE @1044
    _ZN4omni13TypeCode_enumC1EPKcS2_RKN5CORBA13EnumMemberSeqE @1045
    _ZN4omni13TypeCode_enumC1Ev @1046
    _ZN4omni13TypeCode_enumC2EPKcS2_RKN5CORBA13EnumMemberSeqE @1047
    _ZN4omni13TypeCode_enumC2Ev @1048
    _ZN4omni13TypeCode_enumD0Ev @1049
    _ZN4omni13TypeCode_enumD1Ev @1050
    _ZN4omni13TypeCode_enumD2Ev @1051
    _ZN4omni13omniNilCtList11add_consumeEPc @1052
    _ZN4omni13omniNilCtList12NP_duplicateEv @1053
    _ZN4omni13omniNilCtList3addEPKc @1054
    _ZN4omni13omniNilCtList4itemEm @1055
    _ZN4omni13omniNilCtList6removeEm @1056
    _ZN4omni13omniNilCtListD0Ev @1057
    _ZN4omni13omniNilCtListD1Ev @1058
    _ZN4omni13omniNilDynAny10get_doubleEv @1059
    _ZN4omni13omniNilDynAny10get_stringEv @1060
    _ZN4omni13omniNilDynAny10get_ushortEv @1061
    _ZN4omni13omniNilDynAny10insert_anyERKN5CORBA3AnyE @1062
    _ZN4omni13omniNilDynAny10insert_valEPN5CORBA9ValueBaseE @1063
    _ZN4omni13omniNilDynAny11get_booleanEv @1064
    _ZN4omni13omniNilDynAny11get_dyn_anyEv @1065
    _ZN4omni13omniNilDynAny11get_wstringEv @1066
    _ZN4omni13omniNilDynAny11insert_charEh @1067
    _ZN4omni13omniNilDynAny11insert_longEl @1068
    _ZN4omni13omniNilDynAny12_ptrToObjRefEPKc @1069
    _ZN4omni13omniNilDynAny12get_abstractEv @1070
    _ZN4omni13omniNilDynAny12get_char_seqEv @1071
    _ZN4omni13omniNilDynAny12get_long_seqEv @1072
    _ZN4omni13omniNilDynAny12get_longlongEv @1073
    _ZN4omni13omniNilDynAny12get_typecodeEv @1074
    _ZN4omni13omniNilDynAny12insert_floatEf @1075
    _ZN4omni13omniNilDynAny12insert_octetEh @1076
    _ZN4omni13omniNilDynAny12insert_shortEs @1077
    _ZN4omni13omniNilDynAny12insert_ulongEm @1078
    _ZN4omni13omniNilDynAny12insert_wcharEw @1079
    _ZN4omni13omniNilDynAny13get_float_seqEv @1080
    _ZN4omni13omniNilDynAny13get_octet_seqEv @1081
    _ZN4omni13omniNilDynAny13get_referenceEv @1082
    _ZN4omni13omniNilDynAny13get_short_seqEv @1083
    _ZN4omni13omniNilDynAny13get_ulong_seqEv @1084
    _ZN4omni13omniNilDynAny13get_ulonglongEv @1085
    _ZN4omni13omniNilDynAny13get_wchar_seqEv @1086
    _ZN4omni13omniNilDynAny13insert_doubleEd @1087
    _ZN4omni13omniNilDynAny13insert_stringEPKc @1088
    _ZN4omni13omniNilDynAny13insert_ushortEt @1089
    _ZN4omni13omniNilDynAny14get_double_seqEv @1090
    _ZN4omni13omniNilDynAny14get_longdoubleEv @1091
    _ZN4omni13omniNilDynAny14get_ushort_seqEv @1092
    _ZN4omni13omniNilDynAny14insert_booleanEb @1093
    _ZN4omni13omniNilDynAny14insert_dyn_anyEPN10DynamicAny6DynAnyE @1094
    _ZN4omni13omniNilDynAny14insert_wstringEPKw @1095
    _ZN4omni13omniNilDynAny15component_countEv @1096
    _ZN4omni13omniNilDynAny15get_boolean_seqEv @1097
    _ZN4omni13omniNilDynAny15insert_abstractEPN5CORBA12AbstractBaseE @1098
    _ZN4omni13omniNilDynAny15insert_char_seqERN5CORBA7CharSeqE @1099
    _ZN4omni13omniNilDynAny15insert_long_seqERN5CORBA7LongSeqE @1100
    _ZN4omni13omniNilDynAny15insert_longlongEx @1101
    _ZN4omni13omniNilDynAny15insert_typecodeEPN5CORBA8TypeCodeE @1102
    _ZN4omni13omniNilDynAny16_NP_decrRefCountEv @1103
    _ZN4omni13omniNilDynAny16_NP_incrRefCountEv @1104
    _ZN4omni13omniNilDynAny16get_longlong_seqEv @1105
    _ZN4omni13omniNilDynAny16insert_float_seqERN5CORBA8FloatSeqE @1106
    _ZN4omni13omniNilDynAny16insert_octet_seqERN5CORBA8OctetSeqE @1107
    _ZN4omni13omniNilDynAny16insert_referenceEPN5CORBA6ObjectE @1108
    _ZN4omni13omniNilDynAny16insert_short_seqERN5CORBA8ShortSeqE @1109
    _ZN4omni13omniNilDynAny16insert_ulong_seqERN5CORBA8ULongSeqE @1110
    _ZN4omni13omniNilDynAny16insert_ulonglongEy @1111
    _ZN4omni13omniNilDynAny16insert_wchar_seqERN5CORBA8WCharSeqE @1112
    _ZN4omni13omniNilDynAny17current_componentEv @1113
    _ZN4omni13omniNilDynAny17get_ulonglong_seqEv @1114
    _ZN4omni13omniNilDynAny17insert_double_seqERN5CORBA9DoubleSeqE @1115
    _ZN4omni13omniNilDynAny17insert_longdoubleEe @1116
    _ZN4omni13omniNilDynAny17insert_ushort_seqERN5CORBA9UShortSeqE @1117
    _ZN4omni13omniNilDynAny18get_longdouble_seqEv @1118
    _ZN4omni13omniNilDynAny18insert_boolean_seqERN5CORBA10BooleanSeqE @1119
    _ZN4omni13omniNilDynAny19insert_longlong_seqERN5CORBA11LongLongSeqE @1120
    _ZN4omni13omniNilDynAny20insert_ulonglong_seqERN5CORBA12ULongLongSeqE @1121
    _ZN4omni13omniNilDynAny21insert_longdouble_seqERN5CORBA13LongDoubleSeqE @1122
    _ZN4omni13omniNilDynAny4copyEv @1123
    _ZN4omni13omniNilDynAny4nextEv @1124
    _ZN4omni13omniNilDynAny4seekEl @1125
    _ZN4omni13omniNilDynAny5equalEPN10DynamicAny6DynAnyE @1126
    _ZN4omni13omniNilDynAny6assignEPN10DynamicAny6DynAnyE @1127
    _ZN4omni13omniNilDynAny6rewindEv @1128
    _ZN4omni13omniNilDynAny6to_anyEv @1129
    _ZN4omni13omniNilDynAny7destroyEv @1130
    _ZN4omni13omniNilDynAny7get_anyEv @1131
    _ZN4omni13omniNilDynAny7get_valEv @1132
    _ZN4omni13omniNilDynAny8from_anyERKN5CORBA3AnyE @1133
    _ZN4omni13omniNilDynAny8get_charEv @1134
    _ZN4omni13omniNilDynAny8get_longEv @1135
    _ZN4omni13omniNilDynAny9get_floatEv @1136
    _ZN4omni13omniNilDynAny9get_octetEv @1137
    _ZN4omni13omniNilDynAny9get_shortEv @1138
    _ZN4omni13omniNilDynAny9get_ulongEv @1139
    _ZN4omni13omniNilDynAny9get_wcharEv @1140
    _ZN4omni13omniNilDynAnyD0Ev @1141
    _ZN4omni13omniNilDynAnyD1Ev @1142
    _ZN4omni13omniNilExList11add_consumeEPN5CORBA8TypeCodeE @1143
    _ZN4omni13omniNilExList12NP_duplicateEv @1144
    _ZN4omni13omniNilExList3addEPN5CORBA8TypeCodeE @1145
    _ZN4omni13omniNilExList4itemEm @1146
    _ZN4omni13omniNilExList6removeEm @1147
    _ZN4omni13omniNilExListD0Ev @1148
    _ZN4omni13omniNilExListD1Ev @1149
    _ZN4omni13omniNilNVList12NP_duplicateEv @1150
    _ZN4omni13omniNilNVList16add_item_consumeEPcm @1151
    _ZN4omni13omniNilNVList17add_value_consumeEPcPN5CORBA3AnyEm @1152
    _ZN4omni13omniNilNVList3addEm @1153
    _ZN4omni13omniNilNVList4itemEm @1154
    _ZN4omni13omniNilNVList6removeEm @1155
    _ZN4omni13omniNilNVList8add_itemEPKcm @1156
    _ZN4omni13omniNilNVList9add_valueEPKcRKN5CORBA3AnyEm @1157
    _ZN4omni13omniNilNVListD0Ev @1158
    _ZN4omni13omniNilNVListD1Ev @1159
    _ZN4omni14DynAnyImplBase10_PD_repoIdE @1160 DATA
    _ZN4omni14DynAnyImplBase12refCountLockE @1161 DATA
    _ZN4omni14DynAnyImplBase16_NP_decrRefCountEv @1162
    _ZN4omni14DynAnyImplBase16_NP_incrRefCountEv @1163
    _ZN4omni14DynAnyImplBase6to_anyEv @1164
    _ZN4omni14DynAnyImplBase7destroyEv @1165
    _ZN4omni14DynAnyImplBase8from_anyERKN5CORBA3AnyE @1166
    _ZN4omni14DynAnyImplBase9onDisposeEv @1167
    _ZN4omni14DynAnyImplBaseD0Ev @1168
    _ZN4omni14DynAnyImplBaseD1Ev @1169
    _ZN4omni14DynAnyImplBaseD2Ev @1170
    _ZN4omni14NamedValueImpl12NP_duplicateEv @1171
    _ZN4omni14NamedValueImplC1EPKcRKN5CORBA3AnyEm @1172
    _ZN4omni14NamedValueImplC1EPKcm @1173
    _ZN4omni14NamedValueImplC1EPcPN5CORBA3AnyEm @1174
    _ZN4omni14NamedValueImplC1EPcm @1175
    _ZN4omni14NamedValueImplC1Em @1176
    _ZN4omni14NamedValueImplC2EPKcRKN5CORBA3AnyEm @1177
    _ZN4omni14NamedValueImplC2EPKcm @1178
    _ZN4omni14NamedValueImplC2EPcPN5CORBA3AnyEm @1179
    _ZN4omni14NamedValueImplC2EPcm @1180
    _ZN4omni14NamedValueImplC2Em @1181
    _ZN4omni14NamedValueImplD0Ev @1182
    _ZN4omni14NamedValueImplD1Ev @1183
    _ZN4omni14NamedValueImplD2Ev @1184
    _ZN4omni14TypeCode_alias14NP_aliasExpandEPNS_17TypeCode_pairlistE @1185
    _ZN4omni14TypeCode_alias18NP_containsAnAliasEv @1186
    _ZN4omni14TypeCode_alias18NP_releaseChildrenEv @1187
    _ZN4omni14TypeCode_alias19removeOptionalNamesEv @1188
    _ZN4omni14TypeCode_alias21NP_complete_recursiveEPNS_13TypeCode_baseEPKc @1189
    _ZN4omni14TypeCode_alias25NP_unmarshalComplexParamsER9cdrStreamPNS_20TypeCode_offsetTableE @1190
    _ZN4omni14TypeCode_alias31NP_complete_recursive_sequencesEPNS_13TypeCode_baseEm @1191
    _ZN4omni14TypeCode_aliasC1EPKcS2_PNS_13TypeCode_baseE @1192
    _ZN4omni14TypeCode_aliasC2EPKcS2_PNS_13TypeCode_baseE @1193
    _ZN4omni14TypeCode_aliasD0Ev @1194
    _ZN4omni14TypeCode_aliasD1Ev @1195
    _ZN4omni14TypeCode_aliasD2Ev @1196
    _ZN4omni14TypeCode_array14NP_aliasExpandEPNS_17TypeCode_pairlistE @1197
    _ZN4omni14TypeCode_array18NP_containsAnAliasEv @1198
    _ZN4omni14TypeCode_array18NP_releaseChildrenEv @1199
    _ZN4omni14TypeCode_array19removeOptionalNamesEv @1200
    _ZN4omni14TypeCode_array21NP_complete_recursiveEPNS_13TypeCode_baseEPKc @1201
    _ZN4omni14TypeCode_array22generateAlignmentTableEv @1202
    _ZN4omni14TypeCode_array25NP_unmarshalComplexParamsER9cdrStreamPNS_20TypeCode_offsetTableE @1203
    _ZN4omni14TypeCode_array31NP_complete_recursive_sequencesEPNS_13TypeCode_baseEm @1204
    _ZN4omni14TypeCode_arrayC1EmPNS_13TypeCode_baseE @1205
    _ZN4omni14TypeCode_arrayC2EmPNS_13TypeCode_baseE @1206
    _ZN4omni14TypeCode_arrayD0Ev @1207
    _ZN4omni14TypeCode_arrayD1Ev @1208
    _ZN4omni14TypeCode_arrayD2Ev @1209
    _ZN4omni14TypeCode_fixed24NP_unmarshalSimpleParamsER9cdrStreamPNS_20TypeCode_offsetTableE @1210
    _ZN4omni14TypeCode_fixedC1Ets @1211
    _ZN4omni14TypeCode_fixedC1Ev @1212
    _ZN4omni14TypeCode_fixedC2Ets @1213
    _ZN4omni14TypeCode_fixedC2Ev @1214
    _ZN4omni14TypeCode_fixedD0Ev @1215
    _ZN4omni14TypeCode_fixedD1Ev @1216
    _ZN4omni14TypeCode_fixedD2Ev @1217
    _ZN4omni14TypeCode_union13TcUnionMemberD1Ev @1218
    _ZN4omni14TypeCode_union14NP_aliasExpandEPNS_17TypeCode_pairlistE @1219
    _ZN4omni14TypeCode_union16NP_default_valueEv @1220
    _ZN4omni14TypeCode_union18NP_containsAnAliasEv @1221
    _ZN4omni14TypeCode_union18NP_releaseChildrenEv @1222
    _ZN4omni14TypeCode_union19removeOptionalNamesEv @1223
    _ZN4omni14TypeCode_union21NP_complete_recursiveEPNS_13TypeCode_baseEPKc @1224
    _ZN4omni14TypeCode_union25NP_unmarshalComplexParamsER9cdrStreamPNS_20TypeCode_offsetTableE @1225
    _ZN4omni14TypeCode_union31NP_complete_recursive_sequencesEPNS_13TypeCode_baseEm @1226
    _ZN4omni14TypeCode_unionC1EPKcS2_PNS_13TypeCode_baseEPKN5CORBA14PR_unionMemberEml @1227
    _ZN4omni14TypeCode_unionC1EPKcS2_PNS_13TypeCode_baseERKN5CORBA14UnionMemberSeqE @1228
    _ZN4omni14TypeCode_unionC1Ev @1229
    _ZN4omni14TypeCode_unionC2EPKcS2_PNS_13TypeCode_baseEPKN5CORBA14PR_unionMemberEml @1230
    _ZN4omni14TypeCode_unionC2EPKcS2_PNS_13TypeCode_baseERKN5CORBA14UnionMemberSeqE @1231
    _ZN4omni14TypeCode_unionC2Ev @1232
    _ZN4omni14TypeCode_unionD0Ev @1233
    _ZN4omni14TypeCode_unionD1Ev @1234
    _ZN4omni14TypeCode_unionD2Ev @1235
    _ZN4omni14TypeCode_value14NP_aliasExpandEPNS_17TypeCode_pairlistE @1236
    _ZN4omni14TypeCode_value18NP_containsAnAliasEv @1237
    _ZN4omni14TypeCode_value18NP_releaseChildrenEv @1238
    _ZN4omni14TypeCode_value19removeOptionalNamesEv @1239
    _ZN4omni14TypeCode_value21NP_complete_recursiveEPNS_13TypeCode_baseEPKc @1240
    _ZN4omni14TypeCode_value25NP_unmarshalComplexParamsER9cdrStreamPNS_20TypeCode_offsetTableE @1241
    _ZN4omni14TypeCode_value31NP_complete_recursive_sequencesEPNS_13TypeCode_baseEm @1242
    _ZN4omni14TypeCode_valueC1EPKcS2_sPNS_13TypeCode_baseEPNS0_6MemberEm @1243
    _ZN4omni14TypeCode_valueC1Ev @1244
    _ZN4omni14TypeCode_valueC2EPKcS2_sPNS_13TypeCode_baseEPNS0_6MemberEm @1245
    _ZN4omni14TypeCode_valueC2Ev @1246
    _ZN4omni14TypeCode_valueD0Ev @1247
    _ZN4omni14TypeCode_valueD1Ev @1248
    _ZN4omni14TypeCode_valueD2Ev @1249
    _ZN4omni14omniNilContext10get_valuesEPKcmS2_20_CORBA_PseudoObj_OutIN5CORBA6NVListE20_CORBA_PseudoObj_VarIS5_EE @1250
    _ZN4omni14omniNilContext10set_valuesEPN5CORBA6NVListE @1251
    _ZN4omni14omniNilContext12NP_duplicateEv @1252
    _ZN4omni14omniNilContext12create_childEPKc20_CORBA_PseudoObj_OutIN5CORBA7ContextE20_CORBA_PseudoObj_VarIS5_EE @1253
    _ZN4omni14omniNilContext13delete_valuesEPKc @1254
    _ZN4omni14omniNilContext13set_one_valueEPKcRKN5CORBA3AnyE @1255
    _ZN4omni14omniNilContextD0Ev @1256
    _ZN4omni14omniNilContextD1Ev @1257
    _ZN4omni14omniNilDynEnum12_ptrToObjRefEPKc @1258
    _ZN4omni14omniNilDynEnum12get_as_ulongEv @1259
    _ZN4omni14omniNilDynEnum12set_as_ulongEm @1260
    _ZN4omni14omniNilDynEnum13get_as_stringEv @1261
    _ZN4omni14omniNilDynEnum13set_as_stringEPKc @1262
    _ZN4omni14omniNilDynEnumD0Ev @1263
    _ZN4omni14omniNilDynEnumD1Ev @1264
    _ZN4omni14omniNilRequest10add_in_argEPKc @1265
    _ZN4omni14omniNilRequest10add_in_argEv @1266
    _ZN4omni14omniNilRequest10exceptionsEv @1267
    _ZN4omni14omniNilRequest11add_out_argEPKc @1268
    _ZN4omni14omniNilRequest11add_out_argEv @1269
    _ZN4omni14omniNilRequest11send_onewayEv @1270
    _ZN4omni14omniNilRequest12NP_duplicateEv @1271
    _ZN4omni14omniNilRequest12get_responseEv @1272
    _ZN4omni14omniNilRequest12return_valueEv @1273
    _ZN4omni14omniNilRequest13add_inout_argEPKc @1274
    _ZN4omni14omniNilRequest13add_inout_argEv @1275
    _ZN4omni14omniNilRequest13poll_responseEv @1276
    _ZN4omni14omniNilRequest13send_deferredEv @1277
    _ZN4omni14omniNilRequest15set_return_typeEPN5CORBA8TypeCodeE @1278
    _ZN4omni14omniNilRequest3ctxEPN5CORBA7ContextE @1279
    _ZN4omni14omniNilRequest3envEv @1280
    _ZN4omni14omniNilRequest6invokeEv @1281
    _ZN4omni14omniNilRequest6resultEv @1282
    _ZN4omni14omniNilRequest8contextsEv @1283
    _ZN4omni14omniNilRequest9argumentsEv @1284
    _ZN4omni14omniNilRequestD0Ev @1285
    _ZN4omni14omniNilRequestD1Ev @1286
    _ZN4omni15ContextListImpl11add_consumeEPc @1287
    _ZN4omni15ContextListImpl12NP_duplicateEv @1288
    _ZN4omni15ContextListImpl12free_entriesEv @1289
    _ZN4omni15ContextListImpl3addEPKc @1290
    _ZN4omni15ContextListImpl4itemEm @1291
    _ZN4omni15ContextListImpl6removeEm @1292
    _ZN4omni15ContextListImplC1Ev @1293
    _ZN4omni15ContextListImplC2Ev @1294
    _ZN4omni15ContextListImplD0Ev @1295
    _ZN4omni15ContextListImplD1Ev @1296
    _ZN4omni15ContextListImplD2Ev @1297
    _ZN4omni15DeferredRequest7executeEv @1298
    _ZN4omni15DeferredRequestC1EPNS_11RequestImplE @1299
    _ZN4omni15DeferredRequestC2EPNS_11RequestImplE @1300
    _ZN4omni15DeferredRequestD0Ev @1301
    _ZN4omni15DeferredRequestD1Ev @1302
    _ZN4omni15DeferredRequestD2Ev @1303
    _ZN4omni15DynSequenceImpl10get_lengthEv @1304
    _ZN4omni15DynSequenceImpl10set_lengthEm @1305
    _ZN4omni15DynSequenceImpl12_ptrToObjRefEPKc @1306
    _ZN4omni15DynSequenceImpl12get_elementsEv @1307
    _ZN4omni15DynSequenceImpl12set_elementsERKN10DynamicAny6AnySeqE @1308
    _ZN4omni15DynSequenceImpl14nthComponentTCEj @1309
    _ZN4omni15DynSequenceImpl16_NP_decrRefCountEv @1310
    _ZN4omni15DynSequenceImpl16_NP_incrRefCountEv @1311
    _ZN4omni15DynSequenceImpl19prepareSequenceReadEN5CORBA6TCKindE @1312
    _ZN4omni15DynSequenceImpl20prepareSequenceWriteEN5CORBA6TCKindEm @1313
    _ZN4omni15DynSequenceImpl23get_elements_as_dyn_anyEv @1314
    _ZN4omni15DynSequenceImpl23set_elements_as_dyn_anyERKN10DynamicAny9DynAnySeqE @1315
    _ZN4omni15DynSequenceImpl4copyEv @1316
    _ZN4omni15DynSequenceImpl7copy_toER18cdrAnyMemoryStream @1317
    _ZN4omni15DynSequenceImpl9copy_fromER18cdrAnyMemoryStream @1318
    _ZN4omni15DynSequenceImplC1EPNS_13TypeCode_baseEb @1319
    _ZN4omni15DynSequenceImplC2EPNS_13TypeCode_baseEb @1320
    _ZN4omni15DynSequenceImplD0Ev @1321
    _ZN4omni15DynSequenceImplD1Ev @1322
    _ZN4omni15DynSequenceImplD2Ev @1323
    _ZN4omni15DynValueBoxImpl11set_to_nullEv @1324
    _ZN4omni15DynValueBoxImpl12_ptrToObjRefEPKc @1325
    _ZN4omni15DynValueBoxImpl12set_to_valueEv @1326
    _ZN4omni15DynValueBoxImpl14nthComponentTCEj @1327
    _ZN4omni15DynValueBoxImpl15get_boxed_valueEv @1328
    _ZN4omni15DynValueBoxImpl15set_boxed_valueERKN5CORBA3AnyE @1329
    _ZN4omni15DynValueBoxImpl16_NP_decrRefCountEv @1330
    _ZN4omni15DynValueBoxImpl16_NP_incrRefCountEv @1331
    _ZN4omni15DynValueBoxImpl19prepareSequenceReadEN5CORBA6TCKindE @1332
    _ZN4omni15DynValueBoxImpl20prepareSequenceWriteEN5CORBA6TCKindEm @1333
    _ZN4omni15DynValueBoxImpl20set_to_initial_valueEv @1334
    _ZN4omni15DynValueBoxImpl26get_boxed_value_as_dyn_anyEv @1335
    _ZN4omni15DynValueBoxImpl26set_boxed_value_as_dyn_anyEPN10DynamicAny6DynAnyE @1336
    _ZN4omni15DynValueBoxImpl4copyEv @1337
    _ZN4omni15DynValueBoxImpl7copy_toER18cdrAnyMemoryStream @1338
    _ZN4omni15DynValueBoxImpl7is_nullEv @1339
    _ZN4omni15DynValueBoxImpl9copy_fromER18cdrAnyMemoryStream @1340
    _ZN4omni15DynValueBoxImplC1EPNS_13TypeCode_baseEb @1341
    _ZN4omni15DynValueBoxImplC2EPNS_13TypeCode_baseEb @1342
    _ZN4omni15DynValueBoxImplD0Ev @1343
    _ZN4omni15DynValueBoxImplD1Ev @1344
    _ZN4omni15DynValueBoxImplD2Ev @1345
    _ZN4omni15EnvironmentImpl12NP_duplicateEv @1346
    _ZN4omni15EnvironmentImplC1Ev @1347
    _ZN4omni15EnvironmentImplC2Ev @1348
    _ZN4omni15EnvironmentImplD0Ev @1349
    _ZN4omni15EnvironmentImplD1Ev @1350
    _ZN4omni15EnvironmentImplD2Ev @1351
    _ZN4omni15TypeCode_except14NP_aliasExpandEPNS_17TypeCode_pairlistE @1352
    _ZN4omni15TypeCode_except18NP_containsAnAliasEv @1353
    _ZN4omni15TypeCode_except18NP_releaseChildrenEv @1354
    _ZN4omni15TypeCode_except19removeOptionalNamesEv @1355
    _ZN4omni15TypeCode_except21NP_complete_recursiveEPNS_13TypeCode_baseEPKc @1356
    _ZN4omni15TypeCode_except22generateAlignmentTableEv @1357
    _ZN4omni15TypeCode_except25NP_unmarshalComplexParamsER9cdrStreamPNS_20TypeCode_offsetTableE @1358
    _ZN4omni15TypeCode_except31NP_complete_recursive_sequencesEPNS_13TypeCode_baseEm @1359
    _ZN4omni15TypeCode_exceptC1EPcS1_PNS_15TypeCode_struct6MemberEm @1360
    _ZN4omni15TypeCode_exceptC2EPcS1_PNS_15TypeCode_struct6MemberEm @1361
    _ZN4omni15TypeCode_exceptD0Ev @1362
    _ZN4omni15TypeCode_exceptD1Ev @1363
    _ZN4omni15TypeCode_exceptD2Ev @1364
    _ZN4omni15TypeCode_objref19removeOptionalNamesEv @1365
    _ZN4omni15TypeCode_objref25NP_unmarshalComplexParamsER9cdrStreamPNS_20TypeCode_offsetTableE @1366
    _ZN4omni15TypeCode_objrefC1EN5CORBA6TCKindE @1367
    _ZN4omni15TypeCode_objrefC1EPKcS2_N5CORBA6TCKindE @1368
    _ZN4omni15TypeCode_objrefC2EN5CORBA6TCKindE @1369
    _ZN4omni15TypeCode_objrefC2EPKcS2_N5CORBA6TCKindE @1370
    _ZN4omni15TypeCode_objrefD0Ev @1371
    _ZN4omni15TypeCode_objrefD1Ev @1372
    _ZN4omni15TypeCode_objrefD2Ev @1373
    _ZN4omni15TypeCode_string24NP_unmarshalSimpleParamsER9cdrStreamPNS_20TypeCode_offsetTableE @1374
    _ZN4omni15TypeCode_stringC1Em @1375
    _ZN4omni15TypeCode_stringC1Ev @1376
    _ZN4omni15TypeCode_stringC2Em @1377
    _ZN4omni15TypeCode_stringC2Ev @1378
    _ZN4omni15TypeCode_stringD0Ev @1379
    _ZN4omni15TypeCode_stringD1Ev @1380
    _ZN4omni15TypeCode_stringD2Ev @1381
    _ZN4omni15TypeCode_struct14NP_aliasExpandEPNS_17TypeCode_pairlistE @1382
    _ZN4omni15TypeCode_struct18NP_containsAnAliasEv @1383
    _ZN4omni15TypeCode_struct18NP_releaseChildrenEv @1384
    _ZN4omni15TypeCode_struct19removeOptionalNamesEv @1385
    _ZN4omni15TypeCode_struct21NP_complete_recursiveEPNS_13TypeCode_baseEPKc @1386
    _ZN4omni15TypeCode_struct22generateAlignmentTableEv @1387
    _ZN4omni15TypeCode_struct25NP_unmarshalComplexParamsER9cdrStreamPNS_20TypeCode_offsetTableE @1388
    _ZN4omni15TypeCode_struct31NP_complete_recursive_sequencesEPNS_13TypeCode_baseEm @1389
    _ZN4omni15TypeCode_structC1EPcS1_PNS0_6MemberEm @1390
    _ZN4omni15TypeCode_structC2EPcS1_PNS0_6MemberEm @1391
    _ZN4omni15TypeCode_structD0Ev @1392
    _ZN4omni15TypeCode_structD1Ev @1393
    _ZN4omni15TypeCode_structD2Ev @1394
    _ZN4omni15fastCopyUsingTCEPNS_13TypeCode_baseER9cdrStreamS3_ @1395
    _ZN4omni15omniCodeSetUtil7HolderUD1Ev @1396
    _ZN4omni15omniNilDynArray12_ptrToObjRefEPKc @1397
    _ZN4omni15omniNilDynArray12get_elementsEv @1398
    _ZN4omni15omniNilDynArray12set_elementsERKN10DynamicAny6AnySeqE @1399
    _ZN4omni15omniNilDynArray23get_elements_as_dyn_anyEv @1400
    _ZN4omni15omniNilDynArray23set_elements_as_dyn_anyERKN10DynamicAny9DynAnySeqE @1401
    _ZN4omni15omniNilDynArrayD0Ev @1402
    _ZN4omni15omniNilDynArrayD1Ev @1403
    _ZN4omni15omniNilDynFixed12_ptrToObjRefEPKc @1404
    _ZN4omni15omniNilDynFixed9get_valueEv @1405
    _ZN4omni15omniNilDynFixed9set_valueEPKc @1406
    _ZN4omni15omniNilDynFixedD0Ev @1407
    _ZN4omni15omniNilDynFixedD1Ev @1408
    _ZN4omni15omniNilDynUnion11member_kindEv @1409
    _ZN4omni15omniNilDynUnion11member_nameEv @1410
    _ZN4omni15omniNilDynUnion12_ptrToObjRefEPKc @1411
    _ZN4omni15omniNilDynUnion17get_discriminatorEv @1412
    _ZN4omni15omniNilDynUnion17set_discriminatorEPN10DynamicAny6DynAnyE @1413
    _ZN4omni15omniNilDynUnion18discriminator_kindEv @1414
    _ZN4omni15omniNilDynUnion20has_no_active_memberEv @1415
    _ZN4omni15omniNilDynUnion21set_to_default_memberEv @1416
    _ZN4omni15omniNilDynUnion23set_to_no_active_memberEv @1417
    _ZN4omni15omniNilDynUnion24is_set_to_default_memberEv @1418
    _ZN4omni15omniNilDynUnion6memberEv @1419
    _ZN4omni15omniNilDynUnionD0Ev @1420
    _ZN4omni15omniNilDynUnionD1Ev @1421
    _ZN4omni15omniNilDynValue11get_membersEv @1422
    _ZN4omni15omniNilDynValue11set_membersERKN10DynamicAny16NameValuePairSeqE @1423
    _ZN4omni15omniNilDynValue11set_to_nullEv @1424
    _ZN4omni15omniNilDynValue12_ptrToObjRefEPKc @1425
    _ZN4omni15omniNilDynValue12set_to_valueEv @1426
    _ZN4omni15omniNilDynValue19current_member_kindEv @1427
    _ZN4omni15omniNilDynValue19current_member_nameEv @1428
    _ZN4omni15omniNilDynValue22get_members_as_dyn_anyEv @1429
    _ZN4omni15omniNilDynValue22set_members_as_dyn_anyERKN10DynamicAny17NameDynAnyPairSeqE @1430
    _ZN4omni15omniNilDynValue7is_nullEv @1431
    _ZN4omni15omniNilDynValueD0Ev @1432
    _ZN4omni15omniNilDynValueD1Ev @1433
    _ZN4omni15omniORB_4_1_dynE @1434 DATA
    _ZN4omni16DynAnyConstrBase10_PD_repoIdE @1435 DATA
    _ZN4omni16DynAnyConstrBase10get_doubleEv @1436
    _ZN4omni16DynAnyConstrBase10get_stringEv @1437
    _ZN4omni16DynAnyConstrBase10get_ushortEv @1438
    _ZN4omni16DynAnyConstrBase10insert_anyERKN5CORBA3AnyE @1439
    _ZN4omni16DynAnyConstrBase10insert_valEPN5CORBA9ValueBaseE @1440
    _ZN4omni16DynAnyConstrBase11get_booleanEv @1441
    _ZN4omni16DynAnyConstrBase11get_dyn_anyEv @1442
    _ZN4omni16DynAnyConstrBase11get_wstringEv @1443
    _ZN4omni16DynAnyConstrBase11insert_charEh @1444
    _ZN4omni16DynAnyConstrBase11insert_longEl @1445
    _ZN4omni16DynAnyConstrBase11readCurrentEN5CORBA6TCKindE @1446
    _ZN4omni16DynAnyConstrBase12get_abstractEv @1447
    _ZN4omni16DynAnyConstrBase12get_char_seqEv @1448
    _ZN4omni16DynAnyConstrBase12get_long_seqEv @1449
    _ZN4omni16DynAnyConstrBase12get_longlongEv @1450
    _ZN4omni16DynAnyConstrBase12get_typecodeEv @1451
    _ZN4omni16DynAnyConstrBase12insert_floatEf @1452
    _ZN4omni16DynAnyConstrBase12insert_octetEh @1453
    _ZN4omni16DynAnyConstrBase12insert_shortEs @1454
    _ZN4omni16DynAnyConstrBase12insert_ulongEm @1455
    _ZN4omni16DynAnyConstrBase12insert_wcharEw @1456
    _ZN4omni16DynAnyConstrBase13get_float_seqEv @1457
    _ZN4omni16DynAnyConstrBase13get_octet_seqEv @1458
    _ZN4omni16DynAnyConstrBase13get_referenceEv @1459
    _ZN4omni16DynAnyConstrBase13get_short_seqEv @1460
    _ZN4omni16DynAnyConstrBase13get_ulong_seqEv @1461
    _ZN4omni16DynAnyConstrBase13get_ulonglongEv @1462
    _ZN4omni16DynAnyConstrBase13get_wchar_seqEv @1463
    _ZN4omni16DynAnyConstrBase13insert_doubleEd @1464
    _ZN4omni16DynAnyConstrBase13insert_stringEPKc @1465
    _ZN4omni16DynAnyConstrBase13insert_ushortEt @1466
    _ZN4omni16DynAnyConstrBase14get_double_seqEv @1467
    _ZN4omni16DynAnyConstrBase14get_longdoubleEv @1468
    _ZN4omni16DynAnyConstrBase14get_ushort_seqEv @1469
    _ZN4omni16DynAnyConstrBase14insert_booleanEb @1470
    _ZN4omni16DynAnyConstrBase14insert_dyn_anyEPN10DynamicAny6DynAnyE @1471
    _ZN4omni16DynAnyConstrBase14insert_wstringEPKw @1472
    _ZN4omni16DynAnyConstrBase15component_countEv @1473
    _ZN4omni16DynAnyConstrBase15createComponentEj @1474
    _ZN4omni16DynAnyConstrBase15get_boolean_seqEv @1475
    _ZN4omni16DynAnyConstrBase15insert_abstractEPN5CORBA12AbstractBaseE @1476
    _ZN4omni16DynAnyConstrBase15insert_char_seqERN5CORBA7CharSeqE @1477
    _ZN4omni16DynAnyConstrBase15insert_long_seqERN5CORBA7LongSeqE @1478
    _ZN4omni16DynAnyConstrBase15insert_longlongEx @1479
    _ZN4omni16DynAnyConstrBase15insert_typecodeEPN5CORBA8TypeCodeE @1480
    _ZN4omni16DynAnyConstrBase16component_to_anyEjRN5CORBA3AnyE @1481
    _ZN4omni16DynAnyConstrBase16get_longlong_seqEv @1482
    _ZN4omni16DynAnyConstrBase16insert_float_seqERN5CORBA8FloatSeqE @1483
    _ZN4omni16DynAnyConstrBase16insert_octet_seqERN5CORBA8OctetSeqE @1484
    _ZN4omni16DynAnyConstrBase16insert_referenceEPN5CORBA6ObjectE @1485
    _ZN4omni16DynAnyConstrBase16insert_short_seqERN5CORBA8ShortSeqE @1486
    _ZN4omni16DynAnyConstrBase16insert_ulong_seqERN5CORBA8ULongSeqE @1487
    _ZN4omni16DynAnyConstrBase16insert_ulonglongEy @1488
    _ZN4omni16DynAnyConstrBase16insert_wchar_seqERN5CORBA8WCharSeqE @1489
    _ZN4omni16DynAnyConstrBase16setNumComponentsEj @1490
    _ZN4omni16DynAnyConstrBase17current_componentEv @1491
    _ZN4omni16DynAnyConstrBase17get_ulonglong_seqEv @1492
    _ZN4omni16DynAnyConstrBase17insert_double_seqERN5CORBA9DoubleSeqE @1493
    _ZN4omni16DynAnyConstrBase17insert_longdoubleEe @1494
    _ZN4omni16DynAnyConstrBase17insert_ushort_seqERN5CORBA9UShortSeqE @1495
    _ZN4omni16DynAnyConstrBase18component_from_anyEjRKN5CORBA3AnyE @1496
    _ZN4omni16DynAnyConstrBase18get_longdouble_seqEv @1497
    _ZN4omni16DynAnyConstrBase18insert_boolean_seqERN5CORBA10BooleanSeqE @1498
    _ZN4omni16DynAnyConstrBase19insert_longlong_seqERN5CORBA11LongLongSeqE @1499
    _ZN4omni16DynAnyConstrBase20insert_ulonglong_seqERN5CORBA12ULongLongSeqE @1500
    _ZN4omni16DynAnyConstrBase20set_to_initial_valueEv @1501
    _ZN4omni16DynAnyConstrBase21insert_longdouble_seqERN5CORBA13LongDoubleSeqE @1502
    _ZN4omni16DynAnyConstrBase4nextEv @1503
    _ZN4omni16DynAnyConstrBase4seekEl @1504
    _ZN4omni16DynAnyConstrBase5equalEPN10DynamicAny6DynAnyE @1505
    _ZN4omni16DynAnyConstrBase6assignEPN10DynamicAny6DynAnyE @1506
    _ZN4omni16DynAnyConstrBase6rewindEv @1507
    _ZN4omni16DynAnyConstrBase6seekToEj @1508
    _ZN4omni16DynAnyConstrBase7copy_toER18cdrAnyMemoryStream @1509
    _ZN4omni16DynAnyConstrBase7get_anyEv @1510
    _ZN4omni16DynAnyConstrBase7get_valEv @1511
    _ZN4omni16DynAnyConstrBase8get_charEv @1512
    _ZN4omni16DynAnyConstrBase8get_longEv @1513
    _ZN4omni16DynAnyConstrBase9copy_fromER18cdrAnyMemoryStream @1514
    _ZN4omni16DynAnyConstrBase9get_floatEv @1515
    _ZN4omni16DynAnyConstrBase9get_octetEv @1516
    _ZN4omni16DynAnyConstrBase9get_shortEv @1517
    _ZN4omni16DynAnyConstrBase9get_ulongEv @1518
    _ZN4omni16DynAnyConstrBase9get_wcharEv @1519
    _ZN4omni16DynAnyConstrBase9onDisposeEv @1520
    _ZN4omni16DynAnyConstrBaseC1EPNS_13TypeCode_baseEib @1521
    _ZN4omni16DynAnyConstrBaseC2EPNS_13TypeCode_baseEib @1522
    _ZN4omni16DynAnyConstrBaseD0Ev @1523
    _ZN4omni16DynAnyConstrBaseD1Ev @1524
    _ZN4omni16DynAnyConstrBaseD2Ev @1525
    _ZN4omni16DynUnionEnumDisc12_ptrToObjRefEPKc @1526
    _ZN4omni16DynUnionEnumDisc12get_as_ulongEv @1527
    _ZN4omni16DynUnionEnumDisc12set_as_ulongEm @1528
    _ZN4omni16DynUnionEnumDisc13get_as_stringEv @1529
    _ZN4omni16DynUnionEnumDisc13set_as_stringEPKc @1530
    _ZN4omni16DynUnionEnumDisc16_NP_decrRefCountEv @1531
    _ZN4omni16DynUnionEnumDisc16_NP_incrRefCountEv @1532
    _ZN4omni16DynUnionEnumDisc20set_to_initial_valueEv @1533
    _ZN4omni16DynUnionEnumDisc4copyEv @1534
    _ZN4omni16DynUnionEnumDisc9set_valueEy @1535
    _ZN4omni16DynUnionEnumDiscC1EPNS_13TypeCode_baseEPNS_12DynUnionImplE @1536
    _ZN4omni16DynUnionEnumDiscC2EPNS_13TypeCode_baseEPNS_12DynUnionImplE @1537
    _ZN4omni16DynUnionEnumDiscD0Ev @1538
    _ZN4omni16DynUnionEnumDiscD1Ev @1539
    _ZN4omni16DynUnionEnumDiscD2Ev @1540
    _ZN4omni16ToTcBase_CheckedEPN5CORBA8TypeCodeE @1541
    _ZN4omni16TypeCode_wstring24NP_unmarshalSimpleParamsER9cdrStreamPNS_20TypeCode_offsetTableE @1542
    _ZN4omni16TypeCode_wstringC1Em @1543
    _ZN4omni16TypeCode_wstringC1Ev @1544
    _ZN4omni16TypeCode_wstringC2Em @1545
    _ZN4omni16TypeCode_wstringC2Ev @1546
    _ZN4omni16TypeCode_wstringD0Ev @1547
    _ZN4omni16TypeCode_wstringD1Ev @1548
    _ZN4omni16TypeCode_wstringD2Ev @1549
    _ZN4omni16omniNilDynStruct11get_membersEv @1550
    _ZN4omni16omniNilDynStruct11set_membersERKN10DynamicAny16NameValuePairSeqE @1551
    _ZN4omni16omniNilDynStruct12_ptrToObjRefEPKc @1552
    _ZN4omni16omniNilDynStruct19current_member_kindEv @1553
    _ZN4omni16omniNilDynStruct19current_member_nameEv @1554
    _ZN4omni16omniNilDynStruct22get_members_as_dyn_anyEv @1555
    _ZN4omni16omniNilDynStruct22set_members_as_dyn_anyERKN10DynamicAny17NameDynAnyPairSeqE @1556
    _ZN4omni16omniNilDynStructD0Ev @1557
    _ZN4omni16omniNilDynStructD1Ev @1558
    _ZN4omni17DynAnyFactoryImpl10theFactoryEv @1559
    _ZN4omni17DynAnyFactoryImpl12_ptrToObjRefEPKc @1560
    _ZN4omni17DynAnyFactoryImpl14create_dyn_anyERKN5CORBA3AnyE @1561
    _ZN4omni17DynAnyFactoryImpl16_NP_decrRefCountEv @1562
    _ZN4omni17DynAnyFactoryImpl16_NP_incrRefCountEv @1563
    _ZN4omni17DynAnyFactoryImpl29create_dyn_any_from_type_codeEPN5CORBA8TypeCodeE @1564
    _ZN4omni17DynAnyFactoryImplD0Ev @1565
    _ZN4omni17DynAnyFactoryImplD1Ev @1566
    _ZN4omni17DynAnyFactoryImplD2Ev @1567
    _ZN4omni17ExceptionListImpl11add_consumeEPN5CORBA8TypeCodeE @1568
    _ZN4omni17ExceptionListImpl12NP_duplicateEv @1569
    _ZN4omni17ExceptionListImpl12free_entriesEv @1570
    _ZN4omni17ExceptionListImpl3addEPN5CORBA8TypeCodeE @1571
    _ZN4omni17ExceptionListImpl4itemEm @1572
    _ZN4omni17ExceptionListImpl6removeEm @1573
    _ZN4omni17ExceptionListImplC1Ev @1574
    _ZN4omni17ExceptionListImplC2Ev @1575
    _ZN4omni17ExceptionListImplD0Ev @1576
    _ZN4omni17ExceptionListImplD1Ev @1577
    _ZN4omni17ExceptionListImplD2Ev @1578
    _ZN4omni17InputValueTracker10addRepoIdsEP14_omni_ValueIdsl @1579
    _ZN4omni17InputValueTracker11lookupValueEllN5CORBA16CompletionStatusE @1580
    _ZN4omni17InputValueTracker12lookupRepoIdEllN5CORBA16CompletionStatusE @1581
    _ZN4omni17InputValueTracker13lookupRepoIdsEllN5CORBA16CompletionStatusE @1582
    _ZN4omni17InputValueTracker8PD_MAGICE @1583 DATA
    _ZN4omni17InputValueTracker8addValueEPN5CORBA9ValueBaseEl @1584
    _ZN4omni17InputValueTracker9addRepoIdEPcl @1585
    _ZN4omni17InputValueTrackerC1Ev @1586
    _ZN4omni17InputValueTrackerC2Ev @1587
    _ZN4omni17InputValueTrackerD0Ev @1588
    _ZN4omni17InputValueTrackerD1Ev @1589
    _ZN4omni17InputValueTrackerD2Ev @1590
    _ZN4omni17TypeCode_indirect14NP_aliasExpandEPNS_17TypeCode_pairlistE @1591
    _ZN4omni17TypeCode_indirect18NP_containsAnAliasEv @1592
    _ZN4omni17TypeCode_indirect18NP_releaseChildrenEv @1593
    _ZN4omni17TypeCode_indirect19removeOptionalNamesEv @1594
    _ZN4omni17TypeCode_indirect21NP_complete_recursiveEPNS_13TypeCode_baseEPKc @1595
    _ZN4omni17TypeCode_indirect31NP_complete_recursive_sequencesEPNS_13TypeCode_baseEm @1596
    _ZN4omni17TypeCode_indirectC1EPKc @1597
    _ZN4omni17TypeCode_indirectC2EPKc @1598
    _ZN4omni17TypeCode_indirectD0Ev @1599
    _ZN4omni17TypeCode_indirectD1Ev @1600
    _ZN4omni17TypeCode_indirectD2Ev @1601
    _ZN4omni17TypeCode_pairlist6searchEPKS0_PKNS_13TypeCode_baseE @1602
    _ZN4omni17TypeCode_pairlist8containsEPKS0_PKNS_13TypeCode_baseES5_ @1603
    _ZN4omni17TypeCode_sequence14NP_aliasExpandEPNS_17TypeCode_pairlistE @1604
    _ZN4omni17TypeCode_sequence18NP_containsAnAliasEv @1605
    _ZN4omni17TypeCode_sequence18NP_releaseChildrenEv @1606
    _ZN4omni17TypeCode_sequence19removeOptionalNamesEv @1607
    _ZN4omni17TypeCode_sequence21NP_complete_recursiveEPNS_13TypeCode_baseEPKc @1608
    _ZN4omni17TypeCode_sequence25NP_unmarshalComplexParamsER9cdrStreamPNS_20TypeCode_offsetTableE @1609
    _ZN4omni17TypeCode_sequence31NP_complete_recursive_sequencesEPNS_13TypeCode_baseEm @1610
    _ZN4omni17TypeCode_sequenceC1EmPNS_13TypeCode_baseE @1611
    _ZN4omni17TypeCode_sequenceC1Emm @1612
    _ZN4omni17TypeCode_sequenceC1Ev @1613
    _ZN4omni17TypeCode_sequenceC2EmPNS_13TypeCode_baseE @1614
    _ZN4omni17TypeCode_sequenceC2Emm @1615
    _ZN4omni17TypeCode_sequenceC2Ev @1616
    _ZN4omni17TypeCode_sequenceD0Ev @1617
    _ZN4omni17TypeCode_sequenceD1Ev @1618
    _ZN4omni17TypeCode_sequenceD2Ev @1619
    _ZN4omni17omniServerRequest10set_resultERKN5CORBA3AnyE @1620
    _ZN4omni17omniServerRequest13set_exceptionERKN5CORBA3AnyE @1621
    _ZN4omni17omniServerRequest3ctxEv @1622
    _ZN4omni17omniServerRequest8do_replyEv @1623
    _ZN4omni17omniServerRequest9argumentsERPN5CORBA6NVListE @1624
    _ZN4omni17omniServerRequest9operationEv @1625
    _ZN4omni17omniServerRequestC1ER14omniCallHandle @1626
    _ZN4omni17omniServerRequestC2ER14omniCallHandle @1627
    _ZN4omni17omniServerRequestD0Ev @1628
    _ZN4omni17omniServerRequestD1Ev @1629
    _ZN4omni17omniServerRequestD2Ev @1630
    _ZN4omni17omniTrackedObjectD0Ev @1631
    _ZN4omni17omniTrackedObjectD1Ev @1632
    _ZN4omni18OutputValueTracker10addRepoIdsEPK14_omni_ValueIdsl @1633
    _ZN4omni18OutputValueTracker8PD_MAGICE @1634 DATA
    _ZN4omni18OutputValueTracker8addValueEPKN5CORBA9ValueBaseEl @1635
    _ZN4omni18OutputValueTracker9addRepoIdEPKcml @1636
    _ZN4omni18OutputValueTrackerC1Ev @1637
    _ZN4omni18OutputValueTrackerC2Ev @1638
    _ZN4omni18OutputValueTrackerD0Ev @1639
    _ZN4omni18OutputValueTrackerD1Ev @1640
    _ZN4omni18OutputValueTrackerD2Ev @1641
    _ZN4omni18TypeCode_collector10releaseRefEPNS_13TypeCode_baseE @1642
    _ZN4omni18TypeCode_collector12duplicateRefEPNS_13TypeCode_baseE @1643
    _ZN4omni18TypeCode_collector15markLoopMembersEPNS_13TypeCode_baseE @1644
    _ZN4omni18TypeCode_collector17checkInternalRefsEPNS_13TypeCode_baseEm @1645
    _ZN4omni18TypeCode_collector17countInternalRefsEPNS_13TypeCode_baseE @1646
    _ZN4omni18TypeCode_collector9markLoopsEPNS_13TypeCode_baseEm @1647
    _ZN4omni18TypeCode_value_box14NP_aliasExpandEPNS_17TypeCode_pairlistE @1648
    _ZN4omni18TypeCode_value_box18NP_containsAnAliasEv @1649
    _ZN4omni18TypeCode_value_box18NP_releaseChildrenEv @1650
    _ZN4omni18TypeCode_value_box19removeOptionalNamesEv @1651
    _ZN4omni18TypeCode_value_box25NP_unmarshalComplexParamsER9cdrStreamPNS_20TypeCode_offsetTableE @1652
    _ZN4omni18TypeCode_value_boxC1EPKcS2_PNS_13TypeCode_baseE @1653
    _ZN4omni18TypeCode_value_boxC1Ev @1654
    _ZN4omni18TypeCode_value_boxC2EPKcS2_PNS_13TypeCode_baseE @1655
    _ZN4omni18TypeCode_value_boxC2Ev @1656
    _ZN4omni18TypeCode_value_boxD0Ev @1657
    _ZN4omni18TypeCode_value_boxD1Ev @1658
    _ZN4omni18TypeCode_value_boxD2Ev @1659
    _ZN4omni18omniNilDynSequence10get_lengthEv @1660
    _ZN4omni18omniNilDynSequence10set_lengthEm @1661
    _ZN4omni18omniNilDynSequence12_ptrToObjRefEPKc @1662
    _ZN4omni18omniNilDynSequence12get_elementsEv @1663
    _ZN4omni18omniNilDynSequence12set_elementsERKN10DynamicAny6AnySeqE @1664
    _ZN4omni18omniNilDynSequence23get_elements_as_dyn_anyEv @1665
    _ZN4omni18omniNilDynSequence23set_elements_as_dyn_anyERKN10DynamicAny9DynAnySeqE @1666
    _ZN4omni18omniNilDynSequenceD0Ev @1667
    _ZN4omni18omniNilDynSequenceD1Ev @1668
    _ZN4omni18omniNilDynValueBox11set_to_nullEv @1669
    _ZN4omni18omniNilDynValueBox12_ptrToObjRefEPKc @1670
    _ZN4omni18omniNilDynValueBox12set_to_valueEv @1671
    _ZN4omni18omniNilDynValueBox15get_boxed_valueEv @1672
    _ZN4omni18omniNilDynValueBox15set_boxed_valueERKN5CORBA3AnyE @1673
    _ZN4omni18omniNilDynValueBox26get_boxed_value_as_dyn_anyEv @1674
    _ZN4omni18omniNilDynValueBox26set_boxed_value_as_dyn_anyEPN10DynamicAny6DynAnyE @1675
    _ZN4omni18omniNilDynValueBox7is_nullEv @1676
    _ZN4omni18omniNilDynValueBoxD0Ev @1677
    _ZN4omni18omniNilDynValueBoxD1Ev @1678
    _ZN4omni19TypeCodeInitialiser20typecode_initialiserE @1679 DATA
    _ZN4omni19TypeCode_alignTable13setNumEntriesEj @1680
    _ZN4omni19TypeCode_alignTable8addNastyEPNS_13TypeCode_baseE @1681
    _ZN4omni19TypeCode_alignTable9addSimpleENS_11alignment_tEj @1682
    _ZN4omni19TypeCode_alignTableD1Ev @1683
    _ZN4omni19TypeCode_marshaller13paramListTypeEm @1684
    _ZN4omni19TypeCode_marshaller7marshalEPNS_13TypeCode_baseER9cdrStreamPNS_20TypeCode_offsetTableE @1685
    _ZN4omni19TypeCode_marshaller9unmarshalER9cdrStreamPNS_20TypeCode_offsetTableE @1686
    _ZN4omni20FromAnyUserExceptionD0Ev @1687
    _ZN4omni20FromAnyUserExceptionD1Ev @1688
    _ZN4omni20TypeCode_offsetTable12lookupOffsetEl @1689
    _ZN4omni20TypeCode_offsetTable14lookupTypeCodeEPKNS_13TypeCode_baseERl @1690
    _ZN4omni20TypeCode_offsetTable8addEntryElPNS_13TypeCode_baseE @1691
    _ZN4omni20TypeCode_offsetTableC1EPS0_l @1692
    _ZN4omni20TypeCode_offsetTableC1Ev @1693
    _ZN4omni20TypeCode_offsetTableC2EPS0_l @1694
    _ZN4omni20TypeCode_offsetTableC2Ev @1695
    _ZN4omni20TypeCode_offsetTableD1Ev @1696
    _ZN4omni20TypeCode_offsetTableD2Ev @1697
    _ZN4omni20omniNilDynAnyFactory12_ptrToObjRefEPKc @1698
    _ZN4omni20omniNilDynAnyFactory14create_dyn_anyERKN5CORBA3AnyE @1699
    _ZN4omni20omniNilDynAnyFactory29create_dyn_any_from_type_codeEPN5CORBA8TypeCodeE @1700
    _ZN4omni20omniNilDynAnyFactoryD0Ev @1701
    _ZN4omni20omniNilDynAnyFactoryD1Ev @1702
    _ZN4omni21TypeCode_union_helper11insertLabelERN5CORBA3AnyEyPNS1_8TypeCodeE @1703
    _ZN4omni21TypeCode_union_helper12extractLabelERKN5CORBA3AnyEPNS1_8TypeCodeE @1704
    _ZN4omni21TypeCode_union_helper12marshalLabelEyPN5CORBA8TypeCodeER9cdrStream @1705
    _ZN4omni21TypeCode_union_helper14unmarshalLabelEPN5CORBA8TypeCodeER9cdrStream @1706
    _ZN4omni21TypeCode_union_helper20has_implicit_defaultEPNS_13TypeCode_baseE @1707
    _ZN4omni21omniNilDynValueCommon11set_to_nullEv @1708
    _ZN4omni21omniNilDynValueCommon12_ptrToObjRefEPKc @1709
    _ZN4omni21omniNilDynValueCommon12set_to_valueEv @1710
    _ZN4omni21omniNilDynValueCommon7is_nullEv @1711
    _ZN4omni21omniNilDynValueCommonD0Ev @1712
    _ZN4omni21omniNilDynValueCommonD1Ev @1713
    _ZN4omni21omniNilTypeCodeHolderD0Ev @1714
    _ZN4omni21omniNilTypeCodeHolderD1Ev @1715
    _ZN4omni21poaCurrentStackInsertD1Ev @1716
    _ZN4omni22omniTypeCodeCollection3addEPKcPN5CORBA8TypeCodeE @1717
    _ZN4omni22omniTypeCodeCollection4findEPKc @1718
    _ZN4omni22omniTypeCodeCollection6removeEPKcPN5CORBA8TypeCodeE @1719
    _ZN4omni22omniTypeCodeCollectionD0Ev @1720
    _ZN4omni22omniTypeCodeCollectionD1Ev @1721
    _ZN4omni22omniTypeCodeCollectionD2Ev @1722
    _ZN4omni23omni_dynAny_initialiser6attachEv @1723
    _ZN4omni23omni_dynAny_initialiser6detachEv @1724
    _ZN4omni24TypeCode_local_interface25NP_unmarshalComplexParamsER9cdrStreamPNS_20TypeCode_offsetTableE @1725
    _ZN4omni24TypeCode_local_interfaceC1EPKcS2_ @1726
    _ZN4omni24TypeCode_local_interfaceC1Ev @1727
    _ZN4omni24TypeCode_local_interfaceC2EPKcS2_ @1728
    _ZN4omni24TypeCode_local_interfaceC2Ev @1729
    _ZN4omni24TypeCode_local_interfaceD0Ev @1730
    _ZN4omni24TypeCode_local_interfaceD1Ev @1731
    _ZN4omni24TypeCode_local_interfaceD2Ev @1732
    _ZN4omni24omni_dynAny_initialiser_E @1733 DATA
    _ZN4omni25omni_RequestImpl_callDesc13userExceptionER9cdrStreamPNS_5IOP_CEPKc @1734
    _ZN4omni25omni_RequestImpl_callDesc16marshalArgumentsER9cdrStream @1735
    _ZN4omni25omni_RequestImpl_callDesc23unmarshalReturnedValuesER9cdrStream @1736
    _ZN4omni25omni_RequestImpl_callDescD0Ev @1737
    _ZN4omni25omni_RequestImpl_callDescD1Ev @1738
    _ZN4omni26omniDynamicLib_initialiser8instanceE @1739 DATA
    _ZN4omni27TypeCode_abstract_interface25NP_unmarshalComplexParamsER9cdrStreamPNS_20TypeCode_offsetTableE @1740
    _ZN4omni27TypeCode_abstract_interfaceC1EPKcS2_ @1741
    _ZN4omni27TypeCode_abstract_interfaceC1Ev @1742
    _ZN4omni27TypeCode_abstract_interfaceC2EPKcS2_ @1743
    _ZN4omni27TypeCode_abstract_interfaceC2Ev @1744
    _ZN4omni27TypeCode_abstract_interfaceD0Ev @1745
    _ZN4omni27TypeCode_abstract_interfaceD1Ev @1746
    _ZN4omni27TypeCode_abstract_interfaceD2Ev @1747
    _ZN4omni27serverRequestCallDescriptor18unmarshalArgumentsER9cdrStream @1748
    _ZN4omni27serverRequestCallDescriptor21marshalReturnedValuesER9cdrStream @1749
    _ZN4omni27serverRequestCallDescriptorC1EPKcj @1750
    _ZN4omni27serverRequestCallDescriptorC2EPKcj @1751
    _ZN4omni27serverRequestCallDescriptorD0Ev @1752
    _ZN4omni27serverRequestCallDescriptorD1Ev @1753
    _ZN4omni29omni_valueFactory_initialiser6attachEv @1754
    _ZN4omni29omni_valueFactory_initialiser6detachEv @1755
    _ZN4omni30omni_valueFactory_initialiser_E @1756 DATA
    _ZN4omni6GIOP_C8downcastEP9cdrStream @1757
    _ZN4omni6GIOP_S8downcastEP9cdrStream @1758
    _ZN4omni8tcParser18copyStreamToStreamEPN5CORBA8TypeCodeER9cdrStreamS5_ @1759
    _ZN4omni8tcParser4skipEPN5CORBA8TypeCodeER9cdrStream @1760
    _ZN4omni9omniNilNV12NP_duplicateEv @1761
    _ZN4omni9omniNilNVD0Ev @1762
    _ZN4omni9omniNilNVD1Ev @1763
    _ZN5CORBA10NamedValue10_duplicateEPS0_ @1764
    _ZN5CORBA10NamedValue4_nilEv @1765
    _ZN5CORBA10NamedValue8PR_magicE @1766 DATA
    _ZN5CORBA10NamedValueD0Ev @1767
    _ZN5CORBA10NamedValueD1Ev @1768
    _ZN5CORBA10NamedValueD2Ev @1769
    _ZN5CORBA10Object_varD1Ev @1770
    _ZN5CORBA10Repository10_PD_repoIdE @1771 DATA
    _ZN5CORBA10Repository10_duplicateEPNS_18_objref_RepositoryE @1772
    _ZN5CORBA10Repository17_unchecked_narrowEPNS_6ObjectE @1773
    _ZN5CORBA10Repository4_nilEv @1774
    _ZN5CORBA10Repository7_narrowEPNS_6ObjectE @1775
    _ZN5CORBA10TypedefDef10_PD_repoIdE @1776 DATA
    _ZN5CORBA10TypedefDef10_duplicateEPNS_18_objref_TypedefDefE @1777
    _ZN5CORBA10TypedefDef17_unchecked_narrowEPNS_6ObjectE @1778
    _ZN5CORBA10TypedefDef4_nilEv @1779
    _ZN5CORBA10TypedefDef7_narrowEPNS_6ObjectE @1780
    _ZN5CORBA10WstringDef10_PD_repoIdE @1781 DATA
    _ZN5CORBA10WstringDef10_duplicateEPNS_18_objref_WstringDefE @1782
    _ZN5CORBA10WstringDef17_unchecked_narrowEPNS_6ObjectE @1783
    _ZN5CORBA10WstringDef4_nilEv @1784
    _ZN5CORBA10WstringDef7_narrowEPNS_6ObjectE @1785
    _ZN5CORBA10_tc_AnySeqE @1786 DATA
    _ZN5CORBA10_tc_ObjectE @1787 DATA
    _ZN5CORBA10_tc_REBINDE @1788 DATA
    _ZN5CORBA10_tc_doubleE @1789 DATA
    _ZN5CORBA10_tc_stringE @1790 DATA
    _ZN5CORBA10_tc_ushortE @1791 DATA
    _ZN5CORBA10remove_refEPNS_9ValueBaseE @1792
    _ZN5CORBA11CharSeq_varD1Ev @1793
    _ZN5CORBA11ConstantDef10_PD_repoIdE @1794 DATA
    _ZN5CORBA11ConstantDef10_duplicateEPNS_19_objref_ConstantDefE @1795
    _ZN5CORBA11ConstantDef17_unchecked_narrowEPNS_6ObjectE @1796
    _ZN5CORBA11ConstantDef4_nilEv @1797
    _ZN5CORBA11ConstantDef7_narrowEPNS_6ObjectE @1798
    _ZN5CORBA11ContextList10_duplicateEPS0_ @1799
    _ZN5CORBA11ContextList4_nilEv @1800
    _ZN5CORBA11ContextList6Bounds10_PD_repoIdE @1801 DATA
    _ZN5CORBA11ContextList6Bounds13insertToAnyFnE @1802 DATA
    _ZN5CORBA11ContextList6Bounds16insertToAnyFnNCPE @1803 DATA
    _ZN5CORBA11ContextList6Bounds9_downcastEPKNS_9ExceptionE @1804
    _ZN5CORBA11ContextList6Bounds9_downcastEPNS_9ExceptionE @1805
    _ZN5CORBA11ContextList6BoundsD0Ev @1806
    _ZN5CORBA11ContextList6BoundsD1Ev @1807
    _ZN5CORBA11ContextList6BoundsD2Ev @1808
    _ZN5CORBA11ContextList8PR_magicE @1809 DATA
    _ZN5CORBA11ContextListD0Ev @1810
    _ZN5CORBA11ContextListD1Ev @1811
    _ZN5CORBA11ContextListD2Ev @1812
    _ZN5CORBA11Environment10_duplicateEPS0_ @1813
    _ZN5CORBA11Environment12NP_duplicateEv @1814
    _ZN5CORBA11Environment4_nilEv @1815
    _ZN5CORBA11Environment5clearEv @1816
    _ZN5CORBA11Environment8PR_magicE @1817 DATA
    _ZN5CORBA11Environment9exceptionEPNS_9ExceptionE @1818
    _ZN5CORBA11EnvironmentC1Ev @1819
    _ZN5CORBA11EnvironmentC2Ev @1820
    _ZN5CORBA11EnvironmentD0Ev @1821
    _ZN5CORBA11EnvironmentD1Ev @1822
    _ZN5CORBA11EnvironmentD2Ev @1823
    _ZN5CORBA11InitializerlSER9cdrStream @1824
    _ZN5CORBA11LongSeq_varD1Ev @1825
    _ZN5CORBA11PolicyError10_PD_repoIdE @1826 DATA
    _ZN5CORBA11PolicyError13insertToAnyFnE @1827 DATA
    _ZN5CORBA11PolicyError16insertToAnyFnNCPE @1828 DATA
    _ZN5CORBA11PolicyError9_downcastEPKNS_9ExceptionE @1829
    _ZN5CORBA11PolicyError9_downcastEPNS_9ExceptionE @1830
    _ZN5CORBA11PolicyErrorC1ERKS0_ @1831
    _ZN5CORBA11PolicyErrorC1Es @1832
    _ZN5CORBA11PolicyErrorC2ERKS0_ @1833
    _ZN5CORBA11PolicyErrorC2Es @1834
    _ZN5CORBA11PolicyErrorD0Ev @1835
    _ZN5CORBA11PolicyErrorD1Ev @1836
    _ZN5CORBA11PolicyErrorD2Ev @1837
    _ZN5CORBA11PolicyErroraSERKS0_ @1838
    _ZN5CORBA11PolicyErrorlSER9cdrStream @1839
    _ZN5CORBA11SequenceDef10_PD_repoIdE @1840 DATA
    _ZN5CORBA11SequenceDef10_duplicateEPNS_19_objref_SequenceDefE @1841
    _ZN5CORBA11SequenceDef17_unchecked_narrowEPNS_6ObjectE @1842
    _ZN5CORBA11SequenceDef4_nilEv @1843
    _ZN5CORBA11SequenceDef7_narrowEPNS_6ObjectE @1844
    _ZN5CORBA11StringValue10_PD_repoIdE @1845 DATA
    _ZN5CORBA11StringValue11_NP_marshalEPS0_R9cdrStream @1846
    _ZN5CORBA11StringValue11_copy_valueEv @1847
    _ZN5CORBA11StringValue11_ptrToValueEPKc @1848
    _ZN5CORBA11StringValue13_NP_unmarshalER9cdrStream @1849
    _ZN5CORBA11StringValue14_PR_copy_stateEPS0_ @1850
    _ZN5CORBA11StringValue19_PR_unmarshal_stateER9cdrStream @1851
    _ZN5CORBA11StringValue9_downcastEPNS_9ValueBaseE @1852
    _ZN5CORBA11StringValueD0Ev @1853
    _ZN5CORBA11StringValueD1Ev @1854
    _ZN5CORBA11StringValueD2Ev @1855
    _ZN5CORBA11UnionMemberD1Ev @1856
    _ZN5CORBA11UnionMemberlSER9cdrStream @1857
    _ZN5CORBA11ValueBoxDef10_PD_repoIdE @1858 DATA
    _ZN5CORBA11ValueBoxDef10_duplicateEPNS_19_objref_ValueBoxDefE @1859
    _ZN5CORBA11ValueBoxDef17_unchecked_narrowEPNS_6ObjectE @1860
    _ZN5CORBA11ValueBoxDef4_nilEv @1861
    _ZN5CORBA11ValueBoxDef7_narrowEPNS_6ObjectE @1862
    _ZN5CORBA11ValueMemberD1Ev @1863
    _ZN5CORBA11ValueMemberlSER9cdrStream @1864
    _ZN5CORBA11_tc_BAD_QOSE @1865 DATA
    _ZN5CORBA11_tc_CharSeqE @1866 DATA
    _ZN5CORBA11_tc_EnumDefE @1867 DATA
    _ZN5CORBA11_tc_IDLTypeE @1868 DATA
    _ZN5CORBA11_tc_LongSeqE @1869 DATA
    _ZN5CORBA11_tc_MARSHALE @1870 DATA
    _ZN5CORBA11_tc_TIMEOUTE @1871 DATA
    _ZN5CORBA11_tc_UNKNOWNE @1872 DATA
    _ZN5CORBA11_tc_booleanE @1873 DATA
    _ZN5CORBA11_tc_wstringE @1874 DATA
    _ZN5CORBA12AbstractBase10_PD_repoIdE @1875 DATA
    _ZN5CORBA12AbstractBase10_duplicateEPS0_ @1876
    _ZN5CORBA12AbstractBase10_to_objectEv @1877
    _ZN5CORBA12AbstractBase12_NP_to_valueEv @1878
    _ZN5CORBA12AbstractBase13_NP_to_objectEv @1879
    _ZN5CORBA12AbstractBase4_nilEv @1880
    _ZN5CORBA12AbstractBase7_narrowEPS0_ @1881
    _ZN5CORBA12AbstractBaseC1ERKS0_ @1882
    _ZN5CORBA12AbstractBaseC1Ev @1883
    _ZN5CORBA12AbstractBaseC2ERKS0_ @1884
    _ZN5CORBA12AbstractBaseC2Ev @1885
    _ZN5CORBA12AbstractBaseD0Ev @1886
    _ZN5CORBA12AbstractBaseD1Ev @1887
    _ZN5CORBA12AbstractBaseD2Ev @1888
    _ZN5CORBA12AttributeDef10_PD_repoIdE @1889 DATA
    _ZN5CORBA12AttributeDef10_duplicateEPNS_20_objref_AttributeDefE @1890
    _ZN5CORBA12AttributeDef17_unchecked_narrowEPNS_6ObjectE @1891
    _ZN5CORBA12AttributeDef4_nilEv @1892
    _ZN5CORBA12AttributeDef7_narrowEPNS_6ObjectE @1893
    _ZN5CORBA12ContextIdSeqD1Ev @1894
    _ZN5CORBA12ExceptionDef10_PD_repoIdE @1895 DATA
    _ZN5CORBA12ExceptionDef10_duplicateEPNS_20_objref_ExceptionDefE @1896
    _ZN5CORBA12ExceptionDef17_unchecked_narrowEPNS_6ObjectE @1897
    _ZN5CORBA12ExceptionDef4_nilEv @1898
    _ZN5CORBA12ExceptionDef7_narrowEPNS_6ObjectE @1899
    _ZN5CORBA12FloatSeq_varD1Ev @1900
    _ZN5CORBA12InterfaceDef10_PD_repoIdE @1901 DATA
    _ZN5CORBA12InterfaceDef10_duplicateEPNS_20_objref_InterfaceDefE @1902
    _ZN5CORBA12InterfaceDef17_unchecked_narrowEPNS_6ObjectE @1903
    _ZN5CORBA12InterfaceDef24FullInterfaceDescriptionD1Ev @1904
    _ZN5CORBA12InterfaceDef24FullInterfaceDescriptionlSER9cdrStream @1905
    _ZN5CORBA12InterfaceDef28_tc_FullInterfaceDescriptionE @1906 DATA
    _ZN5CORBA12InterfaceDef4_nilEv @1907
    _ZN5CORBA12InterfaceDef7_narrowEPNS_6ObjectE @1908
    _ZN5CORBA12OctetSeq_varD1Ev @1909
    _ZN5CORBA12OperationDef10_PD_repoIdE @1910 DATA
    _ZN5CORBA12OperationDef10_duplicateEPNS_20_objref_OperationDefE @1911
    _ZN5CORBA12OperationDef17_unchecked_narrowEPNS_6ObjectE @1912
    _ZN5CORBA12OperationDef4_nilEv @1913
    _ZN5CORBA12OperationDef7_narrowEPNS_6ObjectE @1914
    _ZN5CORBA12PrimitiveDef10_PD_repoIdE @1915 DATA
    _ZN5CORBA12PrimitiveDef10_duplicateEPNS_20_objref_PrimitiveDefE @1916
    _ZN5CORBA12PrimitiveDef17_unchecked_narrowEPNS_6ObjectE @1917
    _ZN5CORBA12PrimitiveDef4_nilEv @1918
    _ZN5CORBA12PrimitiveDef7_narrowEPNS_6ObjectE @1919
    _ZN5CORBA12ShortSeq_varD1Ev @1920
    _ZN5CORBA12StructMemberD1Ev @1921
    _ZN5CORBA12StructMemberlSER9cdrStream @1922
    _ZN5CORBA12ULongSeq_varD1Ev @1923
    _ZN5CORBA12WCharSeq_varD1Ev @1924
    _ZN5CORBA12WStringValue10_PD_repoIdE @1925 DATA
    _ZN5CORBA12WStringValue11_NP_marshalEPS0_R9cdrStream @1926
    _ZN5CORBA12WStringValue11_copy_valueEv @1927
    _ZN5CORBA12WStringValue11_ptrToValueEPKc @1928
    _ZN5CORBA12WStringValue13_NP_unmarshalER9cdrStream @1929
    _ZN5CORBA12WStringValue14_PR_copy_stateEPS0_ @1930
    _ZN5CORBA12WStringValue19_PR_unmarshal_stateER9cdrStream @1931
    _ZN5CORBA12WStringValue9_downcastEPNS_9ValueBaseE @1932
    _ZN5CORBA12WStringValueD0Ev @1933
    _ZN5CORBA12WStringValueD1Ev @1934
    _ZN5CORBA12WStringValueD2Ev @1935
    _ZN5CORBA12_pof_EnumDef9newObjRefEP7omniIORP12omniIdentity @1936
    _ZN5CORBA12_pof_EnumDefD0Ev @1937
    _ZN5CORBA12_pof_EnumDefD1Ev @1938
    _ZN5CORBA12_pof_EnumDefD2Ev @1939
    _ZN5CORBA12_pof_IDLType9newObjRefEP7omniIORP12omniIdentity @1940
    _ZN5CORBA12_pof_IDLTypeD0Ev @1941
    _ZN5CORBA12_pof_IDLTypeD1Ev @1942
    _ZN5CORBA12_pof_IDLTypeD2Ev @1943
    _ZN5CORBA12_tc_AliasDefE @1944 DATA
    _ZN5CORBA12_tc_ArrayDefE @1945 DATA
    _ZN5CORBA12_tc_FREE_MEME @1946 DATA
    _ZN5CORBA12_tc_FixedDefE @1947 DATA
    _ZN5CORBA12_tc_FloatSeqE @1948 DATA
    _ZN5CORBA12_tc_INTERNALE @1949 DATA
    _ZN5CORBA12_tc_INV_FLAGE @1950 DATA
    _ZN5CORBA12_tc_IRObjectE @1951 DATA
    _ZN5CORBA12_tc_OctetSeqE @1952 DATA
    _ZN5CORBA12_tc_ShortSeqE @1953 DATA
    _ZN5CORBA12_tc_TypeCodeE @1954 DATA
    _ZN5CORBA12_tc_ULongSeqE @1955 DATA
    _ZN5CORBA12_tc_UnionDefE @1956 DATA
    _ZN5CORBA12_tc_ValueDefE @1957 DATA
    _ZN5CORBA12_tc_WCharSeqE @1958 DATA
    _ZN5CORBA12_tc_longlongE @1959 DATA
    _ZN5CORBA13DoubleSeq_varD1Ev @1960
    _ZN5CORBA13EnumMemberSeqD1Ev @1961
    _ZN5CORBA13ExceptionList10_duplicateEPS0_ @1962
    _ZN5CORBA13ExceptionList4_nilEv @1963
    _ZN5CORBA13ExceptionList6Bounds10_PD_repoIdE @1964 DATA
    _ZN5CORBA13ExceptionList6Bounds13insertToAnyFnE @1965 DATA
    _ZN5CORBA13ExceptionList6Bounds16insertToAnyFnNCPE @1966 DATA
    _ZN5CORBA13ExceptionList6Bounds9_downcastEPKNS_9ExceptionE @1967
    _ZN5CORBA13ExceptionList6Bounds9_downcastEPNS_9ExceptionE @1968
    _ZN5CORBA13ExceptionList6BoundsD0Ev @1969
    _ZN5CORBA13ExceptionList6BoundsD1Ev @1970
    _ZN5CORBA13ExceptionList6BoundsD2Ev @1971
    _ZN5CORBA13ExceptionList8PR_magicE @1972 DATA
    _ZN5CORBA13ExceptionListD0Ev @1973
    _ZN5CORBA13ExceptionListD1Ev @1974
    _ZN5CORBA13ExceptionListD2Ev @1975
    _ZN5CORBA13Object_MemberlSER9cdrStream @1976
    _ZN5CORBA13ServerRequestD0Ev @1977
    _ZN5CORBA13ServerRequestD1Ev @1978
    _ZN5CORBA13ServerRequestD2Ev @1979
    _ZN5CORBA13UShortSeq_varD1Ev @1980
    _ZN5CORBA13ValueBase_varD1Ev @1981
    _ZN5CORBA13_impl_EnumDef15_ptrToInterfaceEPKc @1982
    _ZN5CORBA13_impl_EnumDef18_mostDerivedRepoIdEv @1983
    _ZN5CORBA13_impl_EnumDef9_dispatchER14omniCallHandle @1984
    _ZN5CORBA13_impl_EnumDefD0Ev @1985
    _ZN5CORBA13_impl_EnumDefD1Ev @1986
    _ZN5CORBA13_impl_EnumDefD2Ev @1987
    _ZN5CORBA13_impl_IDLType15_ptrToInterfaceEPKc @1988
    _ZN5CORBA13_impl_IDLType18_mostDerivedRepoIdEv @1989
    _ZN5CORBA13_impl_IDLType9_dispatchER14omniCallHandle @1990
    _ZN5CORBA13_impl_IDLTypeD0Ev @1991
    _ZN5CORBA13_impl_IDLTypeD1Ev @1992
    _ZN5CORBA13_impl_IDLTypeD2Ev @1993
    _ZN5CORBA13_pof_AliasDef9newObjRefEP7omniIORP12omniIdentity @1994
    _ZN5CORBA13_pof_AliasDefD0Ev @1995
    _ZN5CORBA13_pof_AliasDefD1Ev @1996
    _ZN5CORBA13_pof_AliasDefD2Ev @1997
    _ZN5CORBA13_pof_ArrayDef9newObjRefEP7omniIORP12omniIdentity @1998
    _ZN5CORBA13_pof_ArrayDefD0Ev @1999
    _ZN5CORBA13_pof_ArrayDefD1Ev @2000
    _ZN5CORBA13_pof_ArrayDefD2Ev @2001
    _ZN5CORBA13_pof_FixedDef9newObjRefEP7omniIORP12omniIdentity @2002
    _ZN5CORBA13_pof_FixedDefD0Ev @2003
    _ZN5CORBA13_pof_FixedDefD1Ev @2004
    _ZN5CORBA13_pof_FixedDefD2Ev @2005
    _ZN5CORBA13_pof_IRObject9newObjRefEP7omniIORP12omniIdentity @2006
    _ZN5CORBA13_pof_IRObjectD0Ev @2007
    _ZN5CORBA13_pof_IRObjectD1Ev @2008
    _ZN5CORBA13_pof_IRObjectD2Ev @2009
    _ZN5CORBA13_pof_UnionDef9newObjRefEP7omniIORP12omniIdentity @2010
    _ZN5CORBA13_pof_UnionDefD0Ev @2011
    _ZN5CORBA13_pof_UnionDefD1Ev @2012
    _ZN5CORBA13_pof_UnionDefD2Ev @2013
    _ZN5CORBA13_pof_ValueDef9newObjRefEP7omniIORP12omniIdentity @2014
    _ZN5CORBA13_pof_ValueDefD0Ev @2015
    _ZN5CORBA13_pof_ValueDefD1Ev @2016
    _ZN5CORBA13_pof_ValueDefD2Ev @2017
    _ZN5CORBA13_tc_BAD_PARAME @2018 DATA
    _ZN5CORBA13_tc_ContainedE @2019 DATA
    _ZN5CORBA13_tc_ContainerE @2020 DATA
    _ZN5CORBA13_tc_DoubleSeqE @2021 DATA
    _ZN5CORBA13_tc_IMP_LIMITE @2022 DATA
    _ZN5CORBA13_tc_INV_IDENTE @2023 DATA
    _ZN5CORBA13_tc_ModuleDefE @2024 DATA
    _ZN5CORBA13_tc_NO_MEMORYE @2025 DATA
    _ZN5CORBA13_tc_NativeDefE @2026 DATA
    _ZN5CORBA13_tc_PrincipalE @2027 DATA
    _ZN5CORBA13_tc_StringDefE @2028 DATA
    _ZN5CORBA13_tc_StringSeqE @2029 DATA
    _ZN5CORBA13_tc_StructDefE @2030 DATA
    _ZN5CORBA13_tc_TRANSIENTE @2031 DATA
    _ZN5CORBA13_tc_UShortSeqE @2032 DATA
    _ZN5CORBA13_tc_ulonglongE @2033 DATA
    _ZN5CORBA14BooleanSeq_varD1Ev @2034
    _ZN5CORBA14EnumDef_Helper13marshalObjRefEPNS_15_objref_EnumDefER9cdrStream @2035
    _ZN5CORBA14EnumDef_Helper15unmarshalObjRefER9cdrStream @2036
    _ZN5CORBA14EnumDef_Helper4_nilEv @2037
    _ZN5CORBA14EnumDef_Helper6is_nilEPNS_15_objref_EnumDefE @2038
    _ZN5CORBA14EnumDef_Helper7releaseEPNS_15_objref_EnumDefE @2039
    _ZN5CORBA14EnumDef_Helper9duplicateEPNS_15_objref_EnumDefE @2040
    _ZN5CORBA14IDLType_Helper13marshalObjRefEPNS_15_objref_IDLTypeER9cdrStream @2041
    _ZN5CORBA14IDLType_Helper15unmarshalObjRefER9cdrStream @2042
    _ZN5CORBA14IDLType_Helper4_nilEv @2043
    _ZN5CORBA14IDLType_Helper6is_nilEPNS_15_objref_IDLTypeE @2044
    _ZN5CORBA14IDLType_Helper7releaseEPNS_15_objref_IDLTypeE @2045
    _ZN5CORBA14IDLType_Helper9duplicateEPNS_15_objref_IDLTypeE @2046
    _ZN5CORBA14InitializerSeqD1Ev @2047
    _ZN5CORBA14ValueMemberDef10_PD_repoIdE @2048 DATA
    _ZN5CORBA14ValueMemberDef10_duplicateEPNS_22_objref_ValueMemberDefE @2049
    _ZN5CORBA14ValueMemberDef17_unchecked_narrowEPNS_6ObjectE @2050
    _ZN5CORBA14ValueMemberDef4_nilEv @2051
    _ZN5CORBA14ValueMemberDef7_narrowEPNS_6ObjectE @2052
    _ZN5CORBA14ValueMemberSeqD1Ev @2053
    _ZN5CORBA14_impl_AliasDef15_ptrToInterfaceEPKc @2054
    _ZN5CORBA14_impl_AliasDef18_mostDerivedRepoIdEv @2055
    _ZN5CORBA14_impl_AliasDef9_dispatchER14omniCallHandle @2056
    _ZN5CORBA14_impl_AliasDefD0Ev @2057
    _ZN5CORBA14_impl_AliasDefD1Ev @2058
    _ZN5CORBA14_impl_AliasDefD2Ev @2059
    _ZN5CORBA14_impl_ArrayDef15_ptrToInterfaceEPKc @2060
    _ZN5CORBA14_impl_ArrayDef18_mostDerivedRepoIdEv @2061
    _ZN5CORBA14_impl_ArrayDef9_dispatchER14omniCallHandle @2062
    _ZN5CORBA14_impl_ArrayDefD0Ev @2063
    _ZN5CORBA14_impl_ArrayDefD1Ev @2064
    _ZN5CORBA14_impl_ArrayDefD2Ev @2065
    _ZN5CORBA14_impl_FixedDef15_ptrToInterfaceEPKc @2066
    _ZN5CORBA14_impl_FixedDef18_mostDerivedRepoIdEv @2067
    _ZN5CORBA14_impl_FixedDef9_dispatchER14omniCallHandle @2068
    _ZN5CORBA14_impl_FixedDefD0Ev @2069
    _ZN5CORBA14_impl_FixedDefD1Ev @2070
    _ZN5CORBA14_impl_FixedDefD2Ev @2071
    _ZN5CORBA14_impl_IRObject15_ptrToInterfaceEPKc @2072
    _ZN5CORBA14_impl_IRObject18_mostDerivedRepoIdEv @2073
    _ZN5CORBA14_impl_IRObject9_dispatchER14omniCallHandle @2074
    _ZN5CORBA14_impl_IRObjectD0Ev @2075
    _ZN5CORBA14_impl_IRObjectD1Ev @2076
    _ZN5CORBA14_impl_IRObjectD2Ev @2077
    _ZN5CORBA14_impl_UnionDef15_ptrToInterfaceEPKc @2078
    _ZN5CORBA14_impl_UnionDef18_mostDerivedRepoIdEv @2079
    _ZN5CORBA14_impl_UnionDef9_dispatchER14omniCallHandle @2080
    _ZN5CORBA14_impl_UnionDefD0Ev @2081
    _ZN5CORBA14_impl_UnionDefD1Ev @2082
    _ZN5CORBA14_impl_UnionDefD2Ev @2083
    _ZN5CORBA14_impl_ValueDef15_ptrToInterfaceEPKc @2084
    _ZN5CORBA14_impl_ValueDef18_mostDerivedRepoIdEv @2085
    _ZN5CORBA14_impl_ValueDef9_dispatchER14omniCallHandle @2086
    _ZN5CORBA14_impl_ValueDefD0Ev @2087
    _ZN5CORBA14_impl_ValueDefD1Ev @2088
    _ZN5CORBA14_impl_ValueDefD2Ev @2089
    _ZN5CORBA14_pof_Contained9newObjRefEP7omniIORP12omniIdentity @2090
    _ZN5CORBA14_pof_ContainedD0Ev @2091
    _ZN5CORBA14_pof_ContainedD1Ev @2092
    _ZN5CORBA14_pof_ContainedD2Ev @2093
    _ZN5CORBA14_pof_Container9newObjRefEP7omniIORP12omniIdentity @2094
    _ZN5CORBA14_pof_ContainerD0Ev @2095
    _ZN5CORBA14_pof_ContainerD1Ev @2096
    _ZN5CORBA14_pof_ContainerD2Ev @2097
    _ZN5CORBA14_pof_ModuleDef9newObjRefEP7omniIORP12omniIdentity @2098
    _ZN5CORBA14_pof_ModuleDefD0Ev @2099
    _ZN5CORBA14_pof_ModuleDefD1Ev @2100
    _ZN5CORBA14_pof_ModuleDefD2Ev @2101
    _ZN5CORBA14_pof_NativeDef9newObjRefEP7omniIORP12omniIdentity @2102
    _ZN5CORBA14_pof_NativeDefD0Ev @2103
    _ZN5CORBA14_pof_NativeDefD1Ev @2104
    _ZN5CORBA14_pof_NativeDefD2Ev @2105
    _ZN5CORBA14_pof_StringDef9newObjRefEP7omniIORP12omniIdentity @2106
    _ZN5CORBA14_pof_StringDefD0Ev @2107
    _ZN5CORBA14_pof_StringDefD1Ev @2108
    _ZN5CORBA14_pof_StringDefD2Ev @2109
    _ZN5CORBA14_pof_StructDef9newObjRefEP7omniIORP12omniIdentity @2110
    _ZN5CORBA14_pof_StructDefD0Ev @2111
    _ZN5CORBA14_pof_StructDefD1Ev @2112
    _ZN5CORBA14_pof_StructDefD2Ev @2113
    _ZN5CORBA14_tc_BooleanSeqE @2114 DATA
    _ZN5CORBA14_tc_INITIALIZEE @2115 DATA
    _ZN5CORBA14_tc_INTF_REPOSE @2116 DATA
    _ZN5CORBA14_tc_INV_OBJREFE @2117 DATA
    _ZN5CORBA14_tc_INV_POLICYE @2118 DATA
    _ZN5CORBA14_tc_IdentifierE @2119 DATA
    _ZN5CORBA14_tc_NamedValueE @2120 DATA
    _ZN5CORBA14_tc_RepositoryE @2121 DATA
    _ZN5CORBA14_tc_ScopedNameE @2122 DATA
    _ZN5CORBA14_tc_TypedefDefE @2123 DATA
    _ZN5CORBA14_tc_VisibilityE @2124 DATA
    _ZN5CORBA14_tc_WStringSeqE @2125 DATA
    _ZN5CORBA14_tc_WstringDefE @2126 DATA
    _ZN5CORBA14_tc_longdoubleE @2127 DATA
    _ZN5CORBA15AliasDef_Helper13marshalObjRefEPNS_16_objref_AliasDefER9cdrStream @2128
    _ZN5CORBA15AliasDef_Helper15unmarshalObjRefER9cdrStream @2129
    _ZN5CORBA15AliasDef_Helper4_nilEv @2130
    _ZN5CORBA15AliasDef_Helper6is_nilEPNS_16_objref_AliasDefE @2131
    _ZN5CORBA15AliasDef_Helper7releaseEPNS_16_objref_AliasDefE @2132
    _ZN5CORBA15AliasDef_Helper9duplicateEPNS_16_objref_AliasDefE @2133
    _ZN5CORBA15ArrayDef_Helper13marshalObjRefEPNS_16_objref_ArrayDefER9cdrStream @2134
    _ZN5CORBA15ArrayDef_Helper15unmarshalObjRefER9cdrStream @2135
    _ZN5CORBA15ArrayDef_Helper4_nilEv @2136
    _ZN5CORBA15ArrayDef_Helper6is_nilEPNS_16_objref_ArrayDefE @2137
    _ZN5CORBA15ArrayDef_Helper7releaseEPNS_16_objref_ArrayDefE @2138
    _ZN5CORBA15ArrayDef_Helper9duplicateEPNS_16_objref_ArrayDefE @2139
    _ZN5CORBA15FixedDef_Helper13marshalObjRefEPNS_16_objref_FixedDefER9cdrStream @2140
    _ZN5CORBA15FixedDef_Helper15unmarshalObjRefER9cdrStream @2141
    _ZN5CORBA15FixedDef_Helper4_nilEv @2142
    _ZN5CORBA15FixedDef_Helper6is_nilEPNS_16_objref_FixedDefE @2143
    _ZN5CORBA15FixedDef_Helper7releaseEPNS_16_objref_FixedDefE @2144
    _ZN5CORBA15FixedDef_Helper9duplicateEPNS_16_objref_FixedDefE @2145
    _ZN5CORBA15IRObject_Helper13marshalObjRefEPNS_16_objref_IRObjectER9cdrStream @2146
    _ZN5CORBA15IRObject_Helper15unmarshalObjRefER9cdrStream @2147
    _ZN5CORBA15IRObject_Helper4_nilEv @2148
    _ZN5CORBA15IRObject_Helper6is_nilEPNS_16_objref_IRObjectE @2149
    _ZN5CORBA15IRObject_Helper7releaseEPNS_16_objref_IRObjectE @2150
    _ZN5CORBA15IRObject_Helper9duplicateEPNS_16_objref_IRObjectE @2151
    _ZN5CORBA15LongLongSeq_varD1Ev @2152
    _ZN5CORBA15RepositoryIdSeqD1Ev @2153
    _ZN5CORBA15TypeCode_member3outEv @2154
    _ZN5CORBA15TypeCode_member5_retnEv @2155
    _ZN5CORBA15TypeCode_memberC1ERKS0_ @2156
    _ZN5CORBA15TypeCode_memberC1Ev @2157
    _ZN5CORBA15TypeCode_memberC2ERKS0_ @2158
    _ZN5CORBA15TypeCode_memberC2Ev @2159
    _ZN5CORBA15TypeCode_memberD1Ev @2160
    _ZN5CORBA15TypeCode_memberD2Ev @2161
    _ZN5CORBA15TypeCode_memberaSEPNS_8TypeCodeE @2162
    _ZN5CORBA15TypeCode_memberaSERKNS_12TypeCode_varE @2163
    _ZN5CORBA15TypeCode_memberaSERKS0_ @2164
    _ZN5CORBA15TypeCode_memberlSER9cdrStream @2165
    _ZN5CORBA15TypeDescriptionlSER9cdrStream @2166
    _ZN5CORBA15UnionDef_Helper13marshalObjRefEPNS_16_objref_UnionDefER9cdrStream @2167
    _ZN5CORBA15UnionDef_Helper15unmarshalObjRefER9cdrStream @2168
    _ZN5CORBA15UnionDef_Helper4_nilEv @2169
    _ZN5CORBA15UnionDef_Helper6is_nilEPNS_16_objref_UnionDefE @2170
    _ZN5CORBA15UnionDef_Helper7releaseEPNS_16_objref_UnionDefE @2171
    _ZN5CORBA15UnionDef_Helper9duplicateEPNS_16_objref_UnionDefE @2172
    _ZN5CORBA15ValueDefSeq_varD1Ev @2173
    _ZN5CORBA15ValueDef_Helper13marshalObjRefEPNS_16_objref_ValueDefER9cdrStream @2174
    _ZN5CORBA15ValueDef_Helper15unmarshalObjRefER9cdrStream @2175
    _ZN5CORBA15ValueDef_Helper4_nilEv @2176
    _ZN5CORBA15ValueDef_Helper6is_nilEPNS_16_objref_ValueDefE @2177
    _ZN5CORBA15ValueDef_Helper7releaseEPNS_16_objref_ValueDefE @2178
    _ZN5CORBA15ValueDef_Helper9duplicateEPNS_16_objref_ValueDefE @2179
    _ZN5CORBA15_impl_Contained15_ptrToInterfaceEPKc @2180
    _ZN5CORBA15_impl_Contained18_mostDerivedRepoIdEv @2181
    _ZN5CORBA15_impl_Contained9_dispatchER14omniCallHandle @2182
    _ZN5CORBA15_impl_ContainedD0Ev @2183
    _ZN5CORBA15_impl_ContainedD1Ev @2184
    _ZN5CORBA15_impl_ContainedD2Ev @2185
    _ZN5CORBA15_impl_Container15_ptrToInterfaceEPKc @2186
    _ZN5CORBA15_impl_Container18_mostDerivedRepoIdEv @2187
    _ZN5CORBA15_impl_Container9_dispatchER14omniCallHandle @2188
    _ZN5CORBA15_impl_ContainerD0Ev @2189
    _ZN5CORBA15_impl_ContainerD1Ev @2190
    _ZN5CORBA15_impl_ContainerD2Ev @2191
    _ZN5CORBA15_impl_ModuleDef15_ptrToInterfaceEPKc @2192
    _ZN5CORBA15_impl_ModuleDef18_mostDerivedRepoIdEv @2193
    _ZN5CORBA15_impl_ModuleDef9_dispatchER14omniCallHandle @2194
    _ZN5CORBA15_impl_ModuleDefD0Ev @2195
    _ZN5CORBA15_impl_ModuleDefD1Ev @2196
    _ZN5CORBA15_impl_ModuleDefD2Ev @2197
    _ZN5CORBA15_impl_NativeDef15_ptrToInterfaceEPKc @2198
    _ZN5CORBA15_impl_NativeDef18_mostDerivedRepoIdEv @2199
    _ZN5CORBA15_impl_NativeDef9_dispatchER14omniCallHandle @2200
    _ZN5CORBA15_impl_NativeDefD0Ev @2201
    _ZN5CORBA15_impl_NativeDefD1Ev @2202
    _ZN5CORBA15_impl_NativeDefD2Ev @2203
    _ZN5CORBA15_impl_StringDef15_ptrToInterfaceEPKc @2204
    _ZN5CORBA15_impl_StringDef18_mostDerivedRepoIdEv @2205
    _ZN5CORBA15_impl_StringDef9_dispatchER14omniCallHandle @2206
    _ZN5CORBA15_impl_StringDefD0Ev @2207
    _ZN5CORBA15_impl_StringDefD1Ev @2208
    _ZN5CORBA15_impl_StringDefD2Ev @2209
    _ZN5CORBA15_impl_StructDef15_ptrToInterfaceEPKc @2210
    _ZN5CORBA15_impl_StructDef18_mostDerivedRepoIdEv @2211
    _ZN5CORBA15_impl_StructDef9_dispatchER14omniCallHandle @2212
    _ZN5CORBA15_impl_StructDefD0Ev @2213
    _ZN5CORBA15_impl_StructDefD1Ev @2214
    _ZN5CORBA15_impl_StructDefD2Ev @2215
    _ZN5CORBA15_objref_EnumDef12_ptrToObjRefEPKc @2216
    _ZN5CORBA15_objref_EnumDef7membersERKNS_13EnumMemberSeqE @2217
    _ZN5CORBA15_objref_EnumDef7membersEv @2218
    _ZN5CORBA15_objref_EnumDefC1EP7omniIORP12omniIdentity @2219
    _ZN5CORBA15_objref_EnumDefC2EP7omniIORP12omniIdentity @2220
    _ZN5CORBA15_objref_EnumDefD0Ev @2221
    _ZN5CORBA15_objref_EnumDefD1Ev @2222
    _ZN5CORBA15_objref_EnumDefD2Ev @2223
    _ZN5CORBA15_objref_IDLType12_ptrToObjRefEPKc @2224
    _ZN5CORBA15_objref_IDLType4typeEv @2225
    _ZN5CORBA15_objref_IDLTypeC1EP7omniIORP12omniIdentity @2226
    _ZN5CORBA15_objref_IDLTypeC2EP7omniIORP12omniIdentity @2227
    _ZN5CORBA15_objref_IDLTypeC2Ev @2228
    _ZN5CORBA15_objref_IDLTypeD0Ev @2229
    _ZN5CORBA15_objref_IDLTypeD1Ev @2230
    _ZN5CORBA15_objref_IDLTypeD2Ev @2231
    _ZN5CORBA15_pof_Repository9newObjRefEP7omniIORP12omniIdentity @2232
    _ZN5CORBA15_pof_RepositoryD0Ev @2233
    _ZN5CORBA15_pof_RepositoryD1Ev @2234
    _ZN5CORBA15_pof_RepositoryD2Ev @2235
    _ZN5CORBA15_pof_TypedefDef9newObjRefEP7omniIORP12omniIdentity @2236
    _ZN5CORBA15_pof_TypedefDefD0Ev @2237
    _ZN5CORBA15_pof_TypedefDefD1Ev @2238
    _ZN5CORBA15_pof_TypedefDefD2Ev @2239
    _ZN5CORBA15_pof_WstringDef9newObjRefEP7omniIORP12omniIdentity @2240
    _ZN5CORBA15_pof_WstringDefD0Ev @2241
    _ZN5CORBA15_pof_WstringDefD1Ev @2242
    _ZN5CORBA15_pof_WstringDefD2Ev @2243
    _ZN5CORBA15_tc_BAD_CONTEXTE @2244 DATA
    _ZN5CORBA15_tc_ConstantDefE @2245 DATA
    _ZN5CORBA15_tc_InitializerE @2246 DATA
    _ZN5CORBA15_tc_LongLongSeqE @2247 DATA
    _ZN5CORBA15_tc_NO_RESPONSEE @2248 DATA
    _ZN5CORBA15_tc_OBJ_ADAPTERE @2249 DATA
    _ZN5CORBA15_tc_PolicyErrorE @2250 DATA
    _ZN5CORBA15_tc_SequenceDefE @2251 DATA
    _ZN5CORBA15_tc_StringValueE @2252 DATA
    _ZN5CORBA15_tc_UnionMemberE @2253 DATA
    _ZN5CORBA15_tc_ValueBoxDefE @2254 DATA
    _ZN5CORBA15_tc_ValueDefSeqE @2255 DATA
    _ZN5CORBA15_tc_ValueMemberE @2256 DATA
    _ZN5CORBA15_tc_VersionSpecE @2257 DATA
    _ZN5CORBA16Contained_Helper13marshalObjRefEPNS_17_objref_ContainedER9cdrStream @2258
    _ZN5CORBA16Contained_Helper15unmarshalObjRefER9cdrStream @2259
    _ZN5CORBA16Contained_Helper4_nilEv @2260
    _ZN5CORBA16Contained_Helper6is_nilEPNS_17_objref_ContainedE @2261
    _ZN5CORBA16Contained_Helper7releaseEPNS_17_objref_ContainedE @2262
    _ZN5CORBA16Contained_Helper9duplicateEPNS_17_objref_ContainedE @2263
    _ZN5CORBA16Container_Helper13marshalObjRefEPNS_17_objref_ContainerER9cdrStream @2264
    _ZN5CORBA16Container_Helper15unmarshalObjRefER9cdrStream @2265
    _ZN5CORBA16Container_Helper4_nilEv @2266
    _ZN5CORBA16Container_Helper6is_nilEPNS_17_objref_ContainerE @2267
    _ZN5CORBA16Container_Helper7releaseEPNS_17_objref_ContainerE @2268
    _ZN5CORBA16Container_Helper9duplicateEPNS_17_objref_ContainerE @2269
    _ZN5CORBA16ContextIdSeq_varD1Ev @2270
    _ZN5CORBA16ModuleDef_Helper13marshalObjRefEPNS_17_objref_ModuleDefER9cdrStream @2271
    _ZN5CORBA16ModuleDef_Helper15unmarshalObjRefER9cdrStream @2272
    _ZN5CORBA16ModuleDef_Helper4_nilEv @2273
    _ZN5CORBA16ModuleDef_Helper6is_nilEPNS_17_objref_ModuleDefE @2274
    _ZN5CORBA16ModuleDef_Helper7releaseEPNS_17_objref_ModuleDefE @2275
    _ZN5CORBA16ModuleDef_Helper9duplicateEPNS_17_objref_ModuleDefE @2276
    _ZN5CORBA16NativeDef_Helper13marshalObjRefEPNS_17_objref_NativeDefER9cdrStream @2277
    _ZN5CORBA16NativeDef_Helper15unmarshalObjRefER9cdrStream @2278
    _ZN5CORBA16NativeDef_Helper4_nilEv @2279
    _ZN5CORBA16NativeDef_Helper6is_nilEPNS_17_objref_NativeDefE @2280
    _ZN5CORBA16NativeDef_Helper7releaseEPNS_17_objref_NativeDefE @2281
    _ZN5CORBA16NativeDef_Helper9duplicateEPNS_17_objref_NativeDefE @2282
    _ZN5CORBA16OpDescriptionSeqD1Ev @2283
    _ZN5CORBA16StringDef_Helper13marshalObjRefEPNS_17_objref_StringDefER9cdrStream @2284
    _ZN5CORBA16StringDef_Helper15unmarshalObjRefER9cdrStream @2285
    _ZN5CORBA16StringDef_Helper4_nilEv @2286
    _ZN5CORBA16StringDef_Helper6is_nilEPNS_17_objref_StringDefE @2287
    _ZN5CORBA16StringDef_Helper7releaseEPNS_17_objref_StringDefE @2288
    _ZN5CORBA16StringDef_Helper9duplicateEPNS_17_objref_StringDefE @2289
    _ZN5CORBA16StructDef_Helper13marshalObjRefEPNS_17_objref_StructDefER9cdrStream @2290
    _ZN5CORBA16StructDef_Helper15unmarshalObjRefER9cdrStream @2291
    _ZN5CORBA16StructDef_Helper4_nilEv @2292
    _ZN5CORBA16StructDef_Helper6is_nilEPNS_17_objref_StructDefE @2293
    _ZN5CORBA16StructDef_Helper7releaseEPNS_17_objref_StructDefE @2294
    _ZN5CORBA16StructDef_Helper9duplicateEPNS_17_objref_StructDefE @2295
    _ZN5CORBA16ULongLongSeq_varD1Ev @2296
    _ZN5CORBA16ValueDescriptionlSER9cdrStream @2297
    _ZN5CORBA16ValueFactoryBase11_remove_refEv @2298
    _ZN5CORBA16ValueFactoryBase13_ptrToFactoryEPKc @2299
    _ZN5CORBA16ValueFactoryBase8_add_refEv @2300
    _ZN5CORBA16ValueFactoryBase9_downcastEPS0_ @2301
    _ZN5CORBA16ValueFactoryBaseC1Ev @2302
    _ZN5CORBA16ValueFactoryBaseC2Ev @2303
    _ZN5CORBA16ValueFactoryBaseD0Ev @2304
    _ZN5CORBA16ValueFactoryBaseD1Ev @2305
    _ZN5CORBA16ValueFactoryBaseD2Ev @2306
    _ZN5CORBA16WrongTransaction10_PD_repoIdE @2307 DATA
    _ZN5CORBA16WrongTransaction13insertToAnyFnE @2308 DATA
    _ZN5CORBA16WrongTransaction16insertToAnyFnNCPE @2309 DATA
    _ZN5CORBA16WrongTransaction9_downcastEPKNS_9ExceptionE @2310
    _ZN5CORBA16WrongTransaction9_downcastEPNS_9ExceptionE @2311
    _ZN5CORBA16WrongTransactionD0Ev @2312
    _ZN5CORBA16WrongTransactionD1Ev @2313
    _ZN5CORBA16WrongTransactionD2Ev @2314
    _ZN5CORBA16_impl_Repository15_ptrToInterfaceEPKc @2315
    _ZN5CORBA16_impl_Repository18_mostDerivedRepoIdEv @2316
    _ZN5CORBA16_impl_Repository9_dispatchER14omniCallHandle @2317
    _ZN5CORBA16_impl_RepositoryD0Ev @2318
    _ZN5CORBA16_impl_RepositoryD1Ev @2319
    _ZN5CORBA16_impl_RepositoryD2Ev @2320
    _ZN5CORBA16_impl_TypedefDef15_ptrToInterfaceEPKc @2321
    _ZN5CORBA16_impl_TypedefDef18_mostDerivedRepoIdEv @2322
    _ZN5CORBA16_impl_TypedefDef9_dispatchER14omniCallHandle @2323
    _ZN5CORBA16_impl_TypedefDefD0Ev @2324
    _ZN5CORBA16_impl_TypedefDefD1Ev @2325
    _ZN5CORBA16_impl_TypedefDefD2Ev @2326
    _ZN5CORBA16_impl_WstringDef15_ptrToInterfaceEPKc @2327
    _ZN5CORBA16_impl_WstringDef18_mostDerivedRepoIdEv @2328
    _ZN5CORBA16_impl_WstringDef9_dispatchER14omniCallHandle @2329
    _ZN5CORBA16_impl_WstringDefD0Ev @2330
    _ZN5CORBA16_impl_WstringDefD1Ev @2331
    _ZN5CORBA16_impl_WstringDefD2Ev @2332
    _ZN5CORBA16_objref_AliasDef12_ptrToObjRefEPKc @2333
    _ZN5CORBA16_objref_AliasDef17original_type_defEPNS_15_objref_IDLTypeE @2334
    _ZN5CORBA16_objref_AliasDef17original_type_defEv @2335
    _ZN5CORBA16_objref_AliasDefC1EP7omniIORP12omniIdentity @2336
    _ZN5CORBA16_objref_AliasDefC2EP7omniIORP12omniIdentity @2337
    _ZN5CORBA16_objref_AliasDefD0Ev @2338
    _ZN5CORBA16_objref_AliasDefD1Ev @2339
    _ZN5CORBA16_objref_AliasDefD2Ev @2340
    _ZN5CORBA16_objref_ArrayDef12_ptrToObjRefEPKc @2341
    _ZN5CORBA16_objref_ArrayDef12element_typeEv @2342
    _ZN5CORBA16_objref_ArrayDef16element_type_defEPNS_15_objref_IDLTypeE @2343
    _ZN5CORBA16_objref_ArrayDef16element_type_defEv @2344
    _ZN5CORBA16_objref_ArrayDef6lengthEm @2345
    _ZN5CORBA16_objref_ArrayDef6lengthEv @2346
    _ZN5CORBA16_objref_ArrayDefC1EP7omniIORP12omniIdentity @2347
    _ZN5CORBA16_objref_ArrayDefC2EP7omniIORP12omniIdentity @2348
    _ZN5CORBA16_objref_ArrayDefD0Ev @2349
    _ZN5CORBA16_objref_ArrayDefD1Ev @2350
    _ZN5CORBA16_objref_ArrayDefD2Ev @2351
    _ZN5CORBA16_objref_FixedDef12_ptrToObjRefEPKc @2352
    _ZN5CORBA16_objref_FixedDef5scaleEs @2353
    _ZN5CORBA16_objref_FixedDef5scaleEv @2354
    _ZN5CORBA16_objref_FixedDef6digitsEt @2355
    _ZN5CORBA16_objref_FixedDef6digitsEv @2356
    _ZN5CORBA16_objref_FixedDefC1EP7omniIORP12omniIdentity @2357
    _ZN5CORBA16_objref_FixedDefC2EP7omniIORP12omniIdentity @2358
    _ZN5CORBA16_objref_FixedDefD0Ev @2359
    _ZN5CORBA16_objref_FixedDefD1Ev @2360
    _ZN5CORBA16_objref_FixedDefD2Ev @2361
    _ZN5CORBA16_objref_IRObject12_ptrToObjRefEPKc @2362
    _ZN5CORBA16_objref_IRObject7destroyEv @2363
    _ZN5CORBA16_objref_IRObject8def_kindEv @2364
    _ZN5CORBA16_objref_IRObjectC1EP7omniIORP12omniIdentity @2365
    _ZN5CORBA16_objref_IRObjectC2EP7omniIORP12omniIdentity @2366
    _ZN5CORBA16_objref_IRObjectD0Ev @2367
    _ZN5CORBA16_objref_IRObjectD1Ev @2368
    _ZN5CORBA16_objref_IRObjectD2Ev @2369
    _ZN5CORBA16_objref_UnionDef12_ptrToObjRefEPKc @2370
    _ZN5CORBA16_objref_UnionDef18discriminator_typeEv @2371
    _ZN5CORBA16_objref_UnionDef22discriminator_type_defEPNS_15_objref_IDLTypeE @2372
    _ZN5CORBA16_objref_UnionDef22discriminator_type_defEv @2373
    _ZN5CORBA16_objref_UnionDef7membersERKNS_14UnionMemberSeqE @2374
    _ZN5CORBA16_objref_UnionDef7membersEv @2375
    _ZN5CORBA16_objref_UnionDefC1EP7omniIORP12omniIdentity @2376
    _ZN5CORBA16_objref_UnionDefC2EP7omniIORP12omniIdentity @2377
    _ZN5CORBA16_objref_UnionDefD0Ev @2378
    _ZN5CORBA16_objref_UnionDefD1Ev @2379
    _ZN5CORBA16_objref_UnionDefD2Ev @2380
    _ZN5CORBA16_objref_ValueDef10base_valueEPS0_ @2381
    _ZN5CORBA16_objref_ValueDef10base_valueEv @2382
    _ZN5CORBA16_objref_ValueDef11is_abstractEb @2383
    _ZN5CORBA16_objref_ValueDef11is_abstractEv @2384
    _ZN5CORBA16_objref_ValueDef12_ptrToObjRefEPKc @2385
    _ZN5CORBA16_objref_ValueDef12initializersERKNS_14InitializerSeqE @2386
    _ZN5CORBA16_objref_ValueDef12initializersEv @2387
    _ZN5CORBA16_objref_ValueDef14describe_valueEv @2388
    _ZN5CORBA16_objref_ValueDef14is_truncatableEb @2389
    _ZN5CORBA16_objref_ValueDef14is_truncatableEv @2390
    _ZN5CORBA16_objref_ValueDef16create_attributeEPKcS2_S2_PNS_15_objref_IDLTypeENS_13AttributeModeE @2391
    _ZN5CORBA16_objref_ValueDef16create_operationEPKcS2_S2_PNS_15_objref_IDLTypeENS_13OperationModeERKNS_17ParDescriptionSeqERKNS_15ExceptionDefSeqERKNS_12ContextIdSeqE @2392
    _ZN5CORBA16_objref_ValueDef19create_value_memberEPKcS2_S2_PNS_15_objref_IDLTypeEs @2393
    _ZN5CORBA16_objref_ValueDef20abstract_base_valuesERKNS_11ValueDefSeqE @2394
    _ZN5CORBA16_objref_ValueDef20abstract_base_valuesEv @2395
    _ZN5CORBA16_objref_ValueDef20supported_interfacesERKNS_15InterfaceDefSeqE @2396
    _ZN5CORBA16_objref_ValueDef20supported_interfacesEv @2397
    _ZN5CORBA16_objref_ValueDef4is_aEPKc @2398
    _ZN5CORBA16_objref_ValueDef9is_customEb @2399
    _ZN5CORBA16_objref_ValueDef9is_customEv @2400
    _ZN5CORBA16_objref_ValueDefC1EP7omniIORP12omniIdentity @2401
    _ZN5CORBA16_objref_ValueDefC2EP7omniIORP12omniIdentity @2402
    _ZN5CORBA16_objref_ValueDefD0Ev @2403
    _ZN5CORBA16_objref_ValueDefD1Ev @2404
    _ZN5CORBA16_objref_ValueDefD2Ev @2405
    _ZN5CORBA16_pof_ConstantDef9newObjRefEP7omniIORP12omniIdentity @2406
    _ZN5CORBA16_pof_ConstantDefD0Ev @2407
    _ZN5CORBA16_pof_ConstantDefD1Ev @2408
    _ZN5CORBA16_pof_ConstantDefD2Ev @2409
    _ZN5CORBA16_pof_SequenceDef9newObjRefEP7omniIORP12omniIdentity @2410
    _ZN5CORBA16_pof_SequenceDefD0Ev @2411
    _ZN5CORBA16_pof_SequenceDefD1Ev @2412
    _ZN5CORBA16_pof_SequenceDefD2Ev @2413
    _ZN5CORBA16_pof_ValueBoxDef9newObjRefEP7omniIORP12omniIdentity @2414
    _ZN5CORBA16_pof_ValueBoxDefD0Ev @2415
    _ZN5CORBA16_pof_ValueBoxDefD1Ev @2416
    _ZN5CORBA16_pof_ValueBoxDefD2Ev @2417
    _ZN5CORBA16_tc_AttributeDefE @2418 DATA
    _ZN5CORBA16_tc_BAD_TYPECODEE @2419 DATA
    _ZN5CORBA16_tc_COMM_FAILUREE @2420 DATA
    _ZN5CORBA16_tc_ContainedSeqE @2421 DATA
    _ZN5CORBA16_tc_ContextIdSeqE @2422 DATA
    _ZN5CORBA16_tc_ExceptionDefE @2423 DATA
    _ZN5CORBA16_tc_InterfaceDefE @2424 DATA
    _ZN5CORBA16_tc_NO_IMPLEMENTE @2425 DATA
    _ZN5CORBA16_tc_NO_RESOURCESE @2426 DATA
    _ZN5CORBA16_tc_OperationDefE @2427 DATA
    _ZN5CORBA16_tc_PrimitiveDefE @2428 DATA
    _ZN5CORBA16_tc_RepositoryIdE @2429 DATA
    _ZN5CORBA16_tc_StructMemberE @2430 DATA
    _ZN5CORBA16_tc_ULongLongSeqE @2431 DATA
    _ZN5CORBA16_tc_WStringValueE @2432 DATA
    _ZN5CORBA17EnumMemberSeq_varD1Ev @2433
    _ZN5CORBA17LongDoubleSeq_varD1Ev @2434
    _ZN5CORBA17ModuleDescriptionlSER9cdrStream @2435
    _ZN5CORBA17ParDescriptionSeqD1Ev @2436
    _ZN5CORBA17Repository_Helper13marshalObjRefEPNS_18_objref_RepositoryER9cdrStream @2437
    _ZN5CORBA17Repository_Helper15unmarshalObjRefER9cdrStream @2438
    _ZN5CORBA17Repository_Helper4_nilEv @2439
    _ZN5CORBA17Repository_Helper6is_nilEPNS_18_objref_RepositoryE @2440
    _ZN5CORBA17Repository_Helper7releaseEPNS_18_objref_RepositoryE @2441
    _ZN5CORBA17Repository_Helper9duplicateEPNS_18_objref_RepositoryE @2442
    _ZN5CORBA17TypedefDef_Helper13marshalObjRefEPNS_18_objref_TypedefDefER9cdrStream @2443
    _ZN5CORBA17TypedefDef_Helper15unmarshalObjRefER9cdrStream @2444
    _ZN5CORBA17TypedefDef_Helper4_nilEv @2445
    _ZN5CORBA17TypedefDef_Helper6is_nilEPNS_18_objref_TypedefDefE @2446
    _ZN5CORBA17TypedefDef_Helper7releaseEPNS_18_objref_TypedefDefE @2447
    _ZN5CORBA17TypedefDef_Helper9duplicateEPNS_18_objref_TypedefDefE @2448
    _ZN5CORBA17WstringDef_Helper13marshalObjRefEPNS_18_objref_WstringDefER9cdrStream @2449
    _ZN5CORBA17WstringDef_Helper15unmarshalObjRefER9cdrStream @2450
    _ZN5CORBA17WstringDef_Helper4_nilEv @2451
    _ZN5CORBA17WstringDef_Helper6is_nilEPNS_18_objref_WstringDefE @2452
    _ZN5CORBA17WstringDef_Helper7releaseEPNS_18_objref_WstringDefE @2453
    _ZN5CORBA17WstringDef_Helper9duplicateEPNS_18_objref_WstringDefE @2454
    _ZN5CORBA17_impl_ConstantDef15_ptrToInterfaceEPKc @2455
    _ZN5CORBA17_impl_ConstantDef18_mostDerivedRepoIdEv @2456
    _ZN5CORBA17_impl_ConstantDef9_dispatchER14omniCallHandle @2457
    _ZN5CORBA17_impl_ConstantDefD0Ev @2458
    _ZN5CORBA17_impl_ConstantDefD1Ev @2459
    _ZN5CORBA17_impl_ConstantDefD2Ev @2460
    _ZN5CORBA17_impl_SequenceDef15_ptrToInterfaceEPKc @2461
    _ZN5CORBA17_impl_SequenceDef18_mostDerivedRepoIdEv @2462
    _ZN5CORBA17_impl_SequenceDef9_dispatchER14omniCallHandle @2463
    _ZN5CORBA17_impl_SequenceDefD0Ev @2464
    _ZN5CORBA17_impl_SequenceDefD1Ev @2465
    _ZN5CORBA17_impl_SequenceDefD2Ev @2466
    _ZN5CORBA17_impl_ValueBoxDef15_ptrToInterfaceEPKc @2467
    _ZN5CORBA17_impl_ValueBoxDef18_mostDerivedRepoIdEv @2468
    _ZN5CORBA17_impl_ValueBoxDef9_dispatchER14omniCallHandle @2469
    _ZN5CORBA17_impl_ValueBoxDefD0Ev @2470
    _ZN5CORBA17_impl_ValueBoxDefD1Ev @2471
    _ZN5CORBA17_impl_ValueBoxDefD2Ev @2472
    _ZN5CORBA17_objref_Contained10defined_inEv @2473
    _ZN5CORBA17_objref_Contained12_ptrToObjRefEPKc @2474
    _ZN5CORBA17_objref_Contained13absolute_nameEv @2475
    _ZN5CORBA17_objref_Contained21containing_repositoryEv @2476
    _ZN5CORBA17_objref_Contained2idEPKc @2477
    _ZN5CORBA17_objref_Contained2idEv @2478
    _ZN5CORBA17_objref_Contained4moveEPNS_17_objref_ContainerEPKcS4_ @2479
    _ZN5CORBA17_objref_Contained4nameEPKc @2480
    _ZN5CORBA17_objref_Contained4nameEv @2481
    _ZN5CORBA17_objref_Contained7versionEPKc @2482
    _ZN5CORBA17_objref_Contained7versionEv @2483
    _ZN5CORBA17_objref_Contained8describeEv @2484
    _ZN5CORBA17_objref_ContainedC1EP7omniIORP12omniIdentity @2485
    _ZN5CORBA17_objref_ContainedC2EP7omniIORP12omniIdentity @2486
    _ZN5CORBA17_objref_ContainedC2Ev @2487
    _ZN5CORBA17_objref_ContainedD0Ev @2488
    _ZN5CORBA17_objref_ContainedD1Ev @2489
    _ZN5CORBA17_objref_ContainedD2Ev @2490
    _ZN5CORBA17_objref_Container11create_enumEPKcS2_S2_RKNS_13EnumMemberSeqE @2491
    _ZN5CORBA17_objref_Container11lookup_nameEPKclNS_14DefinitionKindEb @2492
    _ZN5CORBA17_objref_Container12_ptrToObjRefEPKc @2493
    _ZN5CORBA17_objref_Container12create_aliasEPKcS2_S2_PNS_15_objref_IDLTypeE @2494
    _ZN5CORBA17_objref_Container12create_unionEPKcS2_S2_PNS_15_objref_IDLTypeERKNS_14UnionMemberSeqE @2495
    _ZN5CORBA17_objref_Container12create_valueEPKcS2_S2_bbPNS_16_objref_ValueDefEbRKNS_11ValueDefSeqERKNS_15InterfaceDefSeqERKNS_14InitializerSeqE @2496
    _ZN5CORBA17_objref_Container13create_moduleEPKcS2_S2_ @2497
    _ZN5CORBA17_objref_Container13create_nativeEPKcS2_S2_ @2498
    _ZN5CORBA17_objref_Container13create_structEPKcS2_S2_RKNS_15StructMemberSeqE @2499
    _ZN5CORBA17_objref_Container15create_constantEPKcS2_S2_PNS_15_objref_IDLTypeERKNS_3AnyE @2500
    _ZN5CORBA17_objref_Container16create_exceptionEPKcS2_S2_RKNS_15StructMemberSeqE @2501
    _ZN5CORBA17_objref_Container16create_interfaceEPKcS2_S2_RKNS_15InterfaceDefSeqE @2502
    _ZN5CORBA17_objref_Container16create_value_boxEPKcS2_S2_PNS_15_objref_IDLTypeE @2503
    _ZN5CORBA17_objref_Container17describe_contentsENS_14DefinitionKindEbl @2504
    _ZN5CORBA17_objref_Container25create_abstract_interfaceEPKcS2_S2_RKNS_23AbstractInterfaceDefSeqE @2505
    _ZN5CORBA17_objref_Container6lookupEPKc @2506
    _ZN5CORBA17_objref_Container8contentsENS_14DefinitionKindEb @2507
    _ZN5CORBA17_objref_ContainerC1EP7omniIORP12omniIdentity @2508
    _ZN5CORBA17_objref_ContainerC2EP7omniIORP12omniIdentity @2509
    _ZN5CORBA17_objref_ContainerD0Ev @2510
    _ZN5CORBA17_objref_ContainerD1Ev @2511
    _ZN5CORBA17_objref_ContainerD2Ev @2512
    _ZN5CORBA17_objref_ModuleDef12_ptrToObjRefEPKc @2513
    _ZN5CORBA17_objref_ModuleDefC1EP7omniIORP12omniIdentity @2514
    _ZN5CORBA17_objref_ModuleDefC2EP7omniIORP12omniIdentity @2515
    _ZN5CORBA17_objref_ModuleDefD0Ev @2516
    _ZN5CORBA17_objref_ModuleDefD1Ev @2517
    _ZN5CORBA17_objref_ModuleDefD2Ev @2518
    _ZN5CORBA17_objref_NativeDef12_ptrToObjRefEPKc @2519
    _ZN5CORBA17_objref_NativeDefC1EP7omniIORP12omniIdentity @2520
    _ZN5CORBA17_objref_NativeDefC2EP7omniIORP12omniIdentity @2521
    _ZN5CORBA17_objref_NativeDefD0Ev @2522
    _ZN5CORBA17_objref_NativeDefD1Ev @2523
    _ZN5CORBA17_objref_NativeDefD2Ev @2524
    _ZN5CORBA17_objref_StringDef12_ptrToObjRefEPKc @2525
    _ZN5CORBA17_objref_StringDef5boundEm @2526
    _ZN5CORBA17_objref_StringDef5boundEv @2527
    _ZN5CORBA17_objref_StringDefC1EP7omniIORP12omniIdentity @2528
    _ZN5CORBA17_objref_StringDefC2EP7omniIORP12omniIdentity @2529
    _ZN5CORBA17_objref_StringDefD0Ev @2530
    _ZN5CORBA17_objref_StringDefD1Ev @2531
    _ZN5CORBA17_objref_StringDefD2Ev @2532
    _ZN5CORBA17_objref_StructDef12_ptrToObjRefEPKc @2533
    _ZN5CORBA17_objref_StructDef7membersERKNS_15StructMemberSeqE @2534
    _ZN5CORBA17_objref_StructDef7membersEv @2535
    _ZN5CORBA17_objref_StructDefC1EP7omniIORP12omniIdentity @2536
    _ZN5CORBA17_objref_StructDefC2EP7omniIORP12omniIdentity @2537
    _ZN5CORBA17_objref_StructDefD0Ev @2538
    _ZN5CORBA17_objref_StructDefD1Ev @2539
    _ZN5CORBA17_objref_StructDefD2Ev @2540
    _ZN5CORBA17_pof_AttributeDef9newObjRefEP7omniIORP12omniIdentity @2541
    _ZN5CORBA17_pof_AttributeDefD0Ev @2542
    _ZN5CORBA17_pof_AttributeDefD1Ev @2543
    _ZN5CORBA17_pof_AttributeDefD2Ev @2544
    _ZN5CORBA17_pof_ExceptionDef9newObjRefEP7omniIORP12omniIdentity @2545
    _ZN5CORBA17_pof_ExceptionDefD0Ev @2546
    _ZN5CORBA17_pof_ExceptionDefD1Ev @2547
    _ZN5CORBA17_pof_ExceptionDefD2Ev @2548
    _ZN5CORBA17_pof_InterfaceDef9newObjRefEP7omniIORP12omniIdentity @2549
    _ZN5CORBA17_pof_InterfaceDefD0Ev @2550
    _ZN5CORBA17_pof_InterfaceDefD1Ev @2551
    _ZN5CORBA17_pof_InterfaceDefD2Ev @2552
    _ZN5CORBA17_pof_OperationDef9newObjRefEP7omniIORP12omniIdentity @2553
    _ZN5CORBA17_pof_OperationDefD0Ev @2554
    _ZN5CORBA17_pof_OperationDefD1Ev @2555
    _ZN5CORBA17_pof_OperationDefD2Ev @2556
    _ZN5CORBA17_pof_PrimitiveDef9newObjRefEP7omniIORP12omniIdentity @2557
    _ZN5CORBA17_pof_PrimitiveDefD0Ev @2558
    _ZN5CORBA17_pof_PrimitiveDefD1Ev @2559
    _ZN5CORBA17_pof_PrimitiveDefD2Ev @2560
    _ZN5CORBA17_tc_AttributeModeE @2561 DATA
    _ZN5CORBA17_tc_BAD_INV_ORDERE @2562 DATA
    _ZN5CORBA17_tc_BAD_OPERATIONE @2563 DATA
    _ZN5CORBA17_tc_EnumMemberSeqE @2564 DATA
    _ZN5CORBA17_tc_LongDoubleSeqE @2565 DATA
    _ZN5CORBA17_tc_NO_PERMISSIONE @2566 DATA
    _ZN5CORBA17_tc_OperationModeE @2567 DATA
    _ZN5CORBA17_tc_PERSIST_STOREE @2568 DATA
    _ZN5CORBA17_tc_ParameterModeE @2569 DATA
    _ZN5CORBA17_tc_PrimitiveKindE @2570 DATA
    _ZN5CORBA18AttrDescriptionSeqD1Ev @2571
    _ZN5CORBA18ConstantDef_Helper13marshalObjRefEPNS_19_objref_ConstantDefER9cdrStream @2572
    _ZN5CORBA18ConstantDef_Helper15unmarshalObjRefER9cdrStream @2573
    _ZN5CORBA18ConstantDef_Helper4_nilEv @2574
    _ZN5CORBA18ConstantDef_Helper6is_nilEPNS_19_objref_ConstantDefE @2575
    _ZN5CORBA18ConstantDef_Helper7releaseEPNS_19_objref_ConstantDefE @2576
    _ZN5CORBA18ConstantDef_Helper9duplicateEPNS_19_objref_ConstantDefE @2577
    _ZN5CORBA18InitializerSeq_varD1Ev @2578
    _ZN5CORBA18SequenceDef_Helper13marshalObjRefEPNS_19_objref_SequenceDefER9cdrStream @2579
    _ZN5CORBA18SequenceDef_Helper15unmarshalObjRefER9cdrStream @2580
    _ZN5CORBA18SequenceDef_Helper4_nilEv @2581
    _ZN5CORBA18SequenceDef_Helper6is_nilEPNS_19_objref_SequenceDefE @2582
    _ZN5CORBA18SequenceDef_Helper7releaseEPNS_19_objref_SequenceDefE @2583
    _ZN5CORBA18SequenceDef_Helper9duplicateEPNS_19_objref_SequenceDefE @2584
    _ZN5CORBA18StringValue_Helper10remove_refEPNS_11StringValueE @2585
    _ZN5CORBA18StringValue_Helper7add_refEPNS_11StringValueE @2586
    _ZN5CORBA18StringValue_Helper7marshalEPNS_11StringValueER9cdrStream @2587
    _ZN5CORBA18StringValue_Helper9unmarshalER9cdrStream @2588
    _ZN5CORBA18UnionMemberSeq_varD1Ev @2589
    _ZN5CORBA18ValueBoxDef_Helper13marshalObjRefEPNS_19_objref_ValueBoxDefER9cdrStream @2590
    _ZN5CORBA18ValueBoxDef_Helper15unmarshalObjRefER9cdrStream @2591
    _ZN5CORBA18ValueBoxDef_Helper4_nilEv @2592
    _ZN5CORBA18ValueBoxDef_Helper6is_nilEPNS_19_objref_ValueBoxDefE @2593
    _ZN5CORBA18ValueBoxDef_Helper7releaseEPNS_19_objref_ValueBoxDefE @2594
    _ZN5CORBA18ValueBoxDef_Helper9duplicateEPNS_19_objref_ValueBoxDefE @2595
    _ZN5CORBA18_impl_AttributeDef15_ptrToInterfaceEPKc @2596
    _ZN5CORBA18_impl_AttributeDef18_mostDerivedRepoIdEv @2597
    _ZN5CORBA18_impl_AttributeDef9_dispatchER14omniCallHandle @2598
    _ZN5CORBA18_impl_AttributeDefD0Ev @2599
    _ZN5CORBA18_impl_AttributeDefD1Ev @2600
    _ZN5CORBA18_impl_AttributeDefD2Ev @2601
    _ZN5CORBA18_impl_ExceptionDef15_ptrToInterfaceEPKc @2602
    _ZN5CORBA18_impl_ExceptionDef18_mostDerivedRepoIdEv @2603
    _ZN5CORBA18_impl_ExceptionDef9_dispatchER14omniCallHandle @2604
    _ZN5CORBA18_impl_ExceptionDefD0Ev @2605
    _ZN5CORBA18_impl_ExceptionDefD1Ev @2606
    _ZN5CORBA18_impl_ExceptionDefD2Ev @2607
    _ZN5CORBA18_impl_InterfaceDef15_ptrToInterfaceEPKc @2608
    _ZN5CORBA18_impl_InterfaceDef18_mostDerivedRepoIdEv @2609
    _ZN5CORBA18_impl_InterfaceDef9_dispatchER14omniCallHandle @2610
    _ZN5CORBA18_impl_InterfaceDefD0Ev @2611
    _ZN5CORBA18_impl_InterfaceDefD1Ev @2612
    _ZN5CORBA18_impl_InterfaceDefD2Ev @2613
    _ZN5CORBA18_impl_OperationDef15_ptrToInterfaceEPKc @2614
    _ZN5CORBA18_impl_OperationDef18_mostDerivedRepoIdEv @2615
    _ZN5CORBA18_impl_OperationDef9_dispatchER14omniCallHandle @2616
    _ZN5CORBA18_impl_OperationDefD0Ev @2617
    _ZN5CORBA18_impl_OperationDefD1Ev @2618
    _ZN5CORBA18_impl_OperationDefD2Ev @2619
    _ZN5CORBA18_impl_PrimitiveDef15_ptrToInterfaceEPKc @2620
    _ZN5CORBA18_impl_PrimitiveDef18_mostDerivedRepoIdEv @2621
    _ZN5CORBA18_impl_PrimitiveDef9_dispatchER14omniCallHandle @2622
    _ZN5CORBA18_impl_PrimitiveDefD0Ev @2623
    _ZN5CORBA18_impl_PrimitiveDefD1Ev @2624
    _ZN5CORBA18_impl_PrimitiveDefD2Ev @2625
    _ZN5CORBA18_objref_Repository12_ptrToObjRefEPKc @2626
    _ZN5CORBA18_objref_Repository12create_arrayEmPNS_15_objref_IDLTypeE @2627
    _ZN5CORBA18_objref_Repository12create_fixedEts @2628
    _ZN5CORBA18_objref_Repository13create_stringEm @2629
    _ZN5CORBA18_objref_Repository13get_primitiveENS_13PrimitiveKindE @2630
    _ZN5CORBA18_objref_Repository14create_wstringEm @2631
    _ZN5CORBA18_objref_Repository15create_sequenceEmPNS_15_objref_IDLTypeE @2632
    _ZN5CORBA18_objref_Repository22get_canonical_typecodeEPNS_8TypeCodeE @2633
    _ZN5CORBA18_objref_Repository9lookup_idEPKc @2634
    _ZN5CORBA18_objref_RepositoryC1EP7omniIORP12omniIdentity @2635
    _ZN5CORBA18_objref_RepositoryC2EP7omniIORP12omniIdentity @2636
    _ZN5CORBA18_objref_RepositoryD0Ev @2637
    _ZN5CORBA18_objref_RepositoryD1Ev @2638
    _ZN5CORBA18_objref_RepositoryD2Ev @2639
    _ZN5CORBA18_objref_TypedefDef12_ptrToObjRefEPKc @2640
    _ZN5CORBA18_objref_TypedefDefC1EP7omniIORP12omniIdentity @2641
    _ZN5CORBA18_objref_TypedefDefC2EP7omniIORP12omniIdentity @2642
    _ZN5CORBA18_objref_TypedefDefC2Ev @2643
    _ZN5CORBA18_objref_TypedefDefD0Ev @2644
    _ZN5CORBA18_objref_TypedefDefD1Ev @2645
    _ZN5CORBA18_objref_TypedefDefD2Ev @2646
    _ZN5CORBA18_objref_WstringDef12_ptrToObjRefEPKc @2647
    _ZN5CORBA18_objref_WstringDef5boundEm @2648
    _ZN5CORBA18_objref_WstringDef5boundEv @2649
    _ZN5CORBA18_objref_WstringDefC1EP7omniIORP12omniIdentity @2650
    _ZN5CORBA18_objref_WstringDefC2EP7omniIORP12omniIdentity @2651
    _ZN5CORBA18_objref_WstringDefD0Ev @2652
    _ZN5CORBA18_objref_WstringDefD1Ev @2653
    _ZN5CORBA18_objref_WstringDefD2Ev @2654
    _ZN5CORBA18_tc_DefinitionKindE @2655 DATA
    _ZN5CORBA18_tc_InitializerSeqE @2656 DATA
    _ZN5CORBA18_tc_UnionMemberSeqE @2657 DATA
    _ZN5CORBA18_tc_ValueMemberDefE @2658 DATA
    _ZN5CORBA18_tc_ValueMemberSeqE @2659 DATA
    _ZN5CORBA19AttributeDef_Helper13marshalObjRefEPNS_20_objref_AttributeDefER9cdrStream @2660
    _ZN5CORBA19AttributeDef_Helper15unmarshalObjRefER9cdrStream @2661
    _ZN5CORBA19AttributeDef_Helper4_nilEv @2662
    _ZN5CORBA19AttributeDef_Helper6is_nilEPNS_20_objref_AttributeDefE @2663
    _ZN5CORBA19AttributeDef_Helper7releaseEPNS_20_objref_AttributeDefE @2664
    _ZN5CORBA19AttributeDef_Helper9duplicateEPNS_20_objref_AttributeDefE @2665
    _ZN5CORBA19ConstantDescriptionlSER9cdrStream @2666
    _ZN5CORBA19ExceptionDefSeq_varD1Ev @2667
    _ZN5CORBA19ExceptionDef_Helper13marshalObjRefEPNS_20_objref_ExceptionDefER9cdrStream @2668
    _ZN5CORBA19ExceptionDef_Helper15unmarshalObjRefER9cdrStream @2669
    _ZN5CORBA19ExceptionDef_Helper4_nilEv @2670
    _ZN5CORBA19ExceptionDef_Helper6is_nilEPNS_20_objref_ExceptionDefE @2671
    _ZN5CORBA19ExceptionDef_Helper7releaseEPNS_20_objref_ExceptionDefE @2672
    _ZN5CORBA19ExceptionDef_Helper9duplicateEPNS_20_objref_ExceptionDefE @2673
    _ZN5CORBA19InterfaceDefSeq_varD1Ev @2674
    _ZN5CORBA19InterfaceDef_Helper13marshalObjRefEPNS_20_objref_InterfaceDefER9cdrStream @2675
    _ZN5CORBA19InterfaceDef_Helper15unmarshalObjRefER9cdrStream @2676
    _ZN5CORBA19InterfaceDef_Helper4_nilEv @2677
    _ZN5CORBA19InterfaceDef_Helper6is_nilEPNS_20_objref_InterfaceDefE @2678
    _ZN5CORBA19InterfaceDef_Helper7releaseEPNS_20_objref_InterfaceDefE @2679
    _ZN5CORBA19InterfaceDef_Helper9duplicateEPNS_20_objref_InterfaceDefE @2680
    _ZN5CORBA19OperationDef_Helper13marshalObjRefEPNS_20_objref_OperationDefER9cdrStream @2681
    _ZN5CORBA19OperationDef_Helper15unmarshalObjRefER9cdrStream @2682
    _ZN5CORBA19OperationDef_Helper4_nilEv @2683
    _ZN5CORBA19OperationDef_Helper6is_nilEPNS_20_objref_OperationDefE @2684
    _ZN5CORBA19OperationDef_Helper7releaseEPNS_20_objref_OperationDefE @2685
    _ZN5CORBA19OperationDef_Helper9duplicateEPNS_20_objref_OperationDefE @2686
    _ZN5CORBA19PrimitiveDef_Helper13marshalObjRefEPNS_20_objref_PrimitiveDefER9cdrStream @2687
    _ZN5CORBA19PrimitiveDef_Helper15unmarshalObjRefER9cdrStream @2688
    _ZN5CORBA19PrimitiveDef_Helper4_nilEv @2689
    _ZN5CORBA19PrimitiveDef_Helper6is_nilEPNS_20_objref_PrimitiveDefE @2690
    _ZN5CORBA19PrimitiveDef_Helper7releaseEPNS_20_objref_PrimitiveDefE @2691
    _ZN5CORBA19PrimitiveDef_Helper9duplicateEPNS_20_objref_PrimitiveDefE @2692
    _ZN5CORBA19StructMemberSeq_varD1Ev @2693
    _ZN5CORBA19WStringValue_Helper10remove_refEPNS_12WStringValueE @2694
    _ZN5CORBA19WStringValue_Helper7add_refEPNS_12WStringValueE @2695
    _ZN5CORBA19WStringValue_Helper7marshalEPNS_12WStringValueER9cdrStream @2696
    _ZN5CORBA19WStringValue_Helper9unmarshalER9cdrStream @2697
    _ZN5CORBA19_objref_ConstantDef12_ptrToObjRefEPKc @2698
    _ZN5CORBA19_objref_ConstantDef4typeEv @2699
    _ZN5CORBA19_objref_ConstantDef5valueERKNS_3AnyE @2700
    _ZN5CORBA19_objref_ConstantDef5valueEv @2701
    _ZN5CORBA19_objref_ConstantDef8type_defEPNS_15_objref_IDLTypeE @2702
    _ZN5CORBA19_objref_ConstantDef8type_defEv @2703
    _ZN5CORBA19_objref_ConstantDefC1EP7omniIORP12omniIdentity @2704
    _ZN5CORBA19_objref_ConstantDefC2EP7omniIORP12omniIdentity @2705
    _ZN5CORBA19_objref_ConstantDefD0Ev @2706
    _ZN5CORBA19_objref_ConstantDefD1Ev @2707
    _ZN5CORBA19_objref_ConstantDefD2Ev @2708
    _ZN5CORBA19_objref_SequenceDef12_ptrToObjRefEPKc @2709
    _ZN5CORBA19_objref_SequenceDef12element_typeEv @2710
    _ZN5CORBA19_objref_SequenceDef16element_type_defEPNS_15_objref_IDLTypeE @2711
    _ZN5CORBA19_objref_SequenceDef16element_type_defEv @2712
    _ZN5CORBA19_objref_SequenceDef5boundEm @2713
    _ZN5CORBA19_objref_SequenceDef5boundEv @2714
    _ZN5CORBA19_objref_SequenceDefC1EP7omniIORP12omniIdentity @2715
    _ZN5CORBA19_objref_SequenceDefC2EP7omniIORP12omniIdentity @2716
    _ZN5CORBA19_objref_SequenceDefD0Ev @2717
    _ZN5CORBA19_objref_SequenceDefD1Ev @2718
    _ZN5CORBA19_objref_SequenceDefD2Ev @2719
    _ZN5CORBA19_objref_ValueBoxDef12_ptrToObjRefEPKc @2720
    _ZN5CORBA19_objref_ValueBoxDef17original_type_defEPNS_15_objref_IDLTypeE @2721
    _ZN5CORBA19_objref_ValueBoxDef17original_type_defEv @2722
    _ZN5CORBA19_objref_ValueBoxDefC1EP7omniIORP12omniIdentity @2723
    _ZN5CORBA19_objref_ValueBoxDefC2EP7omniIORP12omniIdentity @2724
    _ZN5CORBA19_objref_ValueBoxDefD0Ev @2725
    _ZN5CORBA19_objref_ValueBoxDefD1Ev @2726
    _ZN5CORBA19_objref_ValueBoxDefD2Ev @2727
    _ZN5CORBA19_pof_ValueMemberDef9newObjRefEP7omniIORP12omniIdentity @2728
    _ZN5CORBA19_pof_ValueMemberDefD0Ev @2729
    _ZN5CORBA19_pof_ValueMemberDefD1Ev @2730
    _ZN5CORBA19_pof_ValueMemberDefD2Ev @2731
    _ZN5CORBA19_tc_DATA_CONVERSIONE @2732 DATA
    _ZN5CORBA19_tc_ExceptionDefSeqE @2733 DATA
    _ZN5CORBA19_tc_InterfaceDefSeqE @2734 DATA
    _ZN5CORBA19_tc_PolicyErrorCodeE @2735 DATA
    _ZN5CORBA19_tc_RepositoryIdSeqE @2736 DATA
    _ZN5CORBA19_tc_StructMemberSeqE @2737 DATA
    _ZN5CORBA19_tc_TypeDescriptionE @2738 DATA
    _ZN5CORBA20AbstractInterfaceDef10_PD_repoIdE @2739 DATA
    _ZN5CORBA20AbstractInterfaceDef10_duplicateEPNS_28_objref_AbstractInterfaceDefE @2740
    _ZN5CORBA20AbstractInterfaceDef17_unchecked_narrowEPNS_6ObjectE @2741
    _ZN5CORBA20AbstractInterfaceDef4_nilEv @2742
    _ZN5CORBA20AbstractInterfaceDef7_narrowEPNS_6ObjectE @2743
    _ZN5CORBA20AttributeDescriptionD1Ev @2744
    _ZN5CORBA20AttributeDescriptionlSER9cdrStream @2745
    _ZN5CORBA20ExceptionDescriptionD1Ev @2746
    _ZN5CORBA20ExceptionDescriptionlSER9cdrStream @2747
    _ZN5CORBA20InterfaceDescriptionlSER9cdrStream @2748
    _ZN5CORBA20OperationDescriptionD1Ev @2749
    _ZN5CORBA20OperationDescriptionaSERKS0_ @2750
    _ZN5CORBA20OperationDescriptionlSER9cdrStream @2751
    _ZN5CORBA20ParameterDescriptionD1Ev @2752
    _ZN5CORBA20ParameterDescriptionlSER9cdrStream @2753
    _ZN5CORBA20UnknownUserException13insertToAnyFnE @2754 DATA
    _ZN5CORBA20UnknownUserException16insertToAnyFnNCPE @2755 DATA
    _ZN5CORBA20UnknownUserException9_downcastEPKNS_9ExceptionE @2756
    _ZN5CORBA20UnknownUserException9_downcastEPNS_9ExceptionE @2757
    _ZN5CORBA20UnknownUserException9exceptionEv @2758
    _ZN5CORBA20UnknownUserExceptionC1EPNS_3AnyE @2759
    _ZN5CORBA20UnknownUserExceptionC2EPNS_3AnyE @2760
    _ZN5CORBA20UnknownUserExceptionD0Ev @2761
    _ZN5CORBA20UnknownUserExceptionD1Ev @2762
    _ZN5CORBA20UnknownUserExceptionD2Ev @2763
    _ZN5CORBA20_impl_ValueMemberDef15_ptrToInterfaceEPKc @2764
    _ZN5CORBA20_impl_ValueMemberDef18_mostDerivedRepoIdEv @2765
    _ZN5CORBA20_impl_ValueMemberDef9_dispatchER14omniCallHandle @2766
    _ZN5CORBA20_impl_ValueMemberDefD0Ev @2767
    _ZN5CORBA20_impl_ValueMemberDefD1Ev @2768
    _ZN5CORBA20_impl_ValueMemberDefD2Ev @2769
    _ZN5CORBA20_objref_AttributeDef12_ptrToObjRefEPKc @2770
    _ZN5CORBA20_objref_AttributeDef4modeENS_13AttributeModeE @2771
    _ZN5CORBA20_objref_AttributeDef4modeEv @2772
    _ZN5CORBA20_objref_AttributeDef4typeEv @2773
    _ZN5CORBA20_objref_AttributeDef8type_defEPNS_15_objref_IDLTypeE @2774
    _ZN5CORBA20_objref_AttributeDef8type_defEv @2775
    _ZN5CORBA20_objref_AttributeDefC1EP7omniIORP12omniIdentity @2776
    _ZN5CORBA20_objref_AttributeDefC2EP7omniIORP12omniIdentity @2777
    _ZN5CORBA20_objref_AttributeDefD0Ev @2778
    _ZN5CORBA20_objref_AttributeDefD1Ev @2779
    _ZN5CORBA20_objref_AttributeDefD2Ev @2780
    _ZN5CORBA20_objref_ExceptionDef12_ptrToObjRefEPKc @2781
    _ZN5CORBA20_objref_ExceptionDef4typeEv @2782
    _ZN5CORBA20_objref_ExceptionDef7membersERKNS_15StructMemberSeqE @2783
    _ZN5CORBA20_objref_ExceptionDef7membersEv @2784
    _ZN5CORBA20_objref_ExceptionDefC1EP7omniIORP12omniIdentity @2785
    _ZN5CORBA20_objref_ExceptionDefC2EP7omniIORP12omniIdentity @2786
    _ZN5CORBA20_objref_ExceptionDefD0Ev @2787
    _ZN5CORBA20_objref_ExceptionDefD1Ev @2788
    _ZN5CORBA20_objref_ExceptionDefD2Ev @2789
    _ZN5CORBA20_objref_InterfaceDef12_ptrToObjRefEPKc @2790
    _ZN5CORBA20_objref_InterfaceDef15base_interfacesERKNS_15InterfaceDefSeqE @2791
    _ZN5CORBA20_objref_InterfaceDef15base_interfacesEv @2792
    _ZN5CORBA20_objref_InterfaceDef16create_attributeEPKcS2_S2_PNS_15_objref_IDLTypeENS_13AttributeModeE @2793
    _ZN5CORBA20_objref_InterfaceDef16create_operationEPKcS2_S2_PNS_15_objref_IDLTypeENS_13OperationModeERKNS_17ParDescriptionSeqERKNS_15ExceptionDefSeqERKNS_12ContextIdSeqE @2794
    _ZN5CORBA20_objref_InterfaceDef18describe_interfaceEv @2795
    _ZN5CORBA20_objref_InterfaceDef4is_aEPKc @2796
    _ZN5CORBA20_objref_InterfaceDefC1EP7omniIORP12omniIdentity @2797
    _ZN5CORBA20_objref_InterfaceDefC2EP7omniIORP12omniIdentity @2798
    _ZN5CORBA20_objref_InterfaceDefD0Ev @2799
    _ZN5CORBA20_objref_InterfaceDefD1Ev @2800
    _ZN5CORBA20_objref_InterfaceDefD2Ev @2801
    _ZN5CORBA20_objref_OperationDef10exceptionsERKNS_15ExceptionDefSeqE @2802
    _ZN5CORBA20_objref_OperationDef10exceptionsEv @2803
    _ZN5CORBA20_objref_OperationDef10result_defEPNS_15_objref_IDLTypeE @2804
    _ZN5CORBA20_objref_OperationDef10result_defEv @2805
    _ZN5CORBA20_objref_OperationDef12_ptrToObjRefEPKc @2806
    _ZN5CORBA20_objref_OperationDef4modeENS_13OperationModeE @2807
    _ZN5CORBA20_objref_OperationDef4modeEv @2808
    _ZN5CORBA20_objref_OperationDef6paramsERKNS_17ParDescriptionSeqE @2809
    _ZN5CORBA20_objref_OperationDef6paramsEv @2810
    _ZN5CORBA20_objref_OperationDef6resultEv @2811
    _ZN5CORBA20_objref_OperationDef8contextsERKNS_12ContextIdSeqE @2812
    _ZN5CORBA20_objref_OperationDef8contextsEv @2813
    _ZN5CORBA20_objref_OperationDefC1EP7omniIORP12omniIdentity @2814
    _ZN5CORBA20_objref_OperationDefC2EP7omniIORP12omniIdentity @2815
    _ZN5CORBA20_objref_OperationDefD0Ev @2816
    _ZN5CORBA20_objref_OperationDefD1Ev @2817
    _ZN5CORBA20_objref_OperationDefD2Ev @2818
    _ZN5CORBA20_objref_PrimitiveDef12_ptrToObjRefEPKc @2819
    _ZN5CORBA20_objref_PrimitiveDef4kindEv @2820
    _ZN5CORBA20_objref_PrimitiveDefC1EP7omniIORP12omniIdentity @2821
    _ZN5CORBA20_objref_PrimitiveDefC2EP7omniIORP12omniIdentity @2822
    _ZN5CORBA20_objref_PrimitiveDefD0Ev @2823
    _ZN5CORBA20_objref_PrimitiveDefD1Ev @2824
    _ZN5CORBA20_objref_PrimitiveDefD2Ev @2825
    _ZN5CORBA20_tc_OBJECT_NOT_EXISTE @2826 DATA
    _ZN5CORBA20_tc_OpDescriptionSeqE @2827 DATA
    _ZN5CORBA20_tc_TRANSACTION_MODEE @2828 DATA
    _ZN5CORBA20_tc_ValueDescriptionE @2829 DATA
    _ZN5CORBA21ParDescriptionSeq_varD1Ev @2830
    _ZN5CORBA21ValueMemberDef_Helper13marshalObjRefEPNS_22_objref_ValueMemberDefER9cdrStream @2831
    _ZN5CORBA21ValueMemberDef_Helper15unmarshalObjRefER9cdrStream @2832
    _ZN5CORBA21ValueMemberDef_Helper4_nilEv @2833
    _ZN5CORBA21ValueMemberDef_Helper6is_nilEPNS_22_objref_ValueMemberDefE @2834
    _ZN5CORBA21ValueMemberDef_Helper7releaseEPNS_22_objref_ValueMemberDefE @2835
    _ZN5CORBA21ValueMemberDef_Helper9duplicateEPNS_22_objref_ValueMemberDefE @2836
    _ZN5CORBA21_tc_ContextIdentifierE @2837 DATA
    _ZN5CORBA21_tc_ExcDescriptionSeqE @2838 DATA
    _ZN5CORBA21_tc_ModuleDescriptionE @2839 DATA
    _ZN5CORBA21_tc_ParDescriptionSeqE @2840 DATA
    _ZN5CORBA22_objref_ValueMemberDef12_ptrToObjRefEPKc @2841
    _ZN5CORBA22_objref_ValueMemberDef4typeEv @2842
    _ZN5CORBA22_objref_ValueMemberDef6accessEs @2843
    _ZN5CORBA22_objref_ValueMemberDef6accessEv @2844
    _ZN5CORBA22_objref_ValueMemberDef8type_defEPNS_15_objref_IDLTypeE @2845
    _ZN5CORBA22_objref_ValueMemberDef8type_defEv @2846
    _ZN5CORBA22_objref_ValueMemberDefC1EP7omniIORP12omniIdentity @2847
    _ZN5CORBA22_objref_ValueMemberDefC2EP7omniIORP12omniIdentity @2848
    _ZN5CORBA22_objref_ValueMemberDefD0Ev @2849
    _ZN5CORBA22_objref_ValueMemberDefD1Ev @2850
    _ZN5CORBA22_objref_ValueMemberDefD2Ev @2851
    _ZN5CORBA22_tc_AttrDescriptionSeqE @2852 DATA
    _ZN5CORBA23_tc_ConstantDescriptionE @2853 DATA
    _ZN5CORBA23_tc_INVALID_TRANSACTIONE @2854 DATA
    _ZN5CORBA24DefaultValueRefCountBase11_remove_refEv @2855
    _ZN5CORBA24DefaultValueRefCountBase15_refcount_valueEv @2856
    _ZN5CORBA24DefaultValueRefCountBase8_add_refEv @2857
    _ZN5CORBA24DefaultValueRefCountBaseD0Ev @2858
    _ZN5CORBA24DefaultValueRefCountBaseD1Ev @2859
    _ZN5CORBA24DefaultValueRefCountBaseD2Ev @2860
    _ZN5CORBA24_omni_AbstractBaseObjref13_NP_to_objectEv @2861
    _ZN5CORBA24_omni_AbstractBaseObjrefD0Ev @2862
    _ZN5CORBA24_omni_AbstractBaseObjrefD1Ev @2863
    _ZN5CORBA24_tc_AbstractInterfaceDefE @2864 DATA
    _ZN5CORBA24_tc_AttributeDescriptionE @2865 DATA
    _ZN5CORBA24_tc_CODESET_INCOMPATIBLEE @2866 DATA
    _ZN5CORBA24_tc_ExceptionDescriptionE @2867 DATA
    _ZN5CORBA24_tc_InterfaceDescriptionE @2868 DATA
    _ZN5CORBA24_tc_OperationDescriptionE @2869 DATA
    _ZN5CORBA24_tc_ParameterDescriptionE @2870 DATA
    _ZN5CORBA24_tc_TRANSACTION_REQUIREDE @2871 DATA
    _ZN5CORBA25_pof_AbstractInterfaceDef9newObjRefEP7omniIORP12omniIdentity @2872
    _ZN5CORBA25_pof_AbstractInterfaceDefD0Ev @2873
    _ZN5CORBA25_pof_AbstractInterfaceDefD1Ev @2874
    _ZN5CORBA25_pof_AbstractInterfaceDefD2Ev @2875
    _ZN5CORBA26_impl_AbstractInterfaceDef15_ptrToInterfaceEPKc @2876
    _ZN5CORBA26_impl_AbstractInterfaceDef18_mostDerivedRepoIdEv @2877
    _ZN5CORBA26_impl_AbstractInterfaceDef9_dispatchER14omniCallHandle @2878
    _ZN5CORBA26_impl_AbstractInterfaceDefD0Ev @2879
    _ZN5CORBA26_impl_AbstractInterfaceDefD1Ev @2880
    _ZN5CORBA26_impl_AbstractInterfaceDefD2Ev @2881
    _ZN5CORBA26_tc_TRANSACTION_ROLLEDBACKE @2882 DATA
    _ZN5CORBA27AbstractInterfaceDefSeq_varD1Ev @2883
    _ZN5CORBA27AbstractInterfaceDef_Helper13marshalObjRefEPNS_28_objref_AbstractInterfaceDefER9cdrStream @2884
    _ZN5CORBA27AbstractInterfaceDef_Helper15unmarshalObjRefER9cdrStream @2885
    _ZN5CORBA27AbstractInterfaceDef_Helper4_nilEv @2886
    _ZN5CORBA27AbstractInterfaceDef_Helper6is_nilEPNS_28_objref_AbstractInterfaceDefE @2887
    _ZN5CORBA27AbstractInterfaceDef_Helper7releaseEPNS_28_objref_AbstractInterfaceDefE @2888
    _ZN5CORBA27AbstractInterfaceDef_Helper9duplicateEPNS_28_objref_AbstractInterfaceDefE @2889
    _ZN5CORBA27_tc_AbstractInterfaceDefSeqE @2890 DATA
    _ZN5CORBA27_tc_TRANSACTION_UNAVAILABLEE @2891 DATA
    _ZN5CORBA28_objref_AbstractInterfaceDef12_ptrToObjRefEPKc @2892
    _ZN5CORBA28_objref_AbstractInterfaceDefC1EP7omniIORP12omniIdentity @2893
    _ZN5CORBA28_objref_AbstractInterfaceDefC2EP7omniIORP12omniIdentity @2894
    _ZN5CORBA28_objref_AbstractInterfaceDefD0Ev @2895
    _ZN5CORBA28_objref_AbstractInterfaceDefD1Ev @2896
    _ZN5CORBA28_objref_AbstractInterfaceDefD2Ev @2897
    _ZN5CORBA3Any12PR_clearDataEv @2898
    _ZN5CORBA3Any16PR_streamToWriteEv @2899
    _ZN5CORBA3Any20NP_unmarshalDataOnlyER9cdrStream @2900
    _ZN5CORBA3Any4typeEPNS_8TypeCodeE @2901
    _ZN5CORBA3Any7replaceEPNS_8TypeCodeEPvb @2902
    _ZN5CORBA3Any9PR_insertEPNS_8TypeCodeEPFvR9cdrStreamPvEPFvS5_ES5_ @2903
    _ZN5CORBA3Any9PR_insertEPNS_8TypeCodeEPFvR9cdrStreamPvES5_ @2904
    _ZN5CORBA3AnyC1EPNS_8TypeCodeEPvb @2905
    _ZN5CORBA3AnyC1ERKS0_ @2906
    _ZN5CORBA3AnyC1Ev @2907
    _ZN5CORBA3AnyC2EPNS_8TypeCodeEPvb @2908
    _ZN5CORBA3AnyC2ERKS0_ @2909
    _ZN5CORBA3AnyC2Ev @2910
    _ZN5CORBA3AnyD1Ev @2911
    _ZN5CORBA3AnyD2Ev @2912
    _ZN5CORBA3AnyaSERKS0_ @2913
    _ZN5CORBA3AnylSENS0_10from_fixedE @2914
    _ZN5CORBA3AnylSENS0_10from_octetE @2915
    _ZN5CORBA3AnylSENS0_10from_wcharE @2916
    _ZN5CORBA3AnylSENS0_11from_stringE @2917
    _ZN5CORBA3AnylSENS0_12from_booleanE @2918
    _ZN5CORBA3AnylSENS0_12from_wstringE @2919
    _ZN5CORBA3AnylSENS0_9from_charE @2920
    _ZN5CORBA3AnylSEPKc @2921
    _ZN5CORBA3AnylSEPKw @2922
    _ZN5CORBA3AnylSEPNS_6ObjectE @2923
    _ZN5CORBA3AnylSEPNS_8TypeCodeE @2924
    _ZN5CORBA3AnylSEPPNS_6ObjectE @2925
    _ZN5CORBA3AnylSEPPNS_8TypeCodeE @2926
    _ZN5CORBA3AnylSEPS0_ @2927
    _ZN5CORBA3AnylSER9cdrStream @2928
    _ZN5CORBA3AnylSERKS0_ @2929
    _ZN5CORBA3AnylSEd @2930
    _ZN5CORBA3AnylSEe @2931
    _ZN5CORBA3AnylSEf @2932
    _ZN5CORBA3AnylSEl @2933
    _ZN5CORBA3AnylSEm @2934
    _ZN5CORBA3AnylSEs @2935
    _ZN5CORBA3AnylSEt @2936
    _ZN5CORBA3AnylSEx @2937
    _ZN5CORBA3AnylSEy @2938
    _ZN5CORBA3ORB11create_listEl20_CORBA_PseudoObj_OutINS_6NVListE20_CORBA_PseudoObj_VarIS2_EE @2939
    _ZN5CORBA3ORB13create_policyEmRKNS_3AnyE @2940
    _ZN5CORBA3ORB14create_enum_tcEPKcS2_RKNS_13EnumMemberSeqE @2941
    _ZN5CORBA3ORB15create_alias_tcEPKcS2_PNS_8TypeCodeE @2942
    _ZN5CORBA3ORB15create_array_tcEmPNS_8TypeCodeE @2943
    _ZN5CORBA3ORB15create_fixed_tcEts @2944
    _ZN5CORBA3ORB15create_union_tcEPKcS2_PNS_8TypeCodeERKNS_14UnionMemberSeqE @2945
    _ZN5CORBA3ORB15create_value_tcEPKcS2_sPNS_8TypeCodeERKNS_14ValueMemberSeqE @2946
    _ZN5CORBA3ORB16create_string_tcEm @2947
    _ZN5CORBA3ORB16create_struct_tcEPKcS2_RKNS_15StructMemberSeqE @2948
    _ZN5CORBA3ORB17create_wstring_tcEm @2949
    _ZN5CORBA3ORB17get_next_responseE20_CORBA_PseudoObj_OutINS_7RequestE20_CORBA_PseudoObj_VarIS2_EE @2950
    _ZN5CORBA3ORB18create_environmentE20_CORBA_PseudoObj_OutINS_11EnvironmentE20_CORBA_PseudoObj_VarIS2_EE @2951
    _ZN5CORBA3ORB18create_named_valueE20_CORBA_PseudoObj_OutINS_10NamedValueE20_CORBA_PseudoObj_VarIS2_EE @2952
    _ZN5CORBA3ORB18create_sequence_tcEmPNS_8TypeCodeE @2953
    _ZN5CORBA3ORB18poll_next_responseEv @2954
    _ZN5CORBA3ORB19create_context_listE20_CORBA_PseudoObj_OutINS_11ContextListE20_CORBA_PseudoObj_VarIS2_EE @2955
    _ZN5CORBA3ORB19create_exception_tcEPKcS2_RKNS_15StructMemberSeqE @2956
    _ZN5CORBA3ORB19create_interface_tcEPKcS2_ @2957
    _ZN5CORBA3ORB19create_recursive_tcEPKc @2958
    _ZN5CORBA3ORB19create_value_box_tcEPKcS2_PNS_8TypeCodeE @2959
    _ZN5CORBA3ORB19get_default_contextE20_CORBA_PseudoObj_OutINS_7ContextE20_CORBA_PseudoObj_VarIS2_EE @2960
    _ZN5CORBA3ORB20InconsistentTypeCode10_PD_repoIdE @2961 DATA
    _ZN5CORBA3ORB20InconsistentTypeCode13insertToAnyFnE @2962 DATA
    _ZN5CORBA3ORB20InconsistentTypeCode16insertToAnyFnNCPE @2963 DATA
    _ZN5CORBA3ORB20InconsistentTypeCode9_downcastEPKNS_9ExceptionE @2964
    _ZN5CORBA3ORB20InconsistentTypeCode9_downcastEPNS_9ExceptionE @2965
    _ZN5CORBA3ORB20InconsistentTypeCodeD0Ev @2966
    _ZN5CORBA3ORB20InconsistentTypeCodeD1Ev @2967
    _ZN5CORBA3ORB20InconsistentTypeCodeD2Ev @2968
    _ZN5CORBA3ORB20lookup_value_factoryEPKc @2969
    _ZN5CORBA3ORB21create_exception_listE20_CORBA_PseudoObj_OutINS_13ExceptionListE20_CORBA_PseudoObj_VarIS2_EE @2970
    _ZN5CORBA3ORB21create_operation_listEPNS_20_objref_OperationDefE20_CORBA_PseudoObj_OutINS_6NVListE20_CORBA_PseudoObj_VarIS4_EE @2971
    _ZN5CORBA3ORB22register_value_factoryEPKcPNS_16ValueFactoryBaseE @2972
    _ZN5CORBA3ORB24unregister_value_factoryEPKc @2973
    _ZN5CORBA3ORB28create_recursive_sequence_tcEmm @2974
    _ZN5CORBA3ORB29send_multiple_requests_onewayERK32_CORBA_Pseudo_Unbounded_SequenceINS_7RequestE23_CORBA_PseudoObj_MemberIS2_20_CORBA_PseudoObj_VarIS2_EEE @2975
    _ZN5CORBA3ORB31send_multiple_requests_deferredERK32_CORBA_Pseudo_Unbounded_SequenceINS_7RequestE23_CORBA_PseudoObj_MemberIS2_20_CORBA_PseudoObj_VarIS2_EEE @2976
    _ZN5CORBA6NVList10_duplicateEPS0_ @2977
    _ZN5CORBA6NVList4_nilEv @2978
    _ZN5CORBA6NVList6Bounds10_PD_repoIdE @2979 DATA
    _ZN5CORBA6NVList6Bounds13insertToAnyFnE @2980 DATA
    _ZN5CORBA6NVList6Bounds16insertToAnyFnNCPE @2981 DATA
    _ZN5CORBA6NVList6Bounds9_downcastEPKNS_9ExceptionE @2982
    _ZN5CORBA6NVList6Bounds9_downcastEPNS_9ExceptionE @2983
    _ZN5CORBA6NVList6BoundsD0Ev @2984
    _ZN5CORBA6NVList6BoundsD1Ev @2985
    _ZN5CORBA6NVList6BoundsD2Ev @2986
    _ZN5CORBA6NVList8PR_magicE @2987 DATA
    _ZN5CORBA6NVListD0Ev @2988
    _ZN5CORBA6NVListD1Ev @2989
    _ZN5CORBA6NVListD2Ev @2990
    _ZN5CORBA6Object14_get_interfaceEv @2991
    _ZN5CORBA6Object15_create_requestEPNS_7ContextEPKcPNS_6NVListEPNS_10NamedValueE20_CORBA_PseudoObj_OutINS_7RequestE20_CORBA_PseudoObj_VarISA_EEm @2992
    _ZN5CORBA6Object15_create_requestEPNS_7ContextEPKcPNS_6NVListEPNS_10NamedValueEPNS_13ExceptionListEPNS_11ContextListE20_CORBA_PseudoObj_OutINS_7RequestE20_CORBA_PseudoObj_VarISE_EEm @2993
    _ZN5CORBA6Object8_requestEPKc @2994
    _ZN5CORBA7Any_varD1Ev @2995
    _ZN5CORBA7Context10_duplicateEPS0_ @2996
    _ZN5CORBA7Context13filterContextEPS0_PKPKci @2997
    _ZN5CORBA7Context14marshalContextEPS0_PKPKciR9cdrStream @2998
    _ZN5CORBA7Context16unmarshalContextER9cdrStream @2999
    _ZN5CORBA7Context4_nilEv @3000
    _ZN5CORBA7Context8PR_magicE @3001 DATA
    _ZN5CORBA7ContextD0Ev @3002
    _ZN5CORBA7ContextD1Ev @3003
    _ZN5CORBA7ContextD2Ev @3004
    _ZN5CORBA7EnumDef10_PD_repoIdE @3005 DATA
    _ZN5CORBA7EnumDef10_duplicateEPNS_15_objref_EnumDefE @3006
    _ZN5CORBA7EnumDef17_unchecked_narrowEPNS_6ObjectE @3007
    _ZN5CORBA7EnumDef4_nilEv @3008
    _ZN5CORBA7EnumDef7_narrowEPNS_6ObjectE @3009
    _ZN5CORBA7IDLType10_PD_repoIdE @3010 DATA
    _ZN5CORBA7IDLType10_duplicateEPNS_15_objref_IDLTypeE @3011
    _ZN5CORBA7IDLType17_unchecked_narrowEPNS_6ObjectE @3012
    _ZN5CORBA7IDLType4_nilEv @3013
    _ZN5CORBA7IDLType7_narrowEPNS_6ObjectE @3014
    _ZN5CORBA7Request10_duplicateEPS0_ @3015
    _ZN5CORBA7Request4_nilEv @3016
    _ZN5CORBA7Request8PR_magicE @3017 DATA
    _ZN5CORBA7RequestD0Ev @3018
    _ZN5CORBA7RequestD1Ev @3019
    _ZN5CORBA7RequestD2Ev @3020
    _ZN5CORBA7_tc_anyE @3021 DATA
    _ZN5CORBA7releaseEPNS_10NamedValueE @3022
    _ZN5CORBA7releaseEPNS_11ContextListE @3023
    _ZN5CORBA7releaseEPNS_11EnvironmentE @3024
    _ZN5CORBA7releaseEPNS_12AbstractBaseE @3025
    _ZN5CORBA7releaseEPNS_13ExceptionListE @3026
    _ZN5CORBA7releaseEPNS_6NVListE @3027
    _ZN5CORBA7releaseEPNS_6ObjectE @3028
    _ZN5CORBA7releaseEPNS_7ContextE @3029
    _ZN5CORBA7releaseEPNS_7RequestE @3030
    _ZN5CORBA7releaseEPNS_8TypeCodeE @3031
    _ZN5CORBA8AliasDef10_PD_repoIdE @3032 DATA
    _ZN5CORBA8AliasDef10_duplicateEPNS_16_objref_AliasDefE @3033
    _ZN5CORBA8AliasDef17_unchecked_narrowEPNS_6ObjectE @3034
    _ZN5CORBA8AliasDef4_nilEv @3035
    _ZN5CORBA8AliasDef7_narrowEPNS_6ObjectE @3036
    _ZN5CORBA8ArrayDef10_PD_repoIdE @3037 DATA
    _ZN5CORBA8ArrayDef10_duplicateEPNS_16_objref_ArrayDefE @3038
    _ZN5CORBA8ArrayDef17_unchecked_narrowEPNS_6ObjectE @3039
    _ZN5CORBA8ArrayDef4_nilEv @3040
    _ZN5CORBA8ArrayDef7_narrowEPNS_6ObjectE @3041
    _ZN5CORBA8FixedDef10_PD_repoIdE @3042 DATA
    _ZN5CORBA8FixedDef10_duplicateEPNS_16_objref_FixedDefE @3043
    _ZN5CORBA8FixedDef17_unchecked_narrowEPNS_6ObjectE @3044
    _ZN5CORBA8FixedDef4_nilEv @3045
    _ZN5CORBA8FixedDef7_narrowEPNS_6ObjectE @3046
    _ZN5CORBA8IRObject10_PD_repoIdE @3047 DATA
    _ZN5CORBA8IRObject10_duplicateEPNS_16_objref_IRObjectE @3048
    _ZN5CORBA8IRObject17_unchecked_narrowEPNS_6ObjectE @3049
    _ZN5CORBA8IRObject4_nilEv @3050
    _ZN5CORBA8IRObject7_narrowEPNS_6ObjectE @3051
    _ZN5CORBA8TypeCode10NP_enum_tcEPKcS2_RKNS_13EnumMemberSeqE @3052
    _ZN5CORBA8TypeCode10PR_char_tcEv @3053
    _ZN5CORBA8TypeCode10PR_enum_tcEPKcS2_PS2_mPNS0_8_TrackerE @3054
    _ZN5CORBA8TypeCode10PR_long_tcEv @3055
    _ZN5CORBA8TypeCode10PR_null_tcEv @3056
    _ZN5CORBA8TypeCode10PR_void_tcEv @3057
    _ZN5CORBA8TypeCode10_duplicateEPS0_ @3058
    _ZN5CORBA8TypeCode11NP_alias_tcEPKcS2_PS0_ @3059
    _ZN5CORBA8TypeCode11NP_array_tcEmPS0_ @3060
    _ZN5CORBA8TypeCode11NP_fixed_tcEts @3061
    _ZN5CORBA8TypeCode11NP_value_tcEPKcS2_sPS0_RKNS_14ValueMemberSeqE @3062
    _ZN5CORBA8TypeCode11PR_alias_tcEPKcS2_PS0_PNS0_8_TrackerE @3063
    _ZN5CORBA8TypeCode11PR_array_tcEmPS0_PNS0_8_TrackerE @3064
    _ZN5CORBA8TypeCode11PR_fixed_tcEttPNS0_8_TrackerE @3065
    _ZN5CORBA8TypeCode11PR_float_tcEv @3066
    _ZN5CORBA8TypeCode11PR_octet_tcEv @3067
    _ZN5CORBA8TypeCode11PR_short_tcEv @3068
    _ZN5CORBA8TypeCode11PR_ulong_tcEv @3069
    _ZN5CORBA8TypeCode11PR_union_tcEPKcS2_PS0_PKNS_14PR_unionMemberEmlPNS0_8_TrackerE @3070
    _ZN5CORBA8TypeCode11PR_value_tcEPKcS2_sPS0_PKNS_14PR_valueMemberEmPNS0_8_TrackerE @3071
    _ZN5CORBA8TypeCode11PR_wchar_tcEv @3072
    _ZN5CORBA8TypeCode12NP_string_tcEm @3073
    _ZN5CORBA8TypeCode12PR_Object_tcEv @3074
    _ZN5CORBA8TypeCode12PR_double_tcEv @3075
    _ZN5CORBA8TypeCode12PR_string_tcEmPNS0_8_TrackerE @3076
    _ZN5CORBA8TypeCode12PR_string_tcEv @3077
    _ZN5CORBA8TypeCode12PR_struct_tcEPKcS2_PKNS_15PR_structMemberEmPNS0_8_TrackerE @3078
    _ZN5CORBA8TypeCode12PR_ushort_tcEv @3079
    _ZN5CORBA8TypeCode13NP_wstring_tcEm @3080
    _ZN5CORBA8TypeCode13PR_boolean_tcEv @3081
    _ZN5CORBA8TypeCode13PR_forward_tcEPKcPNS0_8_TrackerE @3082
    _ZN5CORBA8TypeCode13PR_wstring_tcEmPNS0_8_TrackerE @3083
    _ZN5CORBA8TypeCode13PR_wstring_tcEv @3084
    _ZN5CORBA8TypeCode14NP_sequence_tcEmPS0_ @3085
    _ZN5CORBA8TypeCode14PR_TypeCode_tcEv @3086
    _ZN5CORBA8TypeCode14PR_longlong_tcEv @3087
    _ZN5CORBA8TypeCode14PR_sequence_tcEmPS0_PNS0_8_TrackerE @3088
    _ZN5CORBA8TypeCode15NP_interface_tcEPKcS2_ @3089
    _ZN5CORBA8TypeCode15NP_recursive_tcEPKc @3090
    _ZN5CORBA8TypeCode15NP_value_box_tcEPKcS2_PS0_ @3091
    _ZN5CORBA8TypeCode15PR_Principal_tcEv @3092
    _ZN5CORBA8TypeCode15PR_exception_tcEPKcS2_PKNS_15PR_structMemberEmPNS0_8_TrackerE @3093
    _ZN5CORBA8TypeCode15PR_interface_tcEPKcS2_PNS0_8_TrackerE @3094
    _ZN5CORBA8TypeCode15PR_ulonglong_tcEv @3095
    _ZN5CORBA8TypeCode15PR_value_box_tcEPKcS2_PS0_PNS0_8_TrackerE @3096
    _ZN5CORBA8TypeCode15marshalTypeCodeEPS0_R9cdrStream @3097
    _ZN5CORBA8TypeCode16PR_longdouble_tcEv @3098
    _ZN5CORBA8TypeCode17unmarshalTypeCodeER9cdrStream @3099
    _ZN5CORBA8TypeCode21PR_local_interface_tcEPKcS2_PNS0_8_TrackerE @3100
    _ZN5CORBA8TypeCode24NP_recursive_sequence_tcEmm @3101
    _ZN5CORBA8TypeCode24PR_abstract_interface_tcEPKcS2_PNS0_8_TrackerE @3102
    _ZN5CORBA8TypeCode24PR_recursive_sequence_tcEmmPNS0_8_TrackerE @3103
    _ZN5CORBA8TypeCode4_nilEv @3104
    _ZN5CORBA8TypeCode6Bounds10_PD_repoIdE @3105 DATA
    _ZN5CORBA8TypeCode6Bounds13insertToAnyFnE @3106 DATA
    _ZN5CORBA8TypeCode6Bounds16insertToAnyFnNCPE @3107 DATA
    _ZN5CORBA8TypeCode6Bounds9_downcastEPKNS_9ExceptionE @3108
    _ZN5CORBA8TypeCode6Bounds9_downcastEPNS_9ExceptionE @3109
    _ZN5CORBA8TypeCode6BoundsD0Ev @3110
    _ZN5CORBA8TypeCode6BoundsD1Ev @3111
    _ZN5CORBA8TypeCode6BoundsD2Ev @3112
    _ZN5CORBA8TypeCode7BadKind10_PD_repoIdE @3113 DATA
    _ZN5CORBA8TypeCode7BadKind13insertToAnyFnE @3114 DATA
    _ZN5CORBA8TypeCode7BadKind16insertToAnyFnNCPE @3115 DATA
    _ZN5CORBA8TypeCode7BadKind9_downcastEPKNS_9ExceptionE @3116
    _ZN5CORBA8TypeCode7BadKind9_downcastEPNS_9ExceptionE @3117
    _ZN5CORBA8TypeCode7BadKindD0Ev @3118
    _ZN5CORBA8TypeCode7BadKindD1Ev @3119
    _ZN5CORBA8TypeCode7BadKindD2Ev @3120
    _ZN5CORBA8TypeCode8PR_magicE @3121 DATA
    _ZN5CORBA8TypeCode8_Tracker3addEPS0_ @3122
    _ZN5CORBA8TypeCode8_TrackerD1Ev @3123
    _ZN5CORBA8TypeCode8_TrackerD2Ev @3124
    _ZN5CORBA8TypeCode9PR_any_tcEv @3125
    _ZN5CORBA8TypeCodeD0Ev @3126
    _ZN5CORBA8TypeCodeD1Ev @3127
    _ZN5CORBA8TypeCodeD2Ev @3128
    _ZN5CORBA8UnionDef10_PD_repoIdE @3129 DATA
    _ZN5CORBA8UnionDef10_duplicateEPNS_16_objref_UnionDefE @3130
    _ZN5CORBA8UnionDef17_unchecked_narrowEPNS_6ObjectE @3131
    _ZN5CORBA8UnionDef4_nilEv @3132
    _ZN5CORBA8UnionDef7_narrowEPNS_6ObjectE @3133
    _ZN5CORBA8ValueDef10_PD_repoIdE @3134 DATA
    _ZN5CORBA8ValueDef10_duplicateEPNS_16_objref_ValueDefE @3135
    _ZN5CORBA8ValueDef17_unchecked_narrowEPNS_6ObjectE @3136
    _ZN5CORBA8ValueDef20FullValueDescriptionC1ERKS1_ @3137
    _ZN5CORBA8ValueDef20FullValueDescriptionD1Ev @3138
    _ZN5CORBA8ValueDef20FullValueDescriptionlSER9cdrStream @3139
    _ZN5CORBA8ValueDef24_tc_FullValueDescriptionE @3140 DATA
    _ZN5CORBA8ValueDef4_nilEv @3141
    _ZN5CORBA8ValueDef7_narrowEPNS_6ObjectE @3142
    _ZN5CORBA8_tc_charE @3143 DATA
    _ZN5CORBA8_tc_longE @3144 DATA
    _ZN5CORBA8_tc_nullE @3145 DATA
    _ZN5CORBA8_tc_voidE @3146 DATA
    _ZN5CORBA9Contained10_PD_repoIdE @3147 DATA
    _ZN5CORBA9Contained10_duplicateEPNS_17_objref_ContainedE @3148
    _ZN5CORBA9Contained11DescriptionlSER9cdrStream @3149
    _ZN5CORBA9Contained15_tc_DescriptionE @3150 DATA
    _ZN5CORBA9Contained17_unchecked_narrowEPNS_6ObjectE @3151
    _ZN5CORBA9Contained4_nilEv @3152
    _ZN5CORBA9Contained7_narrowEPNS_6ObjectE @3153
    _ZN5CORBA9Container10_PD_repoIdE @3154 DATA
    _ZN5CORBA9Container10_duplicateEPNS_17_objref_ContainerE @3155
    _ZN5CORBA9Container11DescriptionD1Ev @3156
    _ZN5CORBA9Container11DescriptionlSER9cdrStream @3157
    _ZN5CORBA9Container15_tc_DescriptionE @3158 DATA
    _ZN5CORBA9Container17_unchecked_narrowEPNS_6ObjectE @3159
    _ZN5CORBA9Container18_tc_DescriptionSeqE @3160 DATA
    _ZN5CORBA9Container4_nilEv @3161
    _ZN5CORBA9Container7_narrowEPNS_6ObjectE @3162
    _ZN5CORBA9ModuleDef10_PD_repoIdE @3163 DATA
    _ZN5CORBA9ModuleDef10_duplicateEPNS_17_objref_ModuleDefE @3164
    _ZN5CORBA9ModuleDef17_unchecked_narrowEPNS_6ObjectE @3165
    _ZN5CORBA9ModuleDef4_nilEv @3166
    _ZN5CORBA9ModuleDef7_narrowEPNS_6ObjectE @3167
    _ZN5CORBA9NativeDef10_PD_repoIdE @3168 DATA
    _ZN5CORBA9NativeDef10_duplicateEPNS_17_objref_NativeDefE @3169
    _ZN5CORBA9NativeDef17_unchecked_narrowEPNS_6ObjectE @3170
    _ZN5CORBA9NativeDef4_nilEv @3171
    _ZN5CORBA9NativeDef7_narrowEPNS_6ObjectE @3172
    _ZN5CORBA9StringDef10_PD_repoIdE @3173 DATA
    _ZN5CORBA9StringDef10_duplicateEPNS_17_objref_StringDefE @3174
    _ZN5CORBA9StringDef17_unchecked_narrowEPNS_6ObjectE @3175
    _ZN5CORBA9StringDef4_nilEv @3176
    _ZN5CORBA9StringDef7_narrowEPNS_6ObjectE @3177
    _ZN5CORBA9StringSeqD1Ev @3178
    _ZN5CORBA9StructDef10_PD_repoIdE @3179 DATA
    _ZN5CORBA9StructDef10_duplicateEPNS_17_objref_StructDefE @3180
    _ZN5CORBA9StructDef17_unchecked_narrowEPNS_6ObjectE @3181
    _ZN5CORBA9StructDef4_nilEv @3182
    _ZN5CORBA9StructDef7_narrowEPNS_6ObjectE @3183
    _ZN5CORBA9ValueBase10_PD_repoIdE @3184 DATA
    _ZN5CORBA9ValueBase11_NP_marshalEPS0_R9cdrStream @3185
    _ZN5CORBA9ValueBase11_ptrToValueEPKc @3186
    _ZN5CORBA9ValueBase13_NP_unmarshalER9cdrStream @3187
    _ZN5CORBA9ValueBase9_PR_magicE @3188 DATA
    _ZN5CORBA9ValueBase9_downcastEPS0_ @3189
    _ZN5CORBA9ValueBaseC1ERKS0_ @3190
    _ZN5CORBA9ValueBaseC1Ev @3191
    _ZN5CORBA9ValueBaseC2ERKS0_ @3192
    _ZN5CORBA9ValueBaseC2Ev @3193
    _ZN5CORBA9ValueBaseD0Ev @3194
    _ZN5CORBA9ValueBaseD1Ev @3195
    _ZN5CORBA9ValueBaseD2Ev @3196
    _ZN5CORBA9_tc_floatE @3197 DATA
    _ZN5CORBA9_tc_octetE @3198 DATA
    _ZN5CORBA9_tc_shortE @3199 DATA
    _ZN5CORBA9_tc_ulongE @3200 DATA
    _ZN5CORBA9_tc_wcharE @3201 DATA
    _ZN7omniORB14fatalExceptionD1Ev @3202
    _ZN8omniTaskD0Ev @3203
    _ZN8omniTaskD1Ev @3204
    _ZN9CosNaming11_tc_BindingE @3205 DATA
    _ZN9CosNaming11_tc_IstringE @3206 DATA
    _ZN9CosNaming13NamingContext12_tc_NotEmptyE @3207 DATA
    _ZN9CosNaming13NamingContext12_tc_NotFoundE @3208 DATA
    _ZN9CosNaming13NamingContext15_tc_InvalidNameE @3209 DATA
    _ZN9CosNaming13NamingContext16_tc_AlreadyBoundE @3210 DATA
    _ZN9CosNaming13NamingContext17_tc_CannotProceedE @3211 DATA
    _ZN9CosNaming13NamingContext18_tc_NotFoundReasonE @3212 DATA
    _ZN9CosNaming15_tc_BindingListE @3213 DATA
    _ZN9CosNaming15_tc_BindingTypeE @3214 DATA
    _ZN9CosNaming16NamingContextExt11_tc_AddressE @3215 DATA
    _ZN9CosNaming16NamingContextExt13_tc_URLStringE @3216 DATA
    _ZN9CosNaming16NamingContextExt14_tc_StringNameE @3217 DATA
    _ZN9CosNaming16NamingContextExt18_tc_InvalidAddressE @3218 DATA
    _ZN9CosNaming17_tc_NameComponentE @3219 DATA
    _ZN9CosNaming17_tc_NamingContextE @3220 DATA
    _ZN9CosNaming19_tc_BindingIteratorE @3221 DATA
    _ZN9CosNaming20_tc_NamingContextExtE @3222 DATA
    _ZN9CosNaming8_tc_NameE @3223 DATA
    _ZN9POA_CORBA10RepositoryD0Ev @3224
    _ZN9POA_CORBA10RepositoryD1Ev @3225
    _ZN9POA_CORBA10RepositoryD2Ev @3226
    _ZN9POA_CORBA10TypedefDefD0Ev @3227
    _ZN9POA_CORBA10TypedefDefD1Ev @3228
    _ZN9POA_CORBA10TypedefDefD2Ev @3229
    _ZN9POA_CORBA10WstringDefD0Ev @3230
    _ZN9POA_CORBA10WstringDefD1Ev @3231
    _ZN9POA_CORBA10WstringDefD2Ev @3232
    _ZN9POA_CORBA11ConstantDefD0Ev @3233
    _ZN9POA_CORBA11ConstantDefD1Ev @3234
    _ZN9POA_CORBA11ConstantDefD2Ev @3235
    _ZN9POA_CORBA11SequenceDefD0Ev @3236
    _ZN9POA_CORBA11SequenceDefD1Ev @3237
    _ZN9POA_CORBA11SequenceDefD2Ev @3238
    _ZN9POA_CORBA11ValueBoxDefD0Ev @3239
    _ZN9POA_CORBA11ValueBoxDefD1Ev @3240
    _ZN9POA_CORBA11ValueBoxDefD2Ev @3241
    _ZN9POA_CORBA12AttributeDefD0Ev @3242
    _ZN9POA_CORBA12AttributeDefD1Ev @3243
    _ZN9POA_CORBA12AttributeDefD2Ev @3244
    _ZN9POA_CORBA12ExceptionDefD0Ev @3245
    _ZN9POA_CORBA12ExceptionDefD1Ev @3246
    _ZN9POA_CORBA12ExceptionDefD2Ev @3247
    _ZN9POA_CORBA12InterfaceDefD0Ev @3248
    _ZN9POA_CORBA12InterfaceDefD1Ev @3249
    _ZN9POA_CORBA12InterfaceDefD2Ev @3250
    _ZN9POA_CORBA12OperationDefD0Ev @3251
    _ZN9POA_CORBA12OperationDefD1Ev @3252
    _ZN9POA_CORBA12OperationDefD2Ev @3253
    _ZN9POA_CORBA12PrimitiveDefD0Ev @3254
    _ZN9POA_CORBA12PrimitiveDefD1Ev @3255
    _ZN9POA_CORBA12PrimitiveDefD2Ev @3256
    _ZN9POA_CORBA14ValueMemberDefD0Ev @3257
    _ZN9POA_CORBA14ValueMemberDefD1Ev @3258
    _ZN9POA_CORBA14ValueMemberDefD2Ev @3259
    _ZN9POA_CORBA20AbstractInterfaceDefD0Ev @3260
    _ZN9POA_CORBA20AbstractInterfaceDefD1Ev @3261
    _ZN9POA_CORBA20AbstractInterfaceDefD2Ev @3262
    _ZN9POA_CORBA7EnumDefD0Ev @3263
    _ZN9POA_CORBA7EnumDefD1Ev @3264
    _ZN9POA_CORBA7EnumDefD2Ev @3265
    _ZN9POA_CORBA7IDLTypeD0Ev @3266
    _ZN9POA_CORBA7IDLTypeD1Ev @3267
    _ZN9POA_CORBA7IDLTypeD2Ev @3268
    _ZN9POA_CORBA8AliasDefD0Ev @3269
    _ZN9POA_CORBA8AliasDefD1Ev @3270
    _ZN9POA_CORBA8AliasDefD2Ev @3271
    _ZN9POA_CORBA8ArrayDefD0Ev @3272
    _ZN9POA_CORBA8ArrayDefD1Ev @3273
    _ZN9POA_CORBA8ArrayDefD2Ev @3274
    _ZN9POA_CORBA8FixedDefD0Ev @3275
    _ZN9POA_CORBA8FixedDefD1Ev @3276
    _ZN9POA_CORBA8FixedDefD2Ev @3277
    _ZN9POA_CORBA8IRObjectD0Ev @3278
    _ZN9POA_CORBA8IRObjectD1Ev @3279
    _ZN9POA_CORBA8IRObjectD2Ev @3280
    _ZN9POA_CORBA8UnionDefD0Ev @3281
    _ZN9POA_CORBA8UnionDefD1Ev @3282
    _ZN9POA_CORBA8UnionDefD2Ev @3283
    _ZN9POA_CORBA8ValueDefD0Ev @3284
    _ZN9POA_CORBA8ValueDefD1Ev @3285
    _ZN9POA_CORBA8ValueDefD2Ev @3286
    _ZN9POA_CORBA9ContainedD0Ev @3287
    _ZN9POA_CORBA9ContainedD1Ev @3288
    _ZN9POA_CORBA9ContainedD2Ev @3289
    _ZN9POA_CORBA9ContainerD0Ev @3290
    _ZN9POA_CORBA9ContainerD1Ev @3291
    _ZN9POA_CORBA9ContainerD2Ev @3292
    _ZN9POA_CORBA9ModuleDefD0Ev @3293
    _ZN9POA_CORBA9ModuleDefD1Ev @3294
    _ZN9POA_CORBA9ModuleDefD2Ev @3295
    _ZN9POA_CORBA9NativeDefD0Ev @3296
    _ZN9POA_CORBA9NativeDefD1Ev @3297
    _ZN9POA_CORBA9NativeDefD2Ev @3298
    _ZN9POA_CORBA9StringDefD0Ev @3299
    _ZN9POA_CORBA9StringDefD1Ev @3300
    _ZN9POA_CORBA9StringDefD2Ev @3301
    _ZN9POA_CORBA9StructDefD0Ev @3302
    _ZN9POA_CORBA9StructDefD1Ev @3303
    _ZN9POA_CORBA9StructDefD2Ev @3304
    _ZN9cdrStream14marshalBooleanEb @3305
    _ZN9cdrStream16unmarshalBooleanEv @3306
    _ZNK10DynamicAny13DynAnyFactory20InconsistentTypeCode10_NP_repoIdEPi @3307
    _ZNK10DynamicAny13DynAnyFactory20InconsistentTypeCode10_NP_typeIdEv @3308
    _ZNK10DynamicAny13DynAnyFactory20InconsistentTypeCode11_NP_marshalER9cdrStream @3309
    _ZNK10DynamicAny13DynAnyFactory20InconsistentTypeCode13_NP_duplicateEv @3310
    _ZNK10DynamicAny13DynAnyFactory20InconsistentTypeCode6_raiseEv @3311
    _ZNK10DynamicAny6DynAny12InvalidValue10_NP_repoIdEPi @3312
    _ZNK10DynamicAny6DynAny12InvalidValue10_NP_typeIdEv @3313
    _ZNK10DynamicAny6DynAny12InvalidValue11_NP_marshalER9cdrStream @3314
    _ZNK10DynamicAny6DynAny12InvalidValue13_NP_duplicateEv @3315
    _ZNK10DynamicAny6DynAny12InvalidValue6_raiseEv @3316
    _ZNK10DynamicAny6DynAny12TypeMismatch10_NP_repoIdEPi @3317
    _ZNK10DynamicAny6DynAny12TypeMismatch10_NP_typeIdEv @3318
    _ZNK10DynamicAny6DynAny12TypeMismatch11_NP_marshalER9cdrStream @3319
    _ZNK10DynamicAny6DynAny12TypeMismatch13_NP_duplicateEv @3320
    _ZNK10DynamicAny6DynAny12TypeMismatch6_raiseEv @3321
    _ZNK27_CORBA_PseudoValue_SequenceIN4omni14TypeCode_union13TcUnionMemberEEixEm @3322
    _ZNK4omni10DynAnyImpl11NP_nodetypeEv @3323
    _ZNK4omni10NVListImpl5countEv @3324
    _ZNK4omni10NVListImpl9NP_is_nilEv @3325
    _ZNK4omni10omniNilEnv9NP_is_nilEv @3326
    _ZNK4omni10omniNilEnv9exceptionEv @3327
    _ZNK4omni11ContextImpl12context_nameEv @3328
    _ZNK4omni11ContextImpl12matchPatternEPKcRmS3_ @3329
    _ZNK4omni11ContextImpl6parentEv @3330
    _ZNK4omni11ContextImpl9NP_is_nilEv @3331
    _ZNK4omni11DynEnumImpl11NP_nodetypeEv @3332
    _ZNK4omni11RequestImpl3ctxEv @3333
    _ZNK4omni11RequestImpl6targetEv @3334
    _ZNK4omni11RequestImpl9NP_is_nilEv @3335
    _ZNK4omni11RequestImpl9operationEv @3336
    _ZNK4omni12DynArrayImpl11NP_nodetypeEv @3337
    _ZNK4omni12DynFixedImpl11NP_nodetypeEv @3338
    _ZNK4omni12DynUnionDisc11NP_nodetypeEv @3339
    _ZNK4omni12DynUnionImpl11NP_nodetypeEv @3340
    _ZNK4omni12DynValueImpl11NP_nodetypeEv @3341
    _ZNK4omni12UnknownValue10_NP_customEv @3342
    _ZNK4omni12UnknownValue16_NP_repositoryIdERm @3343
    _ZNK4omni12UnknownValue16_NP_repositoryIdEv @3344
    _ZNK4omni12UnknownValue17_PR_marshal_stateER9cdrStream @3345
    _ZNK4omni12UnknownValue18_NP_truncatableIdsEv @3346
    _ZNK4omni13DynStructImpl11NP_nodetypeEv @3347
    _ZNK4omni13TypeCode_base12NP_parameterEl @3348
    _ZNK4omni13TypeCode_base14NP_fixed_scaleEv @3349
    _ZNK4omni13TypeCode_base14NP_member_nameEm @3350
    _ZNK4omni13TypeCode_base14NP_member_typeEm @3351
    _ZNK4omni13TypeCode_base14NP_param_countEv @3352
    _ZNK4omni13TypeCode_base15NP_content_typeEv @3353
    _ZNK4omni13TypeCode_base15NP_fixed_digitsEv @3354
    _ZNK4omni13TypeCode_base15NP_member_countEv @3355
    _ZNK4omni13TypeCode_base15NP_member_labelEm @3356
    _ZNK4omni13TypeCode_base16NP_default_indexEv @3357
    _ZNK4omni13TypeCode_base16NP_extendedEqualEPKS0_bPKNS_17TypeCode_pairlistE @3358
    _ZNK4omni13TypeCode_base16NP_type_modifierEv @3359
    _ZNK4omni13TypeCode_base20NP_member_visibilityEm @3360
    _ZNK4omni13TypeCode_base21NP_concrete_base_typeEv @3361
    _ZNK4omni13TypeCode_base21NP_discriminator_typeEv @3362
    _ZNK4omni13TypeCode_base22NP_marshalSimpleParamsER9cdrStreamPNS_20TypeCode_offsetTableE @3363
    _ZNK4omni13TypeCode_base23NP_marshalComplexParamsER9cdrStreamPNS_20TypeCode_offsetTableE @3364
    _ZNK4omni13TypeCode_base5NP_idEv @3365
    _ZNK4omni13TypeCode_base7NP_nameEv @3366
    _ZNK4omni13TypeCode_base8NP_equalEPKS0_bPKNS_17TypeCode_pairlistE @3367
    _ZNK4omni13TypeCode_base9NP_is_nilEv @3368
    _ZNK4omni13TypeCode_base9NP_lengthEv @3369
    _ZNK4omni13TypeCode_enum12NP_parameterEl @3370
    _ZNK4omni13TypeCode_enum14NP_member_nameEm @3371
    _ZNK4omni13TypeCode_enum14NP_param_countEv @3372
    _ZNK4omni13TypeCode_enum15NP_member_countEv @3373
    _ZNK4omni13TypeCode_enum15NP_member_indexEPKc @3374
    _ZNK4omni13TypeCode_enum16NP_extendedEqualEPKNS_13TypeCode_baseEbPKNS_17TypeCode_pairlistE @3375
    _ZNK4omni13TypeCode_enum23NP_marshalComplexParamsER9cdrStreamPNS_20TypeCode_offsetTableE @3376
    _ZNK4omni13TypeCode_enum5NP_idEv @3377
    _ZNK4omni13TypeCode_enum7NP_nameEv @3378
    _ZNK4omni13omniNilCtList5countEv @3379
    _ZNK4omni13omniNilCtList9NP_is_nilEv @3380
    _ZNK4omni13omniNilDynAny11NP_nodetypeEv @3381
    _ZNK4omni13omniNilDynAny4typeEv @3382
    _ZNK4omni13omniNilExList5countEv @3383
    _ZNK4omni13omniNilExList9NP_is_nilEv @3384
    _ZNK4omni13omniNilNVList5countEv @3385
    _ZNK4omni13omniNilNVList9NP_is_nilEv @3386
    _ZNK4omni14DynAnyImplBase4typeEv @3387
    _ZNK4omni14NamedValueImpl4nameEv @3388
    _ZNK4omni14NamedValueImpl5flagsEv @3389
    _ZNK4omni14NamedValueImpl5valueEv @3390
    _ZNK4omni14NamedValueImpl9NP_is_nilEv @3391
    _ZNK4omni14TypeCode_alias12NP_parameterEl @3392
    _ZNK4omni14TypeCode_alias14NP_param_countEv @3393
    _ZNK4omni14TypeCode_alias15NP_content_typeEv @3394
    _ZNK4omni14TypeCode_alias16NP_extendedEqualEPKNS_13TypeCode_baseEbPKNS_17TypeCode_pairlistE @3395
    _ZNK4omni14TypeCode_alias23NP_marshalComplexParamsER9cdrStreamPNS_20TypeCode_offsetTableE @3396
    _ZNK4omni14TypeCode_alias5NP_idEv @3397
    _ZNK4omni14TypeCode_alias7NP_nameEv @3398
    _ZNK4omni14TypeCode_array12NP_parameterEl @3399
    _ZNK4omni14TypeCode_array14NP_param_countEv @3400
    _ZNK4omni14TypeCode_array15NP_content_typeEv @3401
    _ZNK4omni14TypeCode_array16NP_extendedEqualEPKNS_13TypeCode_baseEbPKNS_17TypeCode_pairlistE @3402
    _ZNK4omni14TypeCode_array23NP_marshalComplexParamsER9cdrStreamPNS_20TypeCode_offsetTableE @3403
    _ZNK4omni14TypeCode_array9NP_lengthEv @3404
    _ZNK4omni14TypeCode_fixed14NP_fixed_scaleEv @3405
    _ZNK4omni14TypeCode_fixed15NP_fixed_digitsEv @3406
    _ZNK4omni14TypeCode_fixed16NP_extendedEqualEPKNS_13TypeCode_baseEbPKNS_17TypeCode_pairlistE @3407
    _ZNK4omni14TypeCode_fixed22NP_marshalSimpleParamsER9cdrStreamPNS_20TypeCode_offsetTableE @3408
    _ZNK4omni14TypeCode_union12NP_parameterEl @3409
    _ZNK4omni14TypeCode_union14NP_member_nameEm @3410
    _ZNK4omni14TypeCode_union14NP_member_typeEm @3411
    _ZNK4omni14TypeCode_union14NP_param_countEv @3412
    _ZNK4omni14TypeCode_union15NP_member_countEv @3413
    _ZNK4omni14TypeCode_union15NP_member_labelEm @3414
    _ZNK4omni14TypeCode_union16NP_default_indexEv @3415
    _ZNK4omni14TypeCode_union16NP_extendedEqualEPKNS_13TypeCode_baseEbPKNS_17TypeCode_pairlistE @3416
    _ZNK4omni14TypeCode_union21NP_discriminator_typeEv @3417
    _ZNK4omni14TypeCode_union23NP_marshalComplexParamsER9cdrStreamPNS_20TypeCode_offsetTableE @3418
    _ZNK4omni14TypeCode_union27NP_index_from_discriminatorEy @3419
    _ZNK4omni14TypeCode_union5NP_idEv @3420
    _ZNK4omni14TypeCode_union7NP_nameEv @3421
    _ZNK4omni14TypeCode_value14NP_member_nameEm @3422
    _ZNK4omni14TypeCode_value14NP_member_typeEm @3423
    _ZNK4omni14TypeCode_value15NP_member_countEv @3424
    _ZNK4omni14TypeCode_value16NP_extendedEqualEPKNS_13TypeCode_baseEbPKNS_17TypeCode_pairlistE @3425
    _ZNK4omni14TypeCode_value16NP_paramListTypeEv @3426
    _ZNK4omni14TypeCode_value16NP_type_modifierEv @3427
    _ZNK4omni14TypeCode_value20NP_member_visibilityEm @3428
    _ZNK4omni14TypeCode_value21NP_concrete_base_typeEv @3429
    _ZNK4omni14TypeCode_value23NP_marshalComplexParamsER9cdrStreamPNS_20TypeCode_offsetTableE @3430
    _ZNK4omni14TypeCode_value5NP_idEv @3431
    _ZNK4omni14TypeCode_value7NP_nameEv @3432
    _ZNK4omni14omniNilContext12context_nameEv @3433
    _ZNK4omni14omniNilContext6parentEv @3434
    _ZNK4omni14omniNilContext9NP_is_nilEv @3435
    _ZNK4omni14omniNilRequest3ctxEv @3436
    _ZNK4omni14omniNilRequest6targetEv @3437
    _ZNK4omni14omniNilRequest9NP_is_nilEv @3438
    _ZNK4omni14omniNilRequest9operationEv @3439
    _ZNK4omni15ContextListImpl5countEv @3440
    _ZNK4omni15ContextListImpl9NP_is_nilEv @3441
    _ZNK4omni15DynSequenceImpl11NP_nodetypeEv @3442
    _ZNK4omni15DynValueBoxImpl11NP_nodetypeEv @3443
    _ZNK4omni15TypeCode_except12NP_parameterEl @3444
    _ZNK4omni15TypeCode_except14NP_member_nameEm @3445
    _ZNK4omni15TypeCode_except14NP_member_typeEm @3446
    _ZNK4omni15TypeCode_except14NP_param_countEv @3447
    _ZNK4omni15TypeCode_except15NP_member_countEv @3448
    _ZNK4omni15TypeCode_except16NP_extendedEqualEPKNS_13TypeCode_baseEbPKNS_17TypeCode_pairlistE @3449
    _ZNK4omni15TypeCode_except23NP_marshalComplexParamsER9cdrStreamPNS_20TypeCode_offsetTableE @3450
    _ZNK4omni15TypeCode_except5NP_idEv @3451
    _ZNK4omni15TypeCode_except7NP_nameEv @3452
    _ZNK4omni15TypeCode_objref12NP_parameterEl @3453
    _ZNK4omni15TypeCode_objref14NP_param_countEv @3454
    _ZNK4omni15TypeCode_objref16NP_extendedEqualEPKNS_13TypeCode_baseEbPKNS_17TypeCode_pairlistE @3455
    _ZNK4omni15TypeCode_objref16NP_paramListTypeEv @3456
    _ZNK4omni15TypeCode_objref23NP_marshalComplexParamsER9cdrStreamPNS_20TypeCode_offsetTableE @3457
    _ZNK4omni15TypeCode_objref5NP_idEv @3458
    _ZNK4omni15TypeCode_objref7NP_nameEv @3459
    _ZNK4omni15TypeCode_string12NP_parameterEl @3460
    _ZNK4omni15TypeCode_string14NP_param_countEv @3461
    _ZNK4omni15TypeCode_string16NP_extendedEqualEPKNS_13TypeCode_baseEbPKNS_17TypeCode_pairlistE @3462
    _ZNK4omni15TypeCode_string22NP_marshalSimpleParamsER9cdrStreamPNS_20TypeCode_offsetTableE @3463
    _ZNK4omni15TypeCode_string9NP_lengthEv @3464
    _ZNK4omni15TypeCode_struct12NP_parameterEl @3465
    _ZNK4omni15TypeCode_struct14NP_member_nameEm @3466
    _ZNK4omni15TypeCode_struct14NP_member_typeEm @3467
    _ZNK4omni15TypeCode_struct14NP_param_countEv @3468
    _ZNK4omni15TypeCode_struct15NP_member_countEv @3469
    _ZNK4omni15TypeCode_struct16NP_extendedEqualEPKNS_13TypeCode_baseEbPKNS_17TypeCode_pairlistE @3470
    _ZNK4omni15TypeCode_struct23NP_marshalComplexParamsER9cdrStreamPNS_20TypeCode_offsetTableE @3471
    _ZNK4omni15TypeCode_struct5NP_idEv @3472
    _ZNK4omni15TypeCode_struct7NP_nameEv @3473
    _ZNK4omni16DynUnionEnumDisc11NP_nodetypeEv @3474
    _ZNK4omni16TypeCode_wstring12NP_parameterEl @3475
    _ZNK4omni16TypeCode_wstring14NP_param_countEv @3476
    _ZNK4omni16TypeCode_wstring16NP_extendedEqualEPKNS_13TypeCode_baseEbPKNS_17TypeCode_pairlistE @3477
    _ZNK4omni16TypeCode_wstring22NP_marshalSimpleParamsER9cdrStreamPNS_20TypeCode_offsetTableE @3478
    _ZNK4omni16TypeCode_wstring9NP_lengthEv @3479
    _ZNK4omni17ExceptionListImpl5countEv @3480
    _ZNK4omni17ExceptionListImpl9NP_is_nilEv @3481
    _ZNK4omni17TypeCode_indirect12NP_parameterEl @3482
    _ZNK4omni17TypeCode_indirect14NP_fixed_scaleEv @3483
    _ZNK4omni17TypeCode_indirect14NP_member_nameEm @3484
    _ZNK4omni17TypeCode_indirect14NP_member_typeEm @3485
    _ZNK4omni17TypeCode_indirect14NP_param_countEv @3486
    _ZNK4omni17TypeCode_indirect15NP_content_typeEv @3487
    _ZNK4omni17TypeCode_indirect15NP_fixed_digitsEv @3488
    _ZNK4omni17TypeCode_indirect15NP_member_countEv @3489
    _ZNK4omni17TypeCode_indirect15NP_member_labelEm @3490
    _ZNK4omni17TypeCode_indirect16NP_default_indexEv @3491
    _ZNK4omni17TypeCode_indirect16NP_extendedEqualEPKNS_13TypeCode_baseEbPKNS_17TypeCode_pairlistE @3492
    _ZNK4omni17TypeCode_indirect16NP_type_modifierEv @3493
    _ZNK4omni17TypeCode_indirect20NP_member_visibilityEm @3494
    _ZNK4omni17TypeCode_indirect21NP_concrete_base_typeEv @3495
    _ZNK4omni17TypeCode_indirect21NP_discriminator_typeEv @3496
    _ZNK4omni17TypeCode_indirect22NP_marshalSimpleParamsER9cdrStreamPNS_20TypeCode_offsetTableE @3497
    _ZNK4omni17TypeCode_indirect23NP_marshalComplexParamsER9cdrStreamPNS_20TypeCode_offsetTableE @3498
    _ZNK4omni17TypeCode_indirect5NP_idEv @3499
    _ZNK4omni17TypeCode_indirect7NP_nameEv @3500
    _ZNK4omni17TypeCode_indirect9NP_lengthEv @3501
    _ZNK4omni17TypeCode_sequence12NP_parameterEl @3502
    _ZNK4omni17TypeCode_sequence14NP_param_countEv @3503
    _ZNK4omni17TypeCode_sequence15NP_content_typeEv @3504
    _ZNK4omni17TypeCode_sequence16NP_extendedEqualEPKNS_13TypeCode_baseEbPKNS_17TypeCode_pairlistE @3505
    _ZNK4omni17TypeCode_sequence16NP_paramListTypeEv @3506
    _ZNK4omni17TypeCode_sequence23NP_marshalComplexParamsER9cdrStreamPNS_20TypeCode_offsetTableE @3507
    _ZNK4omni17TypeCode_sequence9NP_lengthEv @3508
    _ZNK4omni18TypeCode_value_box15NP_content_typeEv @3509
    _ZNK4omni18TypeCode_value_box16NP_extendedEqualEPKNS_13TypeCode_baseEbPKNS_17TypeCode_pairlistE @3510
    _ZNK4omni18TypeCode_value_box16NP_paramListTypeEv @3511
    _ZNK4omni18TypeCode_value_box23NP_marshalComplexParamsER9cdrStreamPNS_20TypeCode_offsetTableE @3512
    _ZNK4omni18TypeCode_value_box5NP_idEv @3513
    _ZNK4omni18TypeCode_value_box7NP_nameEv @3514
    _ZNK4omni20FromAnyUserException10_NP_repoIdEPi @3515
    _ZNK4omni20FromAnyUserException10_NP_typeIdEv @3516
    _ZNK4omni20FromAnyUserException11_NP_marshalER9cdrStream @3517
    _ZNK4omni20FromAnyUserException13_NP_duplicateEv @3518
    _ZNK4omni20FromAnyUserException6_raiseEv @3519
    _ZNK4omni9omniNilNV4nameEv @3520
    _ZNK4omni9omniNilNV5flagsEv @3521
    _ZNK4omni9omniNilNV5valueEv @3522
    _ZNK4omni9omniNilNV9NP_is_nilEv @3523
    _ZNK5CORBA11ContextList6Bounds10_NP_repoIdEPi @3524
    _ZNK5CORBA11ContextList6Bounds10_NP_typeIdEv @3525
    _ZNK5CORBA11ContextList6Bounds11_NP_marshalER9cdrStream @3526
    _ZNK5CORBA11ContextList6Bounds13_NP_duplicateEv @3527
    _ZNK5CORBA11ContextList6Bounds6_raiseEv @3528
    _ZNK5CORBA11Environment9NP_is_nilEv @3529
    _ZNK5CORBA11Environment9exceptionEv @3530
    _ZNK5CORBA11InitializerrSER9cdrStream @3531
    _ZNK5CORBA11PolicyError10_NP_repoIdEPi @3532
    _ZNK5CORBA11PolicyError10_NP_typeIdEv @3533
    _ZNK5CORBA11PolicyError11_NP_marshalER9cdrStream @3534
    _ZNK5CORBA11PolicyError13_NP_duplicateEv @3535
    _ZNK5CORBA11PolicyError6_raiseEv @3536
    _ZNK5CORBA11PolicyErrorrSER9cdrStream @3537
    _ZNK5CORBA11StringValue10_NP_customEv @3538
    _ZNK5CORBA11StringValue16_NP_repositoryIdERm @3539
    _ZNK5CORBA11StringValue16_NP_repositoryIdEv @3540
    _ZNK5CORBA11StringValue17_PR_marshal_stateER9cdrStream @3541
    _ZNK5CORBA11StringValue18_NP_truncatableIdsEv @3542
    _ZNK5CORBA11StringValue7_NP_boxEv @3543
    _ZNK5CORBA11UnionMemberrSER9cdrStream @3544
    _ZNK5CORBA11ValueMemberrSER9cdrStream @3545
    _ZNK5CORBA12AbstractBase10_NP_is_nilEv @3546
    _ZNK5CORBA12InterfaceDef24FullInterfaceDescriptionrSER9cdrStream @3547
    _ZNK5CORBA12StructMemberrSER9cdrStream @3548
    _ZNK5CORBA12WStringValue10_NP_customEv @3549
    _ZNK5CORBA12WStringValue16_NP_repositoryIdERm @3550
    _ZNK5CORBA12WStringValue16_NP_repositoryIdEv @3551
    _ZNK5CORBA12WStringValue17_PR_marshal_stateER9cdrStream @3552
    _ZNK5CORBA12WStringValue18_NP_truncatableIdsEv @3553
    _ZNK5CORBA12WStringValue7_NP_boxEv @3554
    _ZNK5CORBA12_pof_EnumDef4is_aEPKc @3555
    _ZNK5CORBA12_pof_IDLType4is_aEPKc @3556
    _ZNK5CORBA13ExceptionList6Bounds10_NP_repoIdEPi @3557
    _ZNK5CORBA13ExceptionList6Bounds10_NP_typeIdEv @3558
    _ZNK5CORBA13ExceptionList6Bounds11_NP_marshalER9cdrStream @3559
    _ZNK5CORBA13ExceptionList6Bounds13_NP_duplicateEv @3560
    _ZNK5CORBA13ExceptionList6Bounds6_raiseEv @3561
    _ZNK5CORBA13_pof_AliasDef4is_aEPKc @3562
    _ZNK5CORBA13_pof_ArrayDef4is_aEPKc @3563
    _ZNK5CORBA13_pof_FixedDef4is_aEPKc @3564
    _ZNK5CORBA13_pof_IRObject4is_aEPKc @3565
    _ZNK5CORBA13_pof_UnionDef4is_aEPKc @3566
    _ZNK5CORBA13_pof_ValueDef4is_aEPKc @3567
    _ZNK5CORBA14_pof_Contained4is_aEPKc @3568
    _ZNK5CORBA14_pof_Container4is_aEPKc @3569
    _ZNK5CORBA14_pof_ModuleDef4is_aEPKc @3570
    _ZNK5CORBA14_pof_NativeDef4is_aEPKc @3571
    _ZNK5CORBA14_pof_StringDef4is_aEPKc @3572
    _ZNK5CORBA14_pof_StructDef4is_aEPKc @3573
    _ZNK5CORBA15TypeCode_memberrSER9cdrStream @3574
    _ZNK5CORBA15TypeDescriptionrSER9cdrStream @3575
    _ZNK5CORBA15_pof_Repository4is_aEPKc @3576
    _ZNK5CORBA15_pof_TypedefDef4is_aEPKc @3577
    _ZNK5CORBA15_pof_WstringDef4is_aEPKc @3578
    _ZNK5CORBA16ValueDescriptionrSER9cdrStream @3579
    _ZNK5CORBA16WrongTransaction10_NP_repoIdEPi @3580
    _ZNK5CORBA16WrongTransaction10_NP_typeIdEv @3581
    _ZNK5CORBA16WrongTransaction11_NP_marshalER9cdrStream @3582
    _ZNK5CORBA16WrongTransaction13_NP_duplicateEv @3583
    _ZNK5CORBA16WrongTransaction6_raiseEv @3584
    _ZNK5CORBA16_pof_ConstantDef4is_aEPKc @3585
    _ZNK5CORBA16_pof_SequenceDef4is_aEPKc @3586
    _ZNK5CORBA16_pof_ValueBoxDef4is_aEPKc @3587
    _ZNK5CORBA17ModuleDescriptionrSER9cdrStream @3588
    _ZNK5CORBA17_pof_AttributeDef4is_aEPKc @3589
    _ZNK5CORBA17_pof_ExceptionDef4is_aEPKc @3590
    _ZNK5CORBA17_pof_InterfaceDef4is_aEPKc @3591
    _ZNK5CORBA17_pof_OperationDef4is_aEPKc @3592
    _ZNK5CORBA17_pof_PrimitiveDef4is_aEPKc @3593
    _ZNK5CORBA19ConstantDescriptionrSER9cdrStream @3594
    _ZNK5CORBA19_pof_ValueMemberDef4is_aEPKc @3595
    _ZNK5CORBA20AttributeDescriptionrSER9cdrStream @3596
    _ZNK5CORBA20ExceptionDescriptionrSER9cdrStream @3597
    _ZNK5CORBA20InterfaceDescriptionrSER9cdrStream @3598
    _ZNK5CORBA20OperationDescriptionrSER9cdrStream @3599
    _ZNK5CORBA20ParameterDescriptionrSER9cdrStream @3600
    _ZNK5CORBA20UnknownUserException10_NP_repoIdEPi @3601
    _ZNK5CORBA20UnknownUserException10_NP_typeIdEv @3602
    _ZNK5CORBA20UnknownUserException11_NP_marshalER9cdrStream @3603
    _ZNK5CORBA20UnknownUserException13_NP_duplicateEv @3604
    _ZNK5CORBA20UnknownUserException6_raiseEv @3605
    _ZNK5CORBA24_omni_AbstractBaseObjref10_NP_is_nilEv @3606
    _ZNK5CORBA25_pof_AbstractInterfaceDef4is_aEPKc @3607
    _ZNK5CORBA3Any10PR_extractEPNS_8TypeCodeEPFvR9cdrStreamRPvEPFvS4_S5_EPFvS5_ES6_ @3608
    _ZNK5CORBA3Any10PR_extractEPNS_8TypeCodeEPFvR9cdrStreamRPvES5_ @3609
    _ZNK5CORBA3Any15PR_streamToReadEv @3610
    _ZNK5CORBA3Any18NP_marshalDataOnlyER9cdrStream @3611
    _ZNK5CORBA3Any4typeEv @3612
    _ZNK5CORBA3Any5valueEv @3613
    _ZNK5CORBA3AnyrSENS0_10to_booleanE @3614
    _ZNK5CORBA3AnyrSENS0_10to_wstringE @3615
    _ZNK5CORBA3AnyrSENS0_16to_abstract_baseE @3616
    _ZNK5CORBA3AnyrSENS0_7to_charE @3617
    _ZNK5CORBA3AnyrSENS0_8to_fixedE @3618
    _ZNK5CORBA3AnyrSENS0_8to_octetE @3619
    _ZNK5CORBA3AnyrSENS0_8to_valueE @3620
    _ZNK5CORBA3AnyrSENS0_8to_wcharE @3621
    _ZNK5CORBA3AnyrSENS0_9to_objectE @3622
    _ZNK5CORBA3AnyrSENS0_9to_stringE @3623
    _ZNK5CORBA3AnyrSER9cdrStream @3624
    _ZNK5CORBA3AnyrSERPKNS_15SystemExceptionE @3625
    _ZNK5CORBA3AnyrSERPKS0_ @3626
    _ZNK5CORBA3AnyrSERPKc @3627
    _ZNK5CORBA3AnyrSERPKw @3628
    _ZNK5CORBA3AnyrSERPNS_6ObjectE @3629
    _ZNK5CORBA3AnyrSERPNS_8TypeCodeE @3630
    _ZNK5CORBA3AnyrSERPS0_ @3631
    _ZNK5CORBA3AnyrSERS0_ @3632
    _ZNK5CORBA3AnyrSERd @3633
    _ZNK5CORBA3AnyrSERe @3634
    _ZNK5CORBA3AnyrSERf @3635
    _ZNK5CORBA3AnyrSERl @3636
    _ZNK5CORBA3AnyrSERm @3637
    _ZNK5CORBA3AnyrSERs @3638
    _ZNK5CORBA3AnyrSERt @3639
    _ZNK5CORBA3AnyrSERx @3640
    _ZNK5CORBA3AnyrSERy @3641
    _ZNK5CORBA3ORB20InconsistentTypeCode10_NP_repoIdEPi @3642
    _ZNK5CORBA3ORB20InconsistentTypeCode10_NP_typeIdEv @3643
    _ZNK5CORBA3ORB20InconsistentTypeCode11_NP_marshalER9cdrStream @3644
    _ZNK5CORBA3ORB20InconsistentTypeCode13_NP_duplicateEv @3645
    _ZNK5CORBA3ORB20InconsistentTypeCode6_raiseEv @3646
    _ZNK5CORBA6NVList6Bounds10_NP_repoIdEPi @3647
    _ZNK5CORBA6NVList6Bounds10_NP_typeIdEv @3648
    _ZNK5CORBA6NVList6Bounds11_NP_marshalER9cdrStream @3649
    _ZNK5CORBA6NVList6Bounds13_NP_duplicateEv @3650
    _ZNK5CORBA6NVList6Bounds6_raiseEv @3651
    _ZNK5CORBA8TypeCode10equivalentEPS0_ @3652
    _ZNK5CORBA8TypeCode11fixed_scaleEv @3653
    _ZNK5CORBA8TypeCode11member_nameEm @3654
    _ZNK5CORBA8TypeCode11member_typeEm @3655
    _ZNK5CORBA8TypeCode11param_countEv @3656
    _ZNK5CORBA8TypeCode12content_typeEv @3657
    _ZNK5CORBA8TypeCode12fixed_digitsEv @3658
    _ZNK5CORBA8TypeCode12member_countEv @3659
    _ZNK5CORBA8TypeCode12member_labelEm @3660
    _ZNK5CORBA8TypeCode13default_indexEv @3661
    _ZNK5CORBA8TypeCode13type_modifierEv @3662
    _ZNK5CORBA8TypeCode17member_visibilityEm @3663
    _ZNK5CORBA8TypeCode18concrete_base_typeEv @3664
    _ZNK5CORBA8TypeCode18discriminator_typeEv @3665
    _ZNK5CORBA8TypeCode20get_compact_typecodeEv @3666
    _ZNK5CORBA8TypeCode2idEv @3667
    _ZNK5CORBA8TypeCode4kindEv @3668
    _ZNK5CORBA8TypeCode4nameEv @3669
    _ZNK5CORBA8TypeCode5equalEPS0_ @3670
    _ZNK5CORBA8TypeCode6Bounds10_NP_repoIdEPi @3671
    _ZNK5CORBA8TypeCode6Bounds10_NP_typeIdEv @3672
    _ZNK5CORBA8TypeCode6Bounds11_NP_marshalER9cdrStream @3673
    _ZNK5CORBA8TypeCode6Bounds13_NP_duplicateEv @3674
    _ZNK5CORBA8TypeCode6Bounds6_raiseEv @3675
    _ZNK5CORBA8TypeCode6lengthEv @3676
    _ZNK5CORBA8TypeCode7BadKind10_NP_repoIdEPi @3677
    _ZNK5CORBA8TypeCode7BadKind10_NP_typeIdEv @3678
    _ZNK5CORBA8TypeCode7BadKind11_NP_marshalER9cdrStream @3679
    _ZNK5CORBA8TypeCode7BadKind13_NP_duplicateEv @3680
    _ZNK5CORBA8TypeCode7BadKind6_raiseEv @3681
    _ZNK5CORBA8TypeCode9NP_is_nilEv @3682
    _ZNK5CORBA8TypeCode9parameterEl @3683
    _ZNK5CORBA8ValueDef20FullValueDescriptionrSER9cdrStream @3684
    _ZNK5CORBA9Contained11DescriptionrSER9cdrStream @3685
    _ZNK5CORBA9Container11DescriptionrSER9cdrStream @3686
    _ZNK5CORBA9ValueBase7_NP_boxEv @3687
    _ZTCN10DynamicAny11DynValueBoxE0_NS_14DynValueCommonE @3688 DATA
    _ZTCN10DynamicAny8DynValueE0_NS_14DynValueCommonE @3689 DATA
    _ZTCN14PortableServer17ValueRefCountBaseE12_NS_11ServantBaseE @3690 DATA
    _ZTCN14PortableServer21DynamicImplementationE4_NS_11ServantBaseE @3691 DATA
    _ZTCN4omni10DynAnyImplE0_NS_14DynAnyImplBaseE @3692 DATA
    _ZTCN4omni11DynEnumImplE0_NS_10DynAnyImplE @3693 DATA
    _ZTCN4omni11DynEnumImplE0_NS_14DynAnyImplBaseE @3694 DATA
    _ZTCN4omni11DynEnumImplE108_N10DynamicAny7DynEnumE @3695 DATA
    _ZTCN4omni12DynArrayImplE0_NS_14DynAnyImplBaseE @3696 DATA
    _ZTCN4omni12DynArrayImplE0_NS_16DynAnyConstrBaseE @3697 DATA
    _ZTCN4omni12DynArrayImplE144_N10DynamicAny8DynArrayE @3698 DATA
    _ZTCN4omni12DynFixedImplE0_NS_10DynAnyImplE @3699 DATA
    _ZTCN4omni12DynFixedImplE0_NS_14DynAnyImplBaseE @3700 DATA
    _ZTCN4omni12DynFixedImplE108_N10DynamicAny8DynFixedE @3701 DATA
    _ZTCN4omni12DynUnionDiscE0_NS_10DynAnyImplE @3702 DATA
    _ZTCN4omni12DynUnionDiscE0_NS_14DynAnyImplBaseE @3703 DATA
    _ZTCN4omni12DynUnionImplE0_NS_14DynAnyImplBaseE @3704 DATA
    _ZTCN4omni12DynUnionImplE108_N10DynamicAny8DynUnionE @3705 DATA
    _ZTCN4omni12DynValueImplE0_NS_14DynAnyImplBaseE @3706 DATA
    _ZTCN4omni12DynValueImplE0_NS_16DynAnyConstrBaseE @3707 DATA
    _ZTCN4omni12DynValueImplE144_N10DynamicAny14DynValueCommonE @3708 DATA
    _ZTCN4omni12DynValueImplE144_N10DynamicAny8DynValueE @3709 DATA
    _ZTCN4omni12UnknownValueE104_N5CORBA24DefaultValueRefCountBaseE @3710 DATA
    _ZTCN4omni13DynStructImplE0_NS_14DynAnyImplBaseE @3711 DATA
    _ZTCN4omni13DynStructImplE0_NS_16DynAnyConstrBaseE @3712 DATA
    _ZTCN4omni13DynStructImplE144_N10DynamicAny9DynStructE @3713 DATA
    _ZTCN4omni14omniNilDynEnumE0_NS_13omniNilDynAnyE @3714 DATA
    _ZTCN4omni14omniNilDynEnumE4_N10DynamicAny7DynEnumE @3715 DATA
    _ZTCN4omni15DynSequenceImplE0_NS_14DynAnyImplBaseE @3716 DATA
    _ZTCN4omni15DynSequenceImplE0_NS_16DynAnyConstrBaseE @3717 DATA
    _ZTCN4omni15DynSequenceImplE144_N10DynamicAny11DynSequenceE @3718 DATA
    _ZTCN4omni15DynValueBoxImplE0_NS_14DynAnyImplBaseE @3719 DATA
    _ZTCN4omni15DynValueBoxImplE0_NS_16DynAnyConstrBaseE @3720 DATA
    _ZTCN4omni15DynValueBoxImplE144_N10DynamicAny11DynValueBoxE @3721 DATA
    _ZTCN4omni15DynValueBoxImplE144_N10DynamicAny14DynValueCommonE @3722 DATA
    _ZTCN4omni15omniNilDynArrayE0_NS_13omniNilDynAnyE @3723 DATA
    _ZTCN4omni15omniNilDynArrayE4_N10DynamicAny8DynArrayE @3724 DATA
    _ZTCN4omni15omniNilDynFixedE0_NS_13omniNilDynAnyE @3725 DATA
    _ZTCN4omni15omniNilDynFixedE4_N10DynamicAny8DynFixedE @3726 DATA
    _ZTCN4omni15omniNilDynUnionE0_NS_13omniNilDynAnyE @3727 DATA
    _ZTCN4omni15omniNilDynUnionE4_N10DynamicAny8DynUnionE @3728 DATA
    _ZTCN4omni15omniNilDynValueE0_NS_13omniNilDynAnyE @3729 DATA
    _ZTCN4omni15omniNilDynValueE4_N10DynamicAny14DynValueCommonE @3730 DATA
    _ZTCN4omni15omniNilDynValueE4_N10DynamicAny8DynValueE @3731 DATA
    _ZTCN4omni16DynAnyConstrBaseE0_NS_14DynAnyImplBaseE @3732 DATA
    _ZTCN4omni16DynUnionEnumDiscE0_NS_10DynAnyImplE @3733 DATA
    _ZTCN4omni16DynUnionEnumDiscE0_NS_12DynUnionDiscE @3734 DATA
    _ZTCN4omni16DynUnionEnumDiscE0_NS_14DynAnyImplBaseE @3735 DATA
    _ZTCN4omni16DynUnionEnumDiscE112_N10DynamicAny7DynEnumE @3736 DATA
    _ZTCN4omni16omniNilDynStructE0_NS_13omniNilDynAnyE @3737 DATA
    _ZTCN4omni16omniNilDynStructE4_N10DynamicAny9DynStructE @3738 DATA
    _ZTCN4omni18omniNilDynSequenceE0_NS_13omniNilDynAnyE @3739 DATA
    _ZTCN4omni18omniNilDynSequenceE4_N10DynamicAny11DynSequenceE @3740 DATA
    _ZTCN4omni18omniNilDynValueBoxE0_NS_13omniNilDynAnyE @3741 DATA
    _ZTCN4omni18omniNilDynValueBoxE4_N10DynamicAny11DynValueBoxE @3742 DATA
    _ZTCN4omni18omniNilDynValueBoxE4_N10DynamicAny14DynValueCommonE @3743 DATA
    _ZTCN4omni21omniNilDynValueCommonE0_NS_13omniNilDynAnyE @3744 DATA
    _ZTCN4omni21omniNilDynValueCommonE4_N10DynamicAny14DynValueCommonE @3745 DATA
    _ZTCN5CORBA11StringValueE0_NS_24DefaultValueRefCountBaseE @3746 DATA
    _ZTCN5CORBA12WStringValueE0_NS_24DefaultValueRefCountBaseE @3747 DATA
    _ZTCN5CORBA13_impl_EnumDefE0_NS_14_impl_IRObjectE @3748 DATA
    _ZTCN5CORBA13_impl_EnumDefE0_NS_15_impl_ContainedE @3749 DATA
    _ZTCN5CORBA13_impl_EnumDefE0_NS_16_impl_TypedefDefE @3750 DATA
    _ZTCN5CORBA13_impl_EnumDefE20_NS_13_impl_IDLTypeE @3751 DATA
    _ZTCN5CORBA13_impl_IDLTypeE0_NS_14_impl_IRObjectE @3752 DATA
    _ZTCN5CORBA14_impl_AliasDefE0_NS_14_impl_IRObjectE @3753 DATA
    _ZTCN5CORBA14_impl_AliasDefE0_NS_15_impl_ContainedE @3754 DATA
    _ZTCN5CORBA14_impl_AliasDefE0_NS_16_impl_TypedefDefE @3755 DATA
    _ZTCN5CORBA14_impl_AliasDefE20_NS_13_impl_IDLTypeE @3756 DATA
    _ZTCN5CORBA14_impl_ArrayDefE0_NS_13_impl_IDLTypeE @3757 DATA
    _ZTCN5CORBA14_impl_ArrayDefE0_NS_14_impl_IRObjectE @3758 DATA
    _ZTCN5CORBA14_impl_FixedDefE0_NS_13_impl_IDLTypeE @3759 DATA
    _ZTCN5CORBA14_impl_FixedDefE0_NS_14_impl_IRObjectE @3760 DATA
    _ZTCN5CORBA14_impl_UnionDefE0_NS_14_impl_IRObjectE @3761 DATA
    _ZTCN5CORBA14_impl_UnionDefE0_NS_15_impl_ContainedE @3762 DATA
    _ZTCN5CORBA14_impl_UnionDefE0_NS_16_impl_TypedefDefE @3763 DATA
    _ZTCN5CORBA14_impl_UnionDefE20_NS_13_impl_IDLTypeE @3764 DATA
    _ZTCN5CORBA14_impl_UnionDefE24_NS_15_impl_ContainerE @3765 DATA
    _ZTCN5CORBA14_impl_ValueDefE0_NS_14_impl_IRObjectE @3766 DATA
    _ZTCN5CORBA14_impl_ValueDefE0_NS_15_impl_ContainerE @3767 DATA
    _ZTCN5CORBA14_impl_ValueDefE20_NS_15_impl_ContainedE @3768 DATA
    _ZTCN5CORBA14_impl_ValueDefE24_NS_13_impl_IDLTypeE @3769 DATA
    _ZTCN5CORBA15_impl_ContainedE0_NS_14_impl_IRObjectE @3770 DATA
    _ZTCN5CORBA15_impl_ContainerE0_NS_14_impl_IRObjectE @3771 DATA
    _ZTCN5CORBA15_impl_ModuleDefE0_NS_14_impl_IRObjectE @3772 DATA
    _ZTCN5CORBA15_impl_ModuleDefE0_NS_15_impl_ContainerE @3773 DATA
    _ZTCN5CORBA15_impl_ModuleDefE20_NS_15_impl_ContainedE @3774 DATA
    _ZTCN5CORBA15_impl_NativeDefE0_NS_14_impl_IRObjectE @3775 DATA
    _ZTCN5CORBA15_impl_NativeDefE0_NS_15_impl_ContainedE @3776 DATA
    _ZTCN5CORBA15_impl_NativeDefE0_NS_16_impl_TypedefDefE @3777 DATA
    _ZTCN5CORBA15_impl_NativeDefE20_NS_13_impl_IDLTypeE @3778 DATA
    _ZTCN5CORBA15_impl_StringDefE0_NS_13_impl_IDLTypeE @3779 DATA
    _ZTCN5CORBA15_impl_StringDefE0_NS_14_impl_IRObjectE @3780 DATA
    _ZTCN5CORBA15_impl_StructDefE0_NS_14_impl_IRObjectE @3781 DATA
    _ZTCN5CORBA15_impl_StructDefE0_NS_15_impl_ContainedE @3782 DATA
    _ZTCN5CORBA15_impl_StructDefE0_NS_16_impl_TypedefDefE @3783 DATA
    _ZTCN5CORBA15_impl_StructDefE20_NS_13_impl_IDLTypeE @3784 DATA
    _ZTCN5CORBA15_impl_StructDefE24_NS_15_impl_ContainerE @3785 DATA
    _ZTCN5CORBA15_objref_EnumDefE0_NS_16_objref_IRObjectE @3786 DATA
    _ZTCN5CORBA15_objref_EnumDefE0_NS_17_objref_ContainedE @3787 DATA
    _ZTCN5CORBA15_objref_EnumDefE0_NS_18_objref_TypedefDefE @3788 DATA
    _ZTCN5CORBA15_objref_EnumDefE60_NS_15_objref_IDLTypeE @3789 DATA
    _ZTCN5CORBA15_objref_IDLTypeE0_NS_16_objref_IRObjectE @3790 DATA
    _ZTCN5CORBA16_impl_RepositoryE0_NS_14_impl_IRObjectE @3791 DATA
    _ZTCN5CORBA16_impl_RepositoryE0_NS_15_impl_ContainerE @3792 DATA
    _ZTCN5CORBA16_impl_TypedefDefE0_NS_14_impl_IRObjectE @3793 DATA
    _ZTCN5CORBA16_impl_TypedefDefE0_NS_15_impl_ContainedE @3794 DATA
    _ZTCN5CORBA16_impl_TypedefDefE20_NS_13_impl_IDLTypeE @3795 DATA
    _ZTCN5CORBA16_impl_WstringDefE0_NS_13_impl_IDLTypeE @3796 DATA
    _ZTCN5CORBA16_impl_WstringDefE0_NS_14_impl_IRObjectE @3797 DATA
    _ZTCN5CORBA16_objref_AliasDefE0_NS_16_objref_IRObjectE @3798 DATA
    _ZTCN5CORBA16_objref_AliasDefE0_NS_17_objref_ContainedE @3799 DATA
    _ZTCN5CORBA16_objref_AliasDefE0_NS_18_objref_TypedefDefE @3800 DATA
    _ZTCN5CORBA16_objref_AliasDefE60_NS_15_objref_IDLTypeE @3801 DATA
    _ZTCN5CORBA16_objref_ArrayDefE0_NS_15_objref_IDLTypeE @3802 DATA
    _ZTCN5CORBA16_objref_ArrayDefE0_NS_16_objref_IRObjectE @3803 DATA
    _ZTCN5CORBA16_objref_FixedDefE0_NS_15_objref_IDLTypeE @3804 DATA
    _ZTCN5CORBA16_objref_FixedDefE0_NS_16_objref_IRObjectE @3805 DATA
    _ZTCN5CORBA16_objref_UnionDefE0_NS_16_objref_IRObjectE @3806 DATA
    _ZTCN5CORBA16_objref_UnionDefE0_NS_17_objref_ContainedE @3807 DATA
    _ZTCN5CORBA16_objref_UnionDefE0_NS_18_objref_TypedefDefE @3808 DATA
    _ZTCN5CORBA16_objref_UnionDefE60_NS_15_objref_IDLTypeE @3809 DATA
    _ZTCN5CORBA16_objref_UnionDefE64_NS_17_objref_ContainerE @3810 DATA
    _ZTCN5CORBA16_objref_ValueDefE0_NS_16_objref_IRObjectE @3811 DATA
    _ZTCN5CORBA16_objref_ValueDefE0_NS_17_objref_ContainerE @3812 DATA
    _ZTCN5CORBA16_objref_ValueDefE60_NS_17_objref_ContainedE @3813 DATA
    _ZTCN5CORBA16_objref_ValueDefE64_NS_15_objref_IDLTypeE @3814 DATA
    _ZTCN5CORBA17_impl_ConstantDefE0_NS_14_impl_IRObjectE @3815 DATA
    _ZTCN5CORBA17_impl_ConstantDefE0_NS_15_impl_ContainedE @3816 DATA
    _ZTCN5CORBA17_impl_SequenceDefE0_NS_13_impl_IDLTypeE @3817 DATA
    _ZTCN5CORBA17_impl_SequenceDefE0_NS_14_impl_IRObjectE @3818 DATA
    _ZTCN5CORBA17_impl_ValueBoxDefE0_NS_14_impl_IRObjectE @3819 DATA
    _ZTCN5CORBA17_impl_ValueBoxDefE0_NS_15_impl_ContainedE @3820 DATA
    _ZTCN5CORBA17_impl_ValueBoxDefE0_NS_16_impl_TypedefDefE @3821 DATA
    _ZTCN5CORBA17_impl_ValueBoxDefE20_NS_13_impl_IDLTypeE @3822 DATA
    _ZTCN5CORBA17_objref_ContainedE0_NS_16_objref_IRObjectE @3823 DATA
    _ZTCN5CORBA17_objref_ContainerE0_NS_16_objref_IRObjectE @3824 DATA
    _ZTCN5CORBA17_objref_ModuleDefE0_NS_16_objref_IRObjectE @3825 DATA
    _ZTCN5CORBA17_objref_ModuleDefE0_NS_17_objref_ContainerE @3826 DATA
    _ZTCN5CORBA17_objref_ModuleDefE60_NS_17_objref_ContainedE @3827 DATA
    _ZTCN5CORBA17_objref_NativeDefE0_NS_16_objref_IRObjectE @3828 DATA
    _ZTCN5CORBA17_objref_NativeDefE0_NS_17_objref_ContainedE @3829 DATA
    _ZTCN5CORBA17_objref_NativeDefE0_NS_18_objref_TypedefDefE @3830 DATA
    _ZTCN5CORBA17_objref_NativeDefE60_NS_15_objref_IDLTypeE @3831 DATA
    _ZTCN5CORBA17_objref_StringDefE0_NS_15_objref_IDLTypeE @3832 DATA
    _ZTCN5CORBA17_objref_StringDefE0_NS_16_objref_IRObjectE @3833 DATA
    _ZTCN5CORBA17_objref_StructDefE0_NS_16_objref_IRObjectE @3834 DATA
    _ZTCN5CORBA17_objref_StructDefE0_NS_17_objref_ContainedE @3835 DATA
    _ZTCN5CORBA17_objref_StructDefE0_NS_18_objref_TypedefDefE @3836 DATA
    _ZTCN5CORBA17_objref_StructDefE60_NS_15_objref_IDLTypeE @3837 DATA
    _ZTCN5CORBA17_objref_StructDefE64_NS_17_objref_ContainerE @3838 DATA
    _ZTCN5CORBA18_impl_AttributeDefE0_NS_14_impl_IRObjectE @3839 DATA
    _ZTCN5CORBA18_impl_AttributeDefE0_NS_15_impl_ContainedE @3840 DATA
    _ZTCN5CORBA18_impl_ExceptionDefE0_NS_14_impl_IRObjectE @3841 DATA
    _ZTCN5CORBA18_impl_ExceptionDefE0_NS_15_impl_ContainedE @3842 DATA
    _ZTCN5CORBA18_impl_ExceptionDefE20_NS_15_impl_ContainerE @3843 DATA
    _ZTCN5CORBA18_impl_InterfaceDefE0_NS_14_impl_IRObjectE @3844 DATA
    _ZTCN5CORBA18_impl_InterfaceDefE0_NS_15_impl_ContainerE @3845 DATA
    _ZTCN5CORBA18_impl_InterfaceDefE20_NS_15_impl_ContainedE @3846 DATA
    _ZTCN5CORBA18_impl_InterfaceDefE24_NS_13_impl_IDLTypeE @3847 DATA
    _ZTCN5CORBA18_impl_OperationDefE0_NS_14_impl_IRObjectE @3848 DATA
    _ZTCN5CORBA18_impl_OperationDefE0_NS_15_impl_ContainedE @3849 DATA
    _ZTCN5CORBA18_impl_PrimitiveDefE0_NS_13_impl_IDLTypeE @3850 DATA
    _ZTCN5CORBA18_impl_PrimitiveDefE0_NS_14_impl_IRObjectE @3851 DATA
    _ZTCN5CORBA18_objref_RepositoryE0_NS_16_objref_IRObjectE @3852 DATA
    _ZTCN5CORBA18_objref_RepositoryE0_NS_17_objref_ContainerE @3853 DATA
    _ZTCN5CORBA18_objref_TypedefDefE0_NS_16_objref_IRObjectE @3854 DATA
    _ZTCN5CORBA18_objref_TypedefDefE0_NS_17_objref_ContainedE @3855 DATA
    _ZTCN5CORBA18_objref_TypedefDefE60_NS_15_objref_IDLTypeE @3856 DATA
    _ZTCN5CORBA18_objref_WstringDefE0_NS_15_objref_IDLTypeE @3857 DATA
    _ZTCN5CORBA18_objref_WstringDefE0_NS_16_objref_IRObjectE @3858 DATA
    _ZTCN5CORBA19_objref_ConstantDefE0_NS_16_objref_IRObjectE @3859 DATA
    _ZTCN5CORBA19_objref_ConstantDefE0_NS_17_objref_ContainedE @3860 DATA
    _ZTCN5CORBA19_objref_SequenceDefE0_NS_15_objref_IDLTypeE @3861 DATA
    _ZTCN5CORBA19_objref_SequenceDefE0_NS_16_objref_IRObjectE @3862 DATA
    _ZTCN5CORBA19_objref_ValueBoxDefE0_NS_16_objref_IRObjectE @3863 DATA
    _ZTCN5CORBA19_objref_ValueBoxDefE0_NS_17_objref_ContainedE @3864 DATA
    _ZTCN5CORBA19_objref_ValueBoxDefE0_NS_18_objref_TypedefDefE @3865 DATA
    _ZTCN5CORBA19_objref_ValueBoxDefE60_NS_15_objref_IDLTypeE @3866 DATA
    _ZTCN5CORBA20_impl_ValueMemberDefE0_NS_14_impl_IRObjectE @3867 DATA
    _ZTCN5CORBA20_impl_ValueMemberDefE0_NS_15_impl_ContainedE @3868 DATA
    _ZTCN5CORBA20_objref_AttributeDefE0_NS_16_objref_IRObjectE @3869 DATA
    _ZTCN5CORBA20_objref_AttributeDefE0_NS_17_objref_ContainedE @3870 DATA
    _ZTCN5CORBA20_objref_ExceptionDefE0_NS_16_objref_IRObjectE @3871 DATA
    _ZTCN5CORBA20_objref_ExceptionDefE0_NS_17_objref_ContainedE @3872 DATA
    _ZTCN5CORBA20_objref_ExceptionDefE60_NS_17_objref_ContainerE @3873 DATA
    _ZTCN5CORBA20_objref_InterfaceDefE0_NS_16_objref_IRObjectE @3874 DATA
    _ZTCN5CORBA20_objref_InterfaceDefE0_NS_17_objref_ContainerE @3875 DATA
    _ZTCN5CORBA20_objref_InterfaceDefE60_NS_17_objref_ContainedE @3876 DATA
    _ZTCN5CORBA20_objref_InterfaceDefE64_NS_15_objref_IDLTypeE @3877 DATA
    _ZTCN5CORBA20_objref_OperationDefE0_NS_16_objref_IRObjectE @3878 DATA
    _ZTCN5CORBA20_objref_OperationDefE0_NS_17_objref_ContainedE @3879 DATA
    _ZTCN5CORBA20_objref_PrimitiveDefE0_NS_15_objref_IDLTypeE @3880 DATA
    _ZTCN5CORBA20_objref_PrimitiveDefE0_NS_16_objref_IRObjectE @3881 DATA
    _ZTCN5CORBA22_objref_ValueMemberDefE0_NS_16_objref_IRObjectE @3882 DATA
    _ZTCN5CORBA22_objref_ValueMemberDefE0_NS_17_objref_ContainedE @3883 DATA
    _ZTCN5CORBA26_impl_AbstractInterfaceDefE0_NS_14_impl_IRObjectE @3884 DATA
    _ZTCN5CORBA26_impl_AbstractInterfaceDefE0_NS_15_impl_ContainerE @3885 DATA
    _ZTCN5CORBA26_impl_AbstractInterfaceDefE0_NS_18_impl_InterfaceDefE @3886 DATA
    _ZTCN5CORBA26_impl_AbstractInterfaceDefE20_NS_15_impl_ContainedE @3887 DATA
    _ZTCN5CORBA26_impl_AbstractInterfaceDefE24_NS_13_impl_IDLTypeE @3888 DATA
    _ZTCN5CORBA28_objref_AbstractInterfaceDefE0_NS_16_objref_IRObjectE @3889 DATA
    _ZTCN5CORBA28_objref_AbstractInterfaceDefE0_NS_17_objref_ContainerE @3890 DATA
    _ZTCN5CORBA28_objref_AbstractInterfaceDefE0_NS_20_objref_InterfaceDefE @3891 DATA
    _ZTCN5CORBA28_objref_AbstractInterfaceDefE60_NS_17_objref_ContainedE @3892 DATA
    _ZTCN5CORBA28_objref_AbstractInterfaceDefE64_NS_15_objref_IDLTypeE @3893 DATA
    _ZTCN9POA_CORBA10RepositoryE0_N5CORBA14_impl_IRObjectE @3894 DATA
    _ZTCN9POA_CORBA10RepositoryE0_N5CORBA15_impl_ContainerE @3895 DATA
    _ZTCN9POA_CORBA10RepositoryE0_N5CORBA16_impl_RepositoryE @3896 DATA
    _ZTCN9POA_CORBA10RepositoryE20_NS_9ContainerE @3897 DATA
    _ZTCN9POA_CORBA10RepositoryE24_NS_8IRObjectE @3898 DATA
    _ZTCN9POA_CORBA10RepositoryE28_N14PortableServer11ServantBaseE @3899 DATA
    _ZTCN9POA_CORBA10TypedefDefE0_N5CORBA14_impl_IRObjectE @3900 DATA
    _ZTCN9POA_CORBA10TypedefDefE0_N5CORBA15_impl_ContainedE @3901 DATA
    _ZTCN9POA_CORBA10TypedefDefE0_N5CORBA16_impl_TypedefDefE @3902 DATA
    _ZTCN9POA_CORBA10TypedefDefE20_NS_9ContainedE @3903 DATA
    _ZTCN9POA_CORBA10TypedefDefE24_NS_8IRObjectE @3904 DATA
    _ZTCN9POA_CORBA10TypedefDefE28_N14PortableServer11ServantBaseE @3905 DATA
    _ZTCN9POA_CORBA10TypedefDefE36_N5CORBA13_impl_IDLTypeE @3906 DATA
    _ZTCN9POA_CORBA10TypedefDefE36_NS_7IDLTypeE @3907 DATA
    _ZTCN9POA_CORBA10WstringDefE0_N5CORBA13_impl_IDLTypeE @3908 DATA
    _ZTCN9POA_CORBA10WstringDefE0_N5CORBA14_impl_IRObjectE @3909 DATA
    _ZTCN9POA_CORBA10WstringDefE0_N5CORBA16_impl_WstringDefE @3910 DATA
    _ZTCN9POA_CORBA10WstringDefE20_NS_7IDLTypeE @3911 DATA
    _ZTCN9POA_CORBA10WstringDefE24_NS_8IRObjectE @3912 DATA
    _ZTCN9POA_CORBA10WstringDefE28_N14PortableServer11ServantBaseE @3913 DATA
    _ZTCN9POA_CORBA11ConstantDefE0_N5CORBA14_impl_IRObjectE @3914 DATA
    _ZTCN9POA_CORBA11ConstantDefE0_N5CORBA15_impl_ContainedE @3915 DATA
    _ZTCN9POA_CORBA11ConstantDefE0_N5CORBA17_impl_ConstantDefE @3916 DATA
    _ZTCN9POA_CORBA11ConstantDefE20_NS_9ContainedE @3917 DATA
    _ZTCN9POA_CORBA11ConstantDefE24_NS_8IRObjectE @3918 DATA
    _ZTCN9POA_CORBA11ConstantDefE28_N14PortableServer11ServantBaseE @3919 DATA
    _ZTCN9POA_CORBA11SequenceDefE0_N5CORBA13_impl_IDLTypeE @3920 DATA
    _ZTCN9POA_CORBA11SequenceDefE0_N5CORBA14_impl_IRObjectE @3921 DATA
    _ZTCN9POA_CORBA11SequenceDefE0_N5CORBA17_impl_SequenceDefE @3922 DATA
    _ZTCN9POA_CORBA11SequenceDefE20_NS_7IDLTypeE @3923 DATA
    _ZTCN9POA_CORBA11SequenceDefE24_NS_8IRObjectE @3924 DATA
    _ZTCN9POA_CORBA11SequenceDefE28_N14PortableServer11ServantBaseE @3925 DATA
    _ZTCN9POA_CORBA11ValueBoxDefE0_N5CORBA14_impl_IRObjectE @3926 DATA
    _ZTCN9POA_CORBA11ValueBoxDefE0_N5CORBA15_impl_ContainedE @3927 DATA
    _ZTCN9POA_CORBA11ValueBoxDefE0_N5CORBA16_impl_TypedefDefE @3928 DATA
    _ZTCN9POA_CORBA11ValueBoxDefE0_N5CORBA17_impl_ValueBoxDefE @3929 DATA
    _ZTCN9POA_CORBA11ValueBoxDefE20_NS_10TypedefDefE @3930 DATA
    _ZTCN9POA_CORBA11ValueBoxDefE24_NS_9ContainedE @3931 DATA
    _ZTCN9POA_CORBA11ValueBoxDefE28_NS_8IRObjectE @3932 DATA
    _ZTCN9POA_CORBA11ValueBoxDefE32_N14PortableServer11ServantBaseE @3933 DATA
    _ZTCN9POA_CORBA11ValueBoxDefE40_N5CORBA13_impl_IDLTypeE @3934 DATA
    _ZTCN9POA_CORBA11ValueBoxDefE40_NS_7IDLTypeE @3935 DATA
    _ZTCN9POA_CORBA12AttributeDefE0_N5CORBA14_impl_IRObjectE @3936 DATA
    _ZTCN9POA_CORBA12AttributeDefE0_N5CORBA15_impl_ContainedE @3937 DATA
    _ZTCN9POA_CORBA12AttributeDefE0_N5CORBA18_impl_AttributeDefE @3938 DATA
    _ZTCN9POA_CORBA12AttributeDefE20_NS_9ContainedE @3939 DATA
    _ZTCN9POA_CORBA12AttributeDefE24_NS_8IRObjectE @3940 DATA
    _ZTCN9POA_CORBA12AttributeDefE28_N14PortableServer11ServantBaseE @3941 DATA
    _ZTCN9POA_CORBA12ExceptionDefE0_N5CORBA14_impl_IRObjectE @3942 DATA
    _ZTCN9POA_CORBA12ExceptionDefE0_N5CORBA15_impl_ContainedE @3943 DATA
    _ZTCN9POA_CORBA12ExceptionDefE0_N5CORBA18_impl_ExceptionDefE @3944 DATA
    _ZTCN9POA_CORBA12ExceptionDefE20_NS_9ContainedE @3945 DATA
    _ZTCN9POA_CORBA12ExceptionDefE24_NS_8IRObjectE @3946 DATA
    _ZTCN9POA_CORBA12ExceptionDefE28_N14PortableServer11ServantBaseE @3947 DATA
    _ZTCN9POA_CORBA12ExceptionDefE36_N5CORBA15_impl_ContainerE @3948 DATA
    _ZTCN9POA_CORBA12ExceptionDefE36_NS_9ContainerE @3949 DATA
    _ZTCN9POA_CORBA12InterfaceDefE0_N5CORBA14_impl_IRObjectE @3950 DATA
    _ZTCN9POA_CORBA12InterfaceDefE0_N5CORBA15_impl_ContainerE @3951 DATA
    _ZTCN9POA_CORBA12InterfaceDefE0_N5CORBA18_impl_InterfaceDefE @3952 DATA
    _ZTCN9POA_CORBA12InterfaceDefE20_NS_9ContainerE @3953 DATA
    _ZTCN9POA_CORBA12InterfaceDefE24_NS_8IRObjectE @3954 DATA
    _ZTCN9POA_CORBA12InterfaceDefE28_N14PortableServer11ServantBaseE @3955 DATA
    _ZTCN9POA_CORBA12InterfaceDefE36_N5CORBA15_impl_ContainedE @3956 DATA
    _ZTCN9POA_CORBA12InterfaceDefE36_NS_9ContainedE @3957 DATA
    _ZTCN9POA_CORBA12InterfaceDefE40_N5CORBA13_impl_IDLTypeE @3958 DATA
    _ZTCN9POA_CORBA12InterfaceDefE40_NS_7IDLTypeE @3959 DATA
    _ZTCN9POA_CORBA12OperationDefE0_N5CORBA14_impl_IRObjectE @3960 DATA
    _ZTCN9POA_CORBA12OperationDefE0_N5CORBA15_impl_ContainedE @3961 DATA
    _ZTCN9POA_CORBA12OperationDefE0_N5CORBA18_impl_OperationDefE @3962 DATA
    _ZTCN9POA_CORBA12OperationDefE20_NS_9ContainedE @3963 DATA
    _ZTCN9POA_CORBA12OperationDefE24_NS_8IRObjectE @3964 DATA
    _ZTCN9POA_CORBA12OperationDefE28_N14PortableServer11ServantBaseE @3965 DATA
    _ZTCN9POA_CORBA12PrimitiveDefE0_N5CORBA13_impl_IDLTypeE @3966 DATA
    _ZTCN9POA_CORBA12PrimitiveDefE0_N5CORBA14_impl_IRObjectE @3967 DATA
    _ZTCN9POA_CORBA12PrimitiveDefE0_N5CORBA18_impl_PrimitiveDefE @3968 DATA
    _ZTCN9POA_CORBA12PrimitiveDefE20_NS_7IDLTypeE @3969 DATA
    _ZTCN9POA_CORBA12PrimitiveDefE24_NS_8IRObjectE @3970 DATA
    _ZTCN9POA_CORBA12PrimitiveDefE28_N14PortableServer11ServantBaseE @3971 DATA
    _ZTCN9POA_CORBA14ValueMemberDefE0_N5CORBA14_impl_IRObjectE @3972 DATA
    _ZTCN9POA_CORBA14ValueMemberDefE0_N5CORBA15_impl_ContainedE @3973 DATA
    _ZTCN9POA_CORBA14ValueMemberDefE0_N5CORBA20_impl_ValueMemberDefE @3974 DATA
    _ZTCN9POA_CORBA14ValueMemberDefE20_NS_9ContainedE @3975 DATA
    _ZTCN9POA_CORBA14ValueMemberDefE24_NS_8IRObjectE @3976 DATA
    _ZTCN9POA_CORBA14ValueMemberDefE28_N14PortableServer11ServantBaseE @3977 DATA
    _ZTCN9POA_CORBA20AbstractInterfaceDefE0_N5CORBA14_impl_IRObjectE @3978 DATA
    _ZTCN9POA_CORBA20AbstractInterfaceDefE0_N5CORBA15_impl_ContainerE @3979 DATA
    _ZTCN9POA_CORBA20AbstractInterfaceDefE0_N5CORBA18_impl_InterfaceDefE @3980 DATA
    _ZTCN9POA_CORBA20AbstractInterfaceDefE0_N5CORBA26_impl_AbstractInterfaceDefE @3981 DATA
    _ZTCN9POA_CORBA20AbstractInterfaceDefE20_NS_12InterfaceDefE @3982 DATA
    _ZTCN9POA_CORBA20AbstractInterfaceDefE24_NS_9ContainerE @3983 DATA
    _ZTCN9POA_CORBA20AbstractInterfaceDefE28_NS_8IRObjectE @3984 DATA
    _ZTCN9POA_CORBA20AbstractInterfaceDefE32_N14PortableServer11ServantBaseE @3985 DATA
    _ZTCN9POA_CORBA20AbstractInterfaceDefE40_N5CORBA15_impl_ContainedE @3986 DATA
    _ZTCN9POA_CORBA20AbstractInterfaceDefE40_NS_9ContainedE @3987 DATA
    _ZTCN9POA_CORBA20AbstractInterfaceDefE44_N5CORBA13_impl_IDLTypeE @3988 DATA
    _ZTCN9POA_CORBA20AbstractInterfaceDefE44_NS_7IDLTypeE @3989 DATA
    _ZTCN9POA_CORBA7EnumDefE0_N5CORBA13_impl_EnumDefE @3990 DATA
    _ZTCN9POA_CORBA7EnumDefE0_N5CORBA14_impl_IRObjectE @3991 DATA
    _ZTCN9POA_CORBA7EnumDefE0_N5CORBA15_impl_ContainedE @3992 DATA
    _ZTCN9POA_CORBA7EnumDefE0_N5CORBA16_impl_TypedefDefE @3993 DATA
    _ZTCN9POA_CORBA7EnumDefE20_NS_10TypedefDefE @3994 DATA
    _ZTCN9POA_CORBA7EnumDefE24_NS_9ContainedE @3995 DATA
    _ZTCN9POA_CORBA7EnumDefE28_NS_8IRObjectE @3996 DATA
    _ZTCN9POA_CORBA7EnumDefE32_N14PortableServer11ServantBaseE @3997 DATA
    _ZTCN9POA_CORBA7EnumDefE40_N5CORBA13_impl_IDLTypeE @3998 DATA
    _ZTCN9POA_CORBA7EnumDefE40_NS_7IDLTypeE @3999 DATA
    _ZTCN9POA_CORBA7IDLTypeE0_N5CORBA13_impl_IDLTypeE @4000 DATA
    _ZTCN9POA_CORBA7IDLTypeE0_N5CORBA14_impl_IRObjectE @4001 DATA
    _ZTCN9POA_CORBA7IDLTypeE20_NS_8IRObjectE @4002 DATA
    _ZTCN9POA_CORBA7IDLTypeE24_N14PortableServer11ServantBaseE @4003 DATA
    _ZTCN9POA_CORBA8AliasDefE0_N5CORBA14_impl_AliasDefE @4004 DATA
    _ZTCN9POA_CORBA8AliasDefE0_N5CORBA14_impl_IRObjectE @4005 DATA
    _ZTCN9POA_CORBA8AliasDefE0_N5CORBA15_impl_ContainedE @4006 DATA
    _ZTCN9POA_CORBA8AliasDefE0_N5CORBA16_impl_TypedefDefE @4007 DATA
    _ZTCN9POA_CORBA8AliasDefE20_NS_10TypedefDefE @4008 DATA
    _ZTCN9POA_CORBA8AliasDefE24_NS_9ContainedE @4009 DATA
    _ZTCN9POA_CORBA8AliasDefE28_NS_8IRObjectE @4010 DATA
    _ZTCN9POA_CORBA8AliasDefE32_N14PortableServer11ServantBaseE @4011 DATA
    _ZTCN9POA_CORBA8AliasDefE40_N5CORBA13_impl_IDLTypeE @4012 DATA
    _ZTCN9POA_CORBA8AliasDefE40_NS_7IDLTypeE @4013 DATA
    _ZTCN9POA_CORBA8ArrayDefE0_N5CORBA13_impl_IDLTypeE @4014 DATA
    _ZTCN9POA_CORBA8ArrayDefE0_N5CORBA14_impl_ArrayDefE @4015 DATA
    _ZTCN9POA_CORBA8ArrayDefE0_N5CORBA14_impl_IRObjectE @4016 DATA
    _ZTCN9POA_CORBA8ArrayDefE20_NS_7IDLTypeE @4017 DATA
    _ZTCN9POA_CORBA8ArrayDefE24_NS_8IRObjectE @4018 DATA
    _ZTCN9POA_CORBA8ArrayDefE28_N14PortableServer11ServantBaseE @4019 DATA
    _ZTCN9POA_CORBA8FixedDefE0_N5CORBA13_impl_IDLTypeE @4020 DATA
    _ZTCN9POA_CORBA8FixedDefE0_N5CORBA14_impl_FixedDefE @4021 DATA
    _ZTCN9POA_CORBA8FixedDefE0_N5CORBA14_impl_IRObjectE @4022 DATA
    _ZTCN9POA_CORBA8FixedDefE20_NS_7IDLTypeE @4023 DATA
    _ZTCN9POA_CORBA8FixedDefE24_NS_8IRObjectE @4024 DATA
    _ZTCN9POA_CORBA8FixedDefE28_N14PortableServer11ServantBaseE @4025 DATA
    _ZTCN9POA_CORBA8IRObjectE0_N5CORBA14_impl_IRObjectE @4026 DATA
    _ZTCN9POA_CORBA8IRObjectE20_N14PortableServer11ServantBaseE @4027 DATA
    _ZTCN9POA_CORBA8UnionDefE0_N5CORBA14_impl_IRObjectE @4028 DATA
    _ZTCN9POA_CORBA8UnionDefE0_N5CORBA14_impl_UnionDefE @4029 DATA
    _ZTCN9POA_CORBA8UnionDefE0_N5CORBA15_impl_ContainedE @4030 DATA
    _ZTCN9POA_CORBA8UnionDefE0_N5CORBA16_impl_TypedefDefE @4031 DATA
    _ZTCN9POA_CORBA8UnionDefE20_NS_10TypedefDefE @4032 DATA
    _ZTCN9POA_CORBA8UnionDefE24_NS_9ContainedE @4033 DATA
    _ZTCN9POA_CORBA8UnionDefE28_NS_8IRObjectE @4034 DATA
    _ZTCN9POA_CORBA8UnionDefE32_N14PortableServer11ServantBaseE @4035 DATA
    _ZTCN9POA_CORBA8UnionDefE40_N5CORBA13_impl_IDLTypeE @4036 DATA
    _ZTCN9POA_CORBA8UnionDefE40_NS_7IDLTypeE @4037 DATA
    _ZTCN9POA_CORBA8UnionDefE44_N5CORBA15_impl_ContainerE @4038 DATA
    _ZTCN9POA_CORBA8UnionDefE44_NS_9ContainerE @4039 DATA
    _ZTCN9POA_CORBA8ValueDefE0_N5CORBA14_impl_IRObjectE @4040 DATA
    _ZTCN9POA_CORBA8ValueDefE0_N5CORBA14_impl_ValueDefE @4041 DATA
    _ZTCN9POA_CORBA8ValueDefE0_N5CORBA15_impl_ContainerE @4042 DATA
    _ZTCN9POA_CORBA8ValueDefE20_NS_9ContainerE @4043 DATA
    _ZTCN9POA_CORBA8ValueDefE24_NS_8IRObjectE @4044 DATA
    _ZTCN9POA_CORBA8ValueDefE28_N14PortableServer11ServantBaseE @4045 DATA
    _ZTCN9POA_CORBA8ValueDefE36_N5CORBA15_impl_ContainedE @4046 DATA
    _ZTCN9POA_CORBA8ValueDefE36_NS_9ContainedE @4047 DATA
    _ZTCN9POA_CORBA8ValueDefE40_N5CORBA13_impl_IDLTypeE @4048 DATA
    _ZTCN9POA_CORBA8ValueDefE40_NS_7IDLTypeE @4049 DATA
    _ZTCN9POA_CORBA9ContainedE0_N5CORBA14_impl_IRObjectE @4050 DATA
    _ZTCN9POA_CORBA9ContainedE0_N5CORBA15_impl_ContainedE @4051 DATA
    _ZTCN9POA_CORBA9ContainedE20_NS_8IRObjectE @4052 DATA
    _ZTCN9POA_CORBA9ContainedE24_N14PortableServer11ServantBaseE @4053 DATA
    _ZTCN9POA_CORBA9ContainerE0_N5CORBA14_impl_IRObjectE @4054 DATA
    _ZTCN9POA_CORBA9ContainerE0_N5CORBA15_impl_ContainerE @4055 DATA
    _ZTCN9POA_CORBA9ContainerE20_NS_8IRObjectE @4056 DATA
    _ZTCN9POA_CORBA9ContainerE24_N14PortableServer11ServantBaseE @4057 DATA
    _ZTCN9POA_CORBA9ModuleDefE0_N5CORBA14_impl_IRObjectE @4058 DATA
    _ZTCN9POA_CORBA9ModuleDefE0_N5CORBA15_impl_ContainerE @4059 DATA
    _ZTCN9POA_CORBA9ModuleDefE0_N5CORBA15_impl_ModuleDefE @4060 DATA
    _ZTCN9POA_CORBA9ModuleDefE20_NS_9ContainerE @4061 DATA
    _ZTCN9POA_CORBA9ModuleDefE24_NS_8IRObjectE @4062 DATA
    _ZTCN9POA_CORBA9ModuleDefE28_N14PortableServer11ServantBaseE @4063 DATA
    _ZTCN9POA_CORBA9ModuleDefE36_N5CORBA15_impl_ContainedE @4064 DATA
    _ZTCN9POA_CORBA9ModuleDefE36_NS_9ContainedE @4065 DATA
    _ZTCN9POA_CORBA9NativeDefE0_N5CORBA14_impl_IRObjectE @4066 DATA
    _ZTCN9POA_CORBA9NativeDefE0_N5CORBA15_impl_ContainedE @4067 DATA
    _ZTCN9POA_CORBA9NativeDefE0_N5CORBA15_impl_NativeDefE @4068 DATA
    _ZTCN9POA_CORBA9NativeDefE0_N5CORBA16_impl_TypedefDefE @4069 DATA
    _ZTCN9POA_CORBA9NativeDefE20_NS_10TypedefDefE @4070 DATA
    _ZTCN9POA_CORBA9NativeDefE24_NS_9ContainedE @4071 DATA
    _ZTCN9POA_CORBA9NativeDefE28_NS_8IRObjectE @4072 DATA
    _ZTCN9POA_CORBA9NativeDefE32_N14PortableServer11ServantBaseE @4073 DATA
    _ZTCN9POA_CORBA9NativeDefE40_N5CORBA13_impl_IDLTypeE @4074 DATA
    _ZTCN9POA_CORBA9NativeDefE40_NS_7IDLTypeE @4075 DATA
    _ZTCN9POA_CORBA9StringDefE0_N5CORBA13_impl_IDLTypeE @4076 DATA
    _ZTCN9POA_CORBA9StringDefE0_N5CORBA14_impl_IRObjectE @4077 DATA
    _ZTCN9POA_CORBA9StringDefE0_N5CORBA15_impl_StringDefE @4078 DATA
    _ZTCN9POA_CORBA9StringDefE20_NS_7IDLTypeE @4079 DATA
    _ZTCN9POA_CORBA9StringDefE24_NS_8IRObjectE @4080 DATA
    _ZTCN9POA_CORBA9StringDefE28_N14PortableServer11ServantBaseE @4081 DATA
    _ZTCN9POA_CORBA9StructDefE0_N5CORBA14_impl_IRObjectE @4082 DATA
    _ZTCN9POA_CORBA9StructDefE0_N5CORBA15_impl_ContainedE @4083 DATA
    _ZTCN9POA_CORBA9StructDefE0_N5CORBA15_impl_StructDefE @4084 DATA
    _ZTCN9POA_CORBA9StructDefE0_N5CORBA16_impl_TypedefDefE @4085 DATA
    _ZTCN9POA_CORBA9StructDefE20_NS_10TypedefDefE @4086 DATA
    _ZTCN9POA_CORBA9StructDefE24_NS_9ContainedE @4087 DATA
    _ZTCN9POA_CORBA9StructDefE28_NS_8IRObjectE @4088 DATA
    _ZTCN9POA_CORBA9StructDefE32_N14PortableServer11ServantBaseE @4089 DATA
    _ZTCN9POA_CORBA9StructDefE40_N5CORBA13_impl_IDLTypeE @4090 DATA
    _ZTCN9POA_CORBA9StructDefE40_NS_7IDLTypeE @4091 DATA
    _ZTCN9POA_CORBA9StructDefE44_N5CORBA15_impl_ContainerE @4092 DATA
    _ZTCN9POA_CORBA9StructDefE44_NS_9ContainerE @4093 DATA
    _ZTI10omniObjRef @4094 DATA
    _ZTI11omniServant @4095 DATA
    _ZTI12omniTaskLink @4096 DATA
    _ZTI15cdrMemoryStream @4097 DATA
    _ZTI18cdrAnyMemoryStream @4098 DATA
    _ZTI18omniCallDescriptor @4099 DATA
    _ZTI27_0RL_CORBA_StringValue_init @4100 DATA
    _ZTI28_0RL_CORBA_WStringValue_init @4101 DATA
    _ZTI33_0RL_cd_7963219A43724A61_00000000 @4102 DATA
    _ZTI33_0RL_cd_7963219A43724A61_01000000 @4103 DATA
    _ZTI33_0RL_cd_7963219A43724A61_04000000 @4104 DATA
    _ZTI33_0RL_cd_7963219A43724A61_06000000 @4105 DATA
    _ZTI33_0RL_cd_7963219A43724A61_08000000 @4106 DATA
    _ZTI33_0RL_cd_7963219A43724A61_12000000 @4107 DATA
    _ZTI33_0RL_cd_7963219A43724A61_13000000 @4108 DATA
    _ZTI33_0RL_cd_7963219A43724A61_15000000 @4109 DATA
    _ZTI33_0RL_cd_7963219A43724A61_19000000 @4110 DATA
    _ZTI33_0RL_cd_7963219A43724A61_1a000000 @4111 DATA
    _ZTI33_0RL_cd_7963219A43724A61_1b000000 @4112 DATA
    _ZTI33_0RL_cd_7963219A43724A61_20000000 @4113 DATA
    _ZTI33_0RL_cd_7963219A43724A61_24000000 @4114 DATA
    _ZTI33_0RL_cd_7963219A43724A61_26000000 @4115 DATA
    _ZTI33_0RL_cd_7963219A43724A61_28000000 @4116 DATA
    _ZTI33_0RL_cd_7963219A43724A61_31000000 @4117 DATA
    _ZTI33_0RL_cd_7963219A43724A61_32000000 @4118 DATA
    _ZTI33_0RL_cd_7963219A43724A61_33000000 @4119 DATA
    _ZTI33_0RL_cd_7963219A43724A61_39000000 @4120 DATA
    _ZTI33_0RL_cd_7963219A43724A61_3b000000 @4121 DATA
    _ZTI33_0RL_cd_7963219A43724A61_40000000 @4122 DATA
    _ZTI33_0RL_cd_7963219A43724A61_44000000 @4123 DATA
    _ZTI33_0RL_cd_7963219A43724A61_46000000 @4124 DATA
    _ZTI33_0RL_cd_7963219A43724A61_51000000 @4125 DATA
    _ZTI33_0RL_cd_7963219A43724A61_52000000 @4126 DATA
    _ZTI33_0RL_cd_7963219A43724A61_53000000 @4127 DATA
    _ZTI33_0RL_cd_7963219A43724A61_59000000 @4128 DATA
    _ZTI33_0RL_cd_7963219A43724A61_5b000000 @4129 DATA
    _ZTI33_0RL_cd_7963219A43724A61_60000000 @4130 DATA
    _ZTI33_0RL_cd_7963219A43724A61_65000000 @4131 DATA
    _ZTI33_0RL_cd_7963219A43724A61_71000000 @4132 DATA
    _ZTI33_0RL_cd_7963219A43724A61_72000000 @4133 DATA
    _ZTI33_0RL_cd_7963219A43724A61_74000000 @4134 DATA
    _ZTI33_0RL_cd_7963219A43724A61_78000000 @4135 DATA
    _ZTI33_0RL_cd_7963219A43724A61_79000000 @4136 DATA
    _ZTI33_0RL_cd_7963219A43724A61_7b000000 @4137 DATA
    _ZTI33_0RL_cd_7963219A43724A61_80000000 @4138 DATA
    _ZTI33_0RL_cd_7963219A43724A61_83000000 @4139 DATA
    _ZTI33_0RL_cd_7963219A43724A61_85000000 @4140 DATA
    _ZTI33_0RL_cd_7963219A43724A61_86000000 @4141 DATA
    _ZTI33_0RL_cd_7963219A43724A61_91000000 @4142 DATA
    _ZTI33_0RL_cd_7963219A43724A61_92000000 @4143 DATA
    _ZTI33_0RL_cd_7963219A43724A61_94000000 @4144 DATA
    _ZTI33_0RL_cd_7963219A43724A61_98000000 @4145 DATA
    _ZTI33_0RL_cd_7963219A43724A61_99000000 @4146 DATA
    _ZTI33_0RL_cd_7963219A43724A61_9a000000 @4147 DATA
    _ZTI33_0RL_cd_7963219A43724A61_9b000000 @4148 DATA
    _ZTI33_0RL_cd_7963219A43724A61_a0000000 @4149 DATA
    _ZTI33_0RL_cd_7963219A43724A61_a3000000 @4150 DATA
    _ZTI33_0RL_cd_7963219A43724A61_a5000000 @4151 DATA
    _ZTI33_0RL_cd_7963219A43724A61_a6000000 @4152 DATA
    _ZTI33_0RL_cd_7963219A43724A61_b1000000 @4153 DATA
    _ZTI33_0RL_cd_7963219A43724A61_b2000000 @4154 DATA
    _ZTI33_0RL_cd_7963219A43724A61_b4000000 @4155 DATA
    _ZTI33_0RL_cd_7963219A43724A61_b8000000 @4156 DATA
    _ZTI33_0RL_cd_7963219A43724A61_b9000000 @4157 DATA
    _ZTI33_0RL_cd_7963219A43724A61_ba000000 @4158 DATA
    _ZTI33_0RL_cd_7963219A43724A61_bb000000 @4159 DATA
    _ZTI33_0RL_cd_7963219A43724A61_c3000000 @4160 DATA
    _ZTI33_0RL_cd_7963219A43724A61_c5000000 @4161 DATA
    _ZTI33_0RL_cd_7963219A43724A61_c6000000 @4162 DATA
    _ZTI33_0RL_cd_7963219A43724A61_d1000000 @4163 DATA
    _ZTI33_0RL_cd_7963219A43724A61_d2000000 @4164 DATA
    _ZTI33_0RL_cd_7963219A43724A61_d4000000 @4165 DATA
    _ZTI33_0RL_cd_7963219A43724A61_d8000000 @4166 DATA
    _ZTI33_0RL_cd_7963219A43724A61_d9000000 @4167 DATA
    _ZTI33_0RL_cd_7963219A43724A61_db000000 @4168 DATA
    _ZTI33_0RL_cd_7963219A43724A61_e3000000 @4169 DATA
    _ZTI33_0RL_cd_7963219A43724A61_e6000000 @4170 DATA
    _ZTI33_0RL_cd_7963219A43724A61_f1000000 @4171 DATA
    _ZTI33_0RL_cd_7963219A43724A61_f2000000 @4172 DATA
    _ZTI33_0RL_cd_7963219A43724A61_f4000000 @4173 DATA
    _ZTI33_0RL_cd_7963219A43724A61_f8000000 @4174 DATA
    _ZTI33_0RL_cd_7963219A43724A61_f9000000 @4175 DATA
    _ZTI33_0RL_cd_7963219A43724A61_fb000000 @4176 DATA
    _ZTI8omniTask @4177 DATA
    _ZTI9cdrStream @4178 DATA
    _ZTIN10DynamicAny11DynSequenceE @4179 DATA
    _ZTIN10DynamicAny11DynValueBoxE @4180 DATA
    _ZTIN10DynamicAny13DynAnyFactory20InconsistentTypeCodeE @4181 DATA
    _ZTIN10DynamicAny13DynAnyFactoryE @4182 DATA
    _ZTIN10DynamicAny14DynValueCommonE @4183 DATA
    _ZTIN10DynamicAny6DynAny12InvalidValueE @4184 DATA
    _ZTIN10DynamicAny6DynAny12TypeMismatchE @4185 DATA
    _ZTIN10DynamicAny6DynAnyE @4186 DATA
    _ZTIN10DynamicAny7DynEnumE @4187 DATA
    _ZTIN10DynamicAny8DynArrayE @4188 DATA
    _ZTIN10DynamicAny8DynFixedE @4189 DATA
    _ZTIN10DynamicAny8DynUnionE @4190 DATA
    _ZTIN10DynamicAny8DynValueE @4191 DATA
    _ZTIN10DynamicAny9DynStructE @4192 DATA
    _ZTIN14PortableServer11ServantBaseE @4193 DATA
    _ZTIN14PortableServer17ValueRefCountBaseE @4194 DATA
    _ZTIN14PortableServer21DynamicImplementationE @4195 DATA
    _ZTIN14PortableServer3POA11WrongPolicyE @4196 DATA
    _ZTIN4omni10DynAnyImplE @4197 DATA
    _ZTIN4omni10NVListImplE @4198 DATA
    _ZTIN4omni10omniNilEnvE @4199 DATA
    _ZTIN4omni11ContextImplE @4200 DATA
    _ZTIN4omni11DynEnumImplE @4201 DATA
    _ZTIN4omni11RequestImplE @4202 DATA
    _ZTIN4omni12DynArrayImplE @4203 DATA
    _ZTIN4omni12DynFixedImplE @4204 DATA
    _ZTIN4omni12DynUnionDiscE @4205 DATA
    _ZTIN4omni12DynUnionImplE @4206 DATA
    _ZTIN4omni12DynValueImplE @4207 DATA
    _ZTIN4omni12UnknownValueE @4208 DATA
    _ZTIN4omni13DynStructImplE @4209 DATA
    _ZTIN4omni13PseudoObjBaseE @4210 DATA
    _ZTIN4omni13TypeCode_baseE @4211 DATA
    _ZTIN4omni13TypeCode_enumE @4212 DATA
    _ZTIN4omni13omniNilCtListE @4213 DATA
    _ZTIN4omni13omniNilDynAnyE @4214 DATA
    _ZTIN4omni13omniNilExListE @4215 DATA
    _ZTIN4omni13omniNilNVListE @4216 DATA
    _ZTIN4omni14DynAnyImplBaseE @4217 DATA
    _ZTIN4omni14NamedValueImplE @4218 DATA
    _ZTIN4omni14TypeCode_aliasE @4219 DATA
    _ZTIN4omni14TypeCode_arrayE @4220 DATA
    _ZTIN4omni14TypeCode_fixedE @4221 DATA
    _ZTIN4omni14TypeCode_unionE @4222 DATA
    _ZTIN4omni14TypeCode_valueE @4223 DATA
    _ZTIN4omni14omniNilContextE @4224 DATA
    _ZTIN4omni14omniNilDynEnumE @4225 DATA
    _ZTIN4omni14omniNilRequestE @4226 DATA
    _ZTIN4omni15ContextListImplE @4227 DATA
    _ZTIN4omni15DeferredRequestE @4228 DATA
    _ZTIN4omni15DynSequenceImplE @4229 DATA
    _ZTIN4omni15DynValueBoxImplE @4230 DATA
    _ZTIN4omni15EnvironmentImplE @4231 DATA
    _ZTIN4omni15TypeCode_exceptE @4232 DATA
    _ZTIN4omni15TypeCode_objrefE @4233 DATA
    _ZTIN4omni15TypeCode_stringE @4234 DATA
    _ZTIN4omni15TypeCode_structE @4235 DATA
    _ZTIN4omni15omniInitialiserE @4236 DATA
    _ZTIN4omni15omniNilDynArrayE @4237 DATA
    _ZTIN4omni15omniNilDynFixedE @4238 DATA
    _ZTIN4omni15omniNilDynUnionE @4239 DATA
    _ZTIN4omni15omniNilDynValueE @4240 DATA
    _ZTIN4omni16DynAnyConstrBaseE @4241 DATA
    _ZTIN4omni16DynUnionEnumDiscE @4242 DATA
    _ZTIN4omni16TypeCode_wstringE @4243 DATA
    _ZTIN4omni16omniNilDynStructE @4244 DATA
    _ZTIN4omni17DynAnyFactoryImplE @4245 DATA
    _ZTIN4omni17ExceptionListImplE @4246 DATA
    _ZTIN4omni17InputValueTrackerE @4247 DATA
    _ZTIN4omni17TypeCode_indirectE @4248 DATA
    _ZTIN4omni17TypeCode_sequenceE @4249 DATA
    _ZTIN4omni17omniServerRequestE @4250 DATA
    _ZTIN4omni17omniTrackedObjectE @4251 DATA
    _ZTIN4omni18OutputValueTrackerE @4252 DATA
    _ZTIN4omni18TypeCode_value_boxE @4253 DATA
    _ZTIN4omni18omniNilDynSequenceE @4254 DATA
    _ZTIN4omni18omniNilDynValueBoxE @4255 DATA
    _ZTIN4omni18proxyObjectFactoryE @4256 DATA
    _ZTIN4omni20FromAnyUserExceptionE @4257 DATA
    _ZTIN4omni20omniNilDynAnyFactoryE @4258 DATA
    _ZTIN4omni21omniNilDynValueCommonE @4259 DATA
    _ZTIN4omni21omniNilTypeCodeHolderE @4260 DATA
    _ZTIN4omni22omniTypeCodeCollectionE @4261 DATA
    _ZTIN4omni23ValueIndirectionTrackerE @4262 DATA
    _ZTIN4omni23omni_dynAny_initialiserE @4263 DATA
    _ZTIN4omni24TypeCode_local_interfaceE @4264 DATA
    _ZTIN4omni25omni_RequestImpl_callDescE @4265 DATA
    _ZTIN4omni27TypeCode_abstract_interfaceE @4266 DATA
    _ZTIN4omni27serverRequestCallDescriptorE @4267 DATA
    _ZTIN4omni29omni_valueFactory_initialiserE @4268 DATA
    _ZTIN4omni9omniNilNVE @4269 DATA
    _ZTIN5CORBA10NamedValueE @4270 DATA
    _ZTIN5CORBA11ContextList6BoundsE @4271 DATA
    _ZTIN5CORBA11ContextListE @4272 DATA
    _ZTIN5CORBA11EnvironmentE @4273 DATA
    _ZTIN5CORBA11PolicyErrorE @4274 DATA
    _ZTIN5CORBA11StringValueE @4275 DATA
    _ZTIN5CORBA12AbstractBaseE @4276 DATA
    _ZTIN5CORBA12NO_IMPLEMENTE @4277 DATA
    _ZTIN5CORBA12WStringValueE @4278 DATA
    _ZTIN5CORBA12_pof_EnumDefE @4279 DATA
    _ZTIN5CORBA12_pof_IDLTypeE @4280 DATA
    _ZTIN5CORBA13ExceptionList6BoundsE @4281 DATA
    _ZTIN5CORBA13ExceptionListE @4282 DATA
    _ZTIN5CORBA13ServerRequestE @4283 DATA
    _ZTIN5CORBA13UserExceptionE @4284 DATA
    _ZTIN5CORBA13_impl_EnumDefE @4285 DATA
    _ZTIN5CORBA13_impl_IDLTypeE @4286 DATA
    _ZTIN5CORBA13_pof_AliasDefE @4287 DATA
    _ZTIN5CORBA13_pof_ArrayDefE @4288 DATA
    _ZTIN5CORBA13_pof_FixedDefE @4289 DATA
    _ZTIN5CORBA13_pof_IRObjectE @4290 DATA
    _ZTIN5CORBA13_pof_UnionDefE @4291 DATA
    _ZTIN5CORBA13_pof_ValueDefE @4292 DATA
    _ZTIN5CORBA14_impl_AliasDefE @4293 DATA
    _ZTIN5CORBA14_impl_ArrayDefE @4294 DATA
    _ZTIN5CORBA14_impl_FixedDefE @4295 DATA
    _ZTIN5CORBA14_impl_IRObjectE @4296 DATA
    _ZTIN5CORBA14_impl_UnionDefE @4297 DATA
    _ZTIN5CORBA14_impl_ValueDefE @4298 DATA
    _ZTIN5CORBA14_pof_ContainedE @4299 DATA
    _ZTIN5CORBA14_pof_ContainerE @4300 DATA
    _ZTIN5CORBA14_pof_ModuleDefE @4301 DATA
    _ZTIN5CORBA14_pof_NativeDefE @4302 DATA
    _ZTIN5CORBA14_pof_StringDefE @4303 DATA
    _ZTIN5CORBA14_pof_StructDefE @4304 DATA
    _ZTIN5CORBA15DATA_CONVERSIONE @4305 DATA
    _ZTIN5CORBA15SystemExceptionE @4306 DATA
    _ZTIN5CORBA15_impl_ContainedE @4307 DATA
    _ZTIN5CORBA15_impl_ContainerE @4308 DATA
    _ZTIN5CORBA15_impl_ModuleDefE @4309 DATA
    _ZTIN5CORBA15_impl_NativeDefE @4310 DATA
    _ZTIN5CORBA15_impl_StringDefE @4311 DATA
    _ZTIN5CORBA15_impl_StructDefE @4312 DATA
    _ZTIN5CORBA15_objref_EnumDefE @4313 DATA
    _ZTIN5CORBA15_objref_IDLTypeE @4314 DATA
    _ZTIN5CORBA15_pof_RepositoryE @4315 DATA
    _ZTIN5CORBA15_pof_TypedefDefE @4316 DATA
    _ZTIN5CORBA15_pof_WstringDefE @4317 DATA
    _ZTIN5CORBA16ValueFactoryBaseE @4318 DATA
    _ZTIN5CORBA16WrongTransactionE @4319 DATA
    _ZTIN5CORBA16_impl_RepositoryE @4320 DATA
    _ZTIN5CORBA16_impl_TypedefDefE @4321 DATA
    _ZTIN5CORBA16_impl_WstringDefE @4322 DATA
    _ZTIN5CORBA16_objref_AliasDefE @4323 DATA
    _ZTIN5CORBA16_objref_ArrayDefE @4324 DATA
    _ZTIN5CORBA16_objref_FixedDefE @4325 DATA
    _ZTIN5CORBA16_objref_IRObjectE @4326 DATA
    _ZTIN5CORBA16_objref_UnionDefE @4327 DATA
    _ZTIN5CORBA16_objref_ValueDefE @4328 DATA
    _ZTIN5CORBA16_pof_ConstantDefE @4329 DATA
    _ZTIN5CORBA16_pof_SequenceDefE @4330 DATA
    _ZTIN5CORBA16_pof_ValueBoxDefE @4331 DATA
    _ZTIN5CORBA17_impl_ConstantDefE @4332 DATA
    _ZTIN5CORBA17_impl_SequenceDefE @4333 DATA
    _ZTIN5CORBA17_impl_ValueBoxDefE @4334 DATA
    _ZTIN5CORBA17_objref_ContainedE @4335 DATA
    _ZTIN5CORBA17_objref_ContainerE @4336 DATA
    _ZTIN5CORBA17_objref_ModuleDefE @4337 DATA
    _ZTIN5CORBA17_objref_NativeDefE @4338 DATA
    _ZTIN5CORBA17_objref_StringDefE @4339 DATA
    _ZTIN5CORBA17_objref_StructDefE @4340 DATA
    _ZTIN5CORBA17_pof_AttributeDefE @4341 DATA
    _ZTIN5CORBA17_pof_ExceptionDefE @4342 DATA
    _ZTIN5CORBA17_pof_InterfaceDefE @4343 DATA
    _ZTIN5CORBA17_pof_OperationDefE @4344 DATA
    _ZTIN5CORBA17_pof_PrimitiveDefE @4345 DATA
    _ZTIN5CORBA18_impl_AttributeDefE @4346 DATA
    _ZTIN5CORBA18_impl_ExceptionDefE @4347 DATA
    _ZTIN5CORBA18_impl_InterfaceDefE @4348 DATA
    _ZTIN5CORBA18_impl_OperationDefE @4349 DATA
    _ZTIN5CORBA18_impl_PrimitiveDefE @4350 DATA
    _ZTIN5CORBA18_objref_RepositoryE @4351 DATA
    _ZTIN5CORBA18_objref_TypedefDefE @4352 DATA
    _ZTIN5CORBA18_objref_WstringDefE @4353 DATA
    _ZTIN5CORBA19_objref_ConstantDefE @4354 DATA
    _ZTIN5CORBA19_objref_SequenceDefE @4355 DATA
    _ZTIN5CORBA19_objref_ValueBoxDefE @4356 DATA
    _ZTIN5CORBA19_pof_ValueMemberDefE @4357 DATA
    _ZTIN5CORBA20UnknownUserExceptionE @4358 DATA
    _ZTIN5CORBA20_impl_ValueMemberDefE @4359 DATA
    _ZTIN5CORBA20_objref_AttributeDefE @4360 DATA
    _ZTIN5CORBA20_objref_ExceptionDefE @4361 DATA
    _ZTIN5CORBA20_objref_InterfaceDefE @4362 DATA
    _ZTIN5CORBA20_objref_OperationDefE @4363 DATA
    _ZTIN5CORBA20_objref_PrimitiveDefE @4364 DATA
    _ZTIN5CORBA22_objref_ValueMemberDefE @4365 DATA
    _ZTIN5CORBA24DefaultValueRefCountBaseE @4366 DATA
    _ZTIN5CORBA24_omni_AbstractBaseObjrefE @4367 DATA
    _ZTIN5CORBA25_pof_AbstractInterfaceDefE @4368 DATA
    _ZTIN5CORBA26_impl_AbstractInterfaceDefE @4369 DATA
    _ZTIN5CORBA28_objref_AbstractInterfaceDefE @4370 DATA
    _ZTIN5CORBA3ORB20InconsistentTypeCodeE @4371 DATA
    _ZTIN5CORBA6NVList6BoundsE @4372 DATA
    _ZTIN5CORBA6NVListE @4373 DATA
    _ZTIN5CORBA6ObjectE @4374 DATA
    _ZTIN5CORBA7ContextE @4375 DATA
    _ZTIN5CORBA7MARSHALE @4376 DATA
    _ZTIN5CORBA7RequestE @4377 DATA
    _ZTIN5CORBA8TypeCode6BoundsE @4378 DATA
    _ZTIN5CORBA8TypeCode7BadKindE @4379 DATA
    _ZTIN5CORBA8TypeCodeE @4380 DATA
    _ZTIN5CORBA9BAD_PARAME @4381 DATA
    _ZTIN5CORBA9ExceptionE @4382 DATA
    _ZTIN5CORBA9ValueBaseE @4383 DATA
    _ZTIN7omniORB14fatalExceptionE @4384 DATA
    _ZTIN9POA_CORBA10RepositoryE @4385 DATA
    _ZTIN9POA_CORBA10TypedefDefE @4386 DATA
    _ZTIN9POA_CORBA10WstringDefE @4387 DATA
    _ZTIN9POA_CORBA11ConstantDefE @4388 DATA
    _ZTIN9POA_CORBA11SequenceDefE @4389 DATA
    _ZTIN9POA_CORBA11ValueBoxDefE @4390 DATA
    _ZTIN9POA_CORBA12AttributeDefE @4391 DATA
    _ZTIN9POA_CORBA12ExceptionDefE @4392 DATA
    _ZTIN9POA_CORBA12InterfaceDefE @4393 DATA
    _ZTIN9POA_CORBA12OperationDefE @4394 DATA
    _ZTIN9POA_CORBA12PrimitiveDefE @4395 DATA
    _ZTIN9POA_CORBA14ValueMemberDefE @4396 DATA
    _ZTIN9POA_CORBA20AbstractInterfaceDefE @4397 DATA
    _ZTIN9POA_CORBA7EnumDefE @4398 DATA
    _ZTIN9POA_CORBA7IDLTypeE @4399 DATA
    _ZTIN9POA_CORBA8AliasDefE @4400 DATA
    _ZTIN9POA_CORBA8ArrayDefE @4401 DATA
    _ZTIN9POA_CORBA8FixedDefE @4402 DATA
    _ZTIN9POA_CORBA8IRObjectE @4403 DATA
    _ZTIN9POA_CORBA8UnionDefE @4404 DATA
    _ZTIN9POA_CORBA8ValueDefE @4405 DATA
    _ZTIN9POA_CORBA9ContainedE @4406 DATA
    _ZTIN9POA_CORBA9ContainerE @4407 DATA
    _ZTIN9POA_CORBA9ModuleDefE @4408 DATA
    _ZTIN9POA_CORBA9NativeDefE @4409 DATA
    _ZTIN9POA_CORBA9StringDefE @4410 DATA
    _ZTIN9POA_CORBA9StructDefE @4411 DATA
    _ZTS10omniObjRef @4412 DATA
    _ZTS11omniServant @4413 DATA
    _ZTS12omniTaskLink @4414 DATA
    _ZTS15cdrMemoryStream @4415 DATA
    _ZTS18cdrAnyMemoryStream @4416 DATA
    _ZTS18omniCallDescriptor @4417 DATA
    _ZTS27_0RL_CORBA_StringValue_init @4418 DATA
    _ZTS28_0RL_CORBA_WStringValue_init @4419 DATA
    _ZTS33_0RL_cd_7963219A43724A61_00000000 @4420 DATA
    _ZTS33_0RL_cd_7963219A43724A61_01000000 @4421 DATA
    _ZTS33_0RL_cd_7963219A43724A61_04000000 @4422 DATA
    _ZTS33_0RL_cd_7963219A43724A61_06000000 @4423 DATA
    _ZTS33_0RL_cd_7963219A43724A61_08000000 @4424 DATA
    _ZTS33_0RL_cd_7963219A43724A61_12000000 @4425 DATA
    _ZTS33_0RL_cd_7963219A43724A61_13000000 @4426 DATA
    _ZTS33_0RL_cd_7963219A43724A61_15000000 @4427 DATA
    _ZTS33_0RL_cd_7963219A43724A61_19000000 @4428 DATA
    _ZTS33_0RL_cd_7963219A43724A61_1a000000 @4429 DATA
    _ZTS33_0RL_cd_7963219A43724A61_1b000000 @4430 DATA
    _ZTS33_0RL_cd_7963219A43724A61_20000000 @4431 DATA
    _ZTS33_0RL_cd_7963219A43724A61_24000000 @4432 DATA
    _ZTS33_0RL_cd_7963219A43724A61_26000000 @4433 DATA
    _ZTS33_0RL_cd_7963219A43724A61_28000000 @4434 DATA
    _ZTS33_0RL_cd_7963219A43724A61_31000000 @4435 DATA
    _ZTS33_0RL_cd_7963219A43724A61_32000000 @4436 DATA
    _ZTS33_0RL_cd_7963219A43724A61_33000000 @4437 DATA
    _ZTS33_0RL_cd_7963219A43724A61_39000000 @4438 DATA
    _ZTS33_0RL_cd_7963219A43724A61_3b000000 @4439 DATA
    _ZTS33_0RL_cd_7963219A43724A61_40000000 @4440 DATA
    _ZTS33_0RL_cd_7963219A43724A61_44000000 @4441 DATA
    _ZTS33_0RL_cd_7963219A43724A61_46000000 @4442 DATA
    _ZTS33_0RL_cd_7963219A43724A61_51000000 @4443 DATA
    _ZTS33_0RL_cd_7963219A43724A61_52000000 @4444 DATA
    _ZTS33_0RL_cd_7963219A43724A61_53000000 @4445 DATA
    _ZTS33_0RL_cd_7963219A43724A61_59000000 @4446 DATA
    _ZTS33_0RL_cd_7963219A43724A61_5b000000 @4447 DATA
    _ZTS33_0RL_cd_7963219A43724A61_60000000 @4448 DATA
    _ZTS33_0RL_cd_7963219A43724A61_65000000 @4449 DATA
    _ZTS33_0RL_cd_7963219A43724A61_71000000 @4450 DATA
    _ZTS33_0RL_cd_7963219A43724A61_72000000 @4451 DATA
    _ZTS33_0RL_cd_7963219A43724A61_74000000 @4452 DATA
    _ZTS33_0RL_cd_7963219A43724A61_78000000 @4453 DATA
    _ZTS33_0RL_cd_7963219A43724A61_79000000 @4454 DATA
    _ZTS33_0RL_cd_7963219A43724A61_7b000000 @4455 DATA
    _ZTS33_0RL_cd_7963219A43724A61_80000000 @4456 DATA
    _ZTS33_0RL_cd_7963219A43724A61_83000000 @4457 DATA
    _ZTS33_0RL_cd_7963219A43724A61_85000000 @4458 DATA
    _ZTS33_0RL_cd_7963219A43724A61_86000000 @4459 DATA
    _ZTS33_0RL_cd_7963219A43724A61_91000000 @4460 DATA
    _ZTS33_0RL_cd_7963219A43724A61_92000000 @4461 DATA
    _ZTS33_0RL_cd_7963219A43724A61_94000000 @4462 DATA
    _ZTS33_0RL_cd_7963219A43724A61_98000000 @4463 DATA
    _ZTS33_0RL_cd_7963219A43724A61_99000000 @4464 DATA
    _ZTS33_0RL_cd_7963219A43724A61_9a000000 @4465 DATA
    _ZTS33_0RL_cd_7963219A43724A61_9b000000 @4466 DATA
    _ZTS33_0RL_cd_7963219A43724A61_a0000000 @4467 DATA
    _ZTS33_0RL_cd_7963219A43724A61_a3000000 @4468 DATA
    _ZTS33_0RL_cd_7963219A43724A61_a5000000 @4469 DATA
    _ZTS33_0RL_cd_7963219A43724A61_a6000000 @4470 DATA
    _ZTS33_0RL_cd_7963219A43724A61_b1000000 @4471 DATA
    _ZTS33_0RL_cd_7963219A43724A61_b2000000 @4472 DATA
    _ZTS33_0RL_cd_7963219A43724A61_b4000000 @4473 DATA
    _ZTS33_0RL_cd_7963219A43724A61_b8000000 @4474 DATA
    _ZTS33_0RL_cd_7963219A43724A61_b9000000 @4475 DATA
    _ZTS33_0RL_cd_7963219A43724A61_ba000000 @4476 DATA
    _ZTS33_0RL_cd_7963219A43724A61_bb000000 @4477 DATA
    _ZTS33_0RL_cd_7963219A43724A61_c3000000 @4478 DATA
    _ZTS33_0RL_cd_7963219A43724A61_c5000000 @4479 DATA
    _ZTS33_0RL_cd_7963219A43724A61_c6000000 @4480 DATA
    _ZTS33_0RL_cd_7963219A43724A61_d1000000 @4481 DATA
    _ZTS33_0RL_cd_7963219A43724A61_d2000000 @4482 DATA
    _ZTS33_0RL_cd_7963219A43724A61_d4000000 @4483 DATA
    _ZTS33_0RL_cd_7963219A43724A61_d8000000 @4484 DATA
    _ZTS33_0RL_cd_7963219A43724A61_d9000000 @4485 DATA
    _ZTS33_0RL_cd_7963219A43724A61_db000000 @4486 DATA
    _ZTS33_0RL_cd_7963219A43724A61_e3000000 @4487 DATA
    _ZTS33_0RL_cd_7963219A43724A61_e6000000 @4488 DATA
    _ZTS33_0RL_cd_7963219A43724A61_f1000000 @4489 DATA
    _ZTS33_0RL_cd_7963219A43724A61_f2000000 @4490 DATA
    _ZTS33_0RL_cd_7963219A43724A61_f4000000 @4491 DATA
    _ZTS33_0RL_cd_7963219A43724A61_f8000000 @4492 DATA
    _ZTS33_0RL_cd_7963219A43724A61_f9000000 @4493 DATA
    _ZTS33_0RL_cd_7963219A43724A61_fb000000 @4494 DATA
    _ZTS8omniTask @4495 DATA
    _ZTS9cdrStream @4496 DATA
    _ZTSN10DynamicAny11DynSequenceE @4497 DATA
    _ZTSN10DynamicAny11DynValueBoxE @4498 DATA
    _ZTSN10DynamicAny13DynAnyFactory20InconsistentTypeCodeE @4499 DATA
    _ZTSN10DynamicAny13DynAnyFactoryE @4500 DATA
    _ZTSN10DynamicAny14DynValueCommonE @4501 DATA
    _ZTSN10DynamicAny6DynAny12InvalidValueE @4502 DATA
    _ZTSN10DynamicAny6DynAny12TypeMismatchE @4503 DATA
    _ZTSN10DynamicAny6DynAnyE @4504 DATA
    _ZTSN10DynamicAny7DynEnumE @4505 DATA
    _ZTSN10DynamicAny8DynArrayE @4506 DATA
    _ZTSN10DynamicAny8DynFixedE @4507 DATA
    _ZTSN10DynamicAny8DynUnionE @4508 DATA
    _ZTSN10DynamicAny8DynValueE @4509 DATA
    _ZTSN10DynamicAny9DynStructE @4510 DATA
    _ZTSN14PortableServer11ServantBaseE @4511 DATA
    _ZTSN14PortableServer17ValueRefCountBaseE @4512 DATA
    _ZTSN14PortableServer21DynamicImplementationE @4513 DATA
    _ZTSN14PortableServer3POA11WrongPolicyE @4514 DATA
    _ZTSN4omni10DynAnyImplE @4515 DATA
    _ZTSN4omni10NVListImplE @4516 DATA
    _ZTSN4omni10omniNilEnvE @4517 DATA
    _ZTSN4omni11ContextImplE @4518 DATA
    _ZTSN4omni11DynEnumImplE @4519 DATA
    _ZTSN4omni11RequestImplE @4520 DATA
    _ZTSN4omni12DynArrayImplE @4521 DATA
    _ZTSN4omni12DynFixedImplE @4522 DATA
    _ZTSN4omni12DynUnionDiscE @4523 DATA
    _ZTSN4omni12DynUnionImplE @4524 DATA
    _ZTSN4omni12DynValueImplE @4525 DATA
    _ZTSN4omni12UnknownValueE @4526 DATA
    _ZTSN4omni13DynStructImplE @4527 DATA
    _ZTSN4omni13PseudoObjBaseE @4528 DATA
    _ZTSN4omni13TypeCode_baseE @4529 DATA
    _ZTSN4omni13TypeCode_enumE @4530 DATA
    _ZTSN4omni13omniNilCtListE @4531 DATA
    _ZTSN4omni13omniNilDynAnyE @4532 DATA
    _ZTSN4omni13omniNilExListE @4533 DATA
    _ZTSN4omni13omniNilNVListE @4534 DATA
    _ZTSN4omni14DynAnyImplBaseE @4535 DATA
    _ZTSN4omni14NamedValueImplE @4536 DATA
    _ZTSN4omni14TypeCode_aliasE @4537 DATA
    _ZTSN4omni14TypeCode_arrayE @4538 DATA
    _ZTSN4omni14TypeCode_fixedE @4539 DATA
    _ZTSN4omni14TypeCode_unionE @4540 DATA
    _ZTSN4omni14TypeCode_valueE @4541 DATA
    _ZTSN4omni14omniNilContextE @4542 DATA
    _ZTSN4omni14omniNilDynEnumE @4543 DATA
    _ZTSN4omni14omniNilRequestE @4544 DATA
    _ZTSN4omni15ContextListImplE @4545 DATA
    _ZTSN4omni15DeferredRequestE @4546 DATA
    _ZTSN4omni15DynSequenceImplE @4547 DATA
    _ZTSN4omni15DynValueBoxImplE @4548 DATA
    _ZTSN4omni15EnvironmentImplE @4549 DATA
    _ZTSN4omni15TypeCode_exceptE @4550 DATA
    _ZTSN4omni15TypeCode_objrefE @4551 DATA
    _ZTSN4omni15TypeCode_stringE @4552 DATA
    _ZTSN4omni15TypeCode_structE @4553 DATA
    _ZTSN4omni15omniInitialiserE @4554 DATA
    _ZTSN4omni15omniNilDynArrayE @4555 DATA
    _ZTSN4omni15omniNilDynFixedE @4556 DATA
    _ZTSN4omni15omniNilDynUnionE @4557 DATA
    _ZTSN4omni15omniNilDynValueE @4558 DATA
    _ZTSN4omni16DynAnyConstrBaseE @4559 DATA
    _ZTSN4omni16DynUnionEnumDiscE @4560 DATA
    _ZTSN4omni16TypeCode_wstringE @4561 DATA
    _ZTSN4omni16omniNilDynStructE @4562 DATA
    _ZTSN4omni17DynAnyFactoryImplE @4563 DATA
    _ZTSN4omni17ExceptionListImplE @4564 DATA
    _ZTSN4omni17InputValueTrackerE @4565 DATA
    _ZTSN4omni17TypeCode_indirectE @4566 DATA
    _ZTSN4omni17TypeCode_sequenceE @4567 DATA
    _ZTSN4omni17omniServerRequestE @4568 DATA
    _ZTSN4omni17omniTrackedObjectE @4569 DATA
    _ZTSN4omni18OutputValueTrackerE @4570 DATA
    _ZTSN4omni18TypeCode_value_boxE @4571 DATA
    _ZTSN4omni18omniNilDynSequenceE @4572 DATA
    _ZTSN4omni18omniNilDynValueBoxE @4573 DATA
    _ZTSN4omni18proxyObjectFactoryE @4574 DATA
    _ZTSN4omni20FromAnyUserExceptionE @4575 DATA
    _ZTSN4omni20omniNilDynAnyFactoryE @4576 DATA
    _ZTSN4omni21omniNilDynValueCommonE @4577 DATA
    _ZTSN4omni21omniNilTypeCodeHolderE @4578 DATA
    _ZTSN4omni22omniTypeCodeCollectionE @4579 DATA
    _ZTSN4omni23ValueIndirectionTrackerE @4580 DATA
    _ZTSN4omni23omni_dynAny_initialiserE @4581 DATA
    _ZTSN4omni24TypeCode_local_interfaceE @4582 DATA
    _ZTSN4omni25omni_RequestImpl_callDescE @4583 DATA
    _ZTSN4omni27TypeCode_abstract_interfaceE @4584 DATA
    _ZTSN4omni27serverRequestCallDescriptorE @4585 DATA
    _ZTSN4omni29omni_valueFactory_initialiserE @4586 DATA
    _ZTSN4omni9omniNilNVE @4587 DATA
    _ZTSN5CORBA10NamedValueE @4588 DATA
    _ZTSN5CORBA11ContextList6BoundsE @4589 DATA
    _ZTSN5CORBA11ContextListE @4590 DATA
    _ZTSN5CORBA11EnvironmentE @4591 DATA
    _ZTSN5CORBA11PolicyErrorE @4592 DATA
    _ZTSN5CORBA11StringValueE @4593 DATA
    _ZTSN5CORBA12AbstractBaseE @4594 DATA
    _ZTSN5CORBA12NO_IMPLEMENTE @4595 DATA
    _ZTSN5CORBA12WStringValueE @4596 DATA
    _ZTSN5CORBA12_pof_EnumDefE @4597 DATA
    _ZTSN5CORBA12_pof_IDLTypeE @4598 DATA
    _ZTSN5CORBA13ExceptionList6BoundsE @4599 DATA
    _ZTSN5CORBA13ExceptionListE @4600 DATA
    _ZTSN5CORBA13ServerRequestE @4601 DATA
    _ZTSN5CORBA13UserExceptionE @4602 DATA
    _ZTSN5CORBA13_impl_EnumDefE @4603 DATA
    _ZTSN5CORBA13_impl_IDLTypeE @4604 DATA
    _ZTSN5CORBA13_pof_AliasDefE @4605 DATA
    _ZTSN5CORBA13_pof_ArrayDefE @4606 DATA
    _ZTSN5CORBA13_pof_FixedDefE @4607 DATA
    _ZTSN5CORBA13_pof_IRObjectE @4608 DATA
    _ZTSN5CORBA13_pof_UnionDefE @4609 DATA
    _ZTSN5CORBA13_pof_ValueDefE @4610 DATA
    _ZTSN5CORBA14_impl_AliasDefE @4611 DATA
    _ZTSN5CORBA14_impl_ArrayDefE @4612 DATA
    _ZTSN5CORBA14_impl_FixedDefE @4613 DATA
    _ZTSN5CORBA14_impl_IRObjectE @4614 DATA
    _ZTSN5CORBA14_impl_UnionDefE @4615 DATA
    _ZTSN5CORBA14_impl_ValueDefE @4616 DATA
    _ZTSN5CORBA14_pof_ContainedE @4617 DATA
    _ZTSN5CORBA14_pof_ContainerE @4618 DATA
    _ZTSN5CORBA14_pof_ModuleDefE @4619 DATA
    _ZTSN5CORBA14_pof_NativeDefE @4620 DATA
    _ZTSN5CORBA14_pof_StringDefE @4621 DATA
    _ZTSN5CORBA14_pof_StructDefE @4622 DATA
    _ZTSN5CORBA15DATA_CONVERSIONE @4623 DATA
    _ZTSN5CORBA15SystemExceptionE @4624 DATA
    _ZTSN5CORBA15_impl_ContainedE @4625 DATA
    _ZTSN5CORBA15_impl_ContainerE @4626 DATA
    _ZTSN5CORBA15_impl_ModuleDefE @4627 DATA
    _ZTSN5CORBA15_impl_NativeDefE @4628 DATA
    _ZTSN5CORBA15_impl_StringDefE @4629 DATA
    _ZTSN5CORBA15_impl_StructDefE @4630 DATA
    _ZTSN5CORBA15_objref_EnumDefE @4631 DATA
    _ZTSN5CORBA15_objref_IDLTypeE @4632 DATA
    _ZTSN5CORBA15_pof_RepositoryE @4633 DATA
    _ZTSN5CORBA15_pof_TypedefDefE @4634 DATA
    _ZTSN5CORBA15_pof_WstringDefE @4635 DATA
    _ZTSN5CORBA16ValueFactoryBaseE @4636 DATA
    _ZTSN5CORBA16WrongTransactionE @4637 DATA
    _ZTSN5CORBA16_impl_RepositoryE @4638 DATA
    _ZTSN5CORBA16_impl_TypedefDefE @4639 DATA
    _ZTSN5CORBA16_impl_WstringDefE @4640 DATA
    _ZTSN5CORBA16_objref_AliasDefE @4641 DATA
    _ZTSN5CORBA16_objref_ArrayDefE @4642 DATA
    _ZTSN5CORBA16_objref_FixedDefE @4643 DATA
    _ZTSN5CORBA16_objref_IRObjectE @4644 DATA
    _ZTSN5CORBA16_objref_UnionDefE @4645 DATA
    _ZTSN5CORBA16_objref_ValueDefE @4646 DATA
    _ZTSN5CORBA16_pof_ConstantDefE @4647 DATA
    _ZTSN5CORBA16_pof_SequenceDefE @4648 DATA
    _ZTSN5CORBA16_pof_ValueBoxDefE @4649 DATA
    _ZTSN5CORBA17_impl_ConstantDefE @4650 DATA
    _ZTSN5CORBA17_impl_SequenceDefE @4651 DATA
    _ZTSN5CORBA17_impl_ValueBoxDefE @4652 DATA
    _ZTSN5CORBA17_objref_ContainedE @4653 DATA
    _ZTSN5CORBA17_objref_ContainerE @4654 DATA
    _ZTSN5CORBA17_objref_ModuleDefE @4655 DATA
    _ZTSN5CORBA17_objref_NativeDefE @4656 DATA
    _ZTSN5CORBA17_objref_StringDefE @4657 DATA
    _ZTSN5CORBA17_objref_StructDefE @4658 DATA
    _ZTSN5CORBA17_pof_AttributeDefE @4659 DATA
    _ZTSN5CORBA17_pof_ExceptionDefE @4660 DATA
    _ZTSN5CORBA17_pof_InterfaceDefE @4661 DATA
    _ZTSN5CORBA17_pof_OperationDefE @4662 DATA
    _ZTSN5CORBA17_pof_PrimitiveDefE @4663 DATA
    _ZTSN5CORBA18_impl_AttributeDefE @4664 DATA
    _ZTSN5CORBA18_impl_ExceptionDefE @4665 DATA
    _ZTSN5CORBA18_impl_InterfaceDefE @4666 DATA
    _ZTSN5CORBA18_impl_OperationDefE @4667 DATA
    _ZTSN5CORBA18_impl_PrimitiveDefE @4668 DATA
    _ZTSN5CORBA18_objref_RepositoryE @4669 DATA
    _ZTSN5CORBA18_objref_TypedefDefE @4670 DATA
    _ZTSN5CORBA18_objref_WstringDefE @4671 DATA
    _ZTSN5CORBA19_objref_ConstantDefE @4672 DATA
    _ZTSN5CORBA19_objref_SequenceDefE @4673 DATA
    _ZTSN5CORBA19_objref_ValueBoxDefE @4674 DATA
    _ZTSN5CORBA19_pof_ValueMemberDefE @4675 DATA
    _ZTSN5CORBA20UnknownUserExceptionE @4676 DATA
    _ZTSN5CORBA20_impl_ValueMemberDefE @4677 DATA
    _ZTSN5CORBA20_objref_AttributeDefE @4678 DATA
    _ZTSN5CORBA20_objref_ExceptionDefE @4679 DATA
    _ZTSN5CORBA20_objref_InterfaceDefE @4680 DATA
    _ZTSN5CORBA20_objref_OperationDefE @4681 DATA
    _ZTSN5CORBA20_objref_PrimitiveDefE @4682 DATA
    _ZTSN5CORBA22_objref_ValueMemberDefE @4683 DATA
    _ZTSN5CORBA24DefaultValueRefCountBaseE @4684 DATA
    _ZTSN5CORBA24_omni_AbstractBaseObjrefE @4685 DATA
    _ZTSN5CORBA25_pof_AbstractInterfaceDefE @4686 DATA
    _ZTSN5CORBA26_impl_AbstractInterfaceDefE @4687 DATA
    _ZTSN5CORBA28_objref_AbstractInterfaceDefE @4688 DATA
    _ZTSN5CORBA3ORB20InconsistentTypeCodeE @4689 DATA
    _ZTSN5CORBA6NVList6BoundsE @4690 DATA
    _ZTSN5CORBA6NVListE @4691 DATA
    _ZTSN5CORBA6ObjectE @4692 DATA
    _ZTSN5CORBA7ContextE @4693 DATA
    _ZTSN5CORBA7MARSHALE @4694 DATA
    _ZTSN5CORBA7RequestE @4695 DATA
    _ZTSN5CORBA8TypeCode6BoundsE @4696 DATA
    _ZTSN5CORBA8TypeCode7BadKindE @4697 DATA
    _ZTSN5CORBA8TypeCodeE @4698 DATA
    _ZTSN5CORBA9BAD_PARAME @4699 DATA
    _ZTSN5CORBA9ExceptionE @4700 DATA
    _ZTSN5CORBA9ValueBaseE @4701 DATA
    _ZTSN7omniORB14fatalExceptionE @4702 DATA
    _ZTSN9POA_CORBA10RepositoryE @4703 DATA
    _ZTSN9POA_CORBA10TypedefDefE @4704 DATA
    _ZTSN9POA_CORBA10WstringDefE @4705 DATA
    _ZTSN9POA_CORBA11ConstantDefE @4706 DATA
    _ZTSN9POA_CORBA11SequenceDefE @4707 DATA
    _ZTSN9POA_CORBA11ValueBoxDefE @4708 DATA
    _ZTSN9POA_CORBA12AttributeDefE @4709 DATA
    _ZTSN9POA_CORBA12ExceptionDefE @4710 DATA
    _ZTSN9POA_CORBA12InterfaceDefE @4711 DATA
    _ZTSN9POA_CORBA12OperationDefE @4712 DATA
    _ZTSN9POA_CORBA12PrimitiveDefE @4713 DATA
    _ZTSN9POA_CORBA14ValueMemberDefE @4714 DATA
    _ZTSN9POA_CORBA20AbstractInterfaceDefE @4715 DATA
    _ZTSN9POA_CORBA7EnumDefE @4716 DATA
    _ZTSN9POA_CORBA7IDLTypeE @4717 DATA
    _ZTSN9POA_CORBA8AliasDefE @4718 DATA
    _ZTSN9POA_CORBA8ArrayDefE @4719 DATA
    _ZTSN9POA_CORBA8FixedDefE @4720 DATA
    _ZTSN9POA_CORBA8IRObjectE @4721 DATA
    _ZTSN9POA_CORBA8UnionDefE @4722 DATA
    _ZTSN9POA_CORBA8ValueDefE @4723 DATA
    _ZTSN9POA_CORBA9ContainedE @4724 DATA
    _ZTSN9POA_CORBA9ContainerE @4725 DATA
    _ZTSN9POA_CORBA9ModuleDefE @4726 DATA
    _ZTSN9POA_CORBA9NativeDefE @4727 DATA
    _ZTSN9POA_CORBA9StringDefE @4728 DATA
    _ZTSN9POA_CORBA9StructDefE @4729 DATA
    _ZTTN10DynamicAny11DynSequenceE @4730 DATA
    _ZTTN10DynamicAny11DynValueBoxE @4731 DATA
    _ZTTN10DynamicAny14DynValueCommonE @4732 DATA
    _ZTTN10DynamicAny7DynEnumE @4733 DATA
    _ZTTN10DynamicAny8DynArrayE @4734 DATA
    _ZTTN10DynamicAny8DynFixedE @4735 DATA
    _ZTTN10DynamicAny8DynUnionE @4736 DATA
    _ZTTN10DynamicAny8DynValueE @4737 DATA
    _ZTTN10DynamicAny9DynStructE @4738 DATA
    _ZTTN14PortableServer17ValueRefCountBaseE @4739 DATA
    _ZTTN14PortableServer21DynamicImplementationE @4740 DATA
    _ZTTN4omni10DynAnyImplE @4741 DATA
    _ZTTN4omni11DynEnumImplE @4742 DATA
    _ZTTN4omni12DynArrayImplE @4743 DATA
    _ZTTN4omni12DynFixedImplE @4744 DATA
    _ZTTN4omni12DynUnionDiscE @4745 DATA
    _ZTTN4omni12DynUnionImplE @4746 DATA
    _ZTTN4omni12DynValueImplE @4747 DATA
    _ZTTN4omni12UnknownValueE @4748 DATA
    _ZTTN4omni13DynStructImplE @4749 DATA
    _ZTTN4omni13omniNilDynAnyE @4750 DATA
    _ZTTN4omni14DynAnyImplBaseE @4751 DATA
    _ZTTN4omni14omniNilDynEnumE @4752 DATA
    _ZTTN4omni15DynSequenceImplE @4753 DATA
    _ZTTN4omni15DynValueBoxImplE @4754 DATA
    _ZTTN4omni15omniNilDynArrayE @4755 DATA
    _ZTTN4omni15omniNilDynFixedE @4756 DATA
    _ZTTN4omni15omniNilDynUnionE @4757 DATA
    _ZTTN4omni15omniNilDynValueE @4758 DATA
    _ZTTN4omni16DynAnyConstrBaseE @4759 DATA
    _ZTTN4omni16DynUnionEnumDiscE @4760 DATA
    _ZTTN4omni16omniNilDynStructE @4761 DATA
    _ZTTN4omni18omniNilDynSequenceE @4762 DATA
    _ZTTN4omni18omniNilDynValueBoxE @4763 DATA
    _ZTTN4omni20omniNilDynAnyFactoryE @4764 DATA
    _ZTTN4omni21omniNilDynValueCommonE @4765 DATA
    _ZTTN5CORBA11StringValueE @4766 DATA
    _ZTTN5CORBA12WStringValueE @4767 DATA
    _ZTTN5CORBA13_impl_EnumDefE @4768 DATA
    _ZTTN5CORBA13_impl_IDLTypeE @4769 DATA
    _ZTTN5CORBA14_impl_AliasDefE @4770 DATA
    _ZTTN5CORBA14_impl_ArrayDefE @4771 DATA
    _ZTTN5CORBA14_impl_FixedDefE @4772 DATA
    _ZTTN5CORBA14_impl_IRObjectE @4773 DATA
    _ZTTN5CORBA14_impl_UnionDefE @4774 DATA
    _ZTTN5CORBA14_impl_ValueDefE @4775 DATA
    _ZTTN5CORBA15_impl_ContainedE @4776 DATA
    _ZTTN5CORBA15_impl_ContainerE @4777 DATA
    _ZTTN5CORBA15_impl_ModuleDefE @4778 DATA
    _ZTTN5CORBA15_impl_NativeDefE @4779 DATA
    _ZTTN5CORBA15_impl_StringDefE @4780 DATA
    _ZTTN5CORBA15_impl_StructDefE @4781 DATA
    _ZTTN5CORBA15_objref_EnumDefE @4782 DATA
    _ZTTN5CORBA15_objref_IDLTypeE @4783 DATA
    _ZTTN5CORBA16_impl_RepositoryE @4784 DATA
    _ZTTN5CORBA16_impl_TypedefDefE @4785 DATA
    _ZTTN5CORBA16_impl_WstringDefE @4786 DATA
    _ZTTN5CORBA16_objref_AliasDefE @4787 DATA
    _ZTTN5CORBA16_objref_ArrayDefE @4788 DATA
    _ZTTN5CORBA16_objref_FixedDefE @4789 DATA
    _ZTTN5CORBA16_objref_IRObjectE @4790 DATA
    _ZTTN5CORBA16_objref_UnionDefE @4791 DATA
    _ZTTN5CORBA16_objref_ValueDefE @4792 DATA
    _ZTTN5CORBA17_impl_ConstantDefE @4793 DATA
    _ZTTN5CORBA17_impl_SequenceDefE @4794 DATA
    _ZTTN5CORBA17_impl_ValueBoxDefE @4795 DATA
    _ZTTN5CORBA17_objref_ContainedE @4796 DATA
    _ZTTN5CORBA17_objref_ContainerE @4797 DATA
    _ZTTN5CORBA17_objref_ModuleDefE @4798 DATA
    _ZTTN5CORBA17_objref_NativeDefE @4799 DATA
    _ZTTN5CORBA17_objref_StringDefE @4800 DATA
    _ZTTN5CORBA17_objref_StructDefE @4801 DATA
    _ZTTN5CORBA18_impl_AttributeDefE @4802 DATA
    _ZTTN5CORBA18_impl_ExceptionDefE @4803 DATA
    _ZTTN5CORBA18_impl_InterfaceDefE @4804 DATA
    _ZTTN5CORBA18_impl_OperationDefE @4805 DATA
    _ZTTN5CORBA18_impl_PrimitiveDefE @4806 DATA
    _ZTTN5CORBA18_objref_RepositoryE @4807 DATA
    _ZTTN5CORBA18_objref_TypedefDefE @4808 DATA
    _ZTTN5CORBA18_objref_WstringDefE @4809 DATA
    _ZTTN5CORBA19_objref_ConstantDefE @4810 DATA
    _ZTTN5CORBA19_objref_SequenceDefE @4811 DATA
    _ZTTN5CORBA19_objref_ValueBoxDefE @4812 DATA
    _ZTTN5CORBA20_impl_ValueMemberDefE @4813 DATA
    _ZTTN5CORBA20_objref_AttributeDefE @4814 DATA
    _ZTTN5CORBA20_objref_ExceptionDefE @4815 DATA
    _ZTTN5CORBA20_objref_InterfaceDefE @4816 DATA
    _ZTTN5CORBA20_objref_OperationDefE @4817 DATA
    _ZTTN5CORBA20_objref_PrimitiveDefE @4818 DATA
    _ZTTN5CORBA22_objref_ValueMemberDefE @4819 DATA
    _ZTTN5CORBA24DefaultValueRefCountBaseE @4820 DATA
    _ZTTN5CORBA24_omni_AbstractBaseObjrefE @4821 DATA
    _ZTTN5CORBA26_impl_AbstractInterfaceDefE @4822 DATA
    _ZTTN5CORBA28_objref_AbstractInterfaceDefE @4823 DATA
    _ZTTN9POA_CORBA10RepositoryE @4824 DATA
    _ZTTN9POA_CORBA10TypedefDefE @4825 DATA
    _ZTTN9POA_CORBA10WstringDefE @4826 DATA
    _ZTTN9POA_CORBA11ConstantDefE @4827 DATA
    _ZTTN9POA_CORBA11SequenceDefE @4828 DATA
    _ZTTN9POA_CORBA11ValueBoxDefE @4829 DATA
    _ZTTN9POA_CORBA12AttributeDefE @4830 DATA
    _ZTTN9POA_CORBA12ExceptionDefE @4831 DATA
    _ZTTN9POA_CORBA12InterfaceDefE @4832 DATA
    _ZTTN9POA_CORBA12OperationDefE @4833 DATA
    _ZTTN9POA_CORBA12PrimitiveDefE @4834 DATA
    _ZTTN9POA_CORBA14ValueMemberDefE @4835 DATA
    _ZTTN9POA_CORBA20AbstractInterfaceDefE @4836 DATA
    _ZTTN9POA_CORBA7EnumDefE @4837 DATA
    _ZTTN9POA_CORBA7IDLTypeE @4838 DATA
    _ZTTN9POA_CORBA8AliasDefE @4839 DATA
    _ZTTN9POA_CORBA8ArrayDefE @4840 DATA
    _ZTTN9POA_CORBA8FixedDefE @4841 DATA
    _ZTTN9POA_CORBA8IRObjectE @4842 DATA
    _ZTTN9POA_CORBA8UnionDefE @4843 DATA
    _ZTTN9POA_CORBA8ValueDefE @4844 DATA
    _ZTTN9POA_CORBA9ContainedE @4845 DATA
    _ZTTN9POA_CORBA9ContainerE @4846 DATA
    _ZTTN9POA_CORBA9ModuleDefE @4847 DATA
    _ZTTN9POA_CORBA9NativeDefE @4848 DATA
    _ZTTN9POA_CORBA9StringDefE @4849 DATA
    _ZTTN9POA_CORBA9StructDefE @4850 DATA
    _ZTV18cdrAnyMemoryStream @4851 DATA
    _ZTV27_0RL_CORBA_StringValue_init @4852 DATA
    _ZTV28_0RL_CORBA_WStringValue_init @4853 DATA
    _ZTV33_0RL_cd_7963219A43724A61_00000000 @4854 DATA
    _ZTV33_0RL_cd_7963219A43724A61_01000000 @4855 DATA
    _ZTV33_0RL_cd_7963219A43724A61_04000000 @4856 DATA
    _ZTV33_0RL_cd_7963219A43724A61_06000000 @4857 DATA
    _ZTV33_0RL_cd_7963219A43724A61_08000000 @4858 DATA
    _ZTV33_0RL_cd_7963219A43724A61_12000000 @4859 DATA
    _ZTV33_0RL_cd_7963219A43724A61_13000000 @4860 DATA
    _ZTV33_0RL_cd_7963219A43724A61_15000000 @4861 DATA
    _ZTV33_0RL_cd_7963219A43724A61_19000000 @4862 DATA
    _ZTV33_0RL_cd_7963219A43724A61_1a000000 @4863 DATA
    _ZTV33_0RL_cd_7963219A43724A61_1b000000 @4864 DATA
    _ZTV33_0RL_cd_7963219A43724A61_20000000 @4865 DATA
    _ZTV33_0RL_cd_7963219A43724A61_24000000 @4866 DATA
    _ZTV33_0RL_cd_7963219A43724A61_26000000 @4867 DATA
    _ZTV33_0RL_cd_7963219A43724A61_28000000 @4868 DATA
    _ZTV33_0RL_cd_7963219A43724A61_31000000 @4869 DATA
    _ZTV33_0RL_cd_7963219A43724A61_32000000 @4870 DATA
    _ZTV33_0RL_cd_7963219A43724A61_33000000 @4871 DATA
    _ZTV33_0RL_cd_7963219A43724A61_39000000 @4872 DATA
    _ZTV33_0RL_cd_7963219A43724A61_3b000000 @4873 DATA
    _ZTV33_0RL_cd_7963219A43724A61_40000000 @4874 DATA
    _ZTV33_0RL_cd_7963219A43724A61_44000000 @4875 DATA
    _ZTV33_0RL_cd_7963219A43724A61_46000000 @4876 DATA
    _ZTV33_0RL_cd_7963219A43724A61_51000000 @4877 DATA
    _ZTV33_0RL_cd_7963219A43724A61_52000000 @4878 DATA
    _ZTV33_0RL_cd_7963219A43724A61_53000000 @4879 DATA
    _ZTV33_0RL_cd_7963219A43724A61_59000000 @4880 DATA
    _ZTV33_0RL_cd_7963219A43724A61_5b000000 @4881 DATA
    _ZTV33_0RL_cd_7963219A43724A61_60000000 @4882 DATA
    _ZTV33_0RL_cd_7963219A43724A61_65000000 @4883 DATA
    _ZTV33_0RL_cd_7963219A43724A61_71000000 @4884 DATA
    _ZTV33_0RL_cd_7963219A43724A61_72000000 @4885 DATA
    _ZTV33_0RL_cd_7963219A43724A61_74000000 @4886 DATA
    _ZTV33_0RL_cd_7963219A43724A61_78000000 @4887 DATA
    _ZTV33_0RL_cd_7963219A43724A61_79000000 @4888 DATA
    _ZTV33_0RL_cd_7963219A43724A61_7b000000 @4889 DATA
    _ZTV33_0RL_cd_7963219A43724A61_80000000 @4890 DATA
    _ZTV33_0RL_cd_7963219A43724A61_83000000 @4891 DATA
    _ZTV33_0RL_cd_7963219A43724A61_85000000 @4892 DATA
    _ZTV33_0RL_cd_7963219A43724A61_86000000 @4893 DATA
    _ZTV33_0RL_cd_7963219A43724A61_91000000 @4894 DATA
    _ZTV33_0RL_cd_7963219A43724A61_92000000 @4895 DATA
    _ZTV33_0RL_cd_7963219A43724A61_94000000 @4896 DATA
    _ZTV33_0RL_cd_7963219A43724A61_98000000 @4897 DATA
    _ZTV33_0RL_cd_7963219A43724A61_99000000 @4898 DATA
    _ZTV33_0RL_cd_7963219A43724A61_9a000000 @4899 DATA
    _ZTV33_0RL_cd_7963219A43724A61_9b000000 @4900 DATA
    _ZTV33_0RL_cd_7963219A43724A61_a0000000 @4901 DATA
    _ZTV33_0RL_cd_7963219A43724A61_a3000000 @4902 DATA
    _ZTV33_0RL_cd_7963219A43724A61_a5000000 @4903 DATA
    _ZTV33_0RL_cd_7963219A43724A61_a6000000 @4904 DATA
    _ZTV33_0RL_cd_7963219A43724A61_b1000000 @4905 DATA
    _ZTV33_0RL_cd_7963219A43724A61_b2000000 @4906 DATA
    _ZTV33_0RL_cd_7963219A43724A61_b4000000 @4907 DATA
    _ZTV33_0RL_cd_7963219A43724A61_b8000000 @4908 DATA
    _ZTV33_0RL_cd_7963219A43724A61_b9000000 @4909 DATA
    _ZTV33_0RL_cd_7963219A43724A61_ba000000 @4910 DATA
    _ZTV33_0RL_cd_7963219A43724A61_bb000000 @4911 DATA
    _ZTV33_0RL_cd_7963219A43724A61_c3000000 @4912 DATA
    _ZTV33_0RL_cd_7963219A43724A61_c5000000 @4913 DATA
    _ZTV33_0RL_cd_7963219A43724A61_c6000000 @4914 DATA
    _ZTV33_0RL_cd_7963219A43724A61_d1000000 @4915 DATA
    _ZTV33_0RL_cd_7963219A43724A61_d2000000 @4916 DATA
    _ZTV33_0RL_cd_7963219A43724A61_d4000000 @4917 DATA
    _ZTV33_0RL_cd_7963219A43724A61_d8000000 @4918 DATA
    _ZTV33_0RL_cd_7963219A43724A61_d9000000 @4919 DATA
    _ZTV33_0RL_cd_7963219A43724A61_db000000 @4920 DATA
    _ZTV33_0RL_cd_7963219A43724A61_e3000000 @4921 DATA
    _ZTV33_0RL_cd_7963219A43724A61_e6000000 @4922 DATA
    _ZTV33_0RL_cd_7963219A43724A61_f1000000 @4923 DATA
    _ZTV33_0RL_cd_7963219A43724A61_f2000000 @4924 DATA
    _ZTV33_0RL_cd_7963219A43724A61_f4000000 @4925 DATA
    _ZTV33_0RL_cd_7963219A43724A61_f8000000 @4926 DATA
    _ZTV33_0RL_cd_7963219A43724A61_f9000000 @4927 DATA
    _ZTV33_0RL_cd_7963219A43724A61_fb000000 @4928 DATA
    _ZTV8omniTask @4929 DATA
    _ZTVN10DynamicAny11DynSequenceE @4930 DATA
    _ZTVN10DynamicAny11DynValueBoxE @4931 DATA
    _ZTVN10DynamicAny13DynAnyFactory20InconsistentTypeCodeE @4932 DATA
    _ZTVN10DynamicAny13DynAnyFactoryE @4933 DATA
    _ZTVN10DynamicAny14DynValueCommonE @4934 DATA
    _ZTVN10DynamicAny6DynAny12InvalidValueE @4935 DATA
    _ZTVN10DynamicAny6DynAny12TypeMismatchE @4936 DATA
    _ZTVN10DynamicAny6DynAnyE @4937 DATA
    _ZTVN10DynamicAny7DynEnumE @4938 DATA
    _ZTVN10DynamicAny8DynArrayE @4939 DATA
    _ZTVN10DynamicAny8DynFixedE @4940 DATA
    _ZTVN10DynamicAny8DynUnionE @4941 DATA
    _ZTVN10DynamicAny8DynValueE @4942 DATA
    _ZTVN10DynamicAny9DynStructE @4943 DATA
    _ZTVN14PortableServer17ValueRefCountBaseE @4944 DATA
    _ZTVN14PortableServer21DynamicImplementationE @4945 DATA
    _ZTVN4omni10DynAnyImplE @4946 DATA
    _ZTVN4omni10NVListImplE @4947 DATA
    _ZTVN4omni10omniNilEnvE @4948 DATA
    _ZTVN4omni11ContextImplE @4949 DATA
    _ZTVN4omni11DynEnumImplE @4950 DATA
    _ZTVN4omni11RequestImplE @4951 DATA
    _ZTVN4omni12DynArrayImplE @4952 DATA
    _ZTVN4omni12DynFixedImplE @4953 DATA
    _ZTVN4omni12DynUnionDiscE @4954 DATA
    _ZTVN4omni12DynUnionImplE @4955 DATA
    _ZTVN4omni12DynValueImplE @4956 DATA
    _ZTVN4omni12UnknownValueE @4957 DATA
    _ZTVN4omni13DynStructImplE @4958 DATA
    _ZTVN4omni13PseudoObjBaseE @4959 DATA
    _ZTVN4omni13TypeCode_baseE @4960 DATA
    _ZTVN4omni13TypeCode_enumE @4961 DATA
    _ZTVN4omni13omniNilCtListE @4962 DATA
    _ZTVN4omni13omniNilDynAnyE @4963 DATA
    _ZTVN4omni13omniNilExListE @4964 DATA
    _ZTVN4omni13omniNilNVListE @4965 DATA
    _ZTVN4omni14DynAnyImplBaseE @4966 DATA
    _ZTVN4omni14NamedValueImplE @4967 DATA
    _ZTVN4omni14TypeCode_aliasE @4968 DATA
    _ZTVN4omni14TypeCode_arrayE @4969 DATA
    _ZTVN4omni14TypeCode_fixedE @4970 DATA
    _ZTVN4omni14TypeCode_unionE @4971 DATA
    _ZTVN4omni14TypeCode_valueE @4972 DATA
    _ZTVN4omni14omniNilContextE @4973 DATA
    _ZTVN4omni14omniNilDynEnumE @4974 DATA
    _ZTVN4omni14omniNilRequestE @4975 DATA
    _ZTVN4omni15ContextListImplE @4976 DATA
    _ZTVN4omni15DeferredRequestE @4977 DATA
    _ZTVN4omni15DynSequenceImplE @4978 DATA
    _ZTVN4omni15DynValueBoxImplE @4979 DATA
    _ZTVN4omni15EnvironmentImplE @4980 DATA
    _ZTVN4omni15TypeCode_exceptE @4981 DATA
    _ZTVN4omni15TypeCode_objrefE @4982 DATA
    _ZTVN4omni15TypeCode_stringE @4983 DATA
    _ZTVN4omni15TypeCode_structE @4984 DATA
    _ZTVN4omni15omniInitialiserE @4985 DATA
    _ZTVN4omni15omniNilDynArrayE @4986 DATA
    _ZTVN4omni15omniNilDynFixedE @4987 DATA
    _ZTVN4omni15omniNilDynUnionE @4988 DATA
    _ZTVN4omni15omniNilDynValueE @4989 DATA
    _ZTVN4omni16DynAnyConstrBaseE @4990 DATA
    _ZTVN4omni16DynUnionEnumDiscE @4991 DATA
    _ZTVN4omni16TypeCode_wstringE @4992 DATA
    _ZTVN4omni16omniNilDynStructE @4993 DATA
    _ZTVN4omni17DynAnyFactoryImplE @4994 DATA
    _ZTVN4omni17ExceptionListImplE @4995 DATA
    _ZTVN4omni17InputValueTrackerE @4996 DATA
    _ZTVN4omni17TypeCode_indirectE @4997 DATA
    _ZTVN4omni17TypeCode_sequenceE @4998 DATA
    _ZTVN4omni17omniServerRequestE @4999 DATA
    _ZTVN4omni17omniTrackedObjectE @5000 DATA
    _ZTVN4omni18OutputValueTrackerE @5001 DATA
    _ZTVN4omni18TypeCode_value_boxE @5002 DATA
    _ZTVN4omni18omniNilDynSequenceE @5003 DATA
    _ZTVN4omni18omniNilDynValueBoxE @5004 DATA
    _ZTVN4omni20FromAnyUserExceptionE @5005 DATA
    _ZTVN4omni20omniNilDynAnyFactoryE @5006 DATA
    _ZTVN4omni21omniNilDynValueCommonE @5007 DATA
    _ZTVN4omni21omniNilTypeCodeHolderE @5008 DATA
    _ZTVN4omni22omniTypeCodeCollectionE @5009 DATA
    _ZTVN4omni23omni_dynAny_initialiserE @5010 DATA
    _ZTVN4omni24TypeCode_local_interfaceE @5011 DATA
    _ZTVN4omni25omni_RequestImpl_callDescE @5012 DATA
    _ZTVN4omni27TypeCode_abstract_interfaceE @5013 DATA
    _ZTVN4omni27serverRequestCallDescriptorE @5014 DATA
    _ZTVN4omni29omni_valueFactory_initialiserE @5015 DATA
    _ZTVN4omni9omniNilNVE @5016 DATA
    _ZTVN5CORBA10NamedValueE @5017 DATA
    _ZTVN5CORBA11ContextList6BoundsE @5018 DATA
    _ZTVN5CORBA11ContextListE @5019 DATA
    _ZTVN5CORBA11EnvironmentE @5020 DATA
    _ZTVN5CORBA11PolicyErrorE @5021 DATA
    _ZTVN5CORBA11StringValueE @5022 DATA
    _ZTVN5CORBA12AbstractBaseE @5023 DATA
    _ZTVN5CORBA12WStringValueE @5024 DATA
    _ZTVN5CORBA12_pof_EnumDefE @5025 DATA
    _ZTVN5CORBA12_pof_IDLTypeE @5026 DATA
    _ZTVN5CORBA13ExceptionList6BoundsE @5027 DATA
    _ZTVN5CORBA13ExceptionListE @5028 DATA
    _ZTVN5CORBA13ServerRequestE @5029 DATA
    _ZTVN5CORBA13_impl_EnumDefE @5030 DATA
    _ZTVN5CORBA13_impl_IDLTypeE @5031 DATA
    _ZTVN5CORBA13_pof_AliasDefE @5032 DATA
    _ZTVN5CORBA13_pof_ArrayDefE @5033 DATA
    _ZTVN5CORBA13_pof_FixedDefE @5034 DATA
    _ZTVN5CORBA13_pof_IRObjectE @5035 DATA
    _ZTVN5CORBA13_pof_UnionDefE @5036 DATA
    _ZTVN5CORBA13_pof_ValueDefE @5037 DATA
    _ZTVN5CORBA14_impl_AliasDefE @5038 DATA
    _ZTVN5CORBA14_impl_ArrayDefE @5039 DATA
    _ZTVN5CORBA14_impl_FixedDefE @5040 DATA
    _ZTVN5CORBA14_impl_IRObjectE @5041 DATA
    _ZTVN5CORBA14_impl_UnionDefE @5042 DATA
    _ZTVN5CORBA14_impl_ValueDefE @5043 DATA
    _ZTVN5CORBA14_pof_ContainedE @5044 DATA
    _ZTVN5CORBA14_pof_ContainerE @5045 DATA
    _ZTVN5CORBA14_pof_ModuleDefE @5046 DATA
    _ZTVN5CORBA14_pof_NativeDefE @5047 DATA
    _ZTVN5CORBA14_pof_StringDefE @5048 DATA
    _ZTVN5CORBA14_pof_StructDefE @5049 DATA
    _ZTVN5CORBA15_impl_ContainedE @5050 DATA
    _ZTVN5CORBA15_impl_ContainerE @5051 DATA
    _ZTVN5CORBA15_impl_ModuleDefE @5052 DATA
    _ZTVN5CORBA15_impl_NativeDefE @5053 DATA
    _ZTVN5CORBA15_impl_StringDefE @5054 DATA
    _ZTVN5CORBA15_impl_StructDefE @5055 DATA
    _ZTVN5CORBA15_objref_EnumDefE @5056 DATA
    _ZTVN5CORBA15_objref_IDLTypeE @5057 DATA
    _ZTVN5CORBA15_pof_RepositoryE @5058 DATA
    _ZTVN5CORBA15_pof_TypedefDefE @5059 DATA
    _ZTVN5CORBA15_pof_WstringDefE @5060 DATA
    _ZTVN5CORBA16ValueFactoryBaseE @5061 DATA
    _ZTVN5CORBA16WrongTransactionE @5062 DATA
    _ZTVN5CORBA16_impl_RepositoryE @5063 DATA
    _ZTVN5CORBA16_impl_TypedefDefE @5064 DATA
    _ZTVN5CORBA16_impl_WstringDefE @5065 DATA
    _ZTVN5CORBA16_objref_AliasDefE @5066 DATA
    _ZTVN5CORBA16_objref_ArrayDefE @5067 DATA
    _ZTVN5CORBA16_objref_FixedDefE @5068 DATA
    _ZTVN5CORBA16_objref_IRObjectE @5069 DATA
    _ZTVN5CORBA16_objref_UnionDefE @5070 DATA
    _ZTVN5CORBA16_objref_ValueDefE @5071 DATA
    _ZTVN5CORBA16_pof_ConstantDefE @5072 DATA
    _ZTVN5CORBA16_pof_SequenceDefE @5073 DATA
    _ZTVN5CORBA16_pof_ValueBoxDefE @5074 DATA
    _ZTVN5CORBA17_impl_ConstantDefE @5075 DATA
    _ZTVN5CORBA17_impl_SequenceDefE @5076 DATA
    _ZTVN5CORBA17_impl_ValueBoxDefE @5077 DATA
    _ZTVN5CORBA17_objref_ContainedE @5078 DATA
    _ZTVN5CORBA17_objref_ContainerE @5079 DATA
    _ZTVN5CORBA17_objref_ModuleDefE @5080 DATA
    _ZTVN5CORBA17_objref_NativeDefE @5081 DATA
    _ZTVN5CORBA17_objref_StringDefE @5082 DATA
    _ZTVN5CORBA17_objref_StructDefE @5083 DATA
    _ZTVN5CORBA17_pof_AttributeDefE @5084 DATA
    _ZTVN5CORBA17_pof_ExceptionDefE @5085 DATA
    _ZTVN5CORBA17_pof_InterfaceDefE @5086 DATA
    _ZTVN5CORBA17_pof_OperationDefE @5087 DATA
    _ZTVN5CORBA17_pof_PrimitiveDefE @5088 DATA
    _ZTVN5CORBA18_impl_AttributeDefE @5089 DATA
    _ZTVN5CORBA18_impl_ExceptionDefE @5090 DATA
    _ZTVN5CORBA18_impl_InterfaceDefE @5091 DATA
    _ZTVN5CORBA18_impl_OperationDefE @5092 DATA
    _ZTVN5CORBA18_impl_PrimitiveDefE @5093 DATA
    _ZTVN5CORBA18_objref_RepositoryE @5094 DATA
    _ZTVN5CORBA18_objref_TypedefDefE @5095 DATA
    _ZTVN5CORBA18_objref_WstringDefE @5096 DATA
    _ZTVN5CORBA19_objref_ConstantDefE @5097 DATA
    _ZTVN5CORBA19_objref_SequenceDefE @5098 DATA
    _ZTVN5CORBA19_objref_ValueBoxDefE @5099 DATA
    _ZTVN5CORBA19_pof_ValueMemberDefE @5100 DATA
    _ZTVN5CORBA20UnknownUserExceptionE @5101 DATA
    _ZTVN5CORBA20_impl_ValueMemberDefE @5102 DATA
    _ZTVN5CORBA20_objref_AttributeDefE @5103 DATA
    _ZTVN5CORBA20_objref_ExceptionDefE @5104 DATA
    _ZTVN5CORBA20_objref_InterfaceDefE @5105 DATA
    _ZTVN5CORBA20_objref_OperationDefE @5106 DATA
    _ZTVN5CORBA20_objref_PrimitiveDefE @5107 DATA
    _ZTVN5CORBA22_objref_ValueMemberDefE @5108 DATA
    _ZTVN5CORBA24DefaultValueRefCountBaseE @5109 DATA
    _ZTVN5CORBA24_omni_AbstractBaseObjrefE @5110 DATA
    _ZTVN5CORBA25_pof_AbstractInterfaceDefE @5111 DATA
    _ZTVN5CORBA26_impl_AbstractInterfaceDefE @5112 DATA
    _ZTVN5CORBA28_objref_AbstractInterfaceDefE @5113 DATA
    _ZTVN5CORBA3ORB20InconsistentTypeCodeE @5114 DATA
    _ZTVN5CORBA6NVList6BoundsE @5115 DATA
    _ZTVN5CORBA6NVListE @5116 DATA
    _ZTVN5CORBA7ContextE @5117 DATA
    _ZTVN5CORBA7RequestE @5118 DATA
    _ZTVN5CORBA8TypeCode6BoundsE @5119 DATA
    _ZTVN5CORBA8TypeCode7BadKindE @5120 DATA
    _ZTVN5CORBA8TypeCodeE @5121 DATA
    _ZTVN5CORBA9ValueBaseE @5122 DATA
    _ZTVN9POA_CORBA10RepositoryE @5123 DATA
    _ZTVN9POA_CORBA10TypedefDefE @5124 DATA
    _ZTVN9POA_CORBA10WstringDefE @5125 DATA
    _ZTVN9POA_CORBA11ConstantDefE @5126 DATA
    _ZTVN9POA_CORBA11SequenceDefE @5127 DATA
    _ZTVN9POA_CORBA11ValueBoxDefE @5128 DATA
    _ZTVN9POA_CORBA12AttributeDefE @5129 DATA
    _ZTVN9POA_CORBA12ExceptionDefE @5130 DATA
    _ZTVN9POA_CORBA12InterfaceDefE @5131 DATA
    _ZTVN9POA_CORBA12OperationDefE @5132 DATA
    _ZTVN9POA_CORBA12PrimitiveDefE @5133 DATA
    _ZTVN9POA_CORBA14ValueMemberDefE @5134 DATA
    _ZTVN9POA_CORBA20AbstractInterfaceDefE @5135 DATA
    _ZTVN9POA_CORBA7EnumDefE @5136 DATA
    _ZTVN9POA_CORBA7IDLTypeE @5137 DATA
    _ZTVN9POA_CORBA8AliasDefE @5138 DATA
    _ZTVN9POA_CORBA8ArrayDefE @5139 DATA
    _ZTVN9POA_CORBA8FixedDefE @5140 DATA
    _ZTVN9POA_CORBA8IRObjectE @5141 DATA
    _ZTVN9POA_CORBA8UnionDefE @5142 DATA
    _ZTVN9POA_CORBA8ValueDefE @5143 DATA
    _ZTVN9POA_CORBA9ContainedE @5144 DATA
    _ZTVN9POA_CORBA9ContainerE @5145 DATA
    _ZTVN9POA_CORBA9ModuleDefE @5146 DATA
    _ZTVN9POA_CORBA9NativeDefE @5147 DATA
    _ZTVN9POA_CORBA9StringDefE @5148 DATA
    _ZTVN9POA_CORBA9StructDefE @5149 DATA
    _ZThn108_N4omni11DynEnumImpl12_ptrToObjRefEPKc @5150
    _ZThn108_N4omni11DynEnumImpl12get_as_ulongEv @5151
    _ZThn108_N4omni11DynEnumImpl12set_as_ulongEm @5152
    _ZThn108_N4omni11DynEnumImpl13get_as_stringEv @5153
    _ZThn108_N4omni11DynEnumImpl13set_as_stringEPKc @5154
    _ZThn108_N4omni11DynEnumImplD0Ev @5155
    _ZThn108_N4omni11DynEnumImplD1Ev @5156
    _ZThn108_N4omni12DynFixedImpl12_ptrToObjRefEPKc @5157
    _ZThn108_N4omni12DynFixedImpl9get_valueEv @5158
    _ZThn108_N4omni12DynFixedImpl9set_valueEPKc @5159
    _ZThn108_N4omni12DynFixedImplD0Ev @5160
    _ZThn108_N4omni12DynFixedImplD1Ev @5161
    _ZThn108_N4omni12DynUnionImpl11member_kindEv @5162
    _ZThn108_N4omni12DynUnionImpl11member_nameEv @5163
    _ZThn108_N4omni12DynUnionImpl12_ptrToObjRefEPKc @5164
    _ZThn108_N4omni12DynUnionImpl17get_discriminatorEv @5165
    _ZThn108_N4omni12DynUnionImpl17set_discriminatorEPN10DynamicAny6DynAnyE @5166
    _ZThn108_N4omni12DynUnionImpl18discriminator_kindEv @5167
    _ZThn108_N4omni12DynUnionImpl20has_no_active_memberEv @5168
    _ZThn108_N4omni12DynUnionImpl21set_to_default_memberEv @5169
    _ZThn108_N4omni12DynUnionImpl23set_to_no_active_memberEv @5170
    _ZThn108_N4omni12DynUnionImpl24is_set_to_default_memberEv @5171
    _ZThn108_N4omni12DynUnionImpl6memberEv @5172
    _ZThn108_N4omni12DynUnionImplD0Ev @5173
    _ZThn108_N4omni12DynUnionImplD1Ev @5174
    _ZThn112_N4omni16DynUnionEnumDisc12_ptrToObjRefEPKc @5175
    _ZThn112_N4omni16DynUnionEnumDisc12get_as_ulongEv @5176
    _ZThn112_N4omni16DynUnionEnumDisc12set_as_ulongEm @5177
    _ZThn112_N4omni16DynUnionEnumDisc13get_as_stringEv @5178
    _ZThn112_N4omni16DynUnionEnumDisc13set_as_stringEPKc @5179
    _ZThn112_N4omni16DynUnionEnumDiscD0Ev @5180
    _ZThn112_N4omni16DynUnionEnumDiscD1Ev @5181
    _ZThn144_N4omni12DynArrayImpl12_ptrToObjRefEPKc @5182
    _ZThn144_N4omni12DynArrayImpl12get_elementsEv @5183
    _ZThn144_N4omni12DynArrayImpl12set_elementsERKN10DynamicAny6AnySeqE @5184
    _ZThn144_N4omni12DynArrayImpl23get_elements_as_dyn_anyEv @5185
    _ZThn144_N4omni12DynArrayImpl23set_elements_as_dyn_anyERKN10DynamicAny9DynAnySeqE @5186
    _ZThn144_N4omni12DynArrayImplD0Ev @5187
    _ZThn144_N4omni12DynArrayImplD1Ev @5188
    _ZThn144_N4omni12DynValueImpl11get_membersEv @5189
    _ZThn144_N4omni12DynValueImpl11set_membersERKN10DynamicAny16NameValuePairSeqE @5190
    _ZThn144_N4omni12DynValueImpl12_ptrToObjRefEPKc @5191
    _ZThn144_N4omni12DynValueImpl19current_member_kindEv @5192
    _ZThn144_N4omni12DynValueImpl19current_member_nameEv @5193
    _ZThn144_N4omni12DynValueImpl22get_members_as_dyn_anyEv @5194
    _ZThn144_N4omni12DynValueImpl22set_members_as_dyn_anyERKN10DynamicAny17NameDynAnyPairSeqE @5195
    _ZThn144_N4omni12DynValueImplD0Ev @5196
    _ZThn144_N4omni12DynValueImplD1Ev @5197
    _ZThn144_N4omni13DynStructImpl11get_membersEv @5198
    _ZThn144_N4omni13DynStructImpl11set_membersERKN10DynamicAny16NameValuePairSeqE @5199
    _ZThn144_N4omni13DynStructImpl12_ptrToObjRefEPKc @5200
    _ZThn144_N4omni13DynStructImpl19current_member_kindEv @5201
    _ZThn144_N4omni13DynStructImpl19current_member_nameEv @5202
    _ZThn144_N4omni13DynStructImpl22get_members_as_dyn_anyEv @5203
    _ZThn144_N4omni13DynStructImpl22set_members_as_dyn_anyERKN10DynamicAny17NameDynAnyPairSeqE @5204
    _ZThn144_N4omni13DynStructImplD0Ev @5205
    _ZThn144_N4omni13DynStructImplD1Ev @5206
    _ZThn144_N4omni15DynSequenceImpl10get_lengthEv @5207
    _ZThn144_N4omni15DynSequenceImpl10set_lengthEm @5208
    _ZThn144_N4omni15DynSequenceImpl12_ptrToObjRefEPKc @5209
    _ZThn144_N4omni15DynSequenceImpl12get_elementsEv @5210
    _ZThn144_N4omni15DynSequenceImpl12set_elementsERKN10DynamicAny6AnySeqE @5211
    _ZThn144_N4omni15DynSequenceImpl23get_elements_as_dyn_anyEv @5212
    _ZThn144_N4omni15DynSequenceImpl23set_elements_as_dyn_anyERKN10DynamicAny9DynAnySeqE @5213
    _ZThn144_N4omni15DynSequenceImplD0Ev @5214
    _ZThn144_N4omni15DynSequenceImplD1Ev @5215
    _ZThn144_N4omni15DynValueBoxImpl12_ptrToObjRefEPKc @5216
    _ZThn144_N4omni15DynValueBoxImpl15get_boxed_valueEv @5217
    _ZThn144_N4omni15DynValueBoxImpl15set_boxed_valueERKN5CORBA3AnyE @5218
    _ZThn144_N4omni15DynValueBoxImpl26get_boxed_value_as_dyn_anyEv @5219
    _ZThn144_N4omni15DynValueBoxImpl26set_boxed_value_as_dyn_anyEPN10DynamicAny6DynAnyE @5220
    _ZThn144_N4omni15DynValueBoxImplD0Ev @5221
    _ZThn144_N4omni15DynValueBoxImplD1Ev @5222
    _ZThn16_N4omni10omniNilEnvD0Ev @5223
    _ZThn16_N4omni10omniNilEnvD1Ev @5224
    _ZThn16_N4omni15EnvironmentImplD0Ev @5225
    _ZThn16_N4omni15EnvironmentImplD1Ev @5226
    _ZThn4_N4omni14omniNilDynEnum12_ptrToObjRefEPKc @5227
    _ZThn4_N4omni14omniNilDynEnum12get_as_ulongEv @5228
    _ZThn4_N4omni14omniNilDynEnum12set_as_ulongEm @5229
    _ZThn4_N4omni14omniNilDynEnum13get_as_stringEv @5230
    _ZThn4_N4omni14omniNilDynEnum13set_as_stringEPKc @5231
    _ZThn4_N4omni14omniNilDynEnumD0Ev @5232
    _ZThn4_N4omni14omniNilDynEnumD1Ev @5233
    _ZThn4_N4omni15omniNilDynArray12_ptrToObjRefEPKc @5234
    _ZThn4_N4omni15omniNilDynArray12get_elementsEv @5235
    _ZThn4_N4omni15omniNilDynArray12set_elementsERKN10DynamicAny6AnySeqE @5236
    _ZThn4_N4omni15omniNilDynArray23get_elements_as_dyn_anyEv @5237
    _ZThn4_N4omni15omniNilDynArray23set_elements_as_dyn_anyERKN10DynamicAny9DynAnySeqE @5238
    _ZThn4_N4omni15omniNilDynArrayD0Ev @5239
    _ZThn4_N4omni15omniNilDynArrayD1Ev @5240
    _ZThn4_N4omni15omniNilDynFixed12_ptrToObjRefEPKc @5241
    _ZThn4_N4omni15omniNilDynFixed9get_valueEv @5242
    _ZThn4_N4omni15omniNilDynFixed9set_valueEPKc @5243
    _ZThn4_N4omni15omniNilDynFixedD0Ev @5244
    _ZThn4_N4omni15omniNilDynFixedD1Ev @5245
    _ZThn4_N4omni15omniNilDynUnion11member_kindEv @5246
    _ZThn4_N4omni15omniNilDynUnion11member_nameEv @5247
    _ZThn4_N4omni15omniNilDynUnion12_ptrToObjRefEPKc @5248
    _ZThn4_N4omni15omniNilDynUnion17get_discriminatorEv @5249
    _ZThn4_N4omni15omniNilDynUnion17set_discriminatorEPN10DynamicAny6DynAnyE @5250
    _ZThn4_N4omni15omniNilDynUnion18discriminator_kindEv @5251
    _ZThn4_N4omni15omniNilDynUnion20has_no_active_memberEv @5252
    _ZThn4_N4omni15omniNilDynUnion21set_to_default_memberEv @5253
    _ZThn4_N4omni15omniNilDynUnion23set_to_no_active_memberEv @5254
    _ZThn4_N4omni15omniNilDynUnion24is_set_to_default_memberEv @5255
    _ZThn4_N4omni15omniNilDynUnion6memberEv @5256
    _ZThn4_N4omni15omniNilDynUnionD0Ev @5257
    _ZThn4_N4omni15omniNilDynUnionD1Ev @5258
    _ZThn4_N4omni15omniNilDynValue11get_membersEv @5259
    _ZThn4_N4omni15omniNilDynValue11set_membersERKN10DynamicAny16NameValuePairSeqE @5260
    _ZThn4_N4omni15omniNilDynValue12_ptrToObjRefEPKc @5261
    _ZThn4_N4omni15omniNilDynValue19current_member_kindEv @5262
    _ZThn4_N4omni15omniNilDynValue19current_member_nameEv @5263
    _ZThn4_N4omni15omniNilDynValue22get_members_as_dyn_anyEv @5264
    _ZThn4_N4omni15omniNilDynValue22set_members_as_dyn_anyERKN10DynamicAny17NameDynAnyPairSeqE @5265
    _ZThn4_N4omni15omniNilDynValueD0Ev @5266
    _ZThn4_N4omni15omniNilDynValueD1Ev @5267
    _ZThn4_N4omni16omniNilDynStruct11get_membersEv @5268
    _ZThn4_N4omni16omniNilDynStruct11set_membersERKN10DynamicAny16NameValuePairSeqE @5269
    _ZThn4_N4omni16omniNilDynStruct12_ptrToObjRefEPKc @5270
    _ZThn4_N4omni16omniNilDynStruct19current_member_kindEv @5271
    _ZThn4_N4omni16omniNilDynStruct19current_member_nameEv @5272
    _ZThn4_N4omni16omniNilDynStruct22get_members_as_dyn_anyEv @5273
    _ZThn4_N4omni16omniNilDynStruct22set_members_as_dyn_anyERKN10DynamicAny17NameDynAnyPairSeqE @5274
    _ZThn4_N4omni16omniNilDynStructD0Ev @5275
    _ZThn4_N4omni16omniNilDynStructD1Ev @5276
    _ZThn4_N4omni18omniNilDynSequence10get_lengthEv @5277
    _ZThn4_N4omni18omniNilDynSequence10set_lengthEm @5278
    _ZThn4_N4omni18omniNilDynSequence12_ptrToObjRefEPKc @5279
    _ZThn4_N4omni18omniNilDynSequence12get_elementsEv @5280
    _ZThn4_N4omni18omniNilDynSequence12set_elementsERKN10DynamicAny6AnySeqE @5281
    _ZThn4_N4omni18omniNilDynSequence23get_elements_as_dyn_anyEv @5282
    _ZThn4_N4omni18omniNilDynSequence23set_elements_as_dyn_anyERKN10DynamicAny9DynAnySeqE @5283
    _ZThn4_N4omni18omniNilDynSequenceD0Ev @5284
    _ZThn4_N4omni18omniNilDynSequenceD1Ev @5285
    _ZThn4_N4omni18omniNilDynValueBox12_ptrToObjRefEPKc @5286
    _ZThn4_N4omni18omniNilDynValueBox15get_boxed_valueEv @5287
    _ZThn4_N4omni18omniNilDynValueBox15set_boxed_valueERKN5CORBA3AnyE @5288
    _ZThn4_N4omni18omniNilDynValueBox26get_boxed_value_as_dyn_anyEv @5289
    _ZThn4_N4omni18omniNilDynValueBox26set_boxed_value_as_dyn_anyEPN10DynamicAny6DynAnyE @5290
    _ZThn4_N4omni18omniNilDynValueBoxD0Ev @5291
    _ZThn4_N4omni18omniNilDynValueBoxD1Ev @5292
    _ZThn4_N4omni21omniNilDynValueCommon11set_to_nullEv @5293
    _ZThn4_N4omni21omniNilDynValueCommon12_ptrToObjRefEPKc @5294
    _ZThn4_N4omni21omniNilDynValueCommon12set_to_valueEv @5295
    _ZThn4_N4omni21omniNilDynValueCommon7is_nullEv @5296
    _ZThn4_N4omni21omniNilDynValueCommonD0Ev @5297
    _ZThn4_N4omni21omniNilDynValueCommonD1Ev @5298
    _ZThn8_N4omni10NVListImplD0Ev @5299
    _ZThn8_N4omni10NVListImplD1Ev @5300
    _ZThn8_N4omni11RequestImplD0Ev @5301
    _ZThn8_N4omni11RequestImplD1Ev @5302
    _ZThn8_N4omni13omniNilCtListD0Ev @5303
    _ZThn8_N4omni13omniNilCtListD1Ev @5304
    _ZThn8_N4omni13omniNilExListD0Ev @5305
    _ZThn8_N4omni13omniNilExListD1Ev @5306
    _ZThn8_N4omni13omniNilNVListD0Ev @5307
    _ZThn8_N4omni13omniNilNVListD1Ev @5308
    _ZThn8_N4omni14NamedValueImplD0Ev @5309
    _ZThn8_N4omni14NamedValueImplD1Ev @5310
    _ZThn8_N4omni14omniNilContextD0Ev @5311
    _ZThn8_N4omni14omniNilContextD1Ev @5312
    _ZThn8_N4omni14omniNilRequestD0Ev @5313
    _ZThn8_N4omni14omniNilRequestD1Ev @5314
    _ZThn8_N4omni15ContextListImplD0Ev @5315
    _ZThn8_N4omni15ContextListImplD1Ev @5316
    _ZThn8_N4omni17ExceptionListImplD0Ev @5317
    _ZThn8_N4omni17ExceptionListImplD1Ev @5318
    _ZThn8_N4omni9omniNilNVD0Ev @5319
    _ZThn8_N4omni9omniNilNVD1Ev @5320
    _ZTv0_n100_N4omni10DynAnyImpl16insert_referenceEPN5CORBA6ObjectE @5321
    _ZTv0_n100_N4omni12DynUnionDisc16insert_referenceEPN5CORBA6ObjectE @5322
    _ZTv0_n100_N4omni12DynUnionImpl16insert_referenceEPN5CORBA6ObjectE @5323
    _ZTv0_n100_N4omni13omniNilDynAny16insert_referenceEPN5CORBA6ObjectE @5324
    _ZTv0_n100_N4omni16DynAnyConstrBase16insert_referenceEPN5CORBA6ObjectE @5325
    _ZTv0_n104_N4omni10DynAnyImpl15insert_typecodeEPN5CORBA8TypeCodeE @5326
    _ZTv0_n104_N4omni12DynUnionDisc15insert_typecodeEPN5CORBA8TypeCodeE @5327
    _ZTv0_n104_N4omni12DynUnionImpl15insert_typecodeEPN5CORBA8TypeCodeE @5328
    _ZTv0_n104_N4omni13omniNilDynAny15insert_typecodeEPN5CORBA8TypeCodeE @5329
    _ZTv0_n104_N4omni16DynAnyConstrBase15insert_typecodeEPN5CORBA8TypeCodeE @5330
    _ZTv0_n108_N4omni10DynAnyImpl15insert_longlongEx @5331
    _ZTv0_n108_N4omni12DynUnionDisc15insert_longlongEx @5332
    _ZTv0_n108_N4omni12DynUnionImpl15insert_longlongEx @5333
    _ZTv0_n108_N4omni13omniNilDynAny15insert_longlongEx @5334
    _ZTv0_n108_N4omni16DynAnyConstrBase15insert_longlongEx @5335
    _ZTv0_n112_N4omni10DynAnyImpl16insert_ulonglongEy @5336
    _ZTv0_n112_N4omni12DynUnionDisc16insert_ulonglongEy @5337
    _ZTv0_n112_N4omni12DynUnionImpl16insert_ulonglongEy @5338
    _ZTv0_n112_N4omni13omniNilDynAny16insert_ulonglongEy @5339
    _ZTv0_n112_N4omni16DynAnyConstrBase16insert_ulonglongEy @5340
    _ZTv0_n116_N4omni10DynAnyImpl17insert_longdoubleEe @5341
    _ZTv0_n116_N4omni12DynUnionDisc17insert_longdoubleEe @5342
    _ZTv0_n116_N4omni12DynUnionImpl17insert_longdoubleEe @5343
    _ZTv0_n116_N4omni13omniNilDynAny17insert_longdoubleEe @5344
    _ZTv0_n116_N4omni16DynAnyConstrBase17insert_longdoubleEe @5345
    _ZTv0_n120_N4omni10DynAnyImpl12insert_wcharEw @5346
    _ZTv0_n120_N4omni12DynUnionDisc12insert_wcharEw @5347
    _ZTv0_n120_N4omni12DynUnionImpl12insert_wcharEw @5348
    _ZTv0_n120_N4omni13omniNilDynAny12insert_wcharEw @5349
    _ZTv0_n120_N4omni16DynAnyConstrBase12insert_wcharEw @5350
    _ZTv0_n124_N4omni10DynAnyImpl14insert_wstringEPKw @5351
    _ZTv0_n124_N4omni12DynUnionDisc14insert_wstringEPKw @5352
    _ZTv0_n124_N4omni12DynUnionImpl14insert_wstringEPKw @5353
    _ZTv0_n124_N4omni13omniNilDynAny14insert_wstringEPKw @5354
    _ZTv0_n124_N4omni16DynAnyConstrBase14insert_wstringEPKw @5355
    _ZTv0_n128_N4omni10DynAnyImpl10insert_anyERKN5CORBA3AnyE @5356
    _ZTv0_n128_N4omni12DynUnionDisc10insert_anyERKN5CORBA3AnyE @5357
    _ZTv0_n128_N4omni12DynUnionImpl10insert_anyERKN5CORBA3AnyE @5358
    _ZTv0_n128_N4omni13omniNilDynAny10insert_anyERKN5CORBA3AnyE @5359
    _ZTv0_n128_N4omni16DynAnyConstrBase10insert_anyERKN5CORBA3AnyE @5360
    _ZTv0_n12_N10DynamicAny11DynSequenceD0Ev @5361
    _ZTv0_n12_N10DynamicAny11DynSequenceD1Ev @5362
    _ZTv0_n12_N10DynamicAny11DynValueBoxD0Ev @5363
    _ZTv0_n12_N10DynamicAny11DynValueBoxD1Ev @5364
    _ZTv0_n12_N10DynamicAny14DynValueCommonD0Ev @5365
    _ZTv0_n12_N10DynamicAny14DynValueCommonD1Ev @5366
    _ZTv0_n12_N10DynamicAny7DynEnumD0Ev @5367
    _ZTv0_n12_N10DynamicAny7DynEnumD1Ev @5368
    _ZTv0_n12_N10DynamicAny8DynArrayD0Ev @5369
    _ZTv0_n12_N10DynamicAny8DynArrayD1Ev @5370
    _ZTv0_n12_N10DynamicAny8DynFixedD0Ev @5371
    _ZTv0_n12_N10DynamicAny8DynFixedD1Ev @5372
    _ZTv0_n12_N10DynamicAny8DynUnionD0Ev @5373
    _ZTv0_n12_N10DynamicAny8DynUnionD1Ev @5374
    _ZTv0_n12_N10DynamicAny8DynValueD0Ev @5375
    _ZTv0_n12_N10DynamicAny8DynValueD1Ev @5376
    _ZTv0_n12_N10DynamicAny9DynStructD0Ev @5377
    _ZTv0_n12_N10DynamicAny9DynStructD1Ev @5378
    _ZTv0_n12_N14PortableServer17ValueRefCountBase8_add_refEv @5379
    _ZTv0_n12_N14PortableServer17ValueRefCountBaseD0Ev @5380
    _ZTv0_n12_N14PortableServer17ValueRefCountBaseD1Ev @5381
    _ZTv0_n12_N14PortableServer21DynamicImplementationD0Ev @5382
    _ZTv0_n12_N14PortableServer21DynamicImplementationD1Ev @5383
    _ZTv0_n12_N4omni10DynAnyImplD0Ev @5384
    _ZTv0_n12_N4omni10DynAnyImplD1Ev @5385
    _ZTv0_n12_N4omni11DynEnumImplD0Ev @5386
    _ZTv0_n12_N4omni11DynEnumImplD1Ev @5387
    _ZTv0_n12_N4omni12DynArrayImplD0Ev @5388
    _ZTv0_n12_N4omni12DynArrayImplD1Ev @5389
    _ZTv0_n12_N4omni12DynFixedImplD0Ev @5390
    _ZTv0_n12_N4omni12DynFixedImplD1Ev @5391
    _ZTv0_n12_N4omni12DynUnionDiscD0Ev @5392
    _ZTv0_n12_N4omni12DynUnionDiscD1Ev @5393
    _ZTv0_n12_N4omni12DynUnionImplD0Ev @5394
    _ZTv0_n12_N4omni12DynUnionImplD1Ev @5395
    _ZTv0_n12_N4omni12DynValueImplD0Ev @5396
    _ZTv0_n12_N4omni12DynValueImplD1Ev @5397
    _ZTv0_n12_N4omni13DynStructImplD0Ev @5398
    _ZTv0_n12_N4omni13DynStructImplD1Ev @5399
    _ZTv0_n12_N4omni13omniNilDynAnyD0Ev @5400
    _ZTv0_n12_N4omni13omniNilDynAnyD1Ev @5401
    _ZTv0_n12_N4omni14DynAnyImplBaseD0Ev @5402
    _ZTv0_n12_N4omni14DynAnyImplBaseD1Ev @5403
    _ZTv0_n12_N4omni14omniNilDynEnumD0Ev @5404
    _ZTv0_n12_N4omni14omniNilDynEnumD1Ev @5405
    _ZTv0_n12_N4omni15DynSequenceImplD0Ev @5406
    _ZTv0_n12_N4omni15DynSequenceImplD1Ev @5407
    _ZTv0_n12_N4omni15DynValueBoxImplD0Ev @5408
    _ZTv0_n12_N4omni15DynValueBoxImplD1Ev @5409
    _ZTv0_n12_N4omni15omniNilDynArrayD0Ev @5410
    _ZTv0_n12_N4omni15omniNilDynArrayD1Ev @5411
    _ZTv0_n12_N4omni15omniNilDynFixedD0Ev @5412
    _ZTv0_n12_N4omni15omniNilDynFixedD1Ev @5413
    _ZTv0_n12_N4omni15omniNilDynUnionD0Ev @5414
    _ZTv0_n12_N4omni15omniNilDynUnionD1Ev @5415
    _ZTv0_n12_N4omni15omniNilDynValueD0Ev @5416
    _ZTv0_n12_N4omni15omniNilDynValueD1Ev @5417
    _ZTv0_n12_N4omni16DynAnyConstrBaseD0Ev @5418
    _ZTv0_n12_N4omni16DynAnyConstrBaseD1Ev @5419
    _ZTv0_n12_N4omni16DynUnionEnumDiscD0Ev @5420
    _ZTv0_n12_N4omni16DynUnionEnumDiscD1Ev @5421
    _ZTv0_n12_N4omni16omniNilDynStructD0Ev @5422
    _ZTv0_n12_N4omni16omniNilDynStructD1Ev @5423
    _ZTv0_n12_N4omni18omniNilDynSequenceD0Ev @5424
    _ZTv0_n12_N4omni18omniNilDynSequenceD1Ev @5425
    _ZTv0_n12_N4omni18omniNilDynValueBoxD0Ev @5426
    _ZTv0_n12_N4omni18omniNilDynValueBoxD1Ev @5427
    _ZTv0_n12_N4omni20omniNilDynAnyFactoryD0Ev @5428
    _ZTv0_n12_N4omni20omniNilDynAnyFactoryD1Ev @5429
    _ZTv0_n12_N4omni21omniNilDynValueCommonD0Ev @5430
    _ZTv0_n12_N4omni21omniNilDynValueCommonD1Ev @5431
    _ZTv0_n12_N5CORBA13_impl_EnumDefD0Ev @5432
    _ZTv0_n12_N5CORBA13_impl_EnumDefD1Ev @5433
    _ZTv0_n12_N5CORBA13_impl_IDLTypeD0Ev @5434
    _ZTv0_n12_N5CORBA13_impl_IDLTypeD1Ev @5435
    _ZTv0_n12_N5CORBA14_impl_AliasDefD0Ev @5436
    _ZTv0_n12_N5CORBA14_impl_AliasDefD1Ev @5437
    _ZTv0_n12_N5CORBA14_impl_ArrayDefD0Ev @5438
    _ZTv0_n12_N5CORBA14_impl_ArrayDefD1Ev @5439
    _ZTv0_n12_N5CORBA14_impl_FixedDefD0Ev @5440
    _ZTv0_n12_N5CORBA14_impl_FixedDefD1Ev @5441
    _ZTv0_n12_N5CORBA14_impl_IRObjectD0Ev @5442
    _ZTv0_n12_N5CORBA14_impl_IRObjectD1Ev @5443
    _ZTv0_n12_N5CORBA14_impl_UnionDefD0Ev @5444
    _ZTv0_n12_N5CORBA14_impl_UnionDefD1Ev @5445
    _ZTv0_n12_N5CORBA14_impl_ValueDefD0Ev @5446
    _ZTv0_n12_N5CORBA14_impl_ValueDefD1Ev @5447
    _ZTv0_n12_N5CORBA15_impl_ContainedD0Ev @5448
    _ZTv0_n12_N5CORBA15_impl_ContainedD1Ev @5449
    _ZTv0_n12_N5CORBA15_impl_ContainerD0Ev @5450
    _ZTv0_n12_N5CORBA15_impl_ContainerD1Ev @5451
    _ZTv0_n12_N5CORBA15_impl_ModuleDefD0Ev @5452
    _ZTv0_n12_N5CORBA15_impl_ModuleDefD1Ev @5453
    _ZTv0_n12_N5CORBA15_impl_NativeDefD0Ev @5454
    _ZTv0_n12_N5CORBA15_impl_NativeDefD1Ev @5455
    _ZTv0_n12_N5CORBA15_impl_StringDefD0Ev @5456
    _ZTv0_n12_N5CORBA15_impl_StringDefD1Ev @5457
    _ZTv0_n12_N5CORBA15_impl_StructDefD0Ev @5458
    _ZTv0_n12_N5CORBA15_impl_StructDefD1Ev @5459
    _ZTv0_n12_N5CORBA15_objref_EnumDef12_ptrToObjRefEPKc @5460
    _ZTv0_n12_N5CORBA15_objref_EnumDefD0Ev @5461
    _ZTv0_n12_N5CORBA15_objref_EnumDefD1Ev @5462
    _ZTv0_n12_N5CORBA15_objref_IDLType12_ptrToObjRefEPKc @5463
    _ZTv0_n12_N5CORBA15_objref_IDLTypeD0Ev @5464
    _ZTv0_n12_N5CORBA15_objref_IDLTypeD1Ev @5465
    _ZTv0_n12_N5CORBA16_impl_RepositoryD0Ev @5466
    _ZTv0_n12_N5CORBA16_impl_RepositoryD1Ev @5467
    _ZTv0_n12_N5CORBA16_impl_TypedefDefD0Ev @5468
    _ZTv0_n12_N5CORBA16_impl_TypedefDefD1Ev @5469
    _ZTv0_n12_N5CORBA16_impl_WstringDefD0Ev @5470
    _ZTv0_n12_N5CORBA16_impl_WstringDefD1Ev @5471
    _ZTv0_n12_N5CORBA16_objref_AliasDef12_ptrToObjRefEPKc @5472
    _ZTv0_n12_N5CORBA16_objref_AliasDefD0Ev @5473
    _ZTv0_n12_N5CORBA16_objref_AliasDefD1Ev @5474
    _ZTv0_n12_N5CORBA16_objref_ArrayDef12_ptrToObjRefEPKc @5475
    _ZTv0_n12_N5CORBA16_objref_ArrayDefD0Ev @5476
    _ZTv0_n12_N5CORBA16_objref_ArrayDefD1Ev @5477
    _ZTv0_n12_N5CORBA16_objref_FixedDef12_ptrToObjRefEPKc @5478
    _ZTv0_n12_N5CORBA16_objref_FixedDefD0Ev @5479
    _ZTv0_n12_N5CORBA16_objref_FixedDefD1Ev @5480
    _ZTv0_n12_N5CORBA16_objref_IRObject12_ptrToObjRefEPKc @5481
    _ZTv0_n12_N5CORBA16_objref_IRObjectD0Ev @5482
    _ZTv0_n12_N5CORBA16_objref_IRObjectD1Ev @5483
    _ZTv0_n12_N5CORBA16_objref_UnionDef12_ptrToObjRefEPKc @5484
    _ZTv0_n12_N5CORBA16_objref_UnionDefD0Ev @5485
    _ZTv0_n12_N5CORBA16_objref_UnionDefD1Ev @5486
    _ZTv0_n12_N5CORBA16_objref_ValueDef12_ptrToObjRefEPKc @5487
    _ZTv0_n12_N5CORBA16_objref_ValueDefD0Ev @5488
    _ZTv0_n12_N5CORBA16_objref_ValueDefD1Ev @5489
    _ZTv0_n12_N5CORBA17_impl_ConstantDefD0Ev @5490
    _ZTv0_n12_N5CORBA17_impl_ConstantDefD1Ev @5491
    _ZTv0_n12_N5CORBA17_impl_SequenceDefD0Ev @5492
    _ZTv0_n12_N5CORBA17_impl_SequenceDefD1Ev @5493
    _ZTv0_n12_N5CORBA17_impl_ValueBoxDefD0Ev @5494
    _ZTv0_n12_N5CORBA17_impl_ValueBoxDefD1Ev @5495
    _ZTv0_n12_N5CORBA17_objref_Contained12_ptrToObjRefEPKc @5496
    _ZTv0_n12_N5CORBA17_objref_ContainedD0Ev @5497
    _ZTv0_n12_N5CORBA17_objref_ContainedD1Ev @5498
    _ZTv0_n12_N5CORBA17_objref_Container12_ptrToObjRefEPKc @5499
    _ZTv0_n12_N5CORBA17_objref_ContainerD0Ev @5500
    _ZTv0_n12_N5CORBA17_objref_ContainerD1Ev @5501
    _ZTv0_n12_N5CORBA17_objref_ModuleDef12_ptrToObjRefEPKc @5502
    _ZTv0_n12_N5CORBA17_objref_ModuleDefD0Ev @5503
    _ZTv0_n12_N5CORBA17_objref_ModuleDefD1Ev @5504
    _ZTv0_n12_N5CORBA17_objref_NativeDef12_ptrToObjRefEPKc @5505
    _ZTv0_n12_N5CORBA17_objref_NativeDefD0Ev @5506
    _ZTv0_n12_N5CORBA17_objref_NativeDefD1Ev @5507
    _ZTv0_n12_N5CORBA17_objref_StringDef12_ptrToObjRefEPKc @5508
    _ZTv0_n12_N5CORBA17_objref_StringDefD0Ev @5509
    _ZTv0_n12_N5CORBA17_objref_StringDefD1Ev @5510
    _ZTv0_n12_N5CORBA17_objref_StructDef12_ptrToObjRefEPKc @5511
    _ZTv0_n12_N5CORBA17_objref_StructDefD0Ev @5512
    _ZTv0_n12_N5CORBA17_objref_StructDefD1Ev @5513
    _ZTv0_n12_N5CORBA18_impl_AttributeDefD0Ev @5514
    _ZTv0_n12_N5CORBA18_impl_AttributeDefD1Ev @5515
    _ZTv0_n12_N5CORBA18_impl_ExceptionDefD0Ev @5516
    _ZTv0_n12_N5CORBA18_impl_ExceptionDefD1Ev @5517
    _ZTv0_n12_N5CORBA18_impl_InterfaceDefD0Ev @5518
    _ZTv0_n12_N5CORBA18_impl_InterfaceDefD1Ev @5519
    _ZTv0_n12_N5CORBA18_impl_OperationDefD0Ev @5520
    _ZTv0_n12_N5CORBA18_impl_OperationDefD1Ev @5521
    _ZTv0_n12_N5CORBA18_impl_PrimitiveDefD0Ev @5522
    _ZTv0_n12_N5CORBA18_impl_PrimitiveDefD1Ev @5523
    _ZTv0_n12_N5CORBA18_objref_Repository12_ptrToObjRefEPKc @5524
    _ZTv0_n12_N5CORBA18_objref_RepositoryD0Ev @5525
    _ZTv0_n12_N5CORBA18_objref_RepositoryD1Ev @5526
    _ZTv0_n12_N5CORBA18_objref_TypedefDef12_ptrToObjRefEPKc @5527
    _ZTv0_n12_N5CORBA18_objref_TypedefDefD0Ev @5528
    _ZTv0_n12_N5CORBA18_objref_TypedefDefD1Ev @5529
    _ZTv0_n12_N5CORBA18_objref_WstringDef12_ptrToObjRefEPKc @5530
    _ZTv0_n12_N5CORBA18_objref_WstringDefD0Ev @5531
    _ZTv0_n12_N5CORBA18_objref_WstringDefD1Ev @5532
    _ZTv0_n12_N5CORBA19_objref_ConstantDef12_ptrToObjRefEPKc @5533
    _ZTv0_n12_N5CORBA19_objref_ConstantDefD0Ev @5534
    _ZTv0_n12_N5CORBA19_objref_ConstantDefD1Ev @5535
    _ZTv0_n12_N5CORBA19_objref_SequenceDef12_ptrToObjRefEPKc @5536
    _ZTv0_n12_N5CORBA19_objref_SequenceDefD0Ev @5537
    _ZTv0_n12_N5CORBA19_objref_SequenceDefD1Ev @5538
    _ZTv0_n12_N5CORBA19_objref_ValueBoxDef12_ptrToObjRefEPKc @5539
    _ZTv0_n12_N5CORBA19_objref_ValueBoxDefD0Ev @5540
    _ZTv0_n12_N5CORBA19_objref_ValueBoxDefD1Ev @5541
    _ZTv0_n12_N5CORBA20_impl_ValueMemberDefD0Ev @5542
    _ZTv0_n12_N5CORBA20_impl_ValueMemberDefD1Ev @5543
    _ZTv0_n12_N5CORBA20_objref_AttributeDef12_ptrToObjRefEPKc @5544
    _ZTv0_n12_N5CORBA20_objref_AttributeDefD0Ev @5545
    _ZTv0_n12_N5CORBA20_objref_AttributeDefD1Ev @5546
    _ZTv0_n12_N5CORBA20_objref_ExceptionDef12_ptrToObjRefEPKc @5547
    _ZTv0_n12_N5CORBA20_objref_ExceptionDefD0Ev @5548
    _ZTv0_n12_N5CORBA20_objref_ExceptionDefD1Ev @5549
    _ZTv0_n12_N5CORBA20_objref_InterfaceDef12_ptrToObjRefEPKc @5550
    _ZTv0_n12_N5CORBA20_objref_InterfaceDefD0Ev @5551
    _ZTv0_n12_N5CORBA20_objref_InterfaceDefD1Ev @5552
    _ZTv0_n12_N5CORBA20_objref_OperationDef12_ptrToObjRefEPKc @5553
    _ZTv0_n12_N5CORBA20_objref_OperationDefD0Ev @5554
    _ZTv0_n12_N5CORBA20_objref_OperationDefD1Ev @5555
    _ZTv0_n12_N5CORBA20_objref_PrimitiveDef12_ptrToObjRefEPKc @5556
    _ZTv0_n12_N5CORBA20_objref_PrimitiveDefD0Ev @5557
    _ZTv0_n12_N5CORBA20_objref_PrimitiveDefD1Ev @5558
    _ZTv0_n12_N5CORBA22_objref_ValueMemberDef12_ptrToObjRefEPKc @5559
    _ZTv0_n12_N5CORBA22_objref_ValueMemberDefD0Ev @5560
    _ZTv0_n12_N5CORBA22_objref_ValueMemberDefD1Ev @5561
    _ZTv0_n12_N5CORBA24DefaultValueRefCountBase8_add_refEv @5562
    _ZTv0_n12_N5CORBA24_omni_AbstractBaseObjrefD0Ev @5563
    _ZTv0_n12_N5CORBA24_omni_AbstractBaseObjrefD1Ev @5564
    _ZTv0_n12_N5CORBA26_impl_AbstractInterfaceDefD0Ev @5565
    _ZTv0_n12_N5CORBA26_impl_AbstractInterfaceDefD1Ev @5566
    _ZTv0_n12_N5CORBA28_objref_AbstractInterfaceDef12_ptrToObjRefEPKc @5567
    _ZTv0_n12_N5CORBA28_objref_AbstractInterfaceDefD0Ev @5568
    _ZTv0_n12_N5CORBA28_objref_AbstractInterfaceDefD1Ev @5569
    _ZTv0_n12_N9POA_CORBA10RepositoryD0Ev @5570
    _ZTv0_n12_N9POA_CORBA10RepositoryD1Ev @5571
    _ZTv0_n12_N9POA_CORBA10TypedefDefD0Ev @5572
    _ZTv0_n12_N9POA_CORBA10TypedefDefD1Ev @5573
    _ZTv0_n12_N9POA_CORBA10WstringDefD0Ev @5574
    _ZTv0_n12_N9POA_CORBA10WstringDefD1Ev @5575
    _ZTv0_n12_N9POA_CORBA11ConstantDefD0Ev @5576
    _ZTv0_n12_N9POA_CORBA11ConstantDefD1Ev @5577
    _ZTv0_n12_N9POA_CORBA11SequenceDefD0Ev @5578
    _ZTv0_n12_N9POA_CORBA11SequenceDefD1Ev @5579
    _ZTv0_n12_N9POA_CORBA11ValueBoxDefD0Ev @5580
    _ZTv0_n12_N9POA_CORBA11ValueBoxDefD1Ev @5581
    _ZTv0_n12_N9POA_CORBA12AttributeDefD0Ev @5582
    _ZTv0_n12_N9POA_CORBA12AttributeDefD1Ev @5583
    _ZTv0_n12_N9POA_CORBA12ExceptionDefD0Ev @5584
    _ZTv0_n12_N9POA_CORBA12ExceptionDefD1Ev @5585
    _ZTv0_n12_N9POA_CORBA12InterfaceDefD0Ev @5586
    _ZTv0_n12_N9POA_CORBA12InterfaceDefD1Ev @5587
    _ZTv0_n12_N9POA_CORBA12OperationDefD0Ev @5588
    _ZTv0_n12_N9POA_CORBA12OperationDefD1Ev @5589
    _ZTv0_n12_N9POA_CORBA12PrimitiveDefD0Ev @5590
    _ZTv0_n12_N9POA_CORBA12PrimitiveDefD1Ev @5591
    _ZTv0_n12_N9POA_CORBA14ValueMemberDefD0Ev @5592
    _ZTv0_n12_N9POA_CORBA14ValueMemberDefD1Ev @5593
    _ZTv0_n12_N9POA_CORBA20AbstractInterfaceDefD0Ev @5594
    _ZTv0_n12_N9POA_CORBA20AbstractInterfaceDefD1Ev @5595
    _ZTv0_n12_N9POA_CORBA7EnumDefD0Ev @5596
    _ZTv0_n12_N9POA_CORBA7EnumDefD1Ev @5597
    _ZTv0_n12_N9POA_CORBA7IDLTypeD0Ev @5598
    _ZTv0_n12_N9POA_CORBA7IDLTypeD1Ev @5599
    _ZTv0_n12_N9POA_CORBA8AliasDefD0Ev @5600
    _ZTv0_n12_N9POA_CORBA8AliasDefD1Ev @5601
    _ZTv0_n12_N9POA_CORBA8ArrayDefD0Ev @5602
    _ZTv0_n12_N9POA_CORBA8ArrayDefD1Ev @5603
    _ZTv0_n12_N9POA_CORBA8FixedDefD0Ev @5604
    _ZTv0_n12_N9POA_CORBA8FixedDefD1Ev @5605
    _ZTv0_n12_N9POA_CORBA8IRObjectD0Ev @5606
    _ZTv0_n12_N9POA_CORBA8IRObjectD1Ev @5607
    _ZTv0_n12_N9POA_CORBA8UnionDefD0Ev @5608
    _ZTv0_n12_N9POA_CORBA8UnionDefD1Ev @5609
    _ZTv0_n12_N9POA_CORBA8ValueDefD0Ev @5610
    _ZTv0_n12_N9POA_CORBA8ValueDefD1Ev @5611
    _ZTv0_n12_N9POA_CORBA9ContainedD0Ev @5612
    _ZTv0_n12_N9POA_CORBA9ContainedD1Ev @5613
    _ZTv0_n12_N9POA_CORBA9ContainerD0Ev @5614
    _ZTv0_n12_N9POA_CORBA9ContainerD1Ev @5615
    _ZTv0_n12_N9POA_CORBA9ModuleDefD0Ev @5616
    _ZTv0_n12_N9POA_CORBA9ModuleDefD1Ev @5617
    _ZTv0_n12_N9POA_CORBA9NativeDefD0Ev @5618
    _ZTv0_n12_N9POA_CORBA9NativeDefD1Ev @5619
    _ZTv0_n12_N9POA_CORBA9StringDefD0Ev @5620
    _ZTv0_n12_N9POA_CORBA9StringDefD1Ev @5621
    _ZTv0_n12_N9POA_CORBA9StructDefD0Ev @5622
    _ZTv0_n12_N9POA_CORBA9StructDefD1Ev @5623
    _ZTv0_n132_N4omni10DynAnyImpl14insert_dyn_anyEPN10DynamicAny6DynAnyE @5624
    _ZTv0_n132_N4omni12DynUnionDisc14insert_dyn_anyEPN10DynamicAny6DynAnyE @5625
    _ZTv0_n132_N4omni12DynUnionImpl14insert_dyn_anyEPN10DynamicAny6DynAnyE @5626
    _ZTv0_n132_N4omni13omniNilDynAny14insert_dyn_anyEPN10DynamicAny6DynAnyE @5627
    _ZTv0_n132_N4omni16DynAnyConstrBase14insert_dyn_anyEPN10DynamicAny6DynAnyE @5628
    _ZTv0_n136_N4omni10DynAnyImpl10insert_valEPN5CORBA9ValueBaseE @5629
    _ZTv0_n136_N4omni12DynUnionDisc10insert_valEPN5CORBA9ValueBaseE @5630
    _ZTv0_n136_N4omni12DynUnionImpl10insert_valEPN5CORBA9ValueBaseE @5631
    _ZTv0_n136_N4omni13omniNilDynAny10insert_valEPN5CORBA9ValueBaseE @5632
    _ZTv0_n136_N4omni16DynAnyConstrBase10insert_valEPN5CORBA9ValueBaseE @5633
    _ZTv0_n140_N4omni10DynAnyImpl15insert_abstractEPN5CORBA12AbstractBaseE @5634
    _ZTv0_n140_N4omni12DynUnionDisc15insert_abstractEPN5CORBA12AbstractBaseE @5635
    _ZTv0_n140_N4omni12DynUnionImpl15insert_abstractEPN5CORBA12AbstractBaseE @5636
    _ZTv0_n140_N4omni13omniNilDynAny15insert_abstractEPN5CORBA12AbstractBaseE @5637
    _ZTv0_n140_N4omni16DynAnyConstrBase15insert_abstractEPN5CORBA12AbstractBaseE @5638
    _ZTv0_n144_N4omni10DynAnyImpl11get_booleanEv @5639
    _ZTv0_n144_N4omni12DynUnionImpl11get_booleanEv @5640
    _ZTv0_n144_N4omni13omniNilDynAny11get_booleanEv @5641
    _ZTv0_n144_N4omni16DynAnyConstrBase11get_booleanEv @5642
    _ZTv0_n148_N4omni10DynAnyImpl9get_octetEv @5643
    _ZTv0_n148_N4omni12DynUnionImpl9get_octetEv @5644
    _ZTv0_n148_N4omni13omniNilDynAny9get_octetEv @5645
    _ZTv0_n148_N4omni16DynAnyConstrBase9get_octetEv @5646
    _ZTv0_n152_N4omni10DynAnyImpl8get_charEv @5647
    _ZTv0_n152_N4omni12DynUnionImpl8get_charEv @5648
    _ZTv0_n152_N4omni13omniNilDynAny8get_charEv @5649
    _ZTv0_n152_N4omni16DynAnyConstrBase8get_charEv @5650
    _ZTv0_n156_N4omni10DynAnyImpl9get_shortEv @5651
    _ZTv0_n156_N4omni12DynUnionImpl9get_shortEv @5652
    _ZTv0_n156_N4omni13omniNilDynAny9get_shortEv @5653
    _ZTv0_n156_N4omni16DynAnyConstrBase9get_shortEv @5654
    _ZTv0_n160_N4omni10DynAnyImpl10get_ushortEv @5655
    _ZTv0_n160_N4omni12DynUnionImpl10get_ushortEv @5656
    _ZTv0_n160_N4omni13omniNilDynAny10get_ushortEv @5657
    _ZTv0_n160_N4omni16DynAnyConstrBase10get_ushortEv @5658
    _ZTv0_n164_N4omni10DynAnyImpl8get_longEv @5659
    _ZTv0_n164_N4omni12DynUnionImpl8get_longEv @5660
    _ZTv0_n164_N4omni13omniNilDynAny8get_longEv @5661
    _ZTv0_n164_N4omni16DynAnyConstrBase8get_longEv @5662
    _ZTv0_n168_N4omni10DynAnyImpl9get_ulongEv @5663
    _ZTv0_n168_N4omni12DynUnionImpl9get_ulongEv @5664
    _ZTv0_n168_N4omni13omniNilDynAny9get_ulongEv @5665
    _ZTv0_n168_N4omni16DynAnyConstrBase9get_ulongEv @5666
    _ZTv0_n16_N14PortableServer17ValueRefCountBase11_remove_refEv @5667
    _ZTv0_n16_N14PortableServer17ValueRefCountBaseD0Ev @5668
    _ZTv0_n16_N14PortableServer17ValueRefCountBaseD1Ev @5669
    _ZTv0_n16_N14PortableServer21DynamicImplementationD0Ev @5670
    _ZTv0_n16_N14PortableServer21DynamicImplementationD1Ev @5671
    _ZTv0_n16_N4omni12DynValueImpl7is_nullEv @5672
    _ZTv0_n16_N4omni15DynValueBoxImpl7is_nullEv @5673
    _ZTv0_n16_N4omni15omniNilDynValue7is_nullEv @5674
    _ZTv0_n16_N4omni18omniNilDynValueBox7is_nullEv @5675
    _ZTv0_n16_N5CORBA13_impl_EnumDef15_ptrToInterfaceEPKc @5676
    _ZTv0_n16_N5CORBA13_impl_EnumDefD0Ev @5677
    _ZTv0_n16_N5CORBA13_impl_EnumDefD1Ev @5678
    _ZTv0_n16_N5CORBA13_impl_IDLType15_ptrToInterfaceEPKc @5679
    _ZTv0_n16_N5CORBA13_impl_IDLTypeD0Ev @5680
    _ZTv0_n16_N5CORBA13_impl_IDLTypeD1Ev @5681
    _ZTv0_n16_N5CORBA14_impl_AliasDef15_ptrToInterfaceEPKc @5682
    _ZTv0_n16_N5CORBA14_impl_AliasDefD0Ev @5683
    _ZTv0_n16_N5CORBA14_impl_AliasDefD1Ev @5684
    _ZTv0_n16_N5CORBA14_impl_ArrayDef15_ptrToInterfaceEPKc @5685
    _ZTv0_n16_N5CORBA14_impl_ArrayDefD0Ev @5686
    _ZTv0_n16_N5CORBA14_impl_ArrayDefD1Ev @5687
    _ZTv0_n16_N5CORBA14_impl_FixedDef15_ptrToInterfaceEPKc @5688
    _ZTv0_n16_N5CORBA14_impl_FixedDefD0Ev @5689
    _ZTv0_n16_N5CORBA14_impl_FixedDefD1Ev @5690
    _ZTv0_n16_N5CORBA14_impl_IRObject15_ptrToInterfaceEPKc @5691
    _ZTv0_n16_N5CORBA14_impl_UnionDef15_ptrToInterfaceEPKc @5692
    _ZTv0_n16_N5CORBA14_impl_UnionDefD0Ev @5693
    _ZTv0_n16_N5CORBA14_impl_UnionDefD1Ev @5694
    _ZTv0_n16_N5CORBA14_impl_ValueDef15_ptrToInterfaceEPKc @5695
    _ZTv0_n16_N5CORBA14_impl_ValueDefD0Ev @5696
    _ZTv0_n16_N5CORBA14_impl_ValueDefD1Ev @5697
    _ZTv0_n16_N5CORBA15_impl_Contained15_ptrToInterfaceEPKc @5698
    _ZTv0_n16_N5CORBA15_impl_ContainedD0Ev @5699
    _ZTv0_n16_N5CORBA15_impl_ContainedD1Ev @5700
    _ZTv0_n16_N5CORBA15_impl_Container15_ptrToInterfaceEPKc @5701
    _ZTv0_n16_N5CORBA15_impl_ContainerD0Ev @5702
    _ZTv0_n16_N5CORBA15_impl_ContainerD1Ev @5703
    _ZTv0_n16_N5CORBA15_impl_ModuleDef15_ptrToInterfaceEPKc @5704
    _ZTv0_n16_N5CORBA15_impl_ModuleDefD0Ev @5705
    _ZTv0_n16_N5CORBA15_impl_ModuleDefD1Ev @5706
    _ZTv0_n16_N5CORBA15_impl_NativeDef15_ptrToInterfaceEPKc @5707
    _ZTv0_n16_N5CORBA15_impl_NativeDefD0Ev @5708
    _ZTv0_n16_N5CORBA15_impl_NativeDefD1Ev @5709
    _ZTv0_n16_N5CORBA15_impl_StringDef15_ptrToInterfaceEPKc @5710
    _ZTv0_n16_N5CORBA15_impl_StringDefD0Ev @5711
    _ZTv0_n16_N5CORBA15_impl_StringDefD1Ev @5712
    _ZTv0_n16_N5CORBA15_impl_StructDef15_ptrToInterfaceEPKc @5713
    _ZTv0_n16_N5CORBA15_impl_StructDefD0Ev @5714
    _ZTv0_n16_N5CORBA15_impl_StructDefD1Ev @5715
    _ZTv0_n16_N5CORBA16_impl_Repository15_ptrToInterfaceEPKc @5716
    _ZTv0_n16_N5CORBA16_impl_RepositoryD0Ev @5717
    _ZTv0_n16_N5CORBA16_impl_RepositoryD1Ev @5718
    _ZTv0_n16_N5CORBA16_impl_TypedefDef15_ptrToInterfaceEPKc @5719
    _ZTv0_n16_N5CORBA16_impl_TypedefDefD0Ev @5720
    _ZTv0_n16_N5CORBA16_impl_TypedefDefD1Ev @5721
    _ZTv0_n16_N5CORBA16_impl_WstringDef15_ptrToInterfaceEPKc @5722
    _ZTv0_n16_N5CORBA16_impl_WstringDefD0Ev @5723
    _ZTv0_n16_N5CORBA16_impl_WstringDefD1Ev @5724
    _ZTv0_n16_N5CORBA17_impl_ConstantDef15_ptrToInterfaceEPKc @5725
    _ZTv0_n16_N5CORBA17_impl_ConstantDefD0Ev @5726
    _ZTv0_n16_N5CORBA17_impl_ConstantDefD1Ev @5727
    _ZTv0_n16_N5CORBA17_impl_SequenceDef15_ptrToInterfaceEPKc @5728
    _ZTv0_n16_N5CORBA17_impl_SequenceDefD0Ev @5729
    _ZTv0_n16_N5CORBA17_impl_SequenceDefD1Ev @5730
    _ZTv0_n16_N5CORBA17_impl_ValueBoxDef15_ptrToInterfaceEPKc @5731
    _ZTv0_n16_N5CORBA17_impl_ValueBoxDefD0Ev @5732
    _ZTv0_n16_N5CORBA17_impl_ValueBoxDefD1Ev @5733
    _ZTv0_n16_N5CORBA18_impl_AttributeDef15_ptrToInterfaceEPKc @5734
    _ZTv0_n16_N5CORBA18_impl_AttributeDefD0Ev @5735
    _ZTv0_n16_N5CORBA18_impl_AttributeDefD1Ev @5736
    _ZTv0_n16_N5CORBA18_impl_ExceptionDef15_ptrToInterfaceEPKc @5737
    _ZTv0_n16_N5CORBA18_impl_ExceptionDefD0Ev @5738
    _ZTv0_n16_N5CORBA18_impl_ExceptionDefD1Ev @5739
    _ZTv0_n16_N5CORBA18_impl_InterfaceDef15_ptrToInterfaceEPKc @5740
    _ZTv0_n16_N5CORBA18_impl_InterfaceDefD0Ev @5741
    _ZTv0_n16_N5CORBA18_impl_InterfaceDefD1Ev @5742
    _ZTv0_n16_N5CORBA18_impl_OperationDef15_ptrToInterfaceEPKc @5743
    _ZTv0_n16_N5CORBA18_impl_OperationDefD0Ev @5744
    _ZTv0_n16_N5CORBA18_impl_OperationDefD1Ev @5745
    _ZTv0_n16_N5CORBA18_impl_PrimitiveDef15_ptrToInterfaceEPKc @5746
    _ZTv0_n16_N5CORBA18_impl_PrimitiveDefD0Ev @5747
    _ZTv0_n16_N5CORBA18_impl_PrimitiveDefD1Ev @5748
    _ZTv0_n16_N5CORBA20_impl_ValueMemberDef15_ptrToInterfaceEPKc @5749
    _ZTv0_n16_N5CORBA20_impl_ValueMemberDefD0Ev @5750
    _ZTv0_n16_N5CORBA20_impl_ValueMemberDefD1Ev @5751
    _ZTv0_n16_N5CORBA24DefaultValueRefCountBase11_remove_refEv @5752
    _ZTv0_n16_N5CORBA26_impl_AbstractInterfaceDef15_ptrToInterfaceEPKc @5753
    _ZTv0_n16_N5CORBA26_impl_AbstractInterfaceDefD0Ev @5754
    _ZTv0_n16_N5CORBA26_impl_AbstractInterfaceDefD1Ev @5755
    _ZTv0_n16_N9POA_CORBA10RepositoryD0Ev @5756
    _ZTv0_n16_N9POA_CORBA10RepositoryD1Ev @5757
    _ZTv0_n16_N9POA_CORBA10TypedefDefD0Ev @5758
    _ZTv0_n16_N9POA_CORBA10TypedefDefD1Ev @5759
    _ZTv0_n16_N9POA_CORBA10WstringDefD0Ev @5760
    _ZTv0_n16_N9POA_CORBA10WstringDefD1Ev @5761
    _ZTv0_n16_N9POA_CORBA11ConstantDefD0Ev @5762
    _ZTv0_n16_N9POA_CORBA11ConstantDefD1Ev @5763
    _ZTv0_n16_N9POA_CORBA11SequenceDefD0Ev @5764
    _ZTv0_n16_N9POA_CORBA11SequenceDefD1Ev @5765
    _ZTv0_n16_N9POA_CORBA11ValueBoxDefD0Ev @5766
    _ZTv0_n16_N9POA_CORBA11ValueBoxDefD1Ev @5767
    _ZTv0_n16_N9POA_CORBA12AttributeDefD0Ev @5768
    _ZTv0_n16_N9POA_CORBA12AttributeDefD1Ev @5769
    _ZTv0_n16_N9POA_CORBA12ExceptionDefD0Ev @5770
    _ZTv0_n16_N9POA_CORBA12ExceptionDefD1Ev @5771
    _ZTv0_n16_N9POA_CORBA12InterfaceDefD0Ev @5772
    _ZTv0_n16_N9POA_CORBA12InterfaceDefD1Ev @5773
    _ZTv0_n16_N9POA_CORBA12OperationDefD0Ev @5774
    _ZTv0_n16_N9POA_CORBA12OperationDefD1Ev @5775
    _ZTv0_n16_N9POA_CORBA12PrimitiveDefD0Ev @5776
    _ZTv0_n16_N9POA_CORBA12PrimitiveDefD1Ev @5777
    _ZTv0_n16_N9POA_CORBA14ValueMemberDefD0Ev @5778
    _ZTv0_n16_N9POA_CORBA14ValueMemberDefD1Ev @5779
    _ZTv0_n16_N9POA_CORBA20AbstractInterfaceDefD0Ev @5780
    _ZTv0_n16_N9POA_CORBA20AbstractInterfaceDefD1Ev @5781
    _ZTv0_n16_N9POA_CORBA7EnumDefD0Ev @5782
    _ZTv0_n16_N9POA_CORBA7EnumDefD1Ev @5783
    _ZTv0_n16_N9POA_CORBA7IDLTypeD0Ev @5784
    _ZTv0_n16_N9POA_CORBA7IDLTypeD1Ev @5785
    _ZTv0_n16_N9POA_CORBA8AliasDefD0Ev @5786
    _ZTv0_n16_N9POA_CORBA8AliasDefD1Ev @5787
    _ZTv0_n16_N9POA_CORBA8ArrayDefD0Ev @5788
    _ZTv0_n16_N9POA_CORBA8ArrayDefD1Ev @5789
    _ZTv0_n16_N9POA_CORBA8FixedDefD0Ev @5790
    _ZTv0_n16_N9POA_CORBA8FixedDefD1Ev @5791
    _ZTv0_n16_N9POA_CORBA8IRObjectD0Ev @5792
    _ZTv0_n16_N9POA_CORBA8IRObjectD1Ev @5793
    _ZTv0_n16_N9POA_CORBA8UnionDefD0Ev @5794
    _ZTv0_n16_N9POA_CORBA8UnionDefD1Ev @5795
    _ZTv0_n16_N9POA_CORBA8ValueDefD0Ev @5796
    _ZTv0_n16_N9POA_CORBA8ValueDefD1Ev @5797
    _ZTv0_n16_N9POA_CORBA9ContainedD0Ev @5798
    _ZTv0_n16_N9POA_CORBA9ContainedD1Ev @5799
    _ZTv0_n16_N9POA_CORBA9ContainerD0Ev @5800
    _ZTv0_n16_N9POA_CORBA9ContainerD1Ev @5801
    _ZTv0_n16_N9POA_CORBA9ModuleDefD0Ev @5802
    _ZTv0_n16_N9POA_CORBA9ModuleDefD1Ev @5803
    _ZTv0_n16_N9POA_CORBA9NativeDefD0Ev @5804
    _ZTv0_n16_N9POA_CORBA9NativeDefD1Ev @5805
    _ZTv0_n16_N9POA_CORBA9StringDefD0Ev @5806
    _ZTv0_n16_N9POA_CORBA9StringDefD1Ev @5807
    _ZTv0_n16_N9POA_CORBA9StructDefD0Ev @5808
    _ZTv0_n16_N9POA_CORBA9StructDefD1Ev @5809
    _ZTv0_n16_NK5CORBA24_omni_AbstractBaseObjref10_NP_is_nilEv @5810
    _ZTv0_n172_N4omni10DynAnyImpl9get_floatEv @5811
    _ZTv0_n172_N4omni12DynUnionImpl9get_floatEv @5812
    _ZTv0_n172_N4omni13omniNilDynAny9get_floatEv @5813
    _ZTv0_n172_N4omni16DynAnyConstrBase9get_floatEv @5814
    _ZTv0_n176_N4omni10DynAnyImpl10get_doubleEv @5815
    _ZTv0_n176_N4omni12DynUnionImpl10get_doubleEv @5816
    _ZTv0_n176_N4omni13omniNilDynAny10get_doubleEv @5817
    _ZTv0_n176_N4omni16DynAnyConstrBase10get_doubleEv @5818
    _ZTv0_n180_N4omni10DynAnyImpl10get_stringEv @5819
    _ZTv0_n180_N4omni12DynUnionImpl10get_stringEv @5820
    _ZTv0_n180_N4omni13omniNilDynAny10get_stringEv @5821
    _ZTv0_n180_N4omni16DynAnyConstrBase10get_stringEv @5822
    _ZTv0_n184_N4omni10DynAnyImpl13get_referenceEv @5823
    _ZTv0_n184_N4omni12DynUnionImpl13get_referenceEv @5824
    _ZTv0_n184_N4omni13omniNilDynAny13get_referenceEv @5825
    _ZTv0_n184_N4omni16DynAnyConstrBase13get_referenceEv @5826
    _ZTv0_n188_N4omni10DynAnyImpl12get_typecodeEv @5827
    _ZTv0_n188_N4omni12DynUnionImpl12get_typecodeEv @5828
    _ZTv0_n188_N4omni13omniNilDynAny12get_typecodeEv @5829
    _ZTv0_n188_N4omni16DynAnyConstrBase12get_typecodeEv @5830
    _ZTv0_n192_N4omni10DynAnyImpl12get_longlongEv @5831
    _ZTv0_n192_N4omni12DynUnionImpl12get_longlongEv @5832
    _ZTv0_n192_N4omni13omniNilDynAny12get_longlongEv @5833
    _ZTv0_n192_N4omni16DynAnyConstrBase12get_longlongEv @5834
    _ZTv0_n196_N4omni10DynAnyImpl13get_ulonglongEv @5835
    _ZTv0_n196_N4omni12DynUnionImpl13get_ulonglongEv @5836
    _ZTv0_n196_N4omni13omniNilDynAny13get_ulonglongEv @5837
    _ZTv0_n196_N4omni16DynAnyConstrBase13get_ulonglongEv @5838
    _ZTv0_n200_N4omni10DynAnyImpl14get_longdoubleEv @5839
    _ZTv0_n200_N4omni12DynUnionImpl14get_longdoubleEv @5840
    _ZTv0_n200_N4omni13omniNilDynAny14get_longdoubleEv @5841
    _ZTv0_n200_N4omni16DynAnyConstrBase14get_longdoubleEv @5842
    _ZTv0_n204_N4omni10DynAnyImpl9get_wcharEv @5843
    _ZTv0_n204_N4omni12DynUnionImpl9get_wcharEv @5844
    _ZTv0_n204_N4omni13omniNilDynAny9get_wcharEv @5845
    _ZTv0_n204_N4omni16DynAnyConstrBase9get_wcharEv @5846
    _ZTv0_n208_N4omni10DynAnyImpl11get_wstringEv @5847
    _ZTv0_n208_N4omni12DynUnionImpl11get_wstringEv @5848
    _ZTv0_n208_N4omni13omniNilDynAny11get_wstringEv @5849
    _ZTv0_n208_N4omni16DynAnyConstrBase11get_wstringEv @5850
    _ZTv0_n20_N4omni11DynEnumImpl16_NP_incrRefCountEv @5851
    _ZTv0_n20_N4omni12DynArrayImpl16_NP_incrRefCountEv @5852
    _ZTv0_n20_N4omni12DynFixedImpl16_NP_incrRefCountEv @5853
    _ZTv0_n20_N4omni12DynUnionImpl16_NP_incrRefCountEv @5854
    _ZTv0_n20_N4omni12DynValueImpl11set_to_nullEv @5855
    _ZTv0_n20_N4omni12DynValueImpl16_NP_incrRefCountEv @5856
    _ZTv0_n20_N4omni12UnknownValue11_copy_valueEv @5857
    _ZTv0_n20_N4omni13DynStructImpl16_NP_incrRefCountEv @5858
    _ZTv0_n20_N4omni13omniNilDynAny16_NP_incrRefCountEv @5859
    _ZTv0_n20_N4omni14DynAnyImplBase16_NP_incrRefCountEv @5860
    _ZTv0_n20_N4omni15DynSequenceImpl16_NP_incrRefCountEv @5861
    _ZTv0_n20_N4omni15DynValueBoxImpl11set_to_nullEv @5862
    _ZTv0_n20_N4omni15DynValueBoxImpl16_NP_incrRefCountEv @5863
    _ZTv0_n20_N4omni15omniNilDynValue11set_to_nullEv @5864
    _ZTv0_n20_N4omni16DynUnionEnumDisc16_NP_incrRefCountEv @5865
    _ZTv0_n20_N4omni18omniNilDynValueBox11set_to_nullEv @5866
    _ZTv0_n20_N5CORBA11StringValue11_copy_valueEv @5867
    _ZTv0_n20_N5CORBA12WStringValue11_copy_valueEv @5868
    _ZTv0_n20_N5CORBA15_objref_EnumDefD0Ev @5869
    _ZTv0_n20_N5CORBA15_objref_EnumDefD1Ev @5870
    _ZTv0_n20_N5CORBA15_objref_IDLTypeD0Ev @5871
    _ZTv0_n20_N5CORBA15_objref_IDLTypeD1Ev @5872
    _ZTv0_n20_N5CORBA16_objref_AliasDefD0Ev @5873
    _ZTv0_n20_N5CORBA16_objref_AliasDefD1Ev @5874
    _ZTv0_n20_N5CORBA16_objref_ArrayDefD0Ev @5875
    _ZTv0_n20_N5CORBA16_objref_ArrayDefD1Ev @5876
    _ZTv0_n20_N5CORBA16_objref_FixedDefD0Ev @5877
    _ZTv0_n20_N5CORBA16_objref_FixedDefD1Ev @5878
    _ZTv0_n20_N5CORBA16_objref_UnionDefD0Ev @5879
    _ZTv0_n20_N5CORBA16_objref_UnionDefD1Ev @5880
    _ZTv0_n20_N5CORBA16_objref_ValueDefD0Ev @5881
    _ZTv0_n20_N5CORBA16_objref_ValueDefD1Ev @5882
    _ZTv0_n20_N5CORBA17_objref_ContainedD0Ev @5883
    _ZTv0_n20_N5CORBA17_objref_ContainedD1Ev @5884
    _ZTv0_n20_N5CORBA17_objref_ContainerD0Ev @5885
    _ZTv0_n20_N5CORBA17_objref_ContainerD1Ev @5886
    _ZTv0_n20_N5CORBA17_objref_ModuleDefD0Ev @5887
    _ZTv0_n20_N5CORBA17_objref_ModuleDefD1Ev @5888
    _ZTv0_n20_N5CORBA17_objref_NativeDefD0Ev @5889
    _ZTv0_n20_N5CORBA17_objref_NativeDefD1Ev @5890
    _ZTv0_n20_N5CORBA17_objref_StringDefD0Ev @5891
    _ZTv0_n20_N5CORBA17_objref_StringDefD1Ev @5892
    _ZTv0_n20_N5CORBA17_objref_StructDefD0Ev @5893
    _ZTv0_n20_N5CORBA17_objref_StructDefD1Ev @5894
    _ZTv0_n20_N5CORBA18_objref_RepositoryD0Ev @5895
    _ZTv0_n20_N5CORBA18_objref_RepositoryD1Ev @5896
    _ZTv0_n20_N5CORBA18_objref_TypedefDefD0Ev @5897
    _ZTv0_n20_N5CORBA18_objref_TypedefDefD1Ev @5898
    _ZTv0_n20_N5CORBA18_objref_WstringDefD0Ev @5899
    _ZTv0_n20_N5CORBA18_objref_WstringDefD1Ev @5900
    _ZTv0_n20_N5CORBA19_objref_ConstantDefD0Ev @5901
    _ZTv0_n20_N5CORBA19_objref_ConstantDefD1Ev @5902
    _ZTv0_n20_N5CORBA19_objref_SequenceDefD0Ev @5903
    _ZTv0_n20_N5CORBA19_objref_SequenceDefD1Ev @5904
    _ZTv0_n20_N5CORBA19_objref_ValueBoxDefD0Ev @5905
    _ZTv0_n20_N5CORBA19_objref_ValueBoxDefD1Ev @5906
    _ZTv0_n20_N5CORBA20_objref_AttributeDefD0Ev @5907
    _ZTv0_n20_N5CORBA20_objref_AttributeDefD1Ev @5908
    _ZTv0_n20_N5CORBA20_objref_ExceptionDefD0Ev @5909
    _ZTv0_n20_N5CORBA20_objref_ExceptionDefD1Ev @5910
    _ZTv0_n20_N5CORBA20_objref_InterfaceDefD0Ev @5911
    _ZTv0_n20_N5CORBA20_objref_InterfaceDefD1Ev @5912
    _ZTv0_n20_N5CORBA20_objref_OperationDefD0Ev @5913
    _ZTv0_n20_N5CORBA20_objref_OperationDefD1Ev @5914
    _ZTv0_n20_N5CORBA20_objref_PrimitiveDefD0Ev @5915
    _ZTv0_n20_N5CORBA20_objref_PrimitiveDefD1Ev @5916
    _ZTv0_n20_N5CORBA22_objref_ValueMemberDefD0Ev @5917
    _ZTv0_n20_N5CORBA22_objref_ValueMemberDefD1Ev @5918
    _ZTv0_n20_N5CORBA24_omni_AbstractBaseObjref13_NP_to_objectEv @5919
    _ZTv0_n20_N5CORBA28_objref_AbstractInterfaceDefD0Ev @5920
    _ZTv0_n20_N5CORBA28_objref_AbstractInterfaceDefD1Ev @5921
    _ZTv0_n212_N4omni10DynAnyImpl7get_anyEv @5922
    _ZTv0_n212_N4omni12DynUnionImpl7get_anyEv @5923
    _ZTv0_n212_N4omni13omniNilDynAny7get_anyEv @5924
    _ZTv0_n212_N4omni16DynAnyConstrBase7get_anyEv @5925
    _ZTv0_n216_N4omni10DynAnyImpl11get_dyn_anyEv @5926
    _ZTv0_n216_N4omni12DynUnionImpl11get_dyn_anyEv @5927
    _ZTv0_n216_N4omni13omniNilDynAny11get_dyn_anyEv @5928
    _ZTv0_n216_N4omni16DynAnyConstrBase11get_dyn_anyEv @5929
    _ZTv0_n220_N4omni10DynAnyImpl7get_valEv @5930
    _ZTv0_n220_N4omni12DynUnionImpl7get_valEv @5931
    _ZTv0_n220_N4omni13omniNilDynAny7get_valEv @5932
    _ZTv0_n220_N4omni16DynAnyConstrBase7get_valEv @5933
    _ZTv0_n224_N4omni10DynAnyImpl12get_abstractEv @5934
    _ZTv0_n224_N4omni12DynUnionImpl12get_abstractEv @5935
    _ZTv0_n224_N4omni13omniNilDynAny12get_abstractEv @5936
    _ZTv0_n224_N4omni16DynAnyConstrBase12get_abstractEv @5937
    _ZTv0_n228_N4omni10DynAnyImpl18insert_boolean_seqERN5CORBA10BooleanSeqE @5938
    _ZTv0_n228_N4omni12DynUnionImpl18insert_boolean_seqERN5CORBA10BooleanSeqE @5939
    _ZTv0_n228_N4omni13omniNilDynAny18insert_boolean_seqERN5CORBA10BooleanSeqE @5940
    _ZTv0_n228_N4omni16DynAnyConstrBase18insert_boolean_seqERN5CORBA10BooleanSeqE @5941
    _ZTv0_n232_N4omni10DynAnyImpl16insert_octet_seqERN5CORBA8OctetSeqE @5942
    _ZTv0_n232_N4omni12DynUnionImpl16insert_octet_seqERN5CORBA8OctetSeqE @5943
    _ZTv0_n232_N4omni13omniNilDynAny16insert_octet_seqERN5CORBA8OctetSeqE @5944
    _ZTv0_n232_N4omni16DynAnyConstrBase16insert_octet_seqERN5CORBA8OctetSeqE @5945
    _ZTv0_n236_N4omni10DynAnyImpl15insert_char_seqERN5CORBA7CharSeqE @5946
    _ZTv0_n236_N4omni12DynUnionImpl15insert_char_seqERN5CORBA7CharSeqE @5947
    _ZTv0_n236_N4omni13omniNilDynAny15insert_char_seqERN5CORBA7CharSeqE @5948
    _ZTv0_n236_N4omni16DynAnyConstrBase15insert_char_seqERN5CORBA7CharSeqE @5949
    _ZTv0_n240_N4omni10DynAnyImpl16insert_short_seqERN5CORBA8ShortSeqE @5950
    _ZTv0_n240_N4omni12DynUnionImpl16insert_short_seqERN5CORBA8ShortSeqE @5951
    _ZTv0_n240_N4omni13omniNilDynAny16insert_short_seqERN5CORBA8ShortSeqE @5952
    _ZTv0_n240_N4omni16DynAnyConstrBase16insert_short_seqERN5CORBA8ShortSeqE @5953
    _ZTv0_n244_N4omni10DynAnyImpl17insert_ushort_seqERN5CORBA9UShortSeqE @5954
    _ZTv0_n244_N4omni12DynUnionImpl17insert_ushort_seqERN5CORBA9UShortSeqE @5955
    _ZTv0_n244_N4omni13omniNilDynAny17insert_ushort_seqERN5CORBA9UShortSeqE @5956
    _ZTv0_n244_N4omni16DynAnyConstrBase17insert_ushort_seqERN5CORBA9UShortSeqE @5957
    _ZTv0_n248_N4omni10DynAnyImpl15insert_long_seqERN5CORBA7LongSeqE @5958
    _ZTv0_n248_N4omni12DynUnionImpl15insert_long_seqERN5CORBA7LongSeqE @5959
    _ZTv0_n248_N4omni13omniNilDynAny15insert_long_seqERN5CORBA7LongSeqE @5960
    _ZTv0_n248_N4omni16DynAnyConstrBase15insert_long_seqERN5CORBA7LongSeqE @5961
    _ZTv0_n24_N14PortableServer17ValueRefCountBase15_refcount_valueEv @5962
    _ZTv0_n24_N4omni11DynEnumImpl16_NP_decrRefCountEv @5963
    _ZTv0_n24_N4omni12DynArrayImpl16_NP_decrRefCountEv @5964
    _ZTv0_n24_N4omni12DynFixedImpl16_NP_decrRefCountEv @5965
    _ZTv0_n24_N4omni12DynUnionImpl16_NP_decrRefCountEv @5966
    _ZTv0_n24_N4omni12DynValueImpl12set_to_valueEv @5967
    _ZTv0_n24_N4omni12DynValueImpl16_NP_decrRefCountEv @5968
    _ZTv0_n24_N4omni13DynStructImpl16_NP_decrRefCountEv @5969
    _ZTv0_n24_N4omni13omniNilDynAny16_NP_decrRefCountEv @5970
    _ZTv0_n24_N4omni14DynAnyImplBase16_NP_decrRefCountEv @5971
    _ZTv0_n24_N4omni15DynSequenceImpl16_NP_decrRefCountEv @5972
    _ZTv0_n24_N4omni15DynValueBoxImpl12set_to_valueEv @5973
    _ZTv0_n24_N4omni15DynValueBoxImpl16_NP_decrRefCountEv @5974
    _ZTv0_n24_N4omni15omniNilDynValue12set_to_valueEv @5975
    _ZTv0_n24_N4omni16DynUnionEnumDisc16_NP_decrRefCountEv @5976
    _ZTv0_n24_N4omni18omniNilDynValueBox12set_to_valueEv @5977
    _ZTv0_n24_N5CORBA13_impl_EnumDef18_mostDerivedRepoIdEv @5978
    _ZTv0_n24_N5CORBA13_impl_IDLType18_mostDerivedRepoIdEv @5979
    _ZTv0_n24_N5CORBA14_impl_AliasDef18_mostDerivedRepoIdEv @5980
    _ZTv0_n24_N5CORBA14_impl_ArrayDef18_mostDerivedRepoIdEv @5981
    _ZTv0_n24_N5CORBA14_impl_FixedDef18_mostDerivedRepoIdEv @5982
    _ZTv0_n24_N5CORBA14_impl_IRObject18_mostDerivedRepoIdEv @5983
    _ZTv0_n24_N5CORBA14_impl_UnionDef18_mostDerivedRepoIdEv @5984
    _ZTv0_n24_N5CORBA14_impl_ValueDef18_mostDerivedRepoIdEv @5985
    _ZTv0_n24_N5CORBA15_impl_Contained18_mostDerivedRepoIdEv @5986
    _ZTv0_n24_N5CORBA15_impl_Container18_mostDerivedRepoIdEv @5987
    _ZTv0_n24_N5CORBA15_impl_ModuleDef18_mostDerivedRepoIdEv @5988
    _ZTv0_n24_N5CORBA15_impl_NativeDef18_mostDerivedRepoIdEv @5989
    _ZTv0_n24_N5CORBA15_impl_StringDef18_mostDerivedRepoIdEv @5990
    _ZTv0_n24_N5CORBA15_impl_StructDef18_mostDerivedRepoIdEv @5991
    _ZTv0_n24_N5CORBA15_objref_EnumDef12_ptrToObjRefEPKc @5992
    _ZTv0_n24_N5CORBA15_objref_EnumDefD0Ev @5993
    _ZTv0_n24_N5CORBA15_objref_EnumDefD1Ev @5994
    _ZTv0_n24_N5CORBA15_objref_IDLType12_ptrToObjRefEPKc @5995
    _ZTv0_n24_N5CORBA15_objref_IDLTypeD0Ev @5996
    _ZTv0_n24_N5CORBA15_objref_IDLTypeD1Ev @5997
    _ZTv0_n24_N5CORBA16_impl_Repository18_mostDerivedRepoIdEv @5998
    _ZTv0_n24_N5CORBA16_impl_TypedefDef18_mostDerivedRepoIdEv @5999
    _ZTv0_n24_N5CORBA16_impl_WstringDef18_mostDerivedRepoIdEv @6000
    _ZTv0_n24_N5CORBA16_objref_AliasDef12_ptrToObjRefEPKc @6001
    _ZTv0_n24_N5CORBA16_objref_AliasDefD0Ev @6002
    _ZTv0_n24_N5CORBA16_objref_AliasDefD1Ev @6003
    _ZTv0_n24_N5CORBA16_objref_ArrayDef12_ptrToObjRefEPKc @6004
    _ZTv0_n24_N5CORBA16_objref_ArrayDefD0Ev @6005
    _ZTv0_n24_N5CORBA16_objref_ArrayDefD1Ev @6006
    _ZTv0_n24_N5CORBA16_objref_FixedDef12_ptrToObjRefEPKc @6007
    _ZTv0_n24_N5CORBA16_objref_FixedDefD0Ev @6008
    _ZTv0_n24_N5CORBA16_objref_FixedDefD1Ev @6009
    _ZTv0_n24_N5CORBA16_objref_IRObjectD0Ev @6010
    _ZTv0_n24_N5CORBA16_objref_IRObjectD1Ev @6011
    _ZTv0_n24_N5CORBA16_objref_UnionDef12_ptrToObjRefEPKc @6012
    _ZTv0_n24_N5CORBA16_objref_UnionDefD0Ev @6013
    _ZTv0_n24_N5CORBA16_objref_UnionDefD1Ev @6014
    _ZTv0_n24_N5CORBA16_objref_ValueDef12_ptrToObjRefEPKc @6015
    _ZTv0_n24_N5CORBA16_objref_ValueDefD0Ev @6016
    _ZTv0_n24_N5CORBA16_objref_ValueDefD1Ev @6017
    _ZTv0_n24_N5CORBA17_impl_ConstantDef18_mostDerivedRepoIdEv @6018
    _ZTv0_n24_N5CORBA17_impl_SequenceDef18_mostDerivedRepoIdEv @6019
    _ZTv0_n24_N5CORBA17_impl_ValueBoxDef18_mostDerivedRepoIdEv @6020
    _ZTv0_n24_N5CORBA17_objref_Contained12_ptrToObjRefEPKc @6021
    _ZTv0_n24_N5CORBA17_objref_ContainedD0Ev @6022
    _ZTv0_n24_N5CORBA17_objref_ContainedD1Ev @6023
    _ZTv0_n24_N5CORBA17_objref_Container12_ptrToObjRefEPKc @6024
    _ZTv0_n24_N5CORBA17_objref_ContainerD0Ev @6025
    _ZTv0_n24_N5CORBA17_objref_ContainerD1Ev @6026
    _ZTv0_n24_N5CORBA17_objref_ModuleDef12_ptrToObjRefEPKc @6027
    _ZTv0_n24_N5CORBA17_objref_ModuleDefD0Ev @6028
    _ZTv0_n24_N5CORBA17_objref_ModuleDefD1Ev @6029
    _ZTv0_n24_N5CORBA17_objref_NativeDef12_ptrToObjRefEPKc @6030
    _ZTv0_n24_N5CORBA17_objref_NativeDefD0Ev @6031
    _ZTv0_n24_N5CORBA17_objref_NativeDefD1Ev @6032
    _ZTv0_n24_N5CORBA17_objref_StringDef12_ptrToObjRefEPKc @6033
    _ZTv0_n24_N5CORBA17_objref_StringDefD0Ev @6034
    _ZTv0_n24_N5CORBA17_objref_StringDefD1Ev @6035
    _ZTv0_n24_N5CORBA17_objref_StructDef12_ptrToObjRefEPKc @6036
    _ZTv0_n24_N5CORBA17_objref_StructDefD0Ev @6037
    _ZTv0_n24_N5CORBA17_objref_StructDefD1Ev @6038
    _ZTv0_n24_N5CORBA18_impl_AttributeDef18_mostDerivedRepoIdEv @6039
    _ZTv0_n24_N5CORBA18_impl_ExceptionDef18_mostDerivedRepoIdEv @6040
    _ZTv0_n24_N5CORBA18_impl_InterfaceDef18_mostDerivedRepoIdEv @6041
    _ZTv0_n24_N5CORBA18_impl_OperationDef18_mostDerivedRepoIdEv @6042
    _ZTv0_n24_N5CORBA18_impl_PrimitiveDef18_mostDerivedRepoIdEv @6043
    _ZTv0_n24_N5CORBA18_objref_Repository12_ptrToObjRefEPKc @6044
    _ZTv0_n24_N5CORBA18_objref_RepositoryD0Ev @6045
    _ZTv0_n24_N5CORBA18_objref_RepositoryD1Ev @6046
    _ZTv0_n24_N5CORBA18_objref_TypedefDef12_ptrToObjRefEPKc @6047
    _ZTv0_n24_N5CORBA18_objref_TypedefDefD0Ev @6048
    _ZTv0_n24_N5CORBA18_objref_TypedefDefD1Ev @6049
    _ZTv0_n24_N5CORBA18_objref_WstringDef12_ptrToObjRefEPKc @6050
    _ZTv0_n24_N5CORBA18_objref_WstringDefD0Ev @6051
    _ZTv0_n24_N5CORBA18_objref_WstringDefD1Ev @6052
    _ZTv0_n24_N5CORBA19_objref_ConstantDef12_ptrToObjRefEPKc @6053
    _ZTv0_n24_N5CORBA19_objref_ConstantDefD0Ev @6054
    _ZTv0_n24_N5CORBA19_objref_ConstantDefD1Ev @6055
    _ZTv0_n24_N5CORBA19_objref_SequenceDef12_ptrToObjRefEPKc @6056
    _ZTv0_n24_N5CORBA19_objref_SequenceDefD0Ev @6057
    _ZTv0_n24_N5CORBA19_objref_SequenceDefD1Ev @6058
    _ZTv0_n24_N5CORBA19_objref_ValueBoxDef12_ptrToObjRefEPKc @6059
    _ZTv0_n24_N5CORBA19_objref_ValueBoxDefD0Ev @6060
    _ZTv0_n24_N5CORBA19_objref_ValueBoxDefD1Ev @6061
    _ZTv0_n24_N5CORBA20_impl_ValueMemberDef18_mostDerivedRepoIdEv @6062
    _ZTv0_n24_N5CORBA20_objref_AttributeDef12_ptrToObjRefEPKc @6063
    _ZTv0_n24_N5CORBA20_objref_AttributeDefD0Ev @6064
    _ZTv0_n24_N5CORBA20_objref_AttributeDefD1Ev @6065
    _ZTv0_n24_N5CORBA20_objref_ExceptionDef12_ptrToObjRefEPKc @6066
    _ZTv0_n24_N5CORBA20_objref_ExceptionDefD0Ev @6067
    _ZTv0_n24_N5CORBA20_objref_ExceptionDefD1Ev @6068
    _ZTv0_n24_N5CORBA20_objref_InterfaceDef12_ptrToObjRefEPKc @6069
    _ZTv0_n24_N5CORBA20_objref_InterfaceDefD0Ev @6070
    _ZTv0_n24_N5CORBA20_objref_InterfaceDefD1Ev @6071
    _ZTv0_n24_N5CORBA20_objref_OperationDef12_ptrToObjRefEPKc @6072
    _ZTv0_n24_N5CORBA20_objref_OperationDefD0Ev @6073
    _ZTv0_n24_N5CORBA20_objref_OperationDefD1Ev @6074
    _ZTv0_n24_N5CORBA20_objref_PrimitiveDef12_ptrToObjRefEPKc @6075
    _ZTv0_n24_N5CORBA20_objref_PrimitiveDefD0Ev @6076
    _ZTv0_n24_N5CORBA20_objref_PrimitiveDefD1Ev @6077
    _ZTv0_n24_N5CORBA22_objref_ValueMemberDef12_ptrToObjRefEPKc @6078
    _ZTv0_n24_N5CORBA22_objref_ValueMemberDefD0Ev @6079
    _ZTv0_n24_N5CORBA22_objref_ValueMemberDefD1Ev @6080
    _ZTv0_n24_N5CORBA24DefaultValueRefCountBase15_refcount_valueEv @6081
    _ZTv0_n24_N5CORBA26_impl_AbstractInterfaceDef18_mostDerivedRepoIdEv @6082
    _ZTv0_n24_N5CORBA28_objref_AbstractInterfaceDef12_ptrToObjRefEPKc @6083
    _ZTv0_n24_N5CORBA28_objref_AbstractInterfaceDefD0Ev @6084
    _ZTv0_n24_N5CORBA28_objref_AbstractInterfaceDefD1Ev @6085
    _ZTv0_n252_N4omni10DynAnyImpl16insert_ulong_seqERN5CORBA8ULongSeqE @6086
    _ZTv0_n252_N4omni12DynUnionImpl16insert_ulong_seqERN5CORBA8ULongSeqE @6087
    _ZTv0_n252_N4omni13omniNilDynAny16insert_ulong_seqERN5CORBA8ULongSeqE @6088
    _ZTv0_n252_N4omni16DynAnyConstrBase16insert_ulong_seqERN5CORBA8ULongSeqE @6089
    _ZTv0_n256_N4omni10DynAnyImpl16insert_float_seqERN5CORBA8FloatSeqE @6090
    _ZTv0_n256_N4omni12DynUnionImpl16insert_float_seqERN5CORBA8FloatSeqE @6091
    _ZTv0_n256_N4omni13omniNilDynAny16insert_float_seqERN5CORBA8FloatSeqE @6092
    _ZTv0_n256_N4omni16DynAnyConstrBase16insert_float_seqERN5CORBA8FloatSeqE @6093
    _ZTv0_n260_N4omni10DynAnyImpl17insert_double_seqERN5CORBA9DoubleSeqE @6094
    _ZTv0_n260_N4omni12DynUnionImpl17insert_double_seqERN5CORBA9DoubleSeqE @6095
    _ZTv0_n260_N4omni13omniNilDynAny17insert_double_seqERN5CORBA9DoubleSeqE @6096
    _ZTv0_n260_N4omni16DynAnyConstrBase17insert_double_seqERN5CORBA9DoubleSeqE @6097
    _ZTv0_n264_N4omni10DynAnyImpl19insert_longlong_seqERN5CORBA11LongLongSeqE @6098
    _ZTv0_n264_N4omni12DynUnionImpl19insert_longlong_seqERN5CORBA11LongLongSeqE @6099
    _ZTv0_n264_N4omni13omniNilDynAny19insert_longlong_seqERN5CORBA11LongLongSeqE @6100
    _ZTv0_n264_N4omni16DynAnyConstrBase19insert_longlong_seqERN5CORBA11LongLongSeqE @6101
    _ZTv0_n268_N4omni10DynAnyImpl20insert_ulonglong_seqERN5CORBA12ULongLongSeqE @6102
    _ZTv0_n268_N4omni12DynUnionImpl20insert_ulonglong_seqERN5CORBA12ULongLongSeqE @6103
    _ZTv0_n268_N4omni13omniNilDynAny20insert_ulonglong_seqERN5CORBA12ULongLongSeqE @6104
    _ZTv0_n268_N4omni16DynAnyConstrBase20insert_ulonglong_seqERN5CORBA12ULongLongSeqE @6105
    _ZTv0_n272_N4omni10DynAnyImpl21insert_longdouble_seqERN5CORBA13LongDoubleSeqE @6106
    _ZTv0_n272_N4omni12DynUnionImpl21insert_longdouble_seqERN5CORBA13LongDoubleSeqE @6107
    _ZTv0_n272_N4omni13omniNilDynAny21insert_longdouble_seqERN5CORBA13LongDoubleSeqE @6108
    _ZTv0_n272_N4omni16DynAnyConstrBase21insert_longdouble_seqERN5CORBA13LongDoubleSeqE @6109
    _ZTv0_n276_N4omni10DynAnyImpl16insert_wchar_seqERN5CORBA8WCharSeqE @6110
    _ZTv0_n276_N4omni12DynUnionImpl16insert_wchar_seqERN5CORBA8WCharSeqE @6111
    _ZTv0_n276_N4omni13omniNilDynAny16insert_wchar_seqERN5CORBA8WCharSeqE @6112
    _ZTv0_n276_N4omni16DynAnyConstrBase16insert_wchar_seqERN5CORBA8WCharSeqE @6113
    _ZTv0_n280_N4omni10DynAnyImpl15get_boolean_seqEv @6114
    _ZTv0_n280_N4omni12DynUnionImpl15get_boolean_seqEv @6115
    _ZTv0_n280_N4omni13omniNilDynAny15get_boolean_seqEv @6116
    _ZTv0_n280_N4omni16DynAnyConstrBase15get_boolean_seqEv @6117
    _ZTv0_n284_N4omni10DynAnyImpl13get_octet_seqEv @6118
    _ZTv0_n284_N4omni12DynUnionImpl13get_octet_seqEv @6119
    _ZTv0_n284_N4omni13omniNilDynAny13get_octet_seqEv @6120
    _ZTv0_n284_N4omni16DynAnyConstrBase13get_octet_seqEv @6121
    _ZTv0_n288_N4omni10DynAnyImpl12get_char_seqEv @6122
    _ZTv0_n288_N4omni12DynUnionImpl12get_char_seqEv @6123
    _ZTv0_n288_N4omni13omniNilDynAny12get_char_seqEv @6124
    _ZTv0_n288_N4omni16DynAnyConstrBase12get_char_seqEv @6125
    _ZTv0_n28_N10DynamicAny11DynValueBoxD0Ev @6126
    _ZTv0_n28_N10DynamicAny11DynValueBoxD1Ev @6127
    _ZTv0_n28_N10DynamicAny8DynValueD0Ev @6128
    _ZTv0_n28_N10DynamicAny8DynValueD1Ev @6129
    _ZTv0_n28_N14PortableServer17ValueRefCountBase8_add_refEv @6130
    _ZTv0_n28_N14PortableServer21DynamicImplementation5_is_aEPKc @6131
    _ZTv0_n28_N4omni10DynAnyImpl12_ptrToObjRefEPKc @6132
    _ZTv0_n28_N4omni11DynEnumImpl12_ptrToObjRefEPKc @6133
    _ZTv0_n28_N4omni12DynArrayImpl12_ptrToObjRefEPKc @6134
    _ZTv0_n28_N4omni12DynFixedImpl12_ptrToObjRefEPKc @6135
    _ZTv0_n28_N4omni12DynUnionImpl12_ptrToObjRefEPKc @6136
    _ZTv0_n28_N4omni12DynValueImpl12_ptrToObjRefEPKc @6137
    _ZTv0_n28_N4omni12DynValueImplD0Ev @6138
    _ZTv0_n28_N4omni12DynValueImplD1Ev @6139
    _ZTv0_n28_N4omni12UnknownValueD0Ev @6140
    _ZTv0_n28_N4omni12UnknownValueD1Ev @6141
    _ZTv0_n28_N4omni13DynStructImpl12_ptrToObjRefEPKc @6142
    _ZTv0_n28_N4omni13omniNilDynAny12_ptrToObjRefEPKc @6143
    _ZTv0_n28_N4omni14omniNilDynEnum12_ptrToObjRefEPKc @6144
    _ZTv0_n28_N4omni15DynSequenceImpl12_ptrToObjRefEPKc @6145
    _ZTv0_n28_N4omni15DynValueBoxImpl12_ptrToObjRefEPKc @6146
    _ZTv0_n28_N4omni15DynValueBoxImplD0Ev @6147
    _ZTv0_n28_N4omni15DynValueBoxImplD1Ev @6148
    _ZTv0_n28_N4omni15omniNilDynArray12_ptrToObjRefEPKc @6149
    _ZTv0_n28_N4omni15omniNilDynFixed12_ptrToObjRefEPKc @6150
    _ZTv0_n28_N4omni15omniNilDynUnion12_ptrToObjRefEPKc @6151
    _ZTv0_n28_N4omni15omniNilDynValue12_ptrToObjRefEPKc @6152
    _ZTv0_n28_N4omni15omniNilDynValueD0Ev @6153
    _ZTv0_n28_N4omni15omniNilDynValueD1Ev @6154
    _ZTv0_n28_N4omni16DynUnionEnumDisc12_ptrToObjRefEPKc @6155
    _ZTv0_n28_N4omni16omniNilDynStruct12_ptrToObjRefEPKc @6156
    _ZTv0_n28_N4omni18omniNilDynSequence12_ptrToObjRefEPKc @6157
    _ZTv0_n28_N4omni18omniNilDynValueBox12_ptrToObjRefEPKc @6158
    _ZTv0_n28_N4omni18omniNilDynValueBoxD0Ev @6159
    _ZTv0_n28_N4omni18omniNilDynValueBoxD1Ev @6160
    _ZTv0_n28_N4omni20omniNilDynAnyFactory12_ptrToObjRefEPKc @6161
    _ZTv0_n28_N4omni21omniNilDynValueCommon12_ptrToObjRefEPKc @6162
    _ZTv0_n28_N5CORBA13_impl_EnumDef9_dispatchER14omniCallHandle @6163
    _ZTv0_n28_N5CORBA13_impl_IDLType9_dispatchER14omniCallHandle @6164
    _ZTv0_n28_N5CORBA14_impl_AliasDef9_dispatchER14omniCallHandle @6165
    _ZTv0_n28_N5CORBA14_impl_ArrayDef9_dispatchER14omniCallHandle @6166
    _ZTv0_n28_N5CORBA14_impl_FixedDef9_dispatchER14omniCallHandle @6167
    _ZTv0_n28_N5CORBA14_impl_UnionDef9_dispatchER14omniCallHandle @6168
    _ZTv0_n28_N5CORBA14_impl_ValueDef9_dispatchER14omniCallHandle @6169
    _ZTv0_n28_N5CORBA15_impl_Contained9_dispatchER14omniCallHandle @6170
    _ZTv0_n28_N5CORBA15_impl_Container9_dispatchER14omniCallHandle @6171
    _ZTv0_n28_N5CORBA15_impl_ModuleDef9_dispatchER14omniCallHandle @6172
    _ZTv0_n28_N5CORBA15_impl_NativeDef9_dispatchER14omniCallHandle @6173
    _ZTv0_n28_N5CORBA15_impl_StringDef9_dispatchER14omniCallHandle @6174
    _ZTv0_n28_N5CORBA15_impl_StructDef9_dispatchER14omniCallHandle @6175
    _ZTv0_n28_N5CORBA15_objref_EnumDef12_ptrToObjRefEPKc @6176
    _ZTv0_n28_N5CORBA15_objref_IDLType12_ptrToObjRefEPKc @6177
    _ZTv0_n28_N5CORBA16_impl_Repository9_dispatchER14omniCallHandle @6178
    _ZTv0_n28_N5CORBA16_impl_TypedefDef9_dispatchER14omniCallHandle @6179
    _ZTv0_n28_N5CORBA16_impl_WstringDef9_dispatchER14omniCallHandle @6180
    _ZTv0_n28_N5CORBA16_objref_AliasDef12_ptrToObjRefEPKc @6181
    _ZTv0_n28_N5CORBA16_objref_ArrayDef12_ptrToObjRefEPKc @6182
    _ZTv0_n28_N5CORBA16_objref_FixedDef12_ptrToObjRefEPKc @6183
    _ZTv0_n28_N5CORBA16_objref_IRObject12_ptrToObjRefEPKc @6184
    _ZTv0_n28_N5CORBA16_objref_UnionDef12_ptrToObjRefEPKc @6185
    _ZTv0_n28_N5CORBA16_objref_ValueDef12_ptrToObjRefEPKc @6186
    _ZTv0_n28_N5CORBA17_impl_ConstantDef9_dispatchER14omniCallHandle @6187
    _ZTv0_n28_N5CORBA17_impl_SequenceDef9_dispatchER14omniCallHandle @6188
    _ZTv0_n28_N5CORBA17_impl_ValueBoxDef9_dispatchER14omniCallHandle @6189
    _ZTv0_n28_N5CORBA17_objref_Contained12_ptrToObjRefEPKc @6190
    _ZTv0_n28_N5CORBA17_objref_Container12_ptrToObjRefEPKc @6191
    _ZTv0_n28_N5CORBA17_objref_ModuleDef12_ptrToObjRefEPKc @6192
    _ZTv0_n28_N5CORBA17_objref_NativeDef12_ptrToObjRefEPKc @6193
    _ZTv0_n28_N5CORBA17_objref_StringDef12_ptrToObjRefEPKc @6194
    _ZTv0_n28_N5CORBA17_objref_StructDef12_ptrToObjRefEPKc @6195
    _ZTv0_n28_N5CORBA18_impl_AttributeDef9_dispatchER14omniCallHandle @6196
    _ZTv0_n28_N5CORBA18_impl_ExceptionDef9_dispatchER14omniCallHandle @6197
    _ZTv0_n28_N5CORBA18_impl_InterfaceDef9_dispatchER14omniCallHandle @6198
    _ZTv0_n28_N5CORBA18_impl_OperationDef9_dispatchER14omniCallHandle @6199
    _ZTv0_n28_N5CORBA18_impl_PrimitiveDef9_dispatchER14omniCallHandle @6200
    _ZTv0_n28_N5CORBA18_objref_Repository12_ptrToObjRefEPKc @6201
    _ZTv0_n28_N5CORBA18_objref_TypedefDef12_ptrToObjRefEPKc @6202
    _ZTv0_n28_N5CORBA18_objref_WstringDef12_ptrToObjRefEPKc @6203
    _ZTv0_n28_N5CORBA19_objref_ConstantDef12_ptrToObjRefEPKc @6204
    _ZTv0_n28_N5CORBA19_objref_SequenceDef12_ptrToObjRefEPKc @6205
    _ZTv0_n28_N5CORBA19_objref_ValueBoxDef12_ptrToObjRefEPKc @6206
    _ZTv0_n28_N5CORBA20_impl_ValueMemberDef9_dispatchER14omniCallHandle @6207
    _ZTv0_n28_N5CORBA20_objref_AttributeDef12_ptrToObjRefEPKc @6208
    _ZTv0_n28_N5CORBA20_objref_ExceptionDef12_ptrToObjRefEPKc @6209
    _ZTv0_n28_N5CORBA20_objref_InterfaceDef12_ptrToObjRefEPKc @6210
    _ZTv0_n28_N5CORBA20_objref_OperationDef12_ptrToObjRefEPKc @6211
    _ZTv0_n28_N5CORBA20_objref_PrimitiveDef12_ptrToObjRefEPKc @6212
    _ZTv0_n28_N5CORBA22_objref_ValueMemberDef12_ptrToObjRefEPKc @6213
    _ZTv0_n28_N5CORBA26_impl_AbstractInterfaceDef9_dispatchER14omniCallHandle @6214
    _ZTv0_n28_N5CORBA28_objref_AbstractInterfaceDef12_ptrToObjRefEPKc @6215
    _ZTv0_n28_NK4omni12UnknownValue16_NP_repositoryIdEv @6216
    _ZTv0_n28_NK5CORBA11StringValue16_NP_repositoryIdEv @6217
    _ZTv0_n28_NK5CORBA12WStringValue16_NP_repositoryIdEv @6218
    _ZTv0_n292_N4omni10DynAnyImpl13get_short_seqEv @6219
    _ZTv0_n292_N4omni12DynUnionImpl13get_short_seqEv @6220
    _ZTv0_n292_N4omni13omniNilDynAny13get_short_seqEv @6221
    _ZTv0_n292_N4omni16DynAnyConstrBase13get_short_seqEv @6222
    _ZTv0_n296_N4omni10DynAnyImpl14get_ushort_seqEv @6223
    _ZTv0_n296_N4omni12DynUnionImpl14get_ushort_seqEv @6224
    _ZTv0_n296_N4omni13omniNilDynAny14get_ushort_seqEv @6225
    _ZTv0_n296_N4omni16DynAnyConstrBase14get_ushort_seqEv @6226
    _ZTv0_n300_N4omni10DynAnyImpl12get_long_seqEv @6227
    _ZTv0_n300_N4omni12DynUnionImpl12get_long_seqEv @6228
    _ZTv0_n300_N4omni13omniNilDynAny12get_long_seqEv @6229
    _ZTv0_n300_N4omni16DynAnyConstrBase12get_long_seqEv @6230
    _ZTv0_n304_N4omni10DynAnyImpl13get_ulong_seqEv @6231
    _ZTv0_n304_N4omni12DynUnionImpl13get_ulong_seqEv @6232
    _ZTv0_n304_N4omni13omniNilDynAny13get_ulong_seqEv @6233
    _ZTv0_n304_N4omni16DynAnyConstrBase13get_ulong_seqEv @6234
    _ZTv0_n308_N4omni10DynAnyImpl13get_float_seqEv @6235
    _ZTv0_n308_N4omni12DynUnionImpl13get_float_seqEv @6236
    _ZTv0_n308_N4omni13omniNilDynAny13get_float_seqEv @6237
    _ZTv0_n308_N4omni16DynAnyConstrBase13get_float_seqEv @6238
    _ZTv0_n312_N4omni10DynAnyImpl14get_double_seqEv @6239
    _ZTv0_n312_N4omni12DynUnionImpl14get_double_seqEv @6240
    _ZTv0_n312_N4omni13omniNilDynAny14get_double_seqEv @6241
    _ZTv0_n312_N4omni16DynAnyConstrBase14get_double_seqEv @6242
    _ZTv0_n316_N4omni10DynAnyImpl16get_longlong_seqEv @6243
    _ZTv0_n316_N4omni12DynUnionImpl16get_longlong_seqEv @6244
    _ZTv0_n316_N4omni13omniNilDynAny16get_longlong_seqEv @6245
    _ZTv0_n316_N4omni16DynAnyConstrBase16get_longlong_seqEv @6246
    _ZTv0_n320_N4omni10DynAnyImpl17get_ulonglong_seqEv @6247
    _ZTv0_n320_N4omni12DynUnionImpl17get_ulonglong_seqEv @6248
    _ZTv0_n320_N4omni13omniNilDynAny17get_ulonglong_seqEv @6249
    _ZTv0_n320_N4omni16DynAnyConstrBase17get_ulonglong_seqEv @6250
    _ZTv0_n324_N4omni10DynAnyImpl18get_longdouble_seqEv @6251
    _ZTv0_n324_N4omni12DynUnionImpl18get_longdouble_seqEv @6252
    _ZTv0_n324_N4omni13omniNilDynAny18get_longdouble_seqEv @6253
    _ZTv0_n324_N4omni16DynAnyConstrBase18get_longdouble_seqEv @6254
    _ZTv0_n328_N4omni10DynAnyImpl13get_wchar_seqEv @6255
    _ZTv0_n328_N4omni12DynUnionImpl13get_wchar_seqEv @6256
    _ZTv0_n328_N4omni13omniNilDynAny13get_wchar_seqEv @6257
    _ZTv0_n328_N4omni16DynAnyConstrBase13get_wchar_seqEv @6258
    _ZTv0_n32_N14PortableServer17ValueRefCountBase11_remove_refEv @6259
    _ZTv0_n32_N4omni12DynValueImpl12_ptrToObjRefEPKc @6260
    _ZTv0_n32_N4omni15DynValueBoxImpl12_ptrToObjRefEPKc @6261
    _ZTv0_n32_N4omni15omniNilDynValue12_ptrToObjRefEPKc @6262
    _ZTv0_n32_N4omni18omniNilDynValueBox12_ptrToObjRefEPKc @6263
    _ZTv0_n32_N4omni20omniNilDynAnyFactory14create_dyn_anyERKN5CORBA3AnyE @6264
    _ZTv0_n32_N5CORBA13_impl_EnumDef15_ptrToInterfaceEPKc @6265
    _ZTv0_n32_N5CORBA13_impl_IDLType15_ptrToInterfaceEPKc @6266
    _ZTv0_n32_N5CORBA14_impl_AliasDef15_ptrToInterfaceEPKc @6267
    _ZTv0_n32_N5CORBA14_impl_ArrayDef15_ptrToInterfaceEPKc @6268
    _ZTv0_n32_N5CORBA14_impl_FixedDef15_ptrToInterfaceEPKc @6269
    _ZTv0_n32_N5CORBA14_impl_UnionDef15_ptrToInterfaceEPKc @6270
    _ZTv0_n32_N5CORBA14_impl_ValueDef15_ptrToInterfaceEPKc @6271
    _ZTv0_n32_N5CORBA15_impl_Contained15_ptrToInterfaceEPKc @6272
    _ZTv0_n32_N5CORBA15_impl_Container15_ptrToInterfaceEPKc @6273
    _ZTv0_n32_N5CORBA15_impl_ModuleDef15_ptrToInterfaceEPKc @6274
    _ZTv0_n32_N5CORBA15_impl_NativeDef15_ptrToInterfaceEPKc @6275
    _ZTv0_n32_N5CORBA15_impl_StringDef15_ptrToInterfaceEPKc @6276
    _ZTv0_n32_N5CORBA15_impl_StructDef15_ptrToInterfaceEPKc @6277
    _ZTv0_n32_N5CORBA16_impl_Repository15_ptrToInterfaceEPKc @6278
    _ZTv0_n32_N5CORBA16_impl_TypedefDef15_ptrToInterfaceEPKc @6279
    _ZTv0_n32_N5CORBA16_impl_WstringDef15_ptrToInterfaceEPKc @6280
    _ZTv0_n32_N5CORBA17_impl_ConstantDef15_ptrToInterfaceEPKc @6281
    _ZTv0_n32_N5CORBA17_impl_SequenceDef15_ptrToInterfaceEPKc @6282
    _ZTv0_n32_N5CORBA17_impl_ValueBoxDef15_ptrToInterfaceEPKc @6283
    _ZTv0_n32_N5CORBA18_impl_AttributeDef15_ptrToInterfaceEPKc @6284
    _ZTv0_n32_N5CORBA18_impl_ExceptionDef15_ptrToInterfaceEPKc @6285
    _ZTv0_n32_N5CORBA18_impl_InterfaceDef15_ptrToInterfaceEPKc @6286
    _ZTv0_n32_N5CORBA18_impl_OperationDef15_ptrToInterfaceEPKc @6287
    _ZTv0_n32_N5CORBA18_impl_PrimitiveDef15_ptrToInterfaceEPKc @6288
    _ZTv0_n32_N5CORBA20_impl_ValueMemberDef15_ptrToInterfaceEPKc @6289
    _ZTv0_n32_N5CORBA26_impl_AbstractInterfaceDef15_ptrToInterfaceEPKc @6290
    _ZTv0_n32_NK4omni12UnknownValue16_NP_repositoryIdERm @6291
    _ZTv0_n32_NK4omni13omniNilDynAny4typeEv @6292
    _ZTv0_n32_NK4omni14DynAnyImplBase4typeEv @6293
    _ZTv0_n32_NK5CORBA11StringValue16_NP_repositoryIdERm @6294
    _ZTv0_n32_NK5CORBA12WStringValue16_NP_repositoryIdERm @6295
    _ZTv0_n332_N4omni10DynAnyImpl4seekEl @6296
    _ZTv0_n332_N4omni12DynUnionImpl4seekEl @6297
    _ZTv0_n332_N4omni13omniNilDynAny4seekEl @6298
    _ZTv0_n332_N4omni16DynAnyConstrBase4seekEl @6299
    _ZTv0_n336_N4omni10DynAnyImpl6rewindEv @6300
    _ZTv0_n336_N4omni12DynUnionImpl6rewindEv @6301
    _ZTv0_n336_N4omni13omniNilDynAny6rewindEv @6302
    _ZTv0_n336_N4omni16DynAnyConstrBase6rewindEv @6303
    _ZTv0_n340_N4omni10DynAnyImpl4nextEv @6304
    _ZTv0_n340_N4omni12DynUnionImpl4nextEv @6305
    _ZTv0_n340_N4omni13omniNilDynAny4nextEv @6306
    _ZTv0_n340_N4omni16DynAnyConstrBase4nextEv @6307
    _ZTv0_n344_N4omni10DynAnyImpl15component_countEv @6308
    _ZTv0_n344_N4omni12DynUnionImpl15component_countEv @6309
    _ZTv0_n344_N4omni13omniNilDynAny15component_countEv @6310
    _ZTv0_n344_N4omni16DynAnyConstrBase15component_countEv @6311
    _ZTv0_n348_N4omni10DynAnyImpl17current_componentEv @6312
    _ZTv0_n348_N4omni12DynUnionImpl17current_componentEv @6313
    _ZTv0_n348_N4omni13omniNilDynAny17current_componentEv @6314
    _ZTv0_n348_N4omni16DynAnyConstrBase17current_componentEv @6315
    _ZTv0_n352_NK4omni10DynAnyImpl11NP_nodetypeEv @6316
    _ZTv0_n352_NK4omni11DynEnumImpl11NP_nodetypeEv @6317
    _ZTv0_n352_NK4omni12DynArrayImpl11NP_nodetypeEv @6318
    _ZTv0_n352_NK4omni12DynFixedImpl11NP_nodetypeEv @6319
    _ZTv0_n352_NK4omni12DynUnionDisc11NP_nodetypeEv @6320
    _ZTv0_n352_NK4omni12DynUnionImpl11NP_nodetypeEv @6321
    _ZTv0_n352_NK4omni12DynValueImpl11NP_nodetypeEv @6322
    _ZTv0_n352_NK4omni13DynStructImpl11NP_nodetypeEv @6323
    _ZTv0_n352_NK4omni13omniNilDynAny11NP_nodetypeEv @6324
    _ZTv0_n352_NK4omni15DynSequenceImpl11NP_nodetypeEv @6325
    _ZTv0_n352_NK4omni15DynValueBoxImpl11NP_nodetypeEv @6326
    _ZTv0_n352_NK4omni16DynUnionEnumDisc11NP_nodetypeEv @6327
    _ZTv0_n36_N14PortableServer17ValueRefCountBase15_refcount_valueEv @6328
    _ZTv0_n36_N14PortableServer21DynamicImplementation17_do_get_interfaceEv @6329
    _ZTv0_n36_N4omni10DynAnyImpl6assignEPN10DynamicAny6DynAnyE @6330
    _ZTv0_n36_N4omni12DynUnionDisc6assignEPN10DynamicAny6DynAnyE @6331
    _ZTv0_n36_N4omni12DynUnionImpl6assignEPN10DynamicAny6DynAnyE @6332
    _ZTv0_n36_N4omni13omniNilDynAny6assignEPN10DynamicAny6DynAnyE @6333
    _ZTv0_n36_N4omni16DynAnyConstrBase6assignEPN10DynamicAny6DynAnyE @6334
    _ZTv0_n36_N4omni20omniNilDynAnyFactory29create_dyn_any_from_type_codeEPN5CORBA8TypeCodeE @6335
    _ZTv0_n36_N5CORBA13_impl_EnumDef18_mostDerivedRepoIdEv @6336
    _ZTv0_n36_N5CORBA13_impl_IDLType18_mostDerivedRepoIdEv @6337
    _ZTv0_n36_N5CORBA14_impl_AliasDef18_mostDerivedRepoIdEv @6338
    _ZTv0_n36_N5CORBA14_impl_ArrayDef18_mostDerivedRepoIdEv @6339
    _ZTv0_n36_N5CORBA14_impl_FixedDef18_mostDerivedRepoIdEv @6340
    _ZTv0_n36_N5CORBA14_impl_UnionDef18_mostDerivedRepoIdEv @6341
    _ZTv0_n36_N5CORBA14_impl_ValueDef18_mostDerivedRepoIdEv @6342
    _ZTv0_n36_N5CORBA15_impl_Contained18_mostDerivedRepoIdEv @6343
    _ZTv0_n36_N5CORBA15_impl_Container18_mostDerivedRepoIdEv @6344
    _ZTv0_n36_N5CORBA15_impl_ModuleDef18_mostDerivedRepoIdEv @6345
    _ZTv0_n36_N5CORBA15_impl_NativeDef18_mostDerivedRepoIdEv @6346
    _ZTv0_n36_N5CORBA15_impl_StringDef18_mostDerivedRepoIdEv @6347
    _ZTv0_n36_N5CORBA15_impl_StructDef18_mostDerivedRepoIdEv @6348
    _ZTv0_n36_N5CORBA16_impl_Repository18_mostDerivedRepoIdEv @6349
    _ZTv0_n36_N5CORBA16_impl_TypedefDef18_mostDerivedRepoIdEv @6350
    _ZTv0_n36_N5CORBA16_impl_WstringDef18_mostDerivedRepoIdEv @6351
    _ZTv0_n36_N5CORBA17_impl_ConstantDef18_mostDerivedRepoIdEv @6352
    _ZTv0_n36_N5CORBA17_impl_SequenceDef18_mostDerivedRepoIdEv @6353
    _ZTv0_n36_N5CORBA17_impl_ValueBoxDef18_mostDerivedRepoIdEv @6354
    _ZTv0_n36_N5CORBA18_impl_AttributeDef18_mostDerivedRepoIdEv @6355
    _ZTv0_n36_N5CORBA18_impl_ExceptionDef18_mostDerivedRepoIdEv @6356
    _ZTv0_n36_N5CORBA18_impl_InterfaceDef18_mostDerivedRepoIdEv @6357
    _ZTv0_n36_N5CORBA18_impl_OperationDef18_mostDerivedRepoIdEv @6358
    _ZTv0_n36_N5CORBA18_impl_PrimitiveDef18_mostDerivedRepoIdEv @6359
    _ZTv0_n36_N5CORBA20_impl_ValueMemberDef18_mostDerivedRepoIdEv @6360
    _ZTv0_n36_N5CORBA26_impl_AbstractInterfaceDef18_mostDerivedRepoIdEv @6361
    _ZTv0_n36_NK4omni12UnknownValue18_NP_truncatableIdsEv @6362
    _ZTv0_n36_NK5CORBA11StringValue18_NP_truncatableIdsEv @6363
    _ZTv0_n36_NK5CORBA12WStringValue18_NP_truncatableIdsEv @6364
    _ZTv0_n40_N14PortableServer21DynamicImplementation17_do_get_interfaceEv @6365
    _ZTv0_n40_N14PortableServer21DynamicImplementation9_dispatchER14omniCallHandle @6366
    _ZTv0_n40_N4omni13omniNilDynAny8from_anyERKN5CORBA3AnyE @6367
    _ZTv0_n40_N4omni14DynAnyImplBase8from_anyERKN5CORBA3AnyE @6368
    _ZTv0_n40_N5CORBA13_impl_EnumDef9_dispatchER14omniCallHandle @6369
    _ZTv0_n40_N5CORBA13_impl_IDLType9_dispatchER14omniCallHandle @6370
    _ZTv0_n40_N5CORBA14_impl_AliasDef9_dispatchER14omniCallHandle @6371
    _ZTv0_n40_N5CORBA14_impl_ArrayDef9_dispatchER14omniCallHandle @6372
    _ZTv0_n40_N5CORBA14_impl_FixedDef9_dispatchER14omniCallHandle @6373
    _ZTv0_n40_N5CORBA14_impl_IRObject9_dispatchER14omniCallHandle @6374
    _ZTv0_n40_N5CORBA14_impl_UnionDef9_dispatchER14omniCallHandle @6375
    _ZTv0_n40_N5CORBA14_impl_ValueDef9_dispatchER14omniCallHandle @6376
    _ZTv0_n40_N5CORBA15_impl_Contained9_dispatchER14omniCallHandle @6377
    _ZTv0_n40_N5CORBA15_impl_Container9_dispatchER14omniCallHandle @6378
    _ZTv0_n40_N5CORBA15_impl_ModuleDef9_dispatchER14omniCallHandle @6379
    _ZTv0_n40_N5CORBA15_impl_NativeDef9_dispatchER14omniCallHandle @6380
    _ZTv0_n40_N5CORBA15_impl_StringDef9_dispatchER14omniCallHandle @6381
    _ZTv0_n40_N5CORBA15_impl_StructDef9_dispatchER14omniCallHandle @6382
    _ZTv0_n40_N5CORBA16_impl_Repository9_dispatchER14omniCallHandle @6383
    _ZTv0_n40_N5CORBA16_impl_TypedefDef9_dispatchER14omniCallHandle @6384
    _ZTv0_n40_N5CORBA16_impl_WstringDef9_dispatchER14omniCallHandle @6385
    _ZTv0_n40_N5CORBA17_impl_ConstantDef9_dispatchER14omniCallHandle @6386
    _ZTv0_n40_N5CORBA17_impl_SequenceDef9_dispatchER14omniCallHandle @6387
    _ZTv0_n40_N5CORBA17_impl_ValueBoxDef9_dispatchER14omniCallHandle @6388
    _ZTv0_n40_N5CORBA18_impl_AttributeDef9_dispatchER14omniCallHandle @6389
    _ZTv0_n40_N5CORBA18_impl_ExceptionDef9_dispatchER14omniCallHandle @6390
    _ZTv0_n40_N5CORBA18_impl_InterfaceDef9_dispatchER14omniCallHandle @6391
    _ZTv0_n40_N5CORBA18_impl_OperationDef9_dispatchER14omniCallHandle @6392
    _ZTv0_n40_N5CORBA18_impl_PrimitiveDef9_dispatchER14omniCallHandle @6393
    _ZTv0_n40_N5CORBA20_impl_ValueMemberDef9_dispatchER14omniCallHandle @6394
    _ZTv0_n40_N5CORBA26_impl_AbstractInterfaceDef9_dispatchER14omniCallHandle @6395
    _ZTv0_n40_NK4omni12UnknownValue10_NP_customEv @6396
    _ZTv0_n40_NK5CORBA11StringValue10_NP_customEv @6397
    _ZTv0_n40_NK5CORBA12WStringValue10_NP_customEv @6398
    _ZTv0_n44_N14PortableServer17ValueRefCountBase8_add_refEv @6399
    _ZTv0_n44_N4omni13omniNilDynAny6to_anyEv @6400
    _ZTv0_n44_N4omni14DynAnyImplBase6to_anyEv @6401
    _ZTv0_n44_NK5CORBA11StringValue7_NP_boxEv @6402
    _ZTv0_n44_NK5CORBA12WStringValue7_NP_boxEv @6403
    _ZTv0_n48_N14PortableServer17ValueRefCountBase11_remove_refEv @6404
    _ZTv0_n48_N4omni10DynAnyImpl5equalEPN10DynamicAny6DynAnyE @6405
    _ZTv0_n48_N4omni12DynUnionImpl5equalEPN10DynamicAny6DynAnyE @6406
    _ZTv0_n48_N4omni12UnknownValue11_ptrToValueEPKc @6407
    _ZTv0_n48_N4omni13omniNilDynAny5equalEPN10DynamicAny6DynAnyE @6408
    _ZTv0_n48_N4omni16DynAnyConstrBase5equalEPN10DynamicAny6DynAnyE @6409
    _ZTv0_n48_N5CORBA11StringValue11_ptrToValueEPKc @6410
    _ZTv0_n48_N5CORBA12WStringValue11_ptrToValueEPKc @6411
    _ZTv0_n52_N4omni13omniNilDynAny7destroyEv @6412
    _ZTv0_n52_N4omni14DynAnyImplBase7destroyEv @6413
    _ZTv0_n52_NK4omni12UnknownValue17_PR_marshal_stateER9cdrStream @6414
    _ZTv0_n52_NK5CORBA11StringValue17_PR_marshal_stateER9cdrStream @6415
    _ZTv0_n52_NK5CORBA12WStringValue17_PR_marshal_stateER9cdrStream @6416
    _ZTv0_n56_N4omni10DynAnyImpl4copyEv @6417
    _ZTv0_n56_N4omni11DynEnumImpl4copyEv @6418
    _ZTv0_n56_N4omni12DynArrayImpl4copyEv @6419
    _ZTv0_n56_N4omni12DynFixedImpl4copyEv @6420
    _ZTv0_n56_N4omni12DynUnionImpl4copyEv @6421
    _ZTv0_n56_N4omni12DynValueImpl4copyEv @6422
    _ZTv0_n56_N4omni12UnknownValue19_PR_unmarshal_stateER9cdrStream @6423
    _ZTv0_n56_N4omni13DynStructImpl4copyEv @6424
    _ZTv0_n56_N4omni13omniNilDynAny4copyEv @6425
    _ZTv0_n56_N4omni15DynSequenceImpl4copyEv @6426
    _ZTv0_n56_N4omni15DynValueBoxImpl4copyEv @6427
    _ZTv0_n56_N4omni16DynUnionEnumDisc4copyEv @6428
    _ZTv0_n56_N5CORBA11StringValue19_PR_unmarshal_stateER9cdrStream @6429
    _ZTv0_n56_N5CORBA12WStringValue19_PR_unmarshal_stateER9cdrStream @6430
    _ZTv0_n60_N14PortableServer17ValueRefCountBaseD0Ev @6431
    _ZTv0_n60_N14PortableServer17ValueRefCountBaseD1Ev @6432
    _ZTv0_n60_N4omni10DynAnyImpl14insert_booleanEb @6433
    _ZTv0_n60_N4omni12DynUnionDisc14insert_booleanEb @6434
    _ZTv0_n60_N4omni12DynUnionImpl14insert_booleanEb @6435
    _ZTv0_n60_N4omni12UnknownValueD0Ev @6436
    _ZTv0_n60_N4omni12UnknownValueD1Ev @6437
    _ZTv0_n60_N4omni13omniNilDynAny14insert_booleanEb @6438
    _ZTv0_n60_N4omni16DynAnyConstrBase14insert_booleanEb @6439
    _ZTv0_n60_N5CORBA11StringValueD0Ev @6440
    _ZTv0_n60_N5CORBA11StringValueD1Ev @6441
    _ZTv0_n60_N5CORBA12WStringValueD0Ev @6442
    _ZTv0_n60_N5CORBA12WStringValueD1Ev @6443
    _ZTv0_n60_N5CORBA24DefaultValueRefCountBaseD0Ev @6444
    _ZTv0_n60_N5CORBA24DefaultValueRefCountBaseD1Ev @6445
    _ZTv0_n64_N4omni10DynAnyImpl12insert_octetEh @6446
    _ZTv0_n64_N4omni12DynUnionDisc12insert_octetEh @6447
    _ZTv0_n64_N4omni12DynUnionImpl12insert_octetEh @6448
    _ZTv0_n64_N4omni13omniNilDynAny12insert_octetEh @6449
    _ZTv0_n64_N4omni16DynAnyConstrBase12insert_octetEh @6450
    _ZTv0_n68_N4omni10DynAnyImpl11insert_charEh @6451
    _ZTv0_n68_N4omni12DynUnionDisc11insert_charEh @6452
    _ZTv0_n68_N4omni12DynUnionImpl11insert_charEh @6453
    _ZTv0_n68_N4omni13omniNilDynAny11insert_charEh @6454
    _ZTv0_n68_N4omni16DynAnyConstrBase11insert_charEh @6455
    _ZTv0_n72_N4omni10DynAnyImpl12insert_shortEs @6456
    _ZTv0_n72_N4omni12DynUnionDisc12insert_shortEs @6457
    _ZTv0_n72_N4omni12DynUnionImpl12insert_shortEs @6458
    _ZTv0_n72_N4omni13omniNilDynAny12insert_shortEs @6459
    _ZTv0_n72_N4omni16DynAnyConstrBase12insert_shortEs @6460
    _ZTv0_n76_N4omni10DynAnyImpl13insert_ushortEt @6461
    _ZTv0_n76_N4omni12DynUnionDisc13insert_ushortEt @6462
    _ZTv0_n76_N4omni12DynUnionImpl13insert_ushortEt @6463
    _ZTv0_n76_N4omni13omniNilDynAny13insert_ushortEt @6464
    _ZTv0_n76_N4omni16DynAnyConstrBase13insert_ushortEt @6465
    _ZTv0_n80_N4omni10DynAnyImpl11insert_longEl @6466
    _ZTv0_n80_N4omni12DynUnionDisc11insert_longEl @6467
    _ZTv0_n80_N4omni12DynUnionImpl11insert_longEl @6468
    _ZTv0_n80_N4omni13omniNilDynAny11insert_longEl @6469
    _ZTv0_n80_N4omni16DynAnyConstrBase11insert_longEl @6470
    _ZTv0_n84_N4omni10DynAnyImpl12insert_ulongEm @6471
    _ZTv0_n84_N4omni12DynUnionDisc12insert_ulongEm @6472
    _ZTv0_n84_N4omni12DynUnionImpl12insert_ulongEm @6473
    _ZTv0_n84_N4omni13omniNilDynAny12insert_ulongEm @6474
    _ZTv0_n84_N4omni16DynAnyConstrBase12insert_ulongEm @6475
    _ZTv0_n88_N4omni10DynAnyImpl12insert_floatEf @6476
    _ZTv0_n88_N4omni12DynUnionDisc12insert_floatEf @6477
    _ZTv0_n88_N4omni12DynUnionImpl12insert_floatEf @6478
    _ZTv0_n88_N4omni13omniNilDynAny12insert_floatEf @6479
    _ZTv0_n88_N4omni16DynAnyConstrBase12insert_floatEf @6480
    _ZTv0_n92_N4omni10DynAnyImpl13insert_doubleEd @6481
    _ZTv0_n92_N4omni12DynUnionDisc13insert_doubleEd @6482
    _ZTv0_n92_N4omni12DynUnionImpl13insert_doubleEd @6483
    _ZTv0_n92_N4omni13omniNilDynAny13insert_doubleEd @6484
    _ZTv0_n92_N4omni16DynAnyConstrBase13insert_doubleEd @6485
    _ZTv0_n96_N4omni10DynAnyImpl13insert_stringEPKc @6486
    _ZTv0_n96_N4omni12DynUnionDisc13insert_stringEPKc @6487
    _ZTv0_n96_N4omni12DynUnionImpl13insert_stringEPKc @6488
    _ZTv0_n96_N4omni13omniNilDynAny13insert_stringEPKc @6489
    _ZTv0_n96_N4omni16DynAnyConstrBase13insert_stringEPKc @6490
    _ZlSRN5CORBA3AnyEN14PortableServer17ThreadPolicyValueE @6491
    _ZlSRN5CORBA3AnyEN14PortableServer19LifespanPolicyValueE @6492
    _ZlSRN5CORBA3AnyEN14PortableServer23IdAssignmentPolicyValueE @6493
    _ZlSRN5CORBA3AnyEN14PortableServer23IdUniquenessPolicyValueE @6494
    _ZlSRN5CORBA3AnyEN14PortableServer27ServantRetentionPolicyValueE @6495
    _ZlSRN5CORBA3AnyEN14PortableServer28RequestProcessingPolicyValueE @6496
    _ZlSRN5CORBA3AnyEN14PortableServer29ImplicitActivationPolicyValueE @6497
    _ZlSRN5CORBA3AnyEN9CosNaming11BindingTypeE @6498
    _ZlSRN5CORBA3AnyEN9CosNaming13NamingContext14NotFoundReasonE @6499
    _ZlSRN5CORBA3AnyENS_13AttributeModeE @6500
    _ZlSRN5CORBA3AnyENS_13OperationModeE @6501
    _ZlSRN5CORBA3AnyENS_13ParameterModeE @6502
    _ZlSRN5CORBA3AnyENS_13PrimitiveKindE @6503
    _ZlSRN5CORBA3AnyENS_14DefinitionKindE @6504
    _ZlSRN5CORBA3AnyEP31_objref_CORBA_InitialReferences @6505
    _ZlSRN5CORBA3AnyEPKN10DynamicAny13DynAnyFactory20InconsistentTypeCodeE @6506
    _ZlSRN5CORBA3AnyEPKN10DynamicAny6DynAny12InvalidValueE @6507
    _ZlSRN5CORBA3AnyEPKN10DynamicAny6DynAny12TypeMismatchE @6508
    _ZlSRN5CORBA3AnyEPKN14PortableServer10POAManager15AdapterInactiveE @6509
    _ZlSRN5CORBA3AnyEPKN14PortableServer14ForwardRequestE @6510
    _ZlSRN5CORBA3AnyEPKN14PortableServer3POA11WrongPolicyE @6511
    _ZlSRN5CORBA3AnyEPKN14PortableServer3POA12WrongAdapterE @6512
    _ZlSRN5CORBA3AnyEPKN14PortableServer3POA13InvalidPolicyE @6513
    _ZlSRN5CORBA3AnyEPKN14PortableServer3POA15ObjectNotActiveE @6514
    _ZlSRN5CORBA3AnyEPKN14PortableServer3POA16ServantNotActiveE @6515
    _ZlSRN5CORBA3AnyEPKN14PortableServer3POA18AdapterNonExistentE @6516
    _ZlSRN5CORBA3AnyEPKN14PortableServer3POA19ObjectAlreadyActiveE @6517
    _ZlSRN5CORBA3AnyEPKN14PortableServer3POA20AdapterAlreadyExistsE @6518
    _ZlSRN5CORBA3AnyEPKN14PortableServer3POA20ServantAlreadyActiveE @6519
    _ZlSRN5CORBA3AnyEPKN14PortableServer3POA9NoServantE @6520
    _ZlSRN5CORBA3AnyEPKN9CosNaming13NamingContext11InvalidNameE @6521
    _ZlSRN5CORBA3AnyEPKN9CosNaming13NamingContext12AlreadyBoundE @6522
    _ZlSRN5CORBA3AnyEPKN9CosNaming13NamingContext13CannotProceedE @6523
    _ZlSRN5CORBA3AnyEPKN9CosNaming13NamingContext8NotEmptyE @6524
    _ZlSRN5CORBA3AnyEPKN9CosNaming13NamingContext8NotFoundE @6525
    _ZlSRN5CORBA3AnyEPKN9CosNaming16NamingContextExt14InvalidAddressE @6526
    _ZlSRN5CORBA3AnyEPKNS_10INITIALIZEE @6527
    _ZlSRN5CORBA3AnyEPKNS_10INTF_REPOSE @6528
    _ZlSRN5CORBA3AnyEPKNS_10INV_OBJREFE @6529
    _ZlSRN5CORBA3AnyEPKNS_10INV_POLICYE @6530
    _ZlSRN5CORBA3AnyEPKNS_11BAD_CONTEXTE @6531
    _ZlSRN5CORBA3AnyEPKNS_11ContextList6BoundsE @6532
    _ZlSRN5CORBA3AnyEPKNS_11NO_RESPONSEE @6533
    _ZlSRN5CORBA3AnyEPKNS_11OBJ_ADAPTERE @6534
    _ZlSRN5CORBA3AnyEPKNS_11PolicyErrorE @6535
    _ZlSRN5CORBA3AnyEPKNS_12BAD_TYPECODEE @6536
    _ZlSRN5CORBA3AnyEPKNS_12COMM_FAILUREE @6537
    _ZlSRN5CORBA3AnyEPKNS_12NO_IMPLEMENTE @6538
    _ZlSRN5CORBA3AnyEPKNS_12NO_RESOURCESE @6539
    _ZlSRN5CORBA3AnyEPKNS_13BAD_INV_ORDERE @6540
    _ZlSRN5CORBA3AnyEPKNS_13BAD_OPERATIONE @6541
    _ZlSRN5CORBA3AnyEPKNS_13ExceptionList6BoundsE @6542
    _ZlSRN5CORBA3AnyEPKNS_13NO_PERMISSIONE @6543
    _ZlSRN5CORBA3AnyEPKNS_13PERSIST_STOREE @6544
    _ZlSRN5CORBA3AnyEPKNS_15DATA_CONVERSIONE @6545
    _ZlSRN5CORBA3AnyEPKNS_16OBJECT_NOT_EXISTE @6546
    _ZlSRN5CORBA3AnyEPKNS_16TRANSACTION_MODEE @6547
    _ZlSRN5CORBA3AnyEPKNS_16WrongTransactionE @6548
    _ZlSRN5CORBA3AnyEPKNS_19INVALID_TRANSACTIONE @6549
    _ZlSRN5CORBA3AnyEPKNS_20CODESET_INCOMPATIBLEE @6550
    _ZlSRN5CORBA3AnyEPKNS_20TRANSACTION_REQUIREDE @6551
    _ZlSRN5CORBA3AnyEPKNS_20UnknownUserExceptionE @6552
    _ZlSRN5CORBA3AnyEPKNS_22TRANSACTION_ROLLEDBACKE @6553
    _ZlSRN5CORBA3AnyEPKNS_23TRANSACTION_UNAVAILABLEE @6554
    _ZlSRN5CORBA3AnyEPKNS_3ORB11InvalidNameE @6555
    _ZlSRN5CORBA3AnyEPKNS_3ORB20InconsistentTypeCodeE @6556
    _ZlSRN5CORBA3AnyEPKNS_6NVList6BoundsE @6557
    _ZlSRN5CORBA3AnyEPKNS_6REBINDE @6558
    _ZlSRN5CORBA3AnyEPKNS_7BAD_QOSE @6559
    _ZlSRN5CORBA3AnyEPKNS_7MARSHALE @6560
    _ZlSRN5CORBA3AnyEPKNS_7TIMEOUTE @6561
    _ZlSRN5CORBA3AnyEPKNS_7UNKNOWNE @6562
    _ZlSRN5CORBA3AnyEPKNS_8FREE_MEME @6563
    _ZlSRN5CORBA3AnyEPKNS_8INTERNALE @6564
    _ZlSRN5CORBA3AnyEPKNS_8INV_FLAGE @6565
    _ZlSRN5CORBA3AnyEPKNS_8TypeCode6BoundsE @6566
    _ZlSRN5CORBA3AnyEPKNS_8TypeCode7BadKindE @6567
    _ZlSRN5CORBA3AnyEPKNS_9BAD_PARAME @6568
    _ZlSRN5CORBA3AnyEPKNS_9ExceptionE @6569
    _ZlSRN5CORBA3AnyEPKNS_9IMP_LIMITE @6570
    _ZlSRN5CORBA3AnyEPKNS_9INV_IDENTE @6571
    _ZlSRN5CORBA3AnyEPKNS_9NO_MEMORYE @6572
    _ZlSRN5CORBA3AnyEPKNS_9TRANSIENTE @6573
    _ZlSRN5CORBA3AnyEPN23CORBA_InitialReferences9ObjIdListE @6574
    _ZlSRN5CORBA3AnyEPN9CosNaming11BindingListE @6575
    _ZlSRN5CORBA3AnyEPN9CosNaming13NameComponentE @6576
    _ZlSRN5CORBA3AnyEPN9CosNaming21_objref_NamingContextE @6577
    _ZlSRN5CORBA3AnyEPN9CosNaming23_objref_BindingIteratorE @6578
    _ZlSRN5CORBA3AnyEPN9CosNaming24_objref_NamingContextExtE @6579
    _ZlSRN5CORBA3AnyEPN9CosNaming4NameE @6580
    _ZlSRN5CORBA3AnyEPN9CosNaming7BindingE @6581
    _ZlSRN5CORBA3AnyEPNS_10BooleanSeqE @6582
    _ZlSRN5CORBA3AnyEPNS_10WStringSeqE @6583
    _ZlSRN5CORBA3AnyEPNS_11InitializerE @6584
    _ZlSRN5CORBA3AnyEPNS_11LongLongSeqE @6585
    _ZlSRN5CORBA3AnyEPNS_11StringValueE @6586
    _ZlSRN5CORBA3AnyEPNS_11UnionMemberE @6587
    _ZlSRN5CORBA3AnyEPNS_11ValueDefSeqE @6588
    _ZlSRN5CORBA3AnyEPNS_11ValueMemberE @6589
    _ZlSRN5CORBA3AnyEPNS_12ContainedSeqE @6590
    _ZlSRN5CORBA3AnyEPNS_12ContextIdSeqE @6591
    _ZlSRN5CORBA3AnyEPNS_12InterfaceDef24FullInterfaceDescriptionE @6592
    _ZlSRN5CORBA3AnyEPNS_12StructMemberE @6593
    _ZlSRN5CORBA3AnyEPNS_12ULongLongSeqE @6594
    _ZlSRN5CORBA3AnyEPNS_12WStringValueE @6595
    _ZlSRN5CORBA3AnyEPNS_13EnumMemberSeqE @6596
    _ZlSRN5CORBA3AnyEPNS_13LongDoubleSeqE @6597
    _ZlSRN5CORBA3AnyEPNS_14InitializerSeqE @6598
    _ZlSRN5CORBA3AnyEPNS_14UnionMemberSeqE @6599
    _ZlSRN5CORBA3AnyEPNS_14ValueMemberSeqE @6600
    _ZlSRN5CORBA3AnyEPNS_15ExceptionDefSeqE @6601
    _ZlSRN5CORBA3AnyEPNS_15InterfaceDefSeqE @6602
    _ZlSRN5CORBA3AnyEPNS_15RepositoryIdSeqE @6603
    _ZlSRN5CORBA3AnyEPNS_15StructMemberSeqE @6604
    _ZlSRN5CORBA3AnyEPNS_15TypeDescriptionE @6605
    _ZlSRN5CORBA3AnyEPNS_15_objref_EnumDefE @6606
    _ZlSRN5CORBA3AnyEPNS_15_objref_IDLTypeE @6607
    _ZlSRN5CORBA3AnyEPNS_16OpDescriptionSeqE @6608
    _ZlSRN5CORBA3AnyEPNS_16ValueDescriptionE @6609
    _ZlSRN5CORBA3AnyEPNS_16_objref_AliasDefE @6610
    _ZlSRN5CORBA3AnyEPNS_16_objref_ArrayDefE @6611
    _ZlSRN5CORBA3AnyEPNS_16_objref_FixedDefE @6612
    _ZlSRN5CORBA3AnyEPNS_16_objref_IRObjectE @6613
    _ZlSRN5CORBA3AnyEPNS_16_objref_UnionDefE @6614
    _ZlSRN5CORBA3AnyEPNS_16_objref_ValueDefE @6615
    _ZlSRN5CORBA3AnyEPNS_17ExcDescriptionSeqE @6616
    _ZlSRN5CORBA3AnyEPNS_17ModuleDescriptionE @6617
    _ZlSRN5CORBA3AnyEPNS_17ParDescriptionSeqE @6618
    _ZlSRN5CORBA3AnyEPNS_17_objref_ContainedE @6619
    _ZlSRN5CORBA3AnyEPNS_17_objref_ContainerE @6620
    _ZlSRN5CORBA3AnyEPNS_17_objref_ModuleDefE @6621
    _ZlSRN5CORBA3AnyEPNS_17_objref_NativeDefE @6622
    _ZlSRN5CORBA3AnyEPNS_17_objref_StringDefE @6623
    _ZlSRN5CORBA3AnyEPNS_17_objref_StructDefE @6624
    _ZlSRN5CORBA3AnyEPNS_18AttrDescriptionSeqE @6625
    _ZlSRN5CORBA3AnyEPNS_18_objref_RepositoryE @6626
    _ZlSRN5CORBA3AnyEPNS_18_objref_TypedefDefE @6627
    _ZlSRN5CORBA3AnyEPNS_18_objref_WstringDefE @6628
    _ZlSRN5CORBA3AnyEPNS_19ConstantDescriptionE @6629
    _ZlSRN5CORBA3AnyEPNS_19_objref_ConstantDefE @6630
    _ZlSRN5CORBA3AnyEPNS_19_objref_SequenceDefE @6631
    _ZlSRN5CORBA3AnyEPNS_19_objref_ValueBoxDefE @6632
    _ZlSRN5CORBA3AnyEPNS_20AttributeDescriptionE @6633
    _ZlSRN5CORBA3AnyEPNS_20ExceptionDescriptionE @6634
    _ZlSRN5CORBA3AnyEPNS_20InterfaceDescriptionE @6635
    _ZlSRN5CORBA3AnyEPNS_20OperationDescriptionE @6636
    _ZlSRN5CORBA3AnyEPNS_20ParameterDescriptionE @6637
    _ZlSRN5CORBA3AnyEPNS_20_objref_AttributeDefE @6638
    _ZlSRN5CORBA3AnyEPNS_20_objref_ExceptionDefE @6639
    _ZlSRN5CORBA3AnyEPNS_20_objref_InterfaceDefE @6640
    _ZlSRN5CORBA3AnyEPNS_20_objref_OperationDefE @6641
    _ZlSRN5CORBA3AnyEPNS_20_objref_PrimitiveDefE @6642
    _ZlSRN5CORBA3AnyEPNS_22_objref_ValueMemberDefE @6643
    _ZlSRN5CORBA3AnyEPNS_23AbstractInterfaceDefSeqE @6644
    _ZlSRN5CORBA3AnyEPNS_28_objref_AbstractInterfaceDefE @6645
    _ZlSRN5CORBA3AnyEPNS_6AnySeqE @6646
    _ZlSRN5CORBA3AnyEPNS_7CharSeqE @6647
    _ZlSRN5CORBA3AnyEPNS_7LongSeqE @6648
    _ZlSRN5CORBA3AnyEPNS_8FloatSeqE @6649
    _ZlSRN5CORBA3AnyEPNS_8OctetSeqE @6650
    _ZlSRN5CORBA3AnyEPNS_8ShortSeqE @6651
    _ZlSRN5CORBA3AnyEPNS_8ULongSeqE @6652
    _ZlSRN5CORBA3AnyEPNS_8ValueDef20FullValueDescriptionE @6653
    _ZlSRN5CORBA3AnyEPNS_8WCharSeqE @6654
    _ZlSRN5CORBA3AnyEPNS_9Contained11DescriptionE @6655
    _ZlSRN5CORBA3AnyEPNS_9Container11DescriptionE @6656
    _ZlSRN5CORBA3AnyEPNS_9Container14DescriptionSeqE @6657
    _ZlSRN5CORBA3AnyEPNS_9DoubleSeqE @6658
    _ZlSRN5CORBA3AnyEPNS_9StringSeqE @6659
    _ZlSRN5CORBA3AnyEPNS_9UShortSeqE @6660
    _ZlSRN5CORBA3AnyEPP31_objref_CORBA_InitialReferences @6661
    _ZlSRN5CORBA3AnyEPPN9CosNaming21_objref_NamingContextE @6662
    _ZlSRN5CORBA3AnyEPPN9CosNaming23_objref_BindingIteratorE @6663
    _ZlSRN5CORBA3AnyEPPN9CosNaming24_objref_NamingContextExtE @6664
    _ZlSRN5CORBA3AnyEPPNS_11StringValueE @6665
    _ZlSRN5CORBA3AnyEPPNS_12WStringValueE @6666
    _ZlSRN5CORBA3AnyEPPNS_15_objref_EnumDefE @6667
    _ZlSRN5CORBA3AnyEPPNS_15_objref_IDLTypeE @6668
    _ZlSRN5CORBA3AnyEPPNS_16_objref_AliasDefE @6669
    _ZlSRN5CORBA3AnyEPPNS_16_objref_ArrayDefE @6670
    _ZlSRN5CORBA3AnyEPPNS_16_objref_FixedDefE @6671
    _ZlSRN5CORBA3AnyEPPNS_16_objref_IRObjectE @6672
    _ZlSRN5CORBA3AnyEPPNS_16_objref_UnionDefE @6673
    _ZlSRN5CORBA3AnyEPPNS_16_objref_ValueDefE @6674
    _ZlSRN5CORBA3AnyEPPNS_17_objref_ContainedE @6675
    _ZlSRN5CORBA3AnyEPPNS_17_objref_ContainerE @6676
    _ZlSRN5CORBA3AnyEPPNS_17_objref_ModuleDefE @6677
    _ZlSRN5CORBA3AnyEPPNS_17_objref_NativeDefE @6678
    _ZlSRN5CORBA3AnyEPPNS_17_objref_StringDefE @6679
    _ZlSRN5CORBA3AnyEPPNS_17_objref_StructDefE @6680
    _ZlSRN5CORBA3AnyEPPNS_18_objref_RepositoryE @6681
    _ZlSRN5CORBA3AnyEPPNS_18_objref_TypedefDefE @6682
    _ZlSRN5CORBA3AnyEPPNS_18_objref_WstringDefE @6683
    _ZlSRN5CORBA3AnyEPPNS_19_objref_ConstantDefE @6684
    _ZlSRN5CORBA3AnyEPPNS_19_objref_SequenceDefE @6685
    _ZlSRN5CORBA3AnyEPPNS_19_objref_ValueBoxDefE @6686
    _ZlSRN5CORBA3AnyEPPNS_20_objref_AttributeDefE @6687
    _ZlSRN5CORBA3AnyEPPNS_20_objref_ExceptionDefE @6688
    _ZlSRN5CORBA3AnyEPPNS_20_objref_InterfaceDefE @6689
    _ZlSRN5CORBA3AnyEPPNS_20_objref_OperationDefE @6690
    _ZlSRN5CORBA3AnyEPPNS_20_objref_PrimitiveDefE @6691
    _ZlSRN5CORBA3AnyEPPNS_22_objref_ValueMemberDefE @6692
    _ZlSRN5CORBA3AnyEPPNS_28_objref_AbstractInterfaceDefE @6693
    _ZlSRN5CORBA3AnyERKN10DynamicAny13DynAnyFactory20InconsistentTypeCodeE @6694
    _ZlSRN5CORBA3AnyERKN10DynamicAny6DynAny12InvalidValueE @6695
    _ZlSRN5CORBA3AnyERKN10DynamicAny6DynAny12TypeMismatchE @6696
    _ZlSRN5CORBA3AnyERKN14PortableServer10POAManager15AdapterInactiveE @6697
    _ZlSRN5CORBA3AnyERKN14PortableServer14ForwardRequestE @6698
    _ZlSRN5CORBA3AnyERKN14PortableServer3POA11WrongPolicyE @6699
    _ZlSRN5CORBA3AnyERKN14PortableServer3POA12WrongAdapterE @6700
    _ZlSRN5CORBA3AnyERKN14PortableServer3POA13InvalidPolicyE @6701
    _ZlSRN5CORBA3AnyERKN14PortableServer3POA15ObjectNotActiveE @6702
    _ZlSRN5CORBA3AnyERKN14PortableServer3POA16ServantNotActiveE @6703
    _ZlSRN5CORBA3AnyERKN14PortableServer3POA18AdapterNonExistentE @6704
    _ZlSRN5CORBA3AnyERKN14PortableServer3POA19ObjectAlreadyActiveE @6705
    _ZlSRN5CORBA3AnyERKN14PortableServer3POA20AdapterAlreadyExistsE @6706
    _ZlSRN5CORBA3AnyERKN14PortableServer3POA20ServantAlreadyActiveE @6707
    _ZlSRN5CORBA3AnyERKN14PortableServer3POA9NoServantE @6708
    _ZlSRN5CORBA3AnyERKN23CORBA_InitialReferences9ObjIdListE @6709
    _ZlSRN5CORBA3AnyERKN9CosNaming11BindingListE @6710
    _ZlSRN5CORBA3AnyERKN9CosNaming13NameComponentE @6711
    _ZlSRN5CORBA3AnyERKN9CosNaming13NamingContext11InvalidNameE @6712
    _ZlSRN5CORBA3AnyERKN9CosNaming13NamingContext12AlreadyBoundE @6713
    _ZlSRN5CORBA3AnyERKN9CosNaming13NamingContext13CannotProceedE @6714
    _ZlSRN5CORBA3AnyERKN9CosNaming13NamingContext8NotEmptyE @6715
    _ZlSRN5CORBA3AnyERKN9CosNaming13NamingContext8NotFoundE @6716
    _ZlSRN5CORBA3AnyERKN9CosNaming16NamingContextExt14InvalidAddressE @6717
    _ZlSRN5CORBA3AnyERKN9CosNaming4NameE @6718
    _ZlSRN5CORBA3AnyERKN9CosNaming7BindingE @6719
    _ZlSRN5CORBA3AnyERKNS_10BooleanSeqE @6720
    _ZlSRN5CORBA3AnyERKNS_10INITIALIZEE @6721
    _ZlSRN5CORBA3AnyERKNS_10INTF_REPOSE @6722
    _ZlSRN5CORBA3AnyERKNS_10INV_OBJREFE @6723
    _ZlSRN5CORBA3AnyERKNS_10INV_POLICYE @6724
    _ZlSRN5CORBA3AnyERKNS_10WStringSeqE @6725
    _ZlSRN5CORBA3AnyERKNS_11BAD_CONTEXTE @6726
    _ZlSRN5CORBA3AnyERKNS_11ContextList6BoundsE @6727
    _ZlSRN5CORBA3AnyERKNS_11InitializerE @6728
    _ZlSRN5CORBA3AnyERKNS_11LongLongSeqE @6729
    _ZlSRN5CORBA3AnyERKNS_11NO_RESPONSEE @6730
    _ZlSRN5CORBA3AnyERKNS_11OBJ_ADAPTERE @6731
    _ZlSRN5CORBA3AnyERKNS_11PolicyErrorE @6732
    _ZlSRN5CORBA3AnyERKNS_11UnionMemberE @6733
    _ZlSRN5CORBA3AnyERKNS_11ValueDefSeqE @6734
    _ZlSRN5CORBA3AnyERKNS_11ValueMemberE @6735
    _ZlSRN5CORBA3AnyERKNS_12BAD_TYPECODEE @6736
    _ZlSRN5CORBA3AnyERKNS_12COMM_FAILUREE @6737
    _ZlSRN5CORBA3AnyERKNS_12ContainedSeqE @6738
    _ZlSRN5CORBA3AnyERKNS_12ContextIdSeqE @6739
    _ZlSRN5CORBA3AnyERKNS_12InterfaceDef24FullInterfaceDescriptionE @6740
    _ZlSRN5CORBA3AnyERKNS_12NO_IMPLEMENTE @6741
    _ZlSRN5CORBA3AnyERKNS_12NO_RESOURCESE @6742
    _ZlSRN5CORBA3AnyERKNS_12StructMemberE @6743
    _ZlSRN5CORBA3AnyERKNS_12ULongLongSeqE @6744
    _ZlSRN5CORBA3AnyERKNS_13BAD_INV_ORDERE @6745
    _ZlSRN5CORBA3AnyERKNS_13BAD_OPERATIONE @6746
    _ZlSRN5CORBA3AnyERKNS_13EnumMemberSeqE @6747
    _ZlSRN5CORBA3AnyERKNS_13ExceptionList6BoundsE @6748
    _ZlSRN5CORBA3AnyERKNS_13LongDoubleSeqE @6749
    _ZlSRN5CORBA3AnyERKNS_13NO_PERMISSIONE @6750
    _ZlSRN5CORBA3AnyERKNS_13PERSIST_STOREE @6751
    _ZlSRN5CORBA3AnyERKNS_14InitializerSeqE @6752
    _ZlSRN5CORBA3AnyERKNS_14UnionMemberSeqE @6753
    _ZlSRN5CORBA3AnyERKNS_14ValueMemberSeqE @6754
    _ZlSRN5CORBA3AnyERKNS_15DATA_CONVERSIONE @6755
    _ZlSRN5CORBA3AnyERKNS_15ExceptionDefSeqE @6756
    _ZlSRN5CORBA3AnyERKNS_15InterfaceDefSeqE @6757
    _ZlSRN5CORBA3AnyERKNS_15RepositoryIdSeqE @6758
    _ZlSRN5CORBA3AnyERKNS_15StructMemberSeqE @6759
    _ZlSRN5CORBA3AnyERKNS_15TypeDescriptionE @6760
    _ZlSRN5CORBA3AnyERKNS_16OBJECT_NOT_EXISTE @6761
    _ZlSRN5CORBA3AnyERKNS_16OpDescriptionSeqE @6762
    _ZlSRN5CORBA3AnyERKNS_16TRANSACTION_MODEE @6763
    _ZlSRN5CORBA3AnyERKNS_16ValueDescriptionE @6764
    _ZlSRN5CORBA3AnyERKNS_16WrongTransactionE @6765
    _ZlSRN5CORBA3AnyERKNS_17ExcDescriptionSeqE @6766
    _ZlSRN5CORBA3AnyERKNS_17ModuleDescriptionE @6767
    _ZlSRN5CORBA3AnyERKNS_17ParDescriptionSeqE @6768
    _ZlSRN5CORBA3AnyERKNS_18AttrDescriptionSeqE @6769
    _ZlSRN5CORBA3AnyERKNS_19ConstantDescriptionE @6770
    _ZlSRN5CORBA3AnyERKNS_19INVALID_TRANSACTIONE @6771
    _ZlSRN5CORBA3AnyERKNS_20AttributeDescriptionE @6772
    _ZlSRN5CORBA3AnyERKNS_20CODESET_INCOMPATIBLEE @6773
    _ZlSRN5CORBA3AnyERKNS_20ExceptionDescriptionE @6774
    _ZlSRN5CORBA3AnyERKNS_20InterfaceDescriptionE @6775
    _ZlSRN5CORBA3AnyERKNS_20OperationDescriptionE @6776
    _ZlSRN5CORBA3AnyERKNS_20ParameterDescriptionE @6777
    _ZlSRN5CORBA3AnyERKNS_20TRANSACTION_REQUIREDE @6778
    _ZlSRN5CORBA3AnyERKNS_20UnknownUserExceptionE @6779
    _ZlSRN5CORBA3AnyERKNS_22TRANSACTION_ROLLEDBACKE @6780
    _ZlSRN5CORBA3AnyERKNS_23AbstractInterfaceDefSeqE @6781
    _ZlSRN5CORBA3AnyERKNS_23TRANSACTION_UNAVAILABLEE @6782
    _ZlSRN5CORBA3AnyERKNS_3ORB11InvalidNameE @6783
    _ZlSRN5CORBA3AnyERKNS_3ORB20InconsistentTypeCodeE @6784
    _ZlSRN5CORBA3AnyERKNS_6AnySeqE @6785
    _ZlSRN5CORBA3AnyERKNS_6NVList6BoundsE @6786
    _ZlSRN5CORBA3AnyERKNS_6REBINDE @6787
    _ZlSRN5CORBA3AnyERKNS_7BAD_QOSE @6788
    _ZlSRN5CORBA3AnyERKNS_7CharSeqE @6789
    _ZlSRN5CORBA3AnyERKNS_7LongSeqE @6790
    _ZlSRN5CORBA3AnyERKNS_7MARSHALE @6791
    _ZlSRN5CORBA3AnyERKNS_7TIMEOUTE @6792
    _ZlSRN5CORBA3AnyERKNS_7UNKNOWNE @6793
    _ZlSRN5CORBA3AnyERKNS_8FREE_MEME @6794
    _ZlSRN5CORBA3AnyERKNS_8FloatSeqE @6795
    _ZlSRN5CORBA3AnyERKNS_8INTERNALE @6796
    _ZlSRN5CORBA3AnyERKNS_8INV_FLAGE @6797
    _ZlSRN5CORBA3AnyERKNS_8OctetSeqE @6798
    _ZlSRN5CORBA3AnyERKNS_8ShortSeqE @6799
    _ZlSRN5CORBA3AnyERKNS_8TypeCode6BoundsE @6800
    _ZlSRN5CORBA3AnyERKNS_8TypeCode7BadKindE @6801
    _ZlSRN5CORBA3AnyERKNS_8ULongSeqE @6802
    _ZlSRN5CORBA3AnyERKNS_8ValueDef20FullValueDescriptionE @6803
    _ZlSRN5CORBA3AnyERKNS_8WCharSeqE @6804
    _ZlSRN5CORBA3AnyERKNS_9BAD_PARAME @6805
    _ZlSRN5CORBA3AnyERKNS_9Contained11DescriptionE @6806
    _ZlSRN5CORBA3AnyERKNS_9Container11DescriptionE @6807
    _ZlSRN5CORBA3AnyERKNS_9Container14DescriptionSeqE @6808
    _ZlSRN5CORBA3AnyERKNS_9DoubleSeqE @6809
    _ZlSRN5CORBA3AnyERKNS_9ExceptionE @6810
    _ZlSRN5CORBA3AnyERKNS_9IMP_LIMITE @6811
    _ZlSRN5CORBA3AnyERKNS_9INV_IDENTE @6812
    _ZlSRN5CORBA3AnyERKNS_9NO_MEMORYE @6813
    _ZlSRN5CORBA3AnyERKNS_9StringSeqE @6814
    _ZlSRN5CORBA3AnyERKNS_9TRANSIENTE @6815
    _ZlSRN5CORBA3AnyERKNS_9UShortSeqE @6816
    _ZlSRlR9cdrStream @6817
    _ZlSRmR9cdrStream @6818
    _ZrSRKN5CORBA3AnyERN14PortableServer17ThreadPolicyValueE @6819
    _ZrSRKN5CORBA3AnyERN14PortableServer19LifespanPolicyValueE @6820
    _ZrSRKN5CORBA3AnyERN14PortableServer23IdAssignmentPolicyValueE @6821
    _ZrSRKN5CORBA3AnyERN14PortableServer23IdUniquenessPolicyValueE @6822
    _ZrSRKN5CORBA3AnyERN14PortableServer27ServantRetentionPolicyValueE @6823
    _ZrSRKN5CORBA3AnyERN14PortableServer28RequestProcessingPolicyValueE @6824
    _ZrSRKN5CORBA3AnyERN14PortableServer29ImplicitActivationPolicyValueE @6825
    _ZrSRKN5CORBA3AnyERN9CosNaming11BindingTypeE @6826
    _ZrSRKN5CORBA3AnyERN9CosNaming13NamingContext14NotFoundReasonE @6827
    _ZrSRKN5CORBA3AnyERNS_13AttributeModeE @6828
    _ZrSRKN5CORBA3AnyERNS_13OperationModeE @6829
    _ZrSRKN5CORBA3AnyERNS_13ParameterModeE @6830
    _ZrSRKN5CORBA3AnyERNS_13PrimitiveKindE @6831
    _ZrSRKN5CORBA3AnyERNS_14DefinitionKindE @6832
    _ZrSRKN5CORBA3AnyERP31_objref_CORBA_InitialReferences @6833
    _ZrSRKN5CORBA3AnyERPKN10DynamicAny13DynAnyFactory20InconsistentTypeCodeE @6834
    _ZrSRKN5CORBA3AnyERPKN10DynamicAny6DynAny12InvalidValueE @6835
    _ZrSRKN5CORBA3AnyERPKN10DynamicAny6DynAny12TypeMismatchE @6836
    _ZrSRKN5CORBA3AnyERPKN14PortableServer10POAManager15AdapterInactiveE @6837
    _ZrSRKN5CORBA3AnyERPKN14PortableServer14ForwardRequestE @6838
    _ZrSRKN5CORBA3AnyERPKN14PortableServer3POA11WrongPolicyE @6839
    _ZrSRKN5CORBA3AnyERPKN14PortableServer3POA12WrongAdapterE @6840
    _ZrSRKN5CORBA3AnyERPKN14PortableServer3POA13InvalidPolicyE @6841
    _ZrSRKN5CORBA3AnyERPKN14PortableServer3POA15ObjectNotActiveE @6842
    _ZrSRKN5CORBA3AnyERPKN14PortableServer3POA16ServantNotActiveE @6843
    _ZrSRKN5CORBA3AnyERPKN14PortableServer3POA18AdapterNonExistentE @6844
    _ZrSRKN5CORBA3AnyERPKN14PortableServer3POA19ObjectAlreadyActiveE @6845
    _ZrSRKN5CORBA3AnyERPKN14PortableServer3POA20AdapterAlreadyExistsE @6846
    _ZrSRKN5CORBA3AnyERPKN14PortableServer3POA20ServantAlreadyActiveE @6847
    _ZrSRKN5CORBA3AnyERPKN14PortableServer3POA9NoServantE @6848
    _ZrSRKN5CORBA3AnyERPKN23CORBA_InitialReferences9ObjIdListE @6849
    _ZrSRKN5CORBA3AnyERPKN9CosNaming11BindingListE @6850
    _ZrSRKN5CORBA3AnyERPKN9CosNaming13NameComponentE @6851
    _ZrSRKN5CORBA3AnyERPKN9CosNaming13NamingContext11InvalidNameE @6852
    _ZrSRKN5CORBA3AnyERPKN9CosNaming13NamingContext12AlreadyBoundE @6853
    _ZrSRKN5CORBA3AnyERPKN9CosNaming13NamingContext13CannotProceedE @6854
    _ZrSRKN5CORBA3AnyERPKN9CosNaming13NamingContext8NotEmptyE @6855
    _ZrSRKN5CORBA3AnyERPKN9CosNaming13NamingContext8NotFoundE @6856
    _ZrSRKN5CORBA3AnyERPKN9CosNaming16NamingContextExt14InvalidAddressE @6857
    _ZrSRKN5CORBA3AnyERPKN9CosNaming4NameE @6858
    _ZrSRKN5CORBA3AnyERPKN9CosNaming7BindingE @6859
    _ZrSRKN5CORBA3AnyERPKNS_10BooleanSeqE @6860
    _ZrSRKN5CORBA3AnyERPKNS_10INITIALIZEE @6861
    _ZrSRKN5CORBA3AnyERPKNS_10INTF_REPOSE @6862
    _ZrSRKN5CORBA3AnyERPKNS_10INV_OBJREFE @6863
    _ZrSRKN5CORBA3AnyERPKNS_10INV_POLICYE @6864
    _ZrSRKN5CORBA3AnyERPKNS_10WStringSeqE @6865
    _ZrSRKN5CORBA3AnyERPKNS_11BAD_CONTEXTE @6866
    _ZrSRKN5CORBA3AnyERPKNS_11ContextList6BoundsE @6867
    _ZrSRKN5CORBA3AnyERPKNS_11InitializerE @6868
    _ZrSRKN5CORBA3AnyERPKNS_11LongLongSeqE @6869
    _ZrSRKN5CORBA3AnyERPKNS_11NO_RESPONSEE @6870
    _ZrSRKN5CORBA3AnyERPKNS_11OBJ_ADAPTERE @6871
    _ZrSRKN5CORBA3AnyERPKNS_11PolicyErrorE @6872
    _ZrSRKN5CORBA3AnyERPKNS_11UnionMemberE @6873
    _ZrSRKN5CORBA3AnyERPKNS_11ValueDefSeqE @6874
    _ZrSRKN5CORBA3AnyERPKNS_11ValueMemberE @6875
    _ZrSRKN5CORBA3AnyERPKNS_12BAD_TYPECODEE @6876
    _ZrSRKN5CORBA3AnyERPKNS_12COMM_FAILUREE @6877
    _ZrSRKN5CORBA3AnyERPKNS_12ContainedSeqE @6878
    _ZrSRKN5CORBA3AnyERPKNS_12ContextIdSeqE @6879
    _ZrSRKN5CORBA3AnyERPKNS_12InterfaceDef24FullInterfaceDescriptionE @6880
    _ZrSRKN5CORBA3AnyERPKNS_12NO_IMPLEMENTE @6881
    _ZrSRKN5CORBA3AnyERPKNS_12NO_RESOURCESE @6882
    _ZrSRKN5CORBA3AnyERPKNS_12StructMemberE @6883
    _ZrSRKN5CORBA3AnyERPKNS_12ULongLongSeqE @6884
    _ZrSRKN5CORBA3AnyERPKNS_13BAD_INV_ORDERE @6885
    _ZrSRKN5CORBA3AnyERPKNS_13BAD_OPERATIONE @6886
    _ZrSRKN5CORBA3AnyERPKNS_13EnumMemberSeqE @6887
    _ZrSRKN5CORBA3AnyERPKNS_13ExceptionList6BoundsE @6888
    _ZrSRKN5CORBA3AnyERPKNS_13LongDoubleSeqE @6889
    _ZrSRKN5CORBA3AnyERPKNS_13NO_PERMISSIONE @6890
    _ZrSRKN5CORBA3AnyERPKNS_13PERSIST_STOREE @6891
    _ZrSRKN5CORBA3AnyERPKNS_14InitializerSeqE @6892
    _ZrSRKN5CORBA3AnyERPKNS_14UnionMemberSeqE @6893
    _ZrSRKN5CORBA3AnyERPKNS_14ValueMemberSeqE @6894
    _ZrSRKN5CORBA3AnyERPKNS_15DATA_CONVERSIONE @6895
    _ZrSRKN5CORBA3AnyERPKNS_15ExceptionDefSeqE @6896
    _ZrSRKN5CORBA3AnyERPKNS_15InterfaceDefSeqE @6897
    _ZrSRKN5CORBA3AnyERPKNS_15RepositoryIdSeqE @6898
    _ZrSRKN5CORBA3AnyERPKNS_15StructMemberSeqE @6899
    _ZrSRKN5CORBA3AnyERPKNS_15TypeDescriptionE @6900
    _ZrSRKN5CORBA3AnyERPKNS_16OBJECT_NOT_EXISTE @6901
    _ZrSRKN5CORBA3AnyERPKNS_16OpDescriptionSeqE @6902
    _ZrSRKN5CORBA3AnyERPKNS_16TRANSACTION_MODEE @6903
    _ZrSRKN5CORBA3AnyERPKNS_16ValueDescriptionE @6904
    _ZrSRKN5CORBA3AnyERPKNS_16WrongTransactionE @6905
    _ZrSRKN5CORBA3AnyERPKNS_17ExcDescriptionSeqE @6906
    _ZrSRKN5CORBA3AnyERPKNS_17ModuleDescriptionE @6907
    _ZrSRKN5CORBA3AnyERPKNS_17ParDescriptionSeqE @6908
    _ZrSRKN5CORBA3AnyERPKNS_18AttrDescriptionSeqE @6909
    _ZrSRKN5CORBA3AnyERPKNS_19ConstantDescriptionE @6910
    _ZrSRKN5CORBA3AnyERPKNS_19INVALID_TRANSACTIONE @6911
    _ZrSRKN5CORBA3AnyERPKNS_20AttributeDescriptionE @6912
    _ZrSRKN5CORBA3AnyERPKNS_20CODESET_INCOMPATIBLEE @6913
    _ZrSRKN5CORBA3AnyERPKNS_20ExceptionDescriptionE @6914
    _ZrSRKN5CORBA3AnyERPKNS_20InterfaceDescriptionE @6915
    _ZrSRKN5CORBA3AnyERPKNS_20OperationDescriptionE @6916
    _ZrSRKN5CORBA3AnyERPKNS_20ParameterDescriptionE @6917
    _ZrSRKN5CORBA3AnyERPKNS_20TRANSACTION_REQUIREDE @6918
    _ZrSRKN5CORBA3AnyERPKNS_20UnknownUserExceptionE @6919
    _ZrSRKN5CORBA3AnyERPKNS_22TRANSACTION_ROLLEDBACKE @6920
    _ZrSRKN5CORBA3AnyERPKNS_23AbstractInterfaceDefSeqE @6921
    _ZrSRKN5CORBA3AnyERPKNS_23TRANSACTION_UNAVAILABLEE @6922
    _ZrSRKN5CORBA3AnyERPKNS_3ORB11InvalidNameE @6923
    _ZrSRKN5CORBA3AnyERPKNS_3ORB20InconsistentTypeCodeE @6924
    _ZrSRKN5CORBA3AnyERPKNS_6AnySeqE @6925
    _ZrSRKN5CORBA3AnyERPKNS_6NVList6BoundsE @6926
    _ZrSRKN5CORBA3AnyERPKNS_6REBINDE @6927
    _ZrSRKN5CORBA3AnyERPKNS_7BAD_QOSE @6928
    _ZrSRKN5CORBA3AnyERPKNS_7CharSeqE @6929
    _ZrSRKN5CORBA3AnyERPKNS_7LongSeqE @6930
    _ZrSRKN5CORBA3AnyERPKNS_7MARSHALE @6931
    _ZrSRKN5CORBA3AnyERPKNS_7TIMEOUTE @6932
    _ZrSRKN5CORBA3AnyERPKNS_7UNKNOWNE @6933
    _ZrSRKN5CORBA3AnyERPKNS_8FREE_MEME @6934
    _ZrSRKN5CORBA3AnyERPKNS_8FloatSeqE @6935
    _ZrSRKN5CORBA3AnyERPKNS_8INTERNALE @6936
    _ZrSRKN5CORBA3AnyERPKNS_8INV_FLAGE @6937
    _ZrSRKN5CORBA3AnyERPKNS_8OctetSeqE @6938
    _ZrSRKN5CORBA3AnyERPKNS_8ShortSeqE @6939
    _ZrSRKN5CORBA3AnyERPKNS_8TypeCode6BoundsE @6940
    _ZrSRKN5CORBA3AnyERPKNS_8TypeCode7BadKindE @6941
    _ZrSRKN5CORBA3AnyERPKNS_8ULongSeqE @6942
    _ZrSRKN5CORBA3AnyERPKNS_8ValueDef20FullValueDescriptionE @6943
    _ZrSRKN5CORBA3AnyERPKNS_8WCharSeqE @6944
    _ZrSRKN5CORBA3AnyERPKNS_9BAD_PARAME @6945
    _ZrSRKN5CORBA3AnyERPKNS_9Contained11DescriptionE @6946
    _ZrSRKN5CORBA3AnyERPKNS_9Container11DescriptionE @6947
    _ZrSRKN5CORBA3AnyERPKNS_9Container14DescriptionSeqE @6948
    _ZrSRKN5CORBA3AnyERPKNS_9DoubleSeqE @6949
    _ZrSRKN5CORBA3AnyERPKNS_9IMP_LIMITE @6950
    _ZrSRKN5CORBA3AnyERPKNS_9INV_IDENTE @6951
    _ZrSRKN5CORBA3AnyERPKNS_9NO_MEMORYE @6952
    _ZrSRKN5CORBA3AnyERPKNS_9StringSeqE @6953
    _ZrSRKN5CORBA3AnyERPKNS_9TRANSIENTE @6954
    _ZrSRKN5CORBA3AnyERPKNS_9UShortSeqE @6955
    _ZrSRKN5CORBA3AnyERPN23CORBA_InitialReferences9ObjIdListE @6956
    _ZrSRKN5CORBA3AnyERPN9CosNaming11BindingListE @6957
    _ZrSRKN5CORBA3AnyERPN9CosNaming13NameComponentE @6958
    _ZrSRKN5CORBA3AnyERPN9CosNaming21_objref_NamingContextE @6959
    _ZrSRKN5CORBA3AnyERPN9CosNaming23_objref_BindingIteratorE @6960
    _ZrSRKN5CORBA3AnyERPN9CosNaming24_objref_NamingContextExtE @6961
    _ZrSRKN5CORBA3AnyERPN9CosNaming4NameE @6962
    _ZrSRKN5CORBA3AnyERPN9CosNaming7BindingE @6963
    _ZrSRKN5CORBA3AnyERPNS_10BooleanSeqE @6964
    _ZrSRKN5CORBA3AnyERPNS_10INITIALIZEE @6965
    _ZrSRKN5CORBA3AnyERPNS_10INTF_REPOSE @6966
    _ZrSRKN5CORBA3AnyERPNS_10INV_OBJREFE @6967
    _ZrSRKN5CORBA3AnyERPNS_10INV_POLICYE @6968
    _ZrSRKN5CORBA3AnyERPNS_10WStringSeqE @6969
    _ZrSRKN5CORBA3AnyERPNS_11BAD_CONTEXTE @6970
    _ZrSRKN5CORBA3AnyERPNS_11InitializerE @6971
    _ZrSRKN5CORBA3AnyERPNS_11LongLongSeqE @6972
    _ZrSRKN5CORBA3AnyERPNS_11NO_RESPONSEE @6973
    _ZrSRKN5CORBA3AnyERPNS_11OBJ_ADAPTERE @6974
    _ZrSRKN5CORBA3AnyERPNS_11StringValueE @6975
    _ZrSRKN5CORBA3AnyERPNS_11UnionMemberE @6976
    _ZrSRKN5CORBA3AnyERPNS_11ValueDefSeqE @6977
    _ZrSRKN5CORBA3AnyERPNS_11ValueMemberE @6978
    _ZrSRKN5CORBA3AnyERPNS_12BAD_TYPECODEE @6979
    _ZrSRKN5CORBA3AnyERPNS_12COMM_FAILUREE @6980
    _ZrSRKN5CORBA3AnyERPNS_12ContainedSeqE @6981
    _ZrSRKN5CORBA3AnyERPNS_12ContextIdSeqE @6982
    _ZrSRKN5CORBA3AnyERPNS_12InterfaceDef24FullInterfaceDescriptionE @6983
    _ZrSRKN5CORBA3AnyERPNS_12NO_IMPLEMENTE @6984
    _ZrSRKN5CORBA3AnyERPNS_12NO_RESOURCESE @6985
    _ZrSRKN5CORBA3AnyERPNS_12StructMemberE @6986
    _ZrSRKN5CORBA3AnyERPNS_12ULongLongSeqE @6987
    _ZrSRKN5CORBA3AnyERPNS_12WStringValueE @6988
    _ZrSRKN5CORBA3AnyERPNS_13BAD_INV_ORDERE @6989
    _ZrSRKN5CORBA3AnyERPNS_13BAD_OPERATIONE @6990
    _ZrSRKN5CORBA3AnyERPNS_13EnumMemberSeqE @6991
    _ZrSRKN5CORBA3AnyERPNS_13LongDoubleSeqE @6992
    _ZrSRKN5CORBA3AnyERPNS_13NO_PERMISSIONE @6993
    _ZrSRKN5CORBA3AnyERPNS_13PERSIST_STOREE @6994
    _ZrSRKN5CORBA3AnyERPNS_14InitializerSeqE @6995
    _ZrSRKN5CORBA3AnyERPNS_14UnionMemberSeqE @6996
    _ZrSRKN5CORBA3AnyERPNS_14ValueMemberSeqE @6997
    _ZrSRKN5CORBA3AnyERPNS_15DATA_CONVERSIONE @6998
    _ZrSRKN5CORBA3AnyERPNS_15ExceptionDefSeqE @6999
    _ZrSRKN5CORBA3AnyERPNS_15InterfaceDefSeqE @7000
    _ZrSRKN5CORBA3AnyERPNS_15RepositoryIdSeqE @7001
    _ZrSRKN5CORBA3AnyERPNS_15StructMemberSeqE @7002
    _ZrSRKN5CORBA3AnyERPNS_15TypeDescriptionE @7003
    _ZrSRKN5CORBA3AnyERPNS_15_objref_EnumDefE @7004
    _ZrSRKN5CORBA3AnyERPNS_15_objref_IDLTypeE @7005
    _ZrSRKN5CORBA3AnyERPNS_16OBJECT_NOT_EXISTE @7006
    _ZrSRKN5CORBA3AnyERPNS_16OpDescriptionSeqE @7007
    _ZrSRKN5CORBA3AnyERPNS_16TRANSACTION_MODEE @7008
    _ZrSRKN5CORBA3AnyERPNS_16ValueDescriptionE @7009
    _ZrSRKN5CORBA3AnyERPNS_16_objref_AliasDefE @7010
    _ZrSRKN5CORBA3AnyERPNS_16_objref_ArrayDefE @7011
    _ZrSRKN5CORBA3AnyERPNS_16_objref_FixedDefE @7012
    _ZrSRKN5CORBA3AnyERPNS_16_objref_IRObjectE @7013
    _ZrSRKN5CORBA3AnyERPNS_16_objref_UnionDefE @7014
    _ZrSRKN5CORBA3AnyERPNS_16_objref_ValueDefE @7015
    _ZrSRKN5CORBA3AnyERPNS_17ExcDescriptionSeqE @7016
    _ZrSRKN5CORBA3AnyERPNS_17ModuleDescriptionE @7017
    _ZrSRKN5CORBA3AnyERPNS_17ParDescriptionSeqE @7018
    _ZrSRKN5CORBA3AnyERPNS_17_objref_ContainedE @7019
    _ZrSRKN5CORBA3AnyERPNS_17_objref_ContainerE @7020
    _ZrSRKN5CORBA3AnyERPNS_17_objref_ModuleDefE @7021
    _ZrSRKN5CORBA3AnyERPNS_17_objref_NativeDefE @7022
    _ZrSRKN5CORBA3AnyERPNS_17_objref_StringDefE @7023
    _ZrSRKN5CORBA3AnyERPNS_17_objref_StructDefE @7024
    _ZrSRKN5CORBA3AnyERPNS_18AttrDescriptionSeqE @7025
    _ZrSRKN5CORBA3AnyERPNS_18_objref_RepositoryE @7026
    _ZrSRKN5CORBA3AnyERPNS_18_objref_TypedefDefE @7027
    _ZrSRKN5CORBA3AnyERPNS_18_objref_WstringDefE @7028
    _ZrSRKN5CORBA3AnyERPNS_19ConstantDescriptionE @7029
    _ZrSRKN5CORBA3AnyERPNS_19INVALID_TRANSACTIONE @7030
    _ZrSRKN5CORBA3AnyERPNS_19_objref_ConstantDefE @7031
    _ZrSRKN5CORBA3AnyERPNS_19_objref_SequenceDefE @7032
    _ZrSRKN5CORBA3AnyERPNS_19_objref_ValueBoxDefE @7033
    _ZrSRKN5CORBA3AnyERPNS_20AttributeDescriptionE @7034
    _ZrSRKN5CORBA3AnyERPNS_20CODESET_INCOMPATIBLEE @7035
    _ZrSRKN5CORBA3AnyERPNS_20ExceptionDescriptionE @7036
    _ZrSRKN5CORBA3AnyERPNS_20InterfaceDescriptionE @7037
    _ZrSRKN5CORBA3AnyERPNS_20OperationDescriptionE @7038
    _ZrSRKN5CORBA3AnyERPNS_20ParameterDescriptionE @7039
    _ZrSRKN5CORBA3AnyERPNS_20TRANSACTION_REQUIREDE @7040
    _ZrSRKN5CORBA3AnyERPNS_20_objref_AttributeDefE @7041
    _ZrSRKN5CORBA3AnyERPNS_20_objref_ExceptionDefE @7042
    _ZrSRKN5CORBA3AnyERPNS_20_objref_InterfaceDefE @7043
    _ZrSRKN5CORBA3AnyERPNS_20_objref_OperationDefE @7044
    _ZrSRKN5CORBA3AnyERPNS_20_objref_PrimitiveDefE @7045
    _ZrSRKN5CORBA3AnyERPNS_22TRANSACTION_ROLLEDBACKE @7046
    _ZrSRKN5CORBA3AnyERPNS_22_objref_ValueMemberDefE @7047
    _ZrSRKN5CORBA3AnyERPNS_23AbstractInterfaceDefSeqE @7048
    _ZrSRKN5CORBA3AnyERPNS_23TRANSACTION_UNAVAILABLEE @7049
    _ZrSRKN5CORBA3AnyERPNS_28_objref_AbstractInterfaceDefE @7050
    _ZrSRKN5CORBA3AnyERPNS_6AnySeqE @7051
    _ZrSRKN5CORBA3AnyERPNS_6REBINDE @7052
    _ZrSRKN5CORBA3AnyERPNS_7BAD_QOSE @7053
    _ZrSRKN5CORBA3AnyERPNS_7CharSeqE @7054
    _ZrSRKN5CORBA3AnyERPNS_7LongSeqE @7055
    _ZrSRKN5CORBA3AnyERPNS_7MARSHALE @7056
    _ZrSRKN5CORBA3AnyERPNS_7TIMEOUTE @7057
    _ZrSRKN5CORBA3AnyERPNS_7UNKNOWNE @7058
    _ZrSRKN5CORBA3AnyERPNS_8FREE_MEME @7059
    _ZrSRKN5CORBA3AnyERPNS_8FloatSeqE @7060
    _ZrSRKN5CORBA3AnyERPNS_8INTERNALE @7061
    _ZrSRKN5CORBA3AnyERPNS_8INV_FLAGE @7062
    _ZrSRKN5CORBA3AnyERPNS_8OctetSeqE @7063
    _ZrSRKN5CORBA3AnyERPNS_8ShortSeqE @7064
    _ZrSRKN5CORBA3AnyERPNS_8ULongSeqE @7065
    _ZrSRKN5CORBA3AnyERPNS_8ValueDef20FullValueDescriptionE @7066
    _ZrSRKN5CORBA3AnyERPNS_8WCharSeqE @7067
    _ZrSRKN5CORBA3AnyERPNS_9BAD_PARAME @7068
    _ZrSRKN5CORBA3AnyERPNS_9Contained11DescriptionE @7069
    _ZrSRKN5CORBA3AnyERPNS_9Container11DescriptionE @7070
    _ZrSRKN5CORBA3AnyERPNS_9Container14DescriptionSeqE @7071
    _ZrSRKN5CORBA3AnyERPNS_9DoubleSeqE @7072
    _ZrSRKN5CORBA3AnyERPNS_9IMP_LIMITE @7073
    _ZrSRKN5CORBA3AnyERPNS_9INV_IDENTE @7074
    _ZrSRKN5CORBA3AnyERPNS_9NO_MEMORYE @7075
    _ZrSRKN5CORBA3AnyERPNS_9StringSeqE @7076
    _ZrSRKN5CORBA3AnyERPNS_9TRANSIENTE @7077
    _ZrSRKN5CORBA3AnyERPNS_9UShortSeqE @7078
    _ZrSmR9cdrStream @7079
    _omni_dynamicLib_should_be_linked_but_is_not_ @7080 DATA
    _tc_CORBA_InitialReferences @7081 DATA
