EXPORTS
    _CRT_MT @1 DATA
    _ZN12CosEventComm12DisconnectedC1Ev @2
    _ZN12CosEventComm12DisconnectedlSER9cdrStream @3
    _ZN12CosEventComm16_tc_DisconnectedE @4 DATA
    _ZN12CosEventComm16_tc_PullConsumerE @5 DATA
    _ZN12CosEventComm16_tc_PullSupplierE @6 DATA
    _ZN12CosEventComm16_tc_PushConsumerE @7 DATA
    _ZN12CosEventComm16_tc_PushSupplierE @8 DATA
    _ZN12CosLifeCycle10NotMovableC1Ev @9
    _ZN12CosLifeCycle11NotCopyableC1Ev @10
    _ZN12CosLifeCycle11_tc_FactoryE @11 DATA
    _ZN12CosLifeCycle12NotRemovableC1Ev @12
    _ZN12CosLifeCycle12_tc_CriteriaE @13 DATA
    _ZN12CosLifeCycle13_tc_FactoriesE @14 DATA
    _ZN12CosLifeCycle13_tc_NoFactoryE @15 DATA
    _ZN12CosLifeCycle14_tc_NotMovableE @16 DATA
    _ZN12CosLifeCycle15InvalidCriteriaC1Ev @17
    _ZN12CosLifeCycle15_tc_NotCopyableE @18 DATA
    _ZN12CosLifeCycle16_tc_NotRemovableE @19 DATA
    _ZN12CosLifeCycle17_tc_FactoryFinderE @20 DATA
    _ZN12CosLifeCycle17_tc_NameValuePairE @21 DATA
    _ZN12CosLifeCycle18CannotMeetCriteriaC1Ev @22
    _ZN12CosLifeCycle18_tc_GenericFactoryE @23 DATA
    _ZN12CosLifeCycle19_tc_InvalidCriteriaE @24 DATA
    _ZN12CosLifeCycle19_tc_LifeCycleObjectE @25 DATA
    _ZN12CosLifeCycle22_tc_CannotMeetCriteriaE @26 DATA
    _ZN12CosLifeCycle3NVPC1ERKS0_ @27
    _ZN12CosLifeCycle3NVPC1Ev @28
    _ZN12CosLifeCycle3NVPD1Ev @29
    _ZN12CosLifeCycle3NVPaSERKS0_ @30
    _ZN12CosLifeCycle7_tc_KeyE @31 DATA
    _ZN12CosLifeCycle7_tc_NVPE @32 DATA
    _ZN12CosLifeCycle8CriteriaC1ERKS0_ @33
    _ZN12CosLifeCycle8CriteriaC1Ev @34
    _ZN12CosLifeCycle8CriteriaD1Ev @35
    _ZN12CosLifeCycle9FactoriesC1ERKS0_ @36
    _ZN12CosLifeCycle9FactoriesC1Ev @37
    _ZN12CosLifeCycle9FactoriesD1Ev @38
    _ZN12CosLifeCycle9NoFactoryC1Ev @39
    _ZN13CosNotifyComm16InvalidEventTypeC1Ev @40
    _ZN13CosNotifyComm16_tc_PullConsumerE @41 DATA
    _ZN13CosNotifyComm16_tc_PullSupplierE @42 DATA
    _ZN13CosNotifyComm16_tc_PushConsumerE @43 DATA
    _ZN13CosNotifyComm16_tc_PushSupplierE @44 DATA
    _ZN13CosNotifyComm17_tc_NotifyPublishE @45 DATA
    _ZN13CosNotifyComm19_tc_NotifySubscribeE @46 DATA
    _ZN13CosNotifyComm20_tc_InvalidEventTypeE @47 DATA
    _ZN13CosNotifyComm24_tc_SequencePullConsumerE @48 DATA
    _ZN13CosNotifyComm24_tc_SequencePullSupplierE @49 DATA
    _ZN13CosNotifyComm24_tc_SequencePushConsumerE @50 DATA
    _ZN13CosNotifyComm24_tc_SequencePushSupplierE @51 DATA
    _ZN13CosNotifyComm26_tc_StructuredPullConsumerE @52 DATA
    _ZN13CosNotifyComm26_tc_StructuredPullSupplierE @53 DATA
    _ZN13CosNotifyComm26_tc_StructuredPushConsumerE @54 DATA
    _ZN13CosNotifyComm26_tc_StructuredPushSupplierE @55 DATA
    _ZN15CosNotification10EventBatchC1ERKS0_ @56
    _ZN15CosNotification10EventBatchC1Ev @57
    _ZN15CosNotification10EventBatchD1Ev @58
    _ZN15CosNotification11EventHeaderC1ERKS0_ @59
    _ZN15CosNotification11EventHeaderC1Ev @60
    _ZN15CosNotification11EventHeaderD1Ev @61
    _ZN15CosNotification11EventHeaderaSERKS0_ @62
    _ZN15CosNotification11PropertySeqC1ERKS0_ @63
    _ZN15CosNotification11PropertySeqC1Ev @64
    _ZN15CosNotification11PropertySeqD1Ev @65
    _ZN15CosNotification11PropertySeqaSERKS0_ @66
    _ZN15CosNotification11_tc_IstringE @67 DATA
    _ZN15CosNotification12EventTypeSeqC1ERKS0_ @68
    _ZN15CosNotification12EventTypeSeqC1Ev @69
    _ZN15CosNotification12EventTypeSeqD1Ev @70
    _ZN15CosNotification12EventTypeSeqaSERKS0_ @71
    _ZN15CosNotification12_tc_PropertyE @72 DATA
    _ZN15CosNotification12_tc_QoSAdminE @73 DATA
    _ZN15CosNotification13PropertyErrorC1ERKS0_ @74
    _ZN15CosNotification13PropertyErrorC1Ev @75
    _ZN15CosNotification13PropertyErrorD1Ev @76
    _ZN15CosNotification13PropertyErroraSERKS0_ @77
    _ZN15CosNotification13PropertyRangeC1ERKS0_ @78
    _ZN15CosNotification13PropertyRangeC1Ev @79
    _ZN15CosNotification13PropertyRangeD1Ev @80
    _ZN15CosNotification13PropertyRangeaSERKS0_ @81
    _ZN15CosNotification13_tc_EventTypeE @82 DATA
    _ZN15CosNotification14UnsupportedQoSC1Ev @83
    _ZN15CosNotification14_tc_EventBatchE @84 DATA
    _ZN15CosNotification15StructuredEventC1ERKS0_ @85
    _ZN15CosNotification15StructuredEventC1Ev @86
    _ZN15CosNotification15StructuredEventD1Ev @87
    _ZN15CosNotification15StructuredEventaSERKS0_ @88
    _ZN15CosNotification15_tc_EventHeaderE @89 DATA
    _ZN15CosNotification15_tc_PropertySeqE @90 DATA
    _ZN15CosNotification16FixedEventHeaderC1ERKS0_ @91
    _ZN15CosNotification16FixedEventHeaderC1Ev @92
    _ZN15CosNotification16FixedEventHeaderD1Ev @93
    _ZN15CosNotification16FixedEventHeaderaSERKS0_ @94
    _ZN15CosNotification16PropertyErrorSeqC1ERKS0_ @95
    _ZN15CosNotification16PropertyErrorSeqC1Ev @96
    _ZN15CosNotification16PropertyErrorSeqD1Ev @97
    _ZN15CosNotification16UnsupportedAdminC1Ev @98
    _ZN15CosNotification16_tc_EventTypeSeqE @99 DATA
    _ZN15CosNotification16_tc_PropertyNameE @100 DATA
    _ZN15CosNotification17_tc_PropertyErrorE @101 DATA
    _ZN15CosNotification17_tc_PropertyRangeE @102 DATA
    _ZN15CosNotification17_tc_PropertyValueE @103 DATA
    _ZN15CosNotification17_tc_QoSError_codeE @104 DATA
    _ZN15CosNotification17_tc_QoSPropertiesE @105 DATA
    _ZN15CosNotification18NamedPropertyRangeC1ERKS0_ @106
    _ZN15CosNotification18NamedPropertyRangeC1Ev @107
    _ZN15CosNotification18NamedPropertyRangeD1Ev @108
    _ZN15CosNotification18NamedPropertyRangeaSERKS0_ @109
    _ZN15CosNotification18_tc_UnsupportedQoSE @110 DATA
    _ZN15CosNotification19_tc_AdminPropertiesE @111 DATA
    _ZN15CosNotification19_tc_StructuredEventE @112 DATA
    _ZN15CosNotification20_tc_FixedEventHeaderE @113 DATA
    _ZN15CosNotification20_tc_PropertyErrorSeqE @114 DATA
    _ZN15CosNotification20_tc_UnsupportedAdminE @115 DATA
    _ZN15CosNotification21NamedPropertyRangeSeqC1ERKS0_ @116
    _ZN15CosNotification21NamedPropertyRangeSeqC1Ev @117
    _ZN15CosNotification21NamedPropertyRangeSeqD1Ev @118
    _ZN15CosNotification22_tc_NamedPropertyRangeE @119 DATA
    _ZN15CosNotification23_tc_FilterableEventBodyE @120 DATA
    _ZN15CosNotification24_tc_AdminPropertiesAdminE @121 DATA
    _ZN15CosNotification24_tc_OptionalHeaderFieldsE @122 DATA
    _ZN15CosNotification25_tc_NamedPropertyRangeSeqE @123 DATA
    _ZN15CosNotification8PropertyC1ERKS0_ @124
    _ZN15CosNotification8PropertyC1Ev @125
    _ZN15CosNotification8PropertyD1Ev @126
    _ZN15CosNotification8PropertyaSERKS0_ @127
    _ZN15CosNotification9EventTypeC1ERKS0_ @128
    _ZN15CosNotification9EventTypeC1Ev @129
    _ZN15CosNotification9EventTypeD1Ev @130
    _ZN15CosNotification9EventTypeaSERKS0_ @131
    _ZN15CosNotifyFilter10_tc_FilterE @132 DATA
    _ZN15CosNotifyFilter11FilterIDSeqC1ERKS0_ @133
    _ZN15CosNotifyFilter11FilterIDSeqC1Ev @134
    _ZN15CosNotifyFilter11FilterIDSeqD1Ev @135
    _ZN15CosNotifyFilter12InvalidValueC1Ev @136
    _ZN15CosNotifyFilter12_tc_FilterIDE @137 DATA
    _ZN15CosNotifyFilter13CallbackIDSeqC1ERKS0_ @138
    _ZN15CosNotifyFilter13CallbackIDSeqC1Ev @139
    _ZN15CosNotifyFilter13CallbackIDSeqD1Ev @140
    _ZN15CosNotifyFilter13ConstraintExpC1ERKS0_ @141
    _ZN15CosNotifyFilter13ConstraintExpC1Ev @142
    _ZN15CosNotifyFilter13ConstraintExpD1Ev @143
    _ZN15CosNotifyFilter13ConstraintExpaSERKS0_ @144
    _ZN15CosNotifyFilter14ConstraintInfoC1ERKS0_ @145
    _ZN15CosNotifyFilter14ConstraintInfoC1Ev @146
    _ZN15CosNotifyFilter14ConstraintInfoD1Ev @147
    _ZN15CosNotifyFilter14ConstraintInfoaSERKS0_ @148
    _ZN15CosNotifyFilter14FilterNotFoundC1Ev @149
    _ZN15CosNotifyFilter14FilterNotFoundlSER9cdrStream @150
    _ZN15CosNotifyFilter14InvalidGrammarC1Ev @151
    _ZN15CosNotifyFilter14InvalidGrammarlSER9cdrStream @152
    _ZN15CosNotifyFilter14_tc_CallbackIDE @153 DATA
    _ZN15CosNotifyFilter15ConstraintIDSeqC1ERKS0_ @154
    _ZN15CosNotifyFilter15ConstraintIDSeqC1Ev @155
    _ZN15CosNotifyFilter15ConstraintIDSeqD1Ev @156
    _ZN15CosNotifyFilter15_tc_FilterAdminE @157 DATA
    _ZN15CosNotifyFilter15_tc_FilterIDSeqE @158 DATA
    _ZN15CosNotifyFilter16CallbackNotFoundC1Ev @159
    _ZN15CosNotifyFilter16CallbackNotFoundlSER9cdrStream @160
    _ZN15CosNotifyFilter16ConstraintExpSeqC1ERKS0_ @161
    _ZN15CosNotifyFilter16ConstraintExpSeqC1Ev @162
    _ZN15CosNotifyFilter16ConstraintExpSeqD1Ev @163
    _ZN15CosNotifyFilter16_tc_ConstraintIDE @164 DATA
    _ZN15CosNotifyFilter16_tc_InvalidValueE @165 DATA
    _ZN15CosNotifyFilter17ConstraintInfoSeqC1ERKS0_ @166
    _ZN15CosNotifyFilter17ConstraintInfoSeqC1Ev @167
    _ZN15CosNotifyFilter17ConstraintInfoSeqD1Ev @168
    _ZN15CosNotifyFilter17InvalidConstraintC1Ev @169
    _ZN15CosNotifyFilter17_tc_CallbackIDSeqE @170 DATA
    _ZN15CosNotifyFilter17_tc_ConstraintExpE @171 DATA
    _ZN15CosNotifyFilter17_tc_FilterFactoryE @172 DATA
    _ZN15CosNotifyFilter17_tc_MappingFilterE @173 DATA
    _ZN15CosNotifyFilter18ConstraintNotFoundC1Ev @174
    _ZN15CosNotifyFilter18_tc_ConstraintInfoE @175 DATA
    _ZN15CosNotifyFilter18_tc_FilterNotFoundE @176 DATA
    _ZN15CosNotifyFilter18_tc_InvalidGrammarE @177 DATA
    _ZN15CosNotifyFilter19_tc_ConstraintIDSeqE @178 DATA
    _ZN15CosNotifyFilter20_tc_CallbackNotFoundE @179 DATA
    _ZN15CosNotifyFilter20_tc_ConstraintExpSeqE @180 DATA
    _ZN15CosNotifyFilter21DuplicateConstraintIDC1Ev @181
    _ZN15CosNotifyFilter21MappingConstraintInfoC1ERKS0_ @182
    _ZN15CosNotifyFilter21MappingConstraintInfoC1Ev @183
    _ZN15CosNotifyFilter21MappingConstraintInfoD1Ev @184
    _ZN15CosNotifyFilter21MappingConstraintInfoaSERKS0_ @185
    _ZN15CosNotifyFilter21MappingConstraintPairC1ERKS0_ @186
    _ZN15CosNotifyFilter21MappingConstraintPairC1Ev @187
    _ZN15CosNotifyFilter21MappingConstraintPairD1Ev @188
    _ZN15CosNotifyFilter21MappingConstraintPairaSERKS0_ @189
    _ZN15CosNotifyFilter21_tc_ConstraintInfoSeqE @190 DATA
    _ZN15CosNotifyFilter21_tc_InvalidConstraintE @191 DATA
    _ZN15CosNotifyFilter22_tc_ConstraintNotFoundE @192 DATA
    _ZN15CosNotifyFilter24MappingConstraintInfoSeqC1ERKS0_ @193
    _ZN15CosNotifyFilter24MappingConstraintInfoSeqC1Ev @194
    _ZN15CosNotifyFilter24MappingConstraintInfoSeqD1Ev @195
    _ZN15CosNotifyFilter24MappingConstraintPairSeqC1ERKS0_ @196
    _ZN15CosNotifyFilter24MappingConstraintPairSeqC1Ev @197
    _ZN15CosNotifyFilter24MappingConstraintPairSeqD1Ev @198
    _ZN15CosNotifyFilter25UnsupportedFilterableDataC1Ev @199
    _ZN15CosNotifyFilter25UnsupportedFilterableDatalSER9cdrStream @200
    _ZN15CosNotifyFilter25_tc_DuplicateConstraintIDE @201 DATA
    _ZN15CosNotifyFilter25_tc_MappingConstraintInfoE @202 DATA
    _ZN15CosNotifyFilter25_tc_MappingConstraintPairE @203 DATA
    _ZN15CosNotifyFilter28_tc_MappingConstraintInfoSeqE @204 DATA
    _ZN15CosNotifyFilter28_tc_MappingConstraintPairSeqE @205 DATA
    _ZN15CosNotifyFilter29_tc_UnsupportedFilterableDataE @206 DATA
    _ZN15_CORBA_SequenceIN12CosLifeCycle3NVPEE10copybufferEm @207
    _ZN15_CORBA_SequenceIN12CosLifeCycle3NVPEE6lengthEm @208
    _ZN15_CORBA_SequenceIN12CosLifeCycle3NVPEE7freebufEPS1_ @209
    _ZN15_CORBA_SequenceIN12CosLifeCycle3NVPEE8allocbufEm @210
    _ZN15_CORBA_SequenceIN12CosLifeCycle3NVPEEC2ERKS2_ @211
    _ZN15_CORBA_SequenceIN12CosLifeCycle3NVPEEC2Ev @212
    _ZN15_CORBA_SequenceIN12CosLifeCycle3NVPEED2Ev @213
    _ZN15_CORBA_SequenceIN15CosNotification13PropertyErrorEE10copybufferEm @214
    _ZN15_CORBA_SequenceIN15CosNotification13PropertyErrorEE6lengthEm @215
    _ZN15_CORBA_SequenceIN15CosNotification13PropertyErrorEE7freebufEPS1_ @216
    _ZN15_CORBA_SequenceIN15CosNotification13PropertyErrorEE8allocbufEm @217
    _ZN15_CORBA_SequenceIN15CosNotification13PropertyErrorEEC2ERKS2_ @218
    _ZN15_CORBA_SequenceIN15CosNotification13PropertyErrorEEC2Ev @219
    _ZN15_CORBA_SequenceIN15CosNotification13PropertyErrorEED2Ev @220
    _ZN15_CORBA_SequenceIN15CosNotification15StructuredEventEE10copybufferEm @221
    _ZN15_CORBA_SequenceIN15CosNotification15StructuredEventEE6lengthEm @222
    _ZN15_CORBA_SequenceIN15CosNotification15StructuredEventEE7freebufEPS1_ @223
    _ZN15_CORBA_SequenceIN15CosNotification15StructuredEventEE8allocbufEm @224
    _ZN15_CORBA_SequenceIN15CosNotification15StructuredEventEEC2ERKS2_ @225
    _ZN15_CORBA_SequenceIN15CosNotification15StructuredEventEEC2Ev @226
    _ZN15_CORBA_SequenceIN15CosNotification15StructuredEventEED2Ev @227
    _ZN15_CORBA_SequenceIN15CosNotification18NamedPropertyRangeEE10copybufferEm @228
    _ZN15_CORBA_SequenceIN15CosNotification18NamedPropertyRangeEE6lengthEm @229
    _ZN15_CORBA_SequenceIN15CosNotification18NamedPropertyRangeEE7freebufEPS1_ @230
    _ZN15_CORBA_SequenceIN15CosNotification18NamedPropertyRangeEE8allocbufEm @231
    _ZN15_CORBA_SequenceIN15CosNotification18NamedPropertyRangeEEC2ERKS2_ @232
    _ZN15_CORBA_SequenceIN15CosNotification18NamedPropertyRangeEEC2Ev @233
    _ZN15_CORBA_SequenceIN15CosNotification18NamedPropertyRangeEED2Ev @234
    _ZN15_CORBA_SequenceIN15CosNotification8PropertyEE10copybufferEm @235
    _ZN15_CORBA_SequenceIN15CosNotification8PropertyEE6lengthEm @236
    _ZN15_CORBA_SequenceIN15CosNotification8PropertyEE7freebufEPS1_ @237
    _ZN15_CORBA_SequenceIN15CosNotification8PropertyEE8allocbufEm @238
    _ZN15_CORBA_SequenceIN15CosNotification8PropertyEEC2ERKS2_ @239
    _ZN15_CORBA_SequenceIN15CosNotification8PropertyEEC2Ev @240
    _ZN15_CORBA_SequenceIN15CosNotification8PropertyEED2Ev @241
    _ZN15_CORBA_SequenceIN15CosNotification8PropertyEEaSERKS2_ @242
    _ZN15_CORBA_SequenceIN15CosNotification9EventTypeEE10copybufferEm @243
    _ZN15_CORBA_SequenceIN15CosNotification9EventTypeEE6lengthEm @244
    _ZN15_CORBA_SequenceIN15CosNotification9EventTypeEE7freebufEPS1_ @245
    _ZN15_CORBA_SequenceIN15CosNotification9EventTypeEE8allocbufEm @246
    _ZN15_CORBA_SequenceIN15CosNotification9EventTypeEEC2ERKS2_ @247
    _ZN15_CORBA_SequenceIN15CosNotification9EventTypeEEC2Ev @248
    _ZN15_CORBA_SequenceIN15CosNotification9EventTypeEED2Ev @249
    _ZN15_CORBA_SequenceIN15CosNotification9EventTypeEEaSERKS2_ @250
    _ZN15_CORBA_SequenceIN15CosNotifyFilter13ConstraintExpEE10copybufferEm @251
    _ZN15_CORBA_SequenceIN15CosNotifyFilter13ConstraintExpEE6lengthEm @252
    _ZN15_CORBA_SequenceIN15CosNotifyFilter13ConstraintExpEE7freebufEPS1_ @253
    _ZN15_CORBA_SequenceIN15CosNotifyFilter13ConstraintExpEE8allocbufEm @254
    _ZN15_CORBA_SequenceIN15CosNotifyFilter13ConstraintExpEEC2ERKS2_ @255
    _ZN15_CORBA_SequenceIN15CosNotifyFilter13ConstraintExpEEC2Ev @256
    _ZN15_CORBA_SequenceIN15CosNotifyFilter13ConstraintExpEED2Ev @257
    _ZN15_CORBA_SequenceIN15CosNotifyFilter14ConstraintInfoEE10copybufferEm @258
    _ZN15_CORBA_SequenceIN15CosNotifyFilter14ConstraintInfoEE6lengthEm @259
    _ZN15_CORBA_SequenceIN15CosNotifyFilter14ConstraintInfoEE7freebufEPS1_ @260
    _ZN15_CORBA_SequenceIN15CosNotifyFilter14ConstraintInfoEE8allocbufEm @261
    _ZN15_CORBA_SequenceIN15CosNotifyFilter14ConstraintInfoEEC2ERKS2_ @262
    _ZN15_CORBA_SequenceIN15CosNotifyFilter14ConstraintInfoEEC2Ev @263
    _ZN15_CORBA_SequenceIN15CosNotifyFilter14ConstraintInfoEED2Ev @264
    _ZN15_CORBA_SequenceIN15CosNotifyFilter21MappingConstraintInfoEE10copybufferEm @265
    _ZN15_CORBA_SequenceIN15CosNotifyFilter21MappingConstraintInfoEE6lengthEm @266
    _ZN15_CORBA_SequenceIN15CosNotifyFilter21MappingConstraintInfoEE7freebufEPS1_ @267
    _ZN15_CORBA_SequenceIN15CosNotifyFilter21MappingConstraintInfoEE8allocbufEm @268
    _ZN15_CORBA_SequenceIN15CosNotifyFilter21MappingConstraintInfoEEC2ERKS2_ @269
    _ZN15_CORBA_SequenceIN15CosNotifyFilter21MappingConstraintInfoEEC2Ev @270
    _ZN15_CORBA_SequenceIN15CosNotifyFilter21MappingConstraintInfoEED2Ev @271
    _ZN15_CORBA_SequenceIN15CosNotifyFilter21MappingConstraintPairEE10copybufferEm @272
    _ZN15_CORBA_SequenceIN15CosNotifyFilter21MappingConstraintPairEE6lengthEm @273
    _ZN15_CORBA_SequenceIN15CosNotifyFilter21MappingConstraintPairEE7freebufEPS1_ @274
    _ZN15_CORBA_SequenceIN15CosNotifyFilter21MappingConstraintPairEE8allocbufEm @275
    _ZN15_CORBA_SequenceIN15CosNotifyFilter21MappingConstraintPairEEC2ERKS2_ @276
    _ZN15_CORBA_SequenceIN15CosNotifyFilter21MappingConstraintPairEEC2Ev @277
    _ZN15_CORBA_SequenceIN15CosNotifyFilter21MappingConstraintPairEED2Ev @278
    _ZN15_CORBA_SequenceIN9CosNaming13NameComponentEEC2Ev @279
    _ZN15_CORBA_SequenceIlE10copybufferEm @280
    _ZN15_CORBA_SequenceIlE6lengthEm @281
    _ZN15_CORBA_SequenceIlE7freebufEPl @282
    _ZN15_CORBA_SequenceIlE8allocbufEm @283
    _ZN15_CORBA_SequenceIlEC2ERKS0_ @284
    _ZN15_CORBA_SequenceIlEC2Ev @285
    _ZN15_CORBA_SequenceIlED2Ev @286
    _ZN20CosEventChannelAdmin13_tc_TypeErrorE @287 DATA
    _ZN20CosEventChannelAdmin16AlreadyConnectedC1Ev @288
    _ZN20CosEventChannelAdmin16AlreadyConnectedlSER9cdrStream @289
    _ZN20CosEventChannelAdmin16_tc_EventChannelE @290 DATA
    _ZN20CosEventChannelAdmin17_tc_ConsumerAdminE @291 DATA
    _ZN20CosEventChannelAdmin17_tc_SupplierAdminE @292 DATA
    _ZN20CosEventChannelAdmin20_tc_AlreadyConnectedE @293 DATA
    _ZN20CosEventChannelAdmin21_tc_ProxyPullConsumerE @294 DATA
    _ZN20CosEventChannelAdmin21_tc_ProxyPullSupplierE @295 DATA
    _ZN20CosEventChannelAdmin21_tc_ProxyPushConsumerE @296 DATA
    _ZN20CosEventChannelAdmin21_tc_ProxyPushSupplierE @297 DATA
    _ZN20CosEventChannelAdmin9TypeErrorC1Ev @298
    _ZN20CosEventChannelAdmin9TypeErrorlSER9cdrStream @299
    _ZN20_CORBA_String_helper3dupEPKc @300
    _ZN20_CORBA_String_helper4freeEPc @301
    _ZN20_CORBA_String_helper5allocEi @302
    _ZN20_CORBA_String_memberC1ERKS_ @303
    _ZN20_CORBA_String_memberC1Ev @304
    _ZN20_CORBA_String_memberD1Ev @305
    _ZN20_CORBA_String_memberaSERKS_ @306
    _ZN21CosNotifyChannelAdmin10AdminIDSeqC1ERKS0_ @307
    _ZN21CosNotifyChannelAdmin10AdminIDSeqC1Ev @308
    _ZN21CosNotifyChannelAdmin10AdminIDSeqD1Ev @309
    _ZN21CosNotifyChannelAdmin10AdminLimitC1ERKS0_ @310
    _ZN21CosNotifyChannelAdmin10AdminLimitC1Ev @311
    _ZN21CosNotifyChannelAdmin10AdminLimitD1Ev @312
    _ZN21CosNotifyChannelAdmin10ProxyIDSeqC1ERKS0_ @313
    _ZN21CosNotifyChannelAdmin10ProxyIDSeqC1Ev @314
    _ZN21CosNotifyChannelAdmin10ProxyIDSeqD1Ev @315
    _ZN21CosNotifyChannelAdmin11_tc_AdminIDE @316 DATA
    _ZN21CosNotifyChannelAdmin11_tc_ProxyIDE @317 DATA
    _ZN21CosNotifyChannelAdmin12ChannelIDSeqC1ERKS0_ @318
    _ZN21CosNotifyChannelAdmin12ChannelIDSeqC1Ev @319
    _ZN21CosNotifyChannelAdmin12ChannelIDSeqD1Ev @320
    _ZN21CosNotifyChannelAdmin12NotConnectedC1Ev @321
    _ZN21CosNotifyChannelAdmin12NotConnectedlSER9cdrStream @322
    _ZN21CosNotifyChannelAdmin13AdminNotFoundC1Ev @323
    _ZN21CosNotifyChannelAdmin13AdminNotFoundlSER9cdrStream @324
    _ZN21CosNotifyChannelAdmin13ProxyNotFoundC1Ev @325
    _ZN21CosNotifyChannelAdmin13ProxyNotFoundlSER9cdrStream @326
    _ZN21CosNotifyChannelAdmin13_tc_ChannelIDE @327 DATA
    _ZN21CosNotifyChannelAdmin13_tc_ProxyTypeE @328 DATA
    _ZN21CosNotifyChannelAdmin14_tc_AdminIDSeqE @329 DATA
    _ZN21CosNotifyChannelAdmin14_tc_AdminLimitE @330 DATA
    _ZN21CosNotifyChannelAdmin14_tc_ClientTypeE @331 DATA
    _ZN21CosNotifyChannelAdmin14_tc_ProxyIDSeqE @332 DATA
    _ZN21CosNotifyChannelAdmin15ChannelNotFoundC1Ev @333
    _ZN21CosNotifyChannelAdmin15ChannelNotFoundlSER9cdrStream @334
    _ZN21CosNotifyChannelAdmin16_tc_ChannelIDSeqE @335 DATA
    _ZN21CosNotifyChannelAdmin16_tc_EventChannelE @336 DATA
    _ZN21CosNotifyChannelAdmin16_tc_NotConnectedE @337 DATA
    _ZN21CosNotifyChannelAdmin17_tc_AdminNotFoundE @338 DATA
    _ZN21CosNotifyChannelAdmin17_tc_ConsumerAdminE @339 DATA
    _ZN21CosNotifyChannelAdmin17_tc_ProxyConsumerE @340 DATA
    _ZN21CosNotifyChannelAdmin17_tc_ProxyNotFoundE @341 DATA
    _ZN21CosNotifyChannelAdmin17_tc_ProxySupplierE @342 DATA
    _ZN21CosNotifyChannelAdmin17_tc_SupplierAdminE @343 DATA
    _ZN21CosNotifyChannelAdmin18AdminLimitExceededC1Ev @344
    _ZN21CosNotifyChannelAdmin18_tc_ObtainInfoModeE @345 DATA
    _ZN21CosNotifyChannelAdmin19_tc_ChannelNotFoundE @346 DATA
    _ZN21CosNotifyChannelAdmin21_tc_ProxyPullConsumerE @347 DATA
    _ZN21CosNotifyChannelAdmin21_tc_ProxyPullSupplierE @348 DATA
    _ZN21CosNotifyChannelAdmin21_tc_ProxyPushConsumerE @349 DATA
    _ZN21CosNotifyChannelAdmin21_tc_ProxyPushSupplierE @350 DATA
    _ZN21CosNotifyChannelAdmin22_tc_AdminLimitExceededE @351 DATA
    _ZN21CosNotifyChannelAdmin23ConnectionAlreadyActiveC1Ev @352
    _ZN21CosNotifyChannelAdmin23ConnectionAlreadyActivelSER9cdrStream @353
    _ZN21CosNotifyChannelAdmin23_tc_EventChannelFactoryE @354 DATA
    _ZN21CosNotifyChannelAdmin25ConnectionAlreadyInactiveC1Ev @355
    _ZN21CosNotifyChannelAdmin25ConnectionAlreadyInactivelSER9cdrStream @356
    _ZN21CosNotifyChannelAdmin27_tc_ConnectionAlreadyActiveE @357 DATA
    _ZN21CosNotifyChannelAdmin28_tc_InterFilterGroupOperatorE @358 DATA
    _ZN21CosNotifyChannelAdmin29_tc_ConnectionAlreadyInactiveE @359 DATA
    _ZN21CosNotifyChannelAdmin29_tc_SequenceProxyPullConsumerE @360 DATA
    _ZN21CosNotifyChannelAdmin29_tc_SequenceProxyPullSupplierE @361 DATA
    _ZN21CosNotifyChannelAdmin29_tc_SequenceProxyPushConsumerE @362 DATA
    _ZN21CosNotifyChannelAdmin29_tc_SequenceProxyPushSupplierE @363 DATA
    _ZN21CosNotifyChannelAdmin31_tc_StructuredProxyPullConsumerE @364 DATA
    _ZN21CosNotifyChannelAdmin31_tc_StructuredProxyPullSupplierE @365 DATA
    _ZN21CosNotifyChannelAdmin31_tc_StructuredProxyPushConsumerE @366 DATA
    _ZN21CosNotifyChannelAdmin31_tc_StructuredProxyPushSupplierE @367 DATA
    _ZN22_CORBA_Sequence_ObjRefIN5CORBA6ObjectENS0_14Object_ElementENS0_13Object_HelperEE10copybufferEm @368
    _ZN22_CORBA_Sequence_ObjRefIN5CORBA6ObjectENS0_14Object_ElementENS0_13Object_HelperEE6lengthEm @369
    _ZN22_CORBA_Sequence_ObjRefIN5CORBA6ObjectENS0_14Object_ElementENS0_13Object_HelperEE7freebufEPPS1_ @370
    _ZN22_CORBA_Sequence_ObjRefIN5CORBA6ObjectENS0_14Object_ElementENS0_13Object_HelperEE8allocbufEm @371
    _ZN22_CORBA_Sequence_ObjRefIN5CORBA6ObjectENS0_14Object_ElementENS0_13Object_HelperEEC2ERKS4_ @372
    _ZN22_CORBA_Sequence_ObjRefIN5CORBA6ObjectENS0_14Object_ElementENS0_13Object_HelperEEC2Ev @373
    _ZN22_CORBA_Sequence_ObjRefIN5CORBA6ObjectENS0_14Object_ElementENS0_13Object_HelperEED2Ev @374
    _ZN22_CORBA_Sequence_ObjRefIN5CORBA6ObjectENS0_14Object_ElementENS0_13Object_HelperEEixEm @375
    _ZN22_CORBA_Sequence_ObjRefIN5CORBA6ObjectENS0_14Object_ElementENS0_13Object_HelperEElSER9cdrStream @376
    _ZN25_CORBA_Unbounded_SequenceIN12CosLifeCycle3NVPEEC2ERKS2_ @377
    _ZN25_CORBA_Unbounded_SequenceIN12CosLifeCycle3NVPEEC2Ev @378
    _ZN25_CORBA_Unbounded_SequenceIN12CosLifeCycle3NVPEED2Ev @379
    _ZN25_CORBA_Unbounded_SequenceIN12CosLifeCycle3NVPEElSER9cdrStream @380
    _ZN25_CORBA_Unbounded_SequenceIN15CosNotification13PropertyErrorEEC2ERKS2_ @381
    _ZN25_CORBA_Unbounded_SequenceIN15CosNotification13PropertyErrorEEC2Ev @382
    _ZN25_CORBA_Unbounded_SequenceIN15CosNotification13PropertyErrorEED2Ev @383
    _ZN25_CORBA_Unbounded_SequenceIN15CosNotification13PropertyErrorEElSER9cdrStream @384
    _ZN25_CORBA_Unbounded_SequenceIN15CosNotification15StructuredEventEEC2ERKS2_ @385
    _ZN25_CORBA_Unbounded_SequenceIN15CosNotification15StructuredEventEEC2Ev @386
    _ZN25_CORBA_Unbounded_SequenceIN15CosNotification15StructuredEventEED2Ev @387
    _ZN25_CORBA_Unbounded_SequenceIN15CosNotification15StructuredEventEElSER9cdrStream @388
    _ZN25_CORBA_Unbounded_SequenceIN15CosNotification18NamedPropertyRangeEEC2ERKS2_ @389
    _ZN25_CORBA_Unbounded_SequenceIN15CosNotification18NamedPropertyRangeEEC2Ev @390
    _ZN25_CORBA_Unbounded_SequenceIN15CosNotification18NamedPropertyRangeEED2Ev @391
    _ZN25_CORBA_Unbounded_SequenceIN15CosNotification18NamedPropertyRangeEElSER9cdrStream @392
    _ZN25_CORBA_Unbounded_SequenceIN15CosNotification8PropertyEEC2ERKS2_ @393
    _ZN25_CORBA_Unbounded_SequenceIN15CosNotification8PropertyEEC2Ev @394
    _ZN25_CORBA_Unbounded_SequenceIN15CosNotification8PropertyEED2Ev @395
    _ZN25_CORBA_Unbounded_SequenceIN15CosNotification8PropertyEEaSERKS2_ @396
    _ZN25_CORBA_Unbounded_SequenceIN15CosNotification8PropertyEElSER9cdrStream @397
    _ZN25_CORBA_Unbounded_SequenceIN15CosNotification9EventTypeEEC2ERKS2_ @398
    _ZN25_CORBA_Unbounded_SequenceIN15CosNotification9EventTypeEEC2Ev @399
    _ZN25_CORBA_Unbounded_SequenceIN15CosNotification9EventTypeEED2Ev @400
    _ZN25_CORBA_Unbounded_SequenceIN15CosNotification9EventTypeEEaSERKS2_ @401
    _ZN25_CORBA_Unbounded_SequenceIN15CosNotification9EventTypeEElSER9cdrStream @402
    _ZN25_CORBA_Unbounded_SequenceIN15CosNotifyFilter13ConstraintExpEEC2ERKS2_ @403
    _ZN25_CORBA_Unbounded_SequenceIN15CosNotifyFilter13ConstraintExpEEC2Ev @404
    _ZN25_CORBA_Unbounded_SequenceIN15CosNotifyFilter13ConstraintExpEED2Ev @405
    _ZN25_CORBA_Unbounded_SequenceIN15CosNotifyFilter13ConstraintExpEElSER9cdrStream @406
    _ZN25_CORBA_Unbounded_SequenceIN15CosNotifyFilter14ConstraintInfoEEC2ERKS2_ @407
    _ZN25_CORBA_Unbounded_SequenceIN15CosNotifyFilter14ConstraintInfoEEC2Ev @408
    _ZN25_CORBA_Unbounded_SequenceIN15CosNotifyFilter14ConstraintInfoEED2Ev @409
    _ZN25_CORBA_Unbounded_SequenceIN15CosNotifyFilter14ConstraintInfoEElSER9cdrStream @410
    _ZN25_CORBA_Unbounded_SequenceIN15CosNotifyFilter21MappingConstraintInfoEEC2ERKS2_ @411
    _ZN25_CORBA_Unbounded_SequenceIN15CosNotifyFilter21MappingConstraintInfoEEC2Ev @412
    _ZN25_CORBA_Unbounded_SequenceIN15CosNotifyFilter21MappingConstraintInfoEED2Ev @413
    _ZN25_CORBA_Unbounded_SequenceIN15CosNotifyFilter21MappingConstraintInfoEElSER9cdrStream @414
    _ZN25_CORBA_Unbounded_SequenceIN15CosNotifyFilter21MappingConstraintPairEEC2ERKS2_ @415
    _ZN25_CORBA_Unbounded_SequenceIN15CosNotifyFilter21MappingConstraintPairEEC2Ev @416
    _ZN25_CORBA_Unbounded_SequenceIN15CosNotifyFilter21MappingConstraintPairEED2Ev @417
    _ZN25_CORBA_Unbounded_SequenceIN15CosNotifyFilter21MappingConstraintPairEElSER9cdrStream @418
    _ZN25_CORBA_Unbounded_SequenceIN9CosNaming13NameComponentEEC2Ev @419
    _ZN25_CORBA_Unbounded_SequenceIlEC2ERKS0_ @420
    _ZN25_CORBA_Unbounded_SequenceIlEC2Ev @421
    _ZN25_CORBA_Unbounded_SequenceIlED2Ev @422
    _ZN32_CORBA_Unbounded_Sequence_ObjRefIN5CORBA6ObjectENS0_14Object_ElementENS0_13Object_HelperEEC2ERKS4_ @423
    _ZN32_CORBA_Unbounded_Sequence_ObjRefIN5CORBA6ObjectENS0_14Object_ElementENS0_13Object_HelperEEC2Ev @424
    _ZN32_CORBA_Unbounded_Sequence_ObjRefIN5CORBA6ObjectENS0_14Object_ElementENS0_13Object_HelperEED2Ev @425
    _ZN42_CORBA_Unbounded_Sequence_w_FixSizeElementIlLi4ELi4EEC2ERKS0_ @426
    _ZN42_CORBA_Unbounded_Sequence_w_FixSizeElementIlLi4ELi4EEC2Ev @427
    _ZN42_CORBA_Unbounded_Sequence_w_FixSizeElementIlLi4ELi4EED2Ev @428
    _ZN42_CORBA_Unbounded_Sequence_w_FixSizeElementIlLi4ELi4EElSER9cdrStream @429
    _ZN4omni8align_toEmNS_11alignment_tE @430
    _ZN52_0RL_insertToAny_Singleton__cCosLifeCycle_mNoFactoryC1Ev @431
    _ZN53_0RL_insertToAny_Singleton__cCosLifeCycle_mNotMovableC1Ev @432
    _ZN53_0RL_insertToAny_Singleton__cCosTime_mTimeUnavailableC1Ev @433
    _ZN54_0RL_insertToAny_Singleton__cCosLifeCycle_mNotCopyableC1Ev @434
    _ZN55_0RL_insertToAny_Singleton__cCosEventComm_mDisconnectedC1Ev @435
    _ZN55_0RL_insertToAny_Singleton__cCosLifeCycle_mNotRemovableC1Ev @436
    _ZN58_0RL_insertToAny_Singleton__cCosLifeCycle_mInvalidCriteriaC1Ev @437
    _ZN58_0RL_insertToAny_Singleton__cCosNotifyFilter_mInvalidValueC1Ev @438
    _ZN5CORBA13UserExceptionC2Ev @439
    _ZN5CORBA14Object_ElementC1ERPNS_6ObjectEb @440
    _ZN5CORBA14Object_ElementD1Ev @441
    _ZN5CORBA14Object_ElementaSEPNS_6ObjectE @442
    _ZN5CORBA14Object_ElementaSERKS0_ @443
    _ZN5CORBA6Object10_PR_getobjEv @444
    _ZN5CORBA7releaseEPNS_6ObjectE @445
    _ZN5CORBA8TypeCode8_TrackerC1EPKc @446
    _ZN5CORBA9ExceptionC2Ev @447
    _ZN60_0RL_insertToAny_Singleton__cCosEventChannelAdmin_mTypeErrorC1Ev @448
    _ZN60_0RL_insertToAny_Singleton__cCosNotification_mUnsupportedQoSC1Ev @449
    _ZN60_0RL_insertToAny_Singleton__cCosNotifyComm_mInvalidEventTypeC1Ev @450
    _ZN60_0RL_insertToAny_Singleton__cCosNotifyFilter_mFilterNotFoundC1Ev @451
    _ZN60_0RL_insertToAny_Singleton__cCosNotifyFilter_mInvalidGrammarC1Ev @452
    _ZN61_0RL_insertToAny_Singleton__cCosLifeCycle_mCannotMeetCriteriaC1Ev @453
    _ZN62_0RL_insertToAny_Singleton__cCosNotification_mUnsupportedAdminC1Ev @454
    _ZN62_0RL_insertToAny_Singleton__cCosNotifyFilter_mCallbackNotFoundC1Ev @455
    _ZN63_0RL_insertToAny_Singleton__cCosNotifyFilter_mInvalidConstraintC1Ev @456
    _ZN64_0RL_insertToAny_Singleton__cCosNotifyChannelAdmin_mNotConnectedC1Ev @457
    _ZN64_0RL_insertToAny_Singleton__cCosNotifyFilter_mConstraintNotFoundC1Ev @458
    _ZN65_0RL_insertToAny_Singleton__cCosNotifyChannelAdmin_mAdminNotFoundC1Ev @459
    _ZN65_0RL_insertToAny_Singleton__cCosNotifyChannelAdmin_mProxyNotFoundC1Ev @460
    _ZN67_0RL_insertToAny_Singleton__cCosEventChannelAdmin_mAlreadyConnectedC1Ev @461
    _ZN67_0RL_insertToAny_Singleton__cCosNotifyChannelAdmin_mChannelNotFoundC1Ev @462
    _ZN67_0RL_insertToAny_Singleton__cCosNotifyFilter_mDuplicateConstraintIDC1Ev @463
    _ZN70_0RL_insertToAny_Singleton__cCosNotifyChannelAdmin_mAdminLimitExceededC1Ev @464
    _ZN71_0RL_insertToAny_Singleton__cCosNotifyFilter_mUnsupportedFilterableDataC1Ev @465
    _ZN75_0RL_insertToAny_Singleton__cCosNotifyChannelAdmin_mConnectionAlreadyActiveC1Ev @466
    _ZN77_0RL_insertToAny_Singleton__cCosNotifyChannelAdmin_mConnectionAlreadyInactiveC1Ev @467
    _ZN7CosTime15TimeUnavailableC1Ev @468
    _ZN7CosTime15TimeUnavailablelSER9cdrStream @469
    _ZN7CosTime15_tc_OverlapTypeE @470 DATA
    _ZN7CosTime15_tc_TimeServiceE @471 DATA
    _ZN7CosTime18_tc_ComparisonTypeE @472 DATA
    _ZN7CosTime18_tc_TimeComparisonE @473 DATA
    _ZN7CosTime19_tc_TimeUnavailableE @474 DATA
    _ZN7CosTime7_tc_TIOE @475 DATA
    _ZN7CosTime7_tc_UTOE @476 DATA
    _ZN8TimeBase13_tc_IntervalTE @477 DATA
    _ZN8TimeBase15_tc_InaccuracyTE @478 DATA
    _ZN8TimeBase8_tc_TdfTE @479 DATA
    _ZN8TimeBase8_tc_UtcTE @480 DATA
    _ZN8TimeBase9_tc_TimeTE @481 DATA
    _ZN9CosNaming4NameC1Ev @482
    _ZNK12CosEventComm12DisconnectedrSER9cdrStream @483
    _ZNK15CosNotifyFilter14FilterNotFoundrSER9cdrStream @484
    _ZNK15CosNotifyFilter14InvalidGrammarrSER9cdrStream @485
    _ZNK15CosNotifyFilter16CallbackNotFoundrSER9cdrStream @486
    _ZNK15CosNotifyFilter25UnsupportedFilterableDatarSER9cdrStream @487
    _ZNK15_CORBA_SequenceIlE6lengthEv @488
    _ZNK15_CORBA_SequenceIlE7NP_dataEv @489
    _ZNK20CosEventChannelAdmin16AlreadyConnectedrSER9cdrStream @490
    _ZNK20CosEventChannelAdmin9TypeErrorrSER9cdrStream @491
    _ZNK21CosNotifyChannelAdmin12NotConnectedrSER9cdrStream @492
    _ZNK21CosNotifyChannelAdmin13AdminNotFoundrSER9cdrStream @493
    _ZNK21CosNotifyChannelAdmin13ProxyNotFoundrSER9cdrStream @494
    _ZNK21CosNotifyChannelAdmin15ChannelNotFoundrSER9cdrStream @495
    _ZNK21CosNotifyChannelAdmin23ConnectionAlreadyActiverSER9cdrStream @496
    _ZNK21CosNotifyChannelAdmin25ConnectionAlreadyInactiverSER9cdrStream @497
    _ZNK22_CORBA_Sequence_ObjRefIN5CORBA6ObjectENS0_14Object_ElementENS0_13Object_HelperEEixEm @498
    _ZNK22_CORBA_Sequence_ObjRefIN5CORBA6ObjectENS0_14Object_ElementENS0_13Object_HelperEErSER9cdrStream @499
    _ZNK25_CORBA_Unbounded_SequenceIN12CosLifeCycle3NVPEErSER9cdrStream @500
    _ZNK25_CORBA_Unbounded_SequenceIN15CosNotification13PropertyErrorEErSER9cdrStream @501
    _ZNK25_CORBA_Unbounded_SequenceIN15CosNotification15StructuredEventEErSER9cdrStream @502
    _ZNK25_CORBA_Unbounded_SequenceIN15CosNotification18NamedPropertyRangeEErSER9cdrStream @503
    _ZNK25_CORBA_Unbounded_SequenceIN15CosNotification8PropertyEErSER9cdrStream @504
    _ZNK25_CORBA_Unbounded_SequenceIN15CosNotification9EventTypeEErSER9cdrStream @505
    _ZNK25_CORBA_Unbounded_SequenceIN15CosNotifyFilter13ConstraintExpEErSER9cdrStream @506
    _ZNK25_CORBA_Unbounded_SequenceIN15CosNotifyFilter14ConstraintInfoEErSER9cdrStream @507
    _ZNK25_CORBA_Unbounded_SequenceIN15CosNotifyFilter21MappingConstraintInfoEErSER9cdrStream @508
    _ZNK25_CORBA_Unbounded_SequenceIN15CosNotifyFilter21MappingConstraintPairEErSER9cdrStream @509
    _ZNK25_CORBA_Unbounded_SequenceIlErSER9cdrStream @510
    _ZNK42_CORBA_Unbounded_Sequence_w_FixSizeElementIlLi4ELi4EErSER9cdrStream @511
    _ZNK5CORBA6Object10_NP_is_nilEv @512
    _ZNK5CORBA6Object13_NP_is_pseudoEv @513
    _ZNK7CosTime15TimeUnavailablerSER9cdrStream @514
    _ZNK9cdrStream17marshal_byte_swapEv @515
    _ZNK9cdrStream19unmarshal_byte_swapEv @516
    _ZlSRN15CosNotification13QoSError_codeER9cdrStream @517
    _ZlSRN21CosNotifyChannelAdmin10ClientTypeER9cdrStream @518
    _ZlSRN21CosNotifyChannelAdmin14ObtainInfoModeER9cdrStream @519
    _ZlSRN21CosNotifyChannelAdmin24InterFilterGroupOperatorER9cdrStream @520
    _ZlSRN21CosNotifyChannelAdmin9ProxyTypeER9cdrStream @521
    _ZlSRN5CORBA3AnyEN15CosNotification13QoSError_codeE @522
    _ZlSRN5CORBA3AnyEN21CosNotifyChannelAdmin10ClientTypeE @523
    _ZlSRN5CORBA3AnyEN21CosNotifyChannelAdmin14ObtainInfoModeE @524
    _ZlSRN5CORBA3AnyEN21CosNotifyChannelAdmin24InterFilterGroupOperatorE @525
    _ZlSRN5CORBA3AnyEN21CosNotifyChannelAdmin9ProxyTypeE @526
    _ZlSRN5CORBA3AnyEN7CosTime11OverlapTypeE @527
    _ZlSRN5CORBA3AnyEN7CosTime14ComparisonTypeE @528
    _ZlSRN5CORBA3AnyEN7CosTime14TimeComparisonE @529
    _ZlSRN5CORBA3AnyEPKN12CosEventComm12DisconnectedE @530
    _ZlSRN5CORBA3AnyEPKN12CosLifeCycle10NotMovableE @531
    _ZlSRN5CORBA3AnyEPKN12CosLifeCycle11NotCopyableE @532
    _ZlSRN5CORBA3AnyEPKN12CosLifeCycle12NotRemovableE @533
    _ZlSRN5CORBA3AnyEPKN12CosLifeCycle15InvalidCriteriaE @534
    _ZlSRN5CORBA3AnyEPKN12CosLifeCycle18CannotMeetCriteriaE @535
    _ZlSRN5CORBA3AnyEPKN12CosLifeCycle9NoFactoryE @536
    _ZlSRN5CORBA3AnyEPKN13CosNotifyComm16InvalidEventTypeE @537
    _ZlSRN5CORBA3AnyEPKN15CosNotification14UnsupportedQoSE @538
    _ZlSRN5CORBA3AnyEPKN15CosNotification16UnsupportedAdminE @539
    _ZlSRN5CORBA3AnyEPKN15CosNotifyFilter12InvalidValueE @540
    _ZlSRN5CORBA3AnyEPKN15CosNotifyFilter14FilterNotFoundE @541
    _ZlSRN5CORBA3AnyEPKN15CosNotifyFilter14InvalidGrammarE @542
    _ZlSRN5CORBA3AnyEPKN15CosNotifyFilter16CallbackNotFoundE @543
    _ZlSRN5CORBA3AnyEPKN15CosNotifyFilter17InvalidConstraintE @544
    _ZlSRN5CORBA3AnyEPKN15CosNotifyFilter18ConstraintNotFoundE @545
    _ZlSRN5CORBA3AnyEPKN15CosNotifyFilter21DuplicateConstraintIDE @546
    _ZlSRN5CORBA3AnyEPKN15CosNotifyFilter25UnsupportedFilterableDataE @547
    _ZlSRN5CORBA3AnyEPKN20CosEventChannelAdmin16AlreadyConnectedE @548
    _ZlSRN5CORBA3AnyEPKN20CosEventChannelAdmin9TypeErrorE @549
    _ZlSRN5CORBA3AnyEPKN21CosNotifyChannelAdmin12NotConnectedE @550
    _ZlSRN5CORBA3AnyEPKN21CosNotifyChannelAdmin13AdminNotFoundE @551
    _ZlSRN5CORBA3AnyEPKN21CosNotifyChannelAdmin13ProxyNotFoundE @552
    _ZlSRN5CORBA3AnyEPKN21CosNotifyChannelAdmin15ChannelNotFoundE @553
    _ZlSRN5CORBA3AnyEPKN21CosNotifyChannelAdmin18AdminLimitExceededE @554
    _ZlSRN5CORBA3AnyEPKN21CosNotifyChannelAdmin23ConnectionAlreadyActiveE @555
    _ZlSRN5CORBA3AnyEPKN21CosNotifyChannelAdmin25ConnectionAlreadyInactiveE @556
    _ZlSRN5CORBA3AnyEPKN7CosTime15TimeUnavailableE @557
    _ZlSRN5CORBA3AnyEPN12CosEventComm20_objref_PullConsumerE @558
    _ZlSRN5CORBA3AnyEPN12CosEventComm20_objref_PullSupplierE @559
    _ZlSRN5CORBA3AnyEPN12CosEventComm20_objref_PushConsumerE @560
    _ZlSRN5CORBA3AnyEPN12CosEventComm20_objref_PushSupplierE @561
    _ZlSRN5CORBA3AnyEPN12CosLifeCycle21_objref_FactoryFinderE @562
    _ZlSRN5CORBA3AnyEPN12CosLifeCycle22_objref_GenericFactoryE @563
    _ZlSRN5CORBA3AnyEPN12CosLifeCycle23_objref_LifeCycleObjectE @564
    _ZlSRN5CORBA3AnyEPN12CosLifeCycle3NVPE @565
    _ZlSRN5CORBA3AnyEPN12CosLifeCycle8CriteriaE @566
    _ZlSRN5CORBA3AnyEPN12CosLifeCycle9FactoriesE @567
    _ZlSRN5CORBA3AnyEPN13CosNotifyComm20_objref_PullConsumerE @568
    _ZlSRN5CORBA3AnyEPN13CosNotifyComm20_objref_PullSupplierE @569
    _ZlSRN5CORBA3AnyEPN13CosNotifyComm20_objref_PushConsumerE @570
    _ZlSRN5CORBA3AnyEPN13CosNotifyComm20_objref_PushSupplierE @571
    _ZlSRN5CORBA3AnyEPN13CosNotifyComm21_objref_NotifyPublishE @572
    _ZlSRN5CORBA3AnyEPN13CosNotifyComm23_objref_NotifySubscribeE @573
    _ZlSRN5CORBA3AnyEPN13CosNotifyComm28_objref_SequencePullConsumerE @574
    _ZlSRN5CORBA3AnyEPN13CosNotifyComm28_objref_SequencePullSupplierE @575
    _ZlSRN5CORBA3AnyEPN13CosNotifyComm28_objref_SequencePushConsumerE @576
    _ZlSRN5CORBA3AnyEPN13CosNotifyComm28_objref_SequencePushSupplierE @577
    _ZlSRN5CORBA3AnyEPN13CosNotifyComm30_objref_StructuredPullConsumerE @578
    _ZlSRN5CORBA3AnyEPN13CosNotifyComm30_objref_StructuredPullSupplierE @579
    _ZlSRN5CORBA3AnyEPN13CosNotifyComm30_objref_StructuredPushConsumerE @580
    _ZlSRN5CORBA3AnyEPN13CosNotifyComm30_objref_StructuredPushSupplierE @581
    _ZlSRN5CORBA3AnyEPN15CosNotification10EventBatchE @582
    _ZlSRN5CORBA3AnyEPN15CosNotification11EventHeaderE @583
    _ZlSRN5CORBA3AnyEPN15CosNotification11PropertySeqE @584
    _ZlSRN5CORBA3AnyEPN15CosNotification12EventTypeSeqE @585
    _ZlSRN5CORBA3AnyEPN15CosNotification13PropertyErrorE @586
    _ZlSRN5CORBA3AnyEPN15CosNotification13PropertyRangeE @587
    _ZlSRN5CORBA3AnyEPN15CosNotification15StructuredEventE @588
    _ZlSRN5CORBA3AnyEPN15CosNotification16FixedEventHeaderE @589
    _ZlSRN5CORBA3AnyEPN15CosNotification16PropertyErrorSeqE @590
    _ZlSRN5CORBA3AnyEPN15CosNotification16_objref_QoSAdminE @591
    _ZlSRN5CORBA3AnyEPN15CosNotification18NamedPropertyRangeE @592
    _ZlSRN5CORBA3AnyEPN15CosNotification21NamedPropertyRangeSeqE @593
    _ZlSRN5CORBA3AnyEPN15CosNotification28_objref_AdminPropertiesAdminE @594
    _ZlSRN5CORBA3AnyEPN15CosNotification8PropertyE @595
    _ZlSRN5CORBA3AnyEPN15CosNotification9EventTypeE @596
    _ZlSRN5CORBA3AnyEPN15CosNotifyFilter11FilterIDSeqE @597
    _ZlSRN5CORBA3AnyEPN15CosNotifyFilter13CallbackIDSeqE @598
    _ZlSRN5CORBA3AnyEPN15CosNotifyFilter13ConstraintExpE @599
    _ZlSRN5CORBA3AnyEPN15CosNotifyFilter14ConstraintInfoE @600
    _ZlSRN5CORBA3AnyEPN15CosNotifyFilter14_objref_FilterE @601
    _ZlSRN5CORBA3AnyEPN15CosNotifyFilter15ConstraintIDSeqE @602
    _ZlSRN5CORBA3AnyEPN15CosNotifyFilter16ConstraintExpSeqE @603
    _ZlSRN5CORBA3AnyEPN15CosNotifyFilter17ConstraintInfoSeqE @604
    _ZlSRN5CORBA3AnyEPN15CosNotifyFilter19_objref_FilterAdminE @605
    _ZlSRN5CORBA3AnyEPN15CosNotifyFilter21MappingConstraintInfoE @606
    _ZlSRN5CORBA3AnyEPN15CosNotifyFilter21MappingConstraintPairE @607
    _ZlSRN5CORBA3AnyEPN15CosNotifyFilter21_objref_FilterFactoryE @608
    _ZlSRN5CORBA3AnyEPN15CosNotifyFilter21_objref_MappingFilterE @609
    _ZlSRN5CORBA3AnyEPN15CosNotifyFilter24MappingConstraintInfoSeqE @610
    _ZlSRN5CORBA3AnyEPN15CosNotifyFilter24MappingConstraintPairSeqE @611
    _ZlSRN5CORBA3AnyEPN20CosEventChannelAdmin20_objref_EventChannelE @612
    _ZlSRN5CORBA3AnyEPN20CosEventChannelAdmin21_objref_ConsumerAdminE @613
    _ZlSRN5CORBA3AnyEPN20CosEventChannelAdmin21_objref_SupplierAdminE @614
    _ZlSRN5CORBA3AnyEPN20CosEventChannelAdmin25_objref_ProxyPullConsumerE @615
    _ZlSRN5CORBA3AnyEPN20CosEventChannelAdmin25_objref_ProxyPullSupplierE @616
    _ZlSRN5CORBA3AnyEPN20CosEventChannelAdmin25_objref_ProxyPushConsumerE @617
    _ZlSRN5CORBA3AnyEPN20CosEventChannelAdmin25_objref_ProxyPushSupplierE @618
    _ZlSRN5CORBA3AnyEPN21CosNotifyChannelAdmin10AdminIDSeqE @619
    _ZlSRN5CORBA3AnyEPN21CosNotifyChannelAdmin10AdminLimitE @620
    _ZlSRN5CORBA3AnyEPN21CosNotifyChannelAdmin10ProxyIDSeqE @621
    _ZlSRN5CORBA3AnyEPN21CosNotifyChannelAdmin12ChannelIDSeqE @622
    _ZlSRN5CORBA3AnyEPN21CosNotifyChannelAdmin20_objref_EventChannelE @623
    _ZlSRN5CORBA3AnyEPN21CosNotifyChannelAdmin21_objref_ConsumerAdminE @624
    _ZlSRN5CORBA3AnyEPN21CosNotifyChannelAdmin21_objref_ProxyConsumerE @625
    _ZlSRN5CORBA3AnyEPN21CosNotifyChannelAdmin21_objref_ProxySupplierE @626
    _ZlSRN5CORBA3AnyEPN21CosNotifyChannelAdmin21_objref_SupplierAdminE @627
    _ZlSRN5CORBA3AnyEPN21CosNotifyChannelAdmin25_objref_ProxyPullConsumerE @628
    _ZlSRN5CORBA3AnyEPN21CosNotifyChannelAdmin25_objref_ProxyPullSupplierE @629
    _ZlSRN5CORBA3AnyEPN21CosNotifyChannelAdmin25_objref_ProxyPushConsumerE @630
    _ZlSRN5CORBA3AnyEPN21CosNotifyChannelAdmin25_objref_ProxyPushSupplierE @631
    _ZlSRN5CORBA3AnyEPN21CosNotifyChannelAdmin27_objref_EventChannelFactoryE @632
    _ZlSRN5CORBA3AnyEPN21CosNotifyChannelAdmin33_objref_SequenceProxyPullConsumerE @633
    _ZlSRN5CORBA3AnyEPN21CosNotifyChannelAdmin33_objref_SequenceProxyPullSupplierE @634
    _ZlSRN5CORBA3AnyEPN21CosNotifyChannelAdmin33_objref_SequenceProxyPushConsumerE @635
    _ZlSRN5CORBA3AnyEPN21CosNotifyChannelAdmin33_objref_SequenceProxyPushSupplierE @636
    _ZlSRN5CORBA3AnyEPN21CosNotifyChannelAdmin35_objref_StructuredProxyPullConsumerE @637
    _ZlSRN5CORBA3AnyEPN21CosNotifyChannelAdmin35_objref_StructuredProxyPullSupplierE @638
    _ZlSRN5CORBA3AnyEPN21CosNotifyChannelAdmin35_objref_StructuredProxyPushConsumerE @639
    _ZlSRN5CORBA3AnyEPN21CosNotifyChannelAdmin35_objref_StructuredProxyPushSupplierE @640
    _ZlSRN5CORBA3AnyEPN7CosTime11_objref_TIOE @641
    _ZlSRN5CORBA3AnyEPN7CosTime11_objref_UTOE @642
    _ZlSRN5CORBA3AnyEPN7CosTime19_objref_TimeServiceE @643
    _ZlSRN5CORBA3AnyEPN8TimeBase4UtcTE @644
    _ZlSRN5CORBA3AnyEPN8TimeBase9IntervalTE @645
    _ZlSRN5CORBA3AnyEPPN12CosEventComm20_objref_PullConsumerE @646
    _ZlSRN5CORBA3AnyEPPN12CosEventComm20_objref_PullSupplierE @647
    _ZlSRN5CORBA3AnyEPPN12CosEventComm20_objref_PushConsumerE @648
    _ZlSRN5CORBA3AnyEPPN12CosEventComm20_objref_PushSupplierE @649
    _ZlSRN5CORBA3AnyEPPN12CosLifeCycle21_objref_FactoryFinderE @650
    _ZlSRN5CORBA3AnyEPPN12CosLifeCycle22_objref_GenericFactoryE @651
    _ZlSRN5CORBA3AnyEPPN12CosLifeCycle23_objref_LifeCycleObjectE @652
    _ZlSRN5CORBA3AnyEPPN13CosNotifyComm20_objref_PullConsumerE @653
    _ZlSRN5CORBA3AnyEPPN13CosNotifyComm20_objref_PullSupplierE @654
    _ZlSRN5CORBA3AnyEPPN13CosNotifyComm20_objref_PushConsumerE @655
    _ZlSRN5CORBA3AnyEPPN13CosNotifyComm20_objref_PushSupplierE @656
    _ZlSRN5CORBA3AnyEPPN13CosNotifyComm21_objref_NotifyPublishE @657
    _ZlSRN5CORBA3AnyEPPN13CosNotifyComm23_objref_NotifySubscribeE @658
    _ZlSRN5CORBA3AnyEPPN13CosNotifyComm28_objref_SequencePullConsumerE @659
    _ZlSRN5CORBA3AnyEPPN13CosNotifyComm28_objref_SequencePullSupplierE @660
    _ZlSRN5CORBA3AnyEPPN13CosNotifyComm28_objref_SequencePushConsumerE @661
    _ZlSRN5CORBA3AnyEPPN13CosNotifyComm28_objref_SequencePushSupplierE @662
    _ZlSRN5CORBA3AnyEPPN13CosNotifyComm30_objref_StructuredPullConsumerE @663
    _ZlSRN5CORBA3AnyEPPN13CosNotifyComm30_objref_StructuredPullSupplierE @664
    _ZlSRN5CORBA3AnyEPPN13CosNotifyComm30_objref_StructuredPushConsumerE @665
    _ZlSRN5CORBA3AnyEPPN13CosNotifyComm30_objref_StructuredPushSupplierE @666
    _ZlSRN5CORBA3AnyEPPN15CosNotification16_objref_QoSAdminE @667
    _ZlSRN5CORBA3AnyEPPN15CosNotification28_objref_AdminPropertiesAdminE @668
    _ZlSRN5CORBA3AnyEPPN15CosNotifyFilter14_objref_FilterE @669
    _ZlSRN5CORBA3AnyEPPN15CosNotifyFilter19_objref_FilterAdminE @670
    _ZlSRN5CORBA3AnyEPPN15CosNotifyFilter21_objref_FilterFactoryE @671
    _ZlSRN5CORBA3AnyEPPN15CosNotifyFilter21_objref_MappingFilterE @672
    _ZlSRN5CORBA3AnyEPPN20CosEventChannelAdmin20_objref_EventChannelE @673
    _ZlSRN5CORBA3AnyEPPN20CosEventChannelAdmin21_objref_ConsumerAdminE @674
    _ZlSRN5CORBA3AnyEPPN20CosEventChannelAdmin21_objref_SupplierAdminE @675
    _ZlSRN5CORBA3AnyEPPN20CosEventChannelAdmin25_objref_ProxyPullConsumerE @676
    _ZlSRN5CORBA3AnyEPPN20CosEventChannelAdmin25_objref_ProxyPullSupplierE @677
    _ZlSRN5CORBA3AnyEPPN20CosEventChannelAdmin25_objref_ProxyPushConsumerE @678
    _ZlSRN5CORBA3AnyEPPN20CosEventChannelAdmin25_objref_ProxyPushSupplierE @679
    _ZlSRN5CORBA3AnyEPPN21CosNotifyChannelAdmin20_objref_EventChannelE @680
    _ZlSRN5CORBA3AnyEPPN21CosNotifyChannelAdmin21_objref_ConsumerAdminE @681
    _ZlSRN5CORBA3AnyEPPN21CosNotifyChannelAdmin21_objref_ProxyConsumerE @682
    _ZlSRN5CORBA3AnyEPPN21CosNotifyChannelAdmin21_objref_ProxySupplierE @683
    _ZlSRN5CORBA3AnyEPPN21CosNotifyChannelAdmin21_objref_SupplierAdminE @684
    _ZlSRN5CORBA3AnyEPPN21CosNotifyChannelAdmin25_objref_ProxyPullConsumerE @685
    _ZlSRN5CORBA3AnyEPPN21CosNotifyChannelAdmin25_objref_ProxyPullSupplierE @686
    _ZlSRN5CORBA3AnyEPPN21CosNotifyChannelAdmin25_objref_ProxyPushConsumerE @687
    _ZlSRN5CORBA3AnyEPPN21CosNotifyChannelAdmin25_objref_ProxyPushSupplierE @688
    _ZlSRN5CORBA3AnyEPPN21CosNotifyChannelAdmin27_objref_EventChannelFactoryE @689
    _ZlSRN5CORBA3AnyEPPN21CosNotifyChannelAdmin33_objref_SequenceProxyPullConsumerE @690
    _ZlSRN5CORBA3AnyEPPN21CosNotifyChannelAdmin33_objref_SequenceProxyPullSupplierE @691
    _ZlSRN5CORBA3AnyEPPN21CosNotifyChannelAdmin33_objref_SequenceProxyPushConsumerE @692
    _ZlSRN5CORBA3AnyEPPN21CosNotifyChannelAdmin33_objref_SequenceProxyPushSupplierE @693
    _ZlSRN5CORBA3AnyEPPN21CosNotifyChannelAdmin35_objref_StructuredProxyPullConsumerE @694
    _ZlSRN5CORBA3AnyEPPN21CosNotifyChannelAdmin35_objref_StructuredProxyPullSupplierE @695
    _ZlSRN5CORBA3AnyEPPN21CosNotifyChannelAdmin35_objref_StructuredProxyPushConsumerE @696
    _ZlSRN5CORBA3AnyEPPN21CosNotifyChannelAdmin35_objref_StructuredProxyPushSupplierE @697
    _ZlSRN5CORBA3AnyEPPN7CosTime11_objref_TIOE @698
    _ZlSRN5CORBA3AnyEPPN7CosTime11_objref_UTOE @699
    _ZlSRN5CORBA3AnyEPPN7CosTime19_objref_TimeServiceE @700
    _ZlSRN5CORBA3AnyERKN12CosEventComm12DisconnectedE @701
    _ZlSRN5CORBA3AnyERKN12CosLifeCycle10NotMovableE @702
    _ZlSRN5CORBA3AnyERKN12CosLifeCycle11NotCopyableE @703
    _ZlSRN5CORBA3AnyERKN12CosLifeCycle12NotRemovableE @704
    _ZlSRN5CORBA3AnyERKN12CosLifeCycle15InvalidCriteriaE @705
    _ZlSRN5CORBA3AnyERKN12CosLifeCycle18CannotMeetCriteriaE @706
    _ZlSRN5CORBA3AnyERKN12CosLifeCycle3NVPE @707
    _ZlSRN5CORBA3AnyERKN12CosLifeCycle8CriteriaE @708
    _ZlSRN5CORBA3AnyERKN12CosLifeCycle9FactoriesE @709
    _ZlSRN5CORBA3AnyERKN12CosLifeCycle9NoFactoryE @710
    _ZlSRN5CORBA3AnyERKN13CosNotifyComm16InvalidEventTypeE @711
    _ZlSRN5CORBA3AnyERKN15CosNotification10EventBatchE @712
    _ZlSRN5CORBA3AnyERKN15CosNotification11EventHeaderE @713
    _ZlSRN5CORBA3AnyERKN15CosNotification11PropertySeqE @714
    _ZlSRN5CORBA3AnyERKN15CosNotification12EventTypeSeqE @715
    _ZlSRN5CORBA3AnyERKN15CosNotification13PropertyErrorE @716
    _ZlSRN5CORBA3AnyERKN15CosNotification13PropertyRangeE @717
    _ZlSRN5CORBA3AnyERKN15CosNotification14UnsupportedQoSE @718
    _ZlSRN5CORBA3AnyERKN15CosNotification15StructuredEventE @719
    _ZlSRN5CORBA3AnyERKN15CosNotification16FixedEventHeaderE @720
    _ZlSRN5CORBA3AnyERKN15CosNotification16PropertyErrorSeqE @721
    _ZlSRN5CORBA3AnyERKN15CosNotification16UnsupportedAdminE @722
    _ZlSRN5CORBA3AnyERKN15CosNotification18NamedPropertyRangeE @723
    _ZlSRN5CORBA3AnyERKN15CosNotification21NamedPropertyRangeSeqE @724
    _ZlSRN5CORBA3AnyERKN15CosNotification8PropertyE @725
    _ZlSRN5CORBA3AnyERKN15CosNotification9EventTypeE @726
    _ZlSRN5CORBA3AnyERKN15CosNotifyFilter11FilterIDSeqE @727
    _ZlSRN5CORBA3AnyERKN15CosNotifyFilter12InvalidValueE @728
    _ZlSRN5CORBA3AnyERKN15CosNotifyFilter13CallbackIDSeqE @729
    _ZlSRN5CORBA3AnyERKN15CosNotifyFilter13ConstraintExpE @730
    _ZlSRN5CORBA3AnyERKN15CosNotifyFilter14ConstraintInfoE @731
    _ZlSRN5CORBA3AnyERKN15CosNotifyFilter14FilterNotFoundE @732
    _ZlSRN5CORBA3AnyERKN15CosNotifyFilter14InvalidGrammarE @733
    _ZlSRN5CORBA3AnyERKN15CosNotifyFilter15ConstraintIDSeqE @734
    _ZlSRN5CORBA3AnyERKN15CosNotifyFilter16CallbackNotFoundE @735
    _ZlSRN5CORBA3AnyERKN15CosNotifyFilter16ConstraintExpSeqE @736
    _ZlSRN5CORBA3AnyERKN15CosNotifyFilter17ConstraintInfoSeqE @737
    _ZlSRN5CORBA3AnyERKN15CosNotifyFilter17InvalidConstraintE @738
    _ZlSRN5CORBA3AnyERKN15CosNotifyFilter18ConstraintNotFoundE @739
    _ZlSRN5CORBA3AnyERKN15CosNotifyFilter21DuplicateConstraintIDE @740
    _ZlSRN5CORBA3AnyERKN15CosNotifyFilter21MappingConstraintInfoE @741
    _ZlSRN5CORBA3AnyERKN15CosNotifyFilter21MappingConstraintPairE @742
    _ZlSRN5CORBA3AnyERKN15CosNotifyFilter24MappingConstraintInfoSeqE @743
    _ZlSRN5CORBA3AnyERKN15CosNotifyFilter24MappingConstraintPairSeqE @744
    _ZlSRN5CORBA3AnyERKN15CosNotifyFilter25UnsupportedFilterableDataE @745
    _ZlSRN5CORBA3AnyERKN20CosEventChannelAdmin16AlreadyConnectedE @746
    _ZlSRN5CORBA3AnyERKN20CosEventChannelAdmin9TypeErrorE @747
    _ZlSRN5CORBA3AnyERKN21CosNotifyChannelAdmin10AdminIDSeqE @748
    _ZlSRN5CORBA3AnyERKN21CosNotifyChannelAdmin10AdminLimitE @749
    _ZlSRN5CORBA3AnyERKN21CosNotifyChannelAdmin10ProxyIDSeqE @750
    _ZlSRN5CORBA3AnyERKN21CosNotifyChannelAdmin12ChannelIDSeqE @751
    _ZlSRN5CORBA3AnyERKN21CosNotifyChannelAdmin12NotConnectedE @752
    _ZlSRN5CORBA3AnyERKN21CosNotifyChannelAdmin13AdminNotFoundE @753
    _ZlSRN5CORBA3AnyERKN21CosNotifyChannelAdmin13ProxyNotFoundE @754
    _ZlSRN5CORBA3AnyERKN21CosNotifyChannelAdmin15ChannelNotFoundE @755
    _ZlSRN5CORBA3AnyERKN21CosNotifyChannelAdmin18AdminLimitExceededE @756
    _ZlSRN5CORBA3AnyERKN21CosNotifyChannelAdmin23ConnectionAlreadyActiveE @757
    _ZlSRN5CORBA3AnyERKN21CosNotifyChannelAdmin25ConnectionAlreadyInactiveE @758
    _ZlSRN5CORBA3AnyERKN7CosTime15TimeUnavailableE @759
    _ZlSRN5CORBA3AnyERKN8TimeBase4UtcTE @760
    _ZlSRN5CORBA3AnyERKN8TimeBase9IntervalTE @761
    _ZlSRN7CosTime11OverlapTypeER9cdrStream @762
    _ZlSRN7CosTime14ComparisonTypeER9cdrStream @763
    _ZlSRN7CosTime14TimeComparisonER9cdrStream @764
    _ZlSRmR9cdrStream @765
    _ZrSN15CosNotification13QoSError_codeER9cdrStream @766
    _ZrSN21CosNotifyChannelAdmin10ClientTypeER9cdrStream @767
    _ZrSN21CosNotifyChannelAdmin14ObtainInfoModeER9cdrStream @768
    _ZrSN21CosNotifyChannelAdmin24InterFilterGroupOperatorER9cdrStream @769
    _ZrSN21CosNotifyChannelAdmin9ProxyTypeER9cdrStream @770
    _ZrSN7CosTime11OverlapTypeER9cdrStream @771
    _ZrSN7CosTime14ComparisonTypeER9cdrStream @772
    _ZrSN7CosTime14TimeComparisonER9cdrStream @773
    _ZrSRKN5CORBA3AnyERN15CosNotification13QoSError_codeE @774
    _ZrSRKN5CORBA3AnyERN21CosNotifyChannelAdmin10ClientTypeE @775
    _ZrSRKN5CORBA3AnyERN21CosNotifyChannelAdmin14ObtainInfoModeE @776
    _ZrSRKN5CORBA3AnyERN21CosNotifyChannelAdmin24InterFilterGroupOperatorE @777
    _ZrSRKN5CORBA3AnyERN21CosNotifyChannelAdmin9ProxyTypeE @778
    _ZrSRKN5CORBA3AnyERN7CosTime11OverlapTypeE @779
    _ZrSRKN5CORBA3AnyERN7CosTime14ComparisonTypeE @780
    _ZrSRKN5CORBA3AnyERN7CosTime14TimeComparisonE @781
    _ZrSRKN5CORBA3AnyERPKN12CosEventComm12DisconnectedE @782
    _ZrSRKN5CORBA3AnyERPKN12CosLifeCycle10NotMovableE @783
    _ZrSRKN5CORBA3AnyERPKN12CosLifeCycle11NotCopyableE @784
    _ZrSRKN5CORBA3AnyERPKN12CosLifeCycle12NotRemovableE @785
    _ZrSRKN5CORBA3AnyERPKN12CosLifeCycle15InvalidCriteriaE @786
    _ZrSRKN5CORBA3AnyERPKN12CosLifeCycle18CannotMeetCriteriaE @787
    _ZrSRKN5CORBA3AnyERPKN12CosLifeCycle3NVPE @788
    _ZrSRKN5CORBA3AnyERPKN12CosLifeCycle8CriteriaE @789
    _ZrSRKN5CORBA3AnyERPKN12CosLifeCycle9FactoriesE @790
    _ZrSRKN5CORBA3AnyERPKN12CosLifeCycle9NoFactoryE @791
    _ZrSRKN5CORBA3AnyERPKN13CosNotifyComm16InvalidEventTypeE @792
    _ZrSRKN5CORBA3AnyERPKN15CosNotification10EventBatchE @793
    _ZrSRKN5CORBA3AnyERPKN15CosNotification11EventHeaderE @794
    _ZrSRKN5CORBA3AnyERPKN15CosNotification11PropertySeqE @795
    _ZrSRKN5CORBA3AnyERPKN15CosNotification12EventTypeSeqE @796
    _ZrSRKN5CORBA3AnyERPKN15CosNotification13PropertyErrorE @797
    _ZrSRKN5CORBA3AnyERPKN15CosNotification13PropertyRangeE @798
    _ZrSRKN5CORBA3AnyERPKN15CosNotification14UnsupportedQoSE @799
    _ZrSRKN5CORBA3AnyERPKN15CosNotification15StructuredEventE @800
    _ZrSRKN5CORBA3AnyERPKN15CosNotification16FixedEventHeaderE @801
    _ZrSRKN5CORBA3AnyERPKN15CosNotification16PropertyErrorSeqE @802
    _ZrSRKN5CORBA3AnyERPKN15CosNotification16UnsupportedAdminE @803
    _ZrSRKN5CORBA3AnyERPKN15CosNotification18NamedPropertyRangeE @804
    _ZrSRKN5CORBA3AnyERPKN15CosNotification21NamedPropertyRangeSeqE @805
    _ZrSRKN5CORBA3AnyERPKN15CosNotification8PropertyE @806
    _ZrSRKN5CORBA3AnyERPKN15CosNotification9EventTypeE @807
    _ZrSRKN5CORBA3AnyERPKN15CosNotifyFilter11FilterIDSeqE @808
    _ZrSRKN5CORBA3AnyERPKN15CosNotifyFilter12InvalidValueE @809
    _ZrSRKN5CORBA3AnyERPKN15CosNotifyFilter13CallbackIDSeqE @810
    _ZrSRKN5CORBA3AnyERPKN15CosNotifyFilter13ConstraintExpE @811
    _ZrSRKN5CORBA3AnyERPKN15CosNotifyFilter14ConstraintInfoE @812
    _ZrSRKN5CORBA3AnyERPKN15CosNotifyFilter14FilterNotFoundE @813
    _ZrSRKN5CORBA3AnyERPKN15CosNotifyFilter14InvalidGrammarE @814
    _ZrSRKN5CORBA3AnyERPKN15CosNotifyFilter15ConstraintIDSeqE @815
    _ZrSRKN5CORBA3AnyERPKN15CosNotifyFilter16CallbackNotFoundE @816
    _ZrSRKN5CORBA3AnyERPKN15CosNotifyFilter16ConstraintExpSeqE @817
    _ZrSRKN5CORBA3AnyERPKN15CosNotifyFilter17ConstraintInfoSeqE @818
    _ZrSRKN5CORBA3AnyERPKN15CosNotifyFilter17InvalidConstraintE @819
    _ZrSRKN5CORBA3AnyERPKN15CosNotifyFilter18ConstraintNotFoundE @820
    _ZrSRKN5CORBA3AnyERPKN15CosNotifyFilter21DuplicateConstraintIDE @821
    _ZrSRKN5CORBA3AnyERPKN15CosNotifyFilter21MappingConstraintInfoE @822
    _ZrSRKN5CORBA3AnyERPKN15CosNotifyFilter21MappingConstraintPairE @823
    _ZrSRKN5CORBA3AnyERPKN15CosNotifyFilter24MappingConstraintInfoSeqE @824
    _ZrSRKN5CORBA3AnyERPKN15CosNotifyFilter24MappingConstraintPairSeqE @825
    _ZrSRKN5CORBA3AnyERPKN15CosNotifyFilter25UnsupportedFilterableDataE @826
    _ZrSRKN5CORBA3AnyERPKN20CosEventChannelAdmin16AlreadyConnectedE @827
    _ZrSRKN5CORBA3AnyERPKN20CosEventChannelAdmin9TypeErrorE @828
    _ZrSRKN5CORBA3AnyERPKN21CosNotifyChannelAdmin10AdminIDSeqE @829
    _ZrSRKN5CORBA3AnyERPKN21CosNotifyChannelAdmin10AdminLimitE @830
    _ZrSRKN5CORBA3AnyERPKN21CosNotifyChannelAdmin10ProxyIDSeqE @831
    _ZrSRKN5CORBA3AnyERPKN21CosNotifyChannelAdmin12ChannelIDSeqE @832
    _ZrSRKN5CORBA3AnyERPKN21CosNotifyChannelAdmin12NotConnectedE @833
    _ZrSRKN5CORBA3AnyERPKN21CosNotifyChannelAdmin13AdminNotFoundE @834
    _ZrSRKN5CORBA3AnyERPKN21CosNotifyChannelAdmin13ProxyNotFoundE @835
    _ZrSRKN5CORBA3AnyERPKN21CosNotifyChannelAdmin15ChannelNotFoundE @836
    _ZrSRKN5CORBA3AnyERPKN21CosNotifyChannelAdmin18AdminLimitExceededE @837
    _ZrSRKN5CORBA3AnyERPKN21CosNotifyChannelAdmin23ConnectionAlreadyActiveE @838
    _ZrSRKN5CORBA3AnyERPKN21CosNotifyChannelAdmin25ConnectionAlreadyInactiveE @839
    _ZrSRKN5CORBA3AnyERPKN7CosTime15TimeUnavailableE @840
    _ZrSRKN5CORBA3AnyERPKN8TimeBase4UtcTE @841
    _ZrSRKN5CORBA3AnyERPKN8TimeBase9IntervalTE @842
    _ZrSRKN5CORBA3AnyERPN12CosEventComm20_objref_PullConsumerE @843
    _ZrSRKN5CORBA3AnyERPN12CosEventComm20_objref_PullSupplierE @844
    _ZrSRKN5CORBA3AnyERPN12CosEventComm20_objref_PushConsumerE @845
    _ZrSRKN5CORBA3AnyERPN12CosEventComm20_objref_PushSupplierE @846
    _ZrSRKN5CORBA3AnyERPN12CosLifeCycle21_objref_FactoryFinderE @847
    _ZrSRKN5CORBA3AnyERPN12CosLifeCycle22_objref_GenericFactoryE @848
    _ZrSRKN5CORBA3AnyERPN12CosLifeCycle23_objref_LifeCycleObjectE @849
    _ZrSRKN5CORBA3AnyERPN12CosLifeCycle3NVPE @850
    _ZrSRKN5CORBA3AnyERPN12CosLifeCycle8CriteriaE @851
    _ZrSRKN5CORBA3AnyERPN12CosLifeCycle9FactoriesE @852
    _ZrSRKN5CORBA3AnyERPN13CosNotifyComm20_objref_PullConsumerE @853
    _ZrSRKN5CORBA3AnyERPN13CosNotifyComm20_objref_PullSupplierE @854
    _ZrSRKN5CORBA3AnyERPN13CosNotifyComm20_objref_PushConsumerE @855
    _ZrSRKN5CORBA3AnyERPN13CosNotifyComm20_objref_PushSupplierE @856
    _ZrSRKN5CORBA3AnyERPN13CosNotifyComm21_objref_NotifyPublishE @857
    _ZrSRKN5CORBA3AnyERPN13CosNotifyComm23_objref_NotifySubscribeE @858
    _ZrSRKN5CORBA3AnyERPN13CosNotifyComm28_objref_SequencePullConsumerE @859
    _ZrSRKN5CORBA3AnyERPN13CosNotifyComm28_objref_SequencePullSupplierE @860
    _ZrSRKN5CORBA3AnyERPN13CosNotifyComm28_objref_SequencePushConsumerE @861
    _ZrSRKN5CORBA3AnyERPN13CosNotifyComm28_objref_SequencePushSupplierE @862
    _ZrSRKN5CORBA3AnyERPN13CosNotifyComm30_objref_StructuredPullConsumerE @863
    _ZrSRKN5CORBA3AnyERPN13CosNotifyComm30_objref_StructuredPullSupplierE @864
    _ZrSRKN5CORBA3AnyERPN13CosNotifyComm30_objref_StructuredPushConsumerE @865
    _ZrSRKN5CORBA3AnyERPN13CosNotifyComm30_objref_StructuredPushSupplierE @866
    _ZrSRKN5CORBA3AnyERPN15CosNotification10EventBatchE @867
    _ZrSRKN5CORBA3AnyERPN15CosNotification11EventHeaderE @868
    _ZrSRKN5CORBA3AnyERPN15CosNotification11PropertySeqE @869
    _ZrSRKN5CORBA3AnyERPN15CosNotification12EventTypeSeqE @870
    _ZrSRKN5CORBA3AnyERPN15CosNotification13PropertyErrorE @871
    _ZrSRKN5CORBA3AnyERPN15CosNotification13PropertyRangeE @872
    _ZrSRKN5CORBA3AnyERPN15CosNotification15StructuredEventE @873
    _ZrSRKN5CORBA3AnyERPN15CosNotification16FixedEventHeaderE @874
    _ZrSRKN5CORBA3AnyERPN15CosNotification16PropertyErrorSeqE @875
    _ZrSRKN5CORBA3AnyERPN15CosNotification16_objref_QoSAdminE @876
    _ZrSRKN5CORBA3AnyERPN15CosNotification18NamedPropertyRangeE @877
    _ZrSRKN5CORBA3AnyERPN15CosNotification21NamedPropertyRangeSeqE @878
    _ZrSRKN5CORBA3AnyERPN15CosNotification28_objref_AdminPropertiesAdminE @879
    _ZrSRKN5CORBA3AnyERPN15CosNotification8PropertyE @880
    _ZrSRKN5CORBA3AnyERPN15CosNotification9EventTypeE @881
    _ZrSRKN5CORBA3AnyERPN15CosNotifyFilter11FilterIDSeqE @882
    _ZrSRKN5CORBA3AnyERPN15CosNotifyFilter13CallbackIDSeqE @883
    _ZrSRKN5CORBA3AnyERPN15CosNotifyFilter13ConstraintExpE @884
    _ZrSRKN5CORBA3AnyERPN15CosNotifyFilter14ConstraintInfoE @885
    _ZrSRKN5CORBA3AnyERPN15CosNotifyFilter14_objref_FilterE @886
    _ZrSRKN5CORBA3AnyERPN15CosNotifyFilter15ConstraintIDSeqE @887
    _ZrSRKN5CORBA3AnyERPN15CosNotifyFilter16ConstraintExpSeqE @888
    _ZrSRKN5CORBA3AnyERPN15CosNotifyFilter17ConstraintInfoSeqE @889
    _ZrSRKN5CORBA3AnyERPN15CosNotifyFilter19_objref_FilterAdminE @890
    _ZrSRKN5CORBA3AnyERPN15CosNotifyFilter21MappingConstraintInfoE @891
    _ZrSRKN5CORBA3AnyERPN15CosNotifyFilter21MappingConstraintPairE @892
    _ZrSRKN5CORBA3AnyERPN15CosNotifyFilter21_objref_FilterFactoryE @893
    _ZrSRKN5CORBA3AnyERPN15CosNotifyFilter21_objref_MappingFilterE @894
    _ZrSRKN5CORBA3AnyERPN15CosNotifyFilter24MappingConstraintInfoSeqE @895
    _ZrSRKN5CORBA3AnyERPN15CosNotifyFilter24MappingConstraintPairSeqE @896
    _ZrSRKN5CORBA3AnyERPN20CosEventChannelAdmin20_objref_EventChannelE @897
    _ZrSRKN5CORBA3AnyERPN20CosEventChannelAdmin21_objref_ConsumerAdminE @898
    _ZrSRKN5CORBA3AnyERPN20CosEventChannelAdmin21_objref_SupplierAdminE @899
    _ZrSRKN5CORBA3AnyERPN20CosEventChannelAdmin25_objref_ProxyPullConsumerE @900
    _ZrSRKN5CORBA3AnyERPN20CosEventChannelAdmin25_objref_ProxyPullSupplierE @901
    _ZrSRKN5CORBA3AnyERPN20CosEventChannelAdmin25_objref_ProxyPushConsumerE @902
    _ZrSRKN5CORBA3AnyERPN20CosEventChannelAdmin25_objref_ProxyPushSupplierE @903
    _ZrSRKN5CORBA3AnyERPN21CosNotifyChannelAdmin10AdminIDSeqE @904
    _ZrSRKN5CORBA3AnyERPN21CosNotifyChannelAdmin10AdminLimitE @905
    _ZrSRKN5CORBA3AnyERPN21CosNotifyChannelAdmin10ProxyIDSeqE @906
    _ZrSRKN5CORBA3AnyERPN21CosNotifyChannelAdmin12ChannelIDSeqE @907
    _ZrSRKN5CORBA3AnyERPN21CosNotifyChannelAdmin20_objref_EventChannelE @908
    _ZrSRKN5CORBA3AnyERPN21CosNotifyChannelAdmin21_objref_ConsumerAdminE @909
    _ZrSRKN5CORBA3AnyERPN21CosNotifyChannelAdmin21_objref_ProxyConsumerE @910
    _ZrSRKN5CORBA3AnyERPN21CosNotifyChannelAdmin21_objref_ProxySupplierE @911
    _ZrSRKN5CORBA3AnyERPN21CosNotifyChannelAdmin21_objref_SupplierAdminE @912
    _ZrSRKN5CORBA3AnyERPN21CosNotifyChannelAdmin25_objref_ProxyPullConsumerE @913
    _ZrSRKN5CORBA3AnyERPN21CosNotifyChannelAdmin25_objref_ProxyPullSupplierE @914
    _ZrSRKN5CORBA3AnyERPN21CosNotifyChannelAdmin25_objref_ProxyPushConsumerE @915
    _ZrSRKN5CORBA3AnyERPN21CosNotifyChannelAdmin25_objref_ProxyPushSupplierE @916
    _ZrSRKN5CORBA3AnyERPN21CosNotifyChannelAdmin27_objref_EventChannelFactoryE @917
    _ZrSRKN5CORBA3AnyERPN21CosNotifyChannelAdmin33_objref_SequenceProxyPullConsumerE @918
    _ZrSRKN5CORBA3AnyERPN21CosNotifyChannelAdmin33_objref_SequenceProxyPullSupplierE @919
    _ZrSRKN5CORBA3AnyERPN21CosNotifyChannelAdmin33_objref_SequenceProxyPushConsumerE @920
    _ZrSRKN5CORBA3AnyERPN21CosNotifyChannelAdmin33_objref_SequenceProxyPushSupplierE @921
    _ZrSRKN5CORBA3AnyERPN21CosNotifyChannelAdmin35_objref_StructuredProxyPullConsumerE @922
    _ZrSRKN5CORBA3AnyERPN21CosNotifyChannelAdmin35_objref_StructuredProxyPullSupplierE @923
    _ZrSRKN5CORBA3AnyERPN21CosNotifyChannelAdmin35_objref_StructuredProxyPushConsumerE @924
    _ZrSRKN5CORBA3AnyERPN21CosNotifyChannelAdmin35_objref_StructuredProxyPushSupplierE @925
    _ZrSRKN5CORBA3AnyERPN7CosTime11_objref_TIOE @926
    _ZrSRKN5CORBA3AnyERPN7CosTime11_objref_UTOE @927
    _ZrSRKN5CORBA3AnyERPN7CosTime19_objref_TimeServiceE @928
    _ZrSRKN5CORBA3AnyERPN8TimeBase4UtcTE @929
    _ZrSRKN5CORBA3AnyERPN8TimeBase9IntervalTE @930
    _ZrSlR9cdrStream @931
    _ZrSmR9cdrStream @932
