EXPORTS
    _CRT_MT @1 DATA
    _ZN10omni_mutex4lockEv @2
    _ZN10omni_mutex6unlockEv @3
    _ZN10omni_mutexC1Ev @4
    _ZN10omni_mutexC2Ev @5
    _ZN10omni_mutexD1Ev @6
    _ZN10omni_mutexD2Ev @7
    _ZN11omni_thread11nt_priorityENS_10priority_tE @8
    _ZN11omni_thread12allocate_keyEv @9
    _ZN11omni_thread12create_dummyEv @10
    _ZN11omni_thread12remove_valueEj @11
    _ZN11omni_thread12set_priorityENS_10priority_tE @12
    _ZN11omni_thread13next_id_mutexE @13 DATA
    _ZN11omni_thread13release_dummyEv @14
    _ZN11omni_thread14run_undetachedEPv @15
    _ZN11omni_thread16start_undetachedEv @16
    _ZN11omni_thread18common_constructorEPvNS_10priority_tEi @17
    _ZN11omni_thread3runEPv @18
    _ZN11omni_thread4exitEPv @19
    _ZN11omni_thread4joinEPPv @20
    _ZN11omni_thread4selfEv @21
    _ZN11omni_thread5sleepEmm @22
    _ZN11omni_thread5startEv @23
    _ZN11omni_thread5yieldEv @24
    _ZN11omni_thread6createEPFPvS0_ES0_NS_10priority_tE @25
    _ZN11omni_thread6createEPFvPvES0_NS_10priority_tE @26
    _ZN11omni_thread6init_tC1Ev @27
    _ZN11omni_thread6init_tC2Ev @28
    _ZN11omni_thread6init_tD1Ev @29
    _ZN11omni_thread6init_tD2Ev @30
    _ZN11omni_thread7next_idE @31 DATA
    _ZN11omni_thread8get_timeEPmS0_mm @32
    _ZN11omni_thread9get_valueEj @33
    _ZN11omni_thread9set_valueEjPNS_7value_tE @34
    _ZN11omni_thread9stacksizeEm @35
    _ZN11omni_thread9stacksizeEv @36
    _ZN11omni_threadC1EPFPvS0_ES0_NS_10priority_tE @37
    _ZN11omni_threadC1EPFvPvES0_NS_10priority_tE @38
    _ZN11omni_threadC1EPvNS_10priority_tE @39
    _ZN11omni_threadC2EPFPvS0_ES0_NS_10priority_tE @40
    _ZN11omni_threadC2EPFvPvES0_NS_10priority_tE @41
    _ZN11omni_threadC2EPvNS_10priority_tE @42
    _ZN11omni_threadD0Ev @43
    _ZN11omni_threadD1Ev @44
    _ZN11omni_threadD2Ev @45
    _ZN14omni_condition4waitEv @46
    _ZN14omni_condition6signalEv @47
    _ZN14omni_condition9broadcastEv @48
    _ZN14omni_condition9timedwaitEmm @49
    _ZN14omni_conditionC1EP10omni_mutex @50
    _ZN14omni_conditionC2EP10omni_mutex @51
    _ZN14omni_conditionD1Ev @52
    _ZN14omni_conditionD2Ev @53
    _ZN14omni_semaphore4postEv @54
    _ZN14omni_semaphore4waitEv @55
    _ZN14omni_semaphore7trywaitEv @56
    _ZN14omni_semaphoreC1Ej @57
    _ZN14omni_semaphoreC2Ej @58
    _ZN14omni_semaphoreD1Ev @59
    _ZN14omni_semaphoreD2Ev @60
    _ZN15omni_mutex_lockC1ER10omni_mutex @61
    _ZN15omni_mutex_lockD1Ev @62
    _ZN17omni_thread_dummyC1Ev @63
    _ZN17omni_thread_dummyD0Ev @64
    _ZN17omni_thread_dummyD1Ev @65
    _ZN17omni_thread_fatalC1Ei @66
    _ZN27_internal_omni_thread_dummyC1Ev @67
    _ZN27_internal_omni_thread_dummyD0Ev @68
    _ZN27_internal_omni_thread_dummyD1Ev @69
    _ZN28_internal_omni_thread_helper5cacheE @70 DATA
    _ZN28_internal_omni_thread_helper9cachelockE @71 DATA
    _ZN28_internal_omni_thread_helperC1Ev @72
    _ZN28_internal_omni_thread_helperD1Ev @73
    _ZN28_internal_omni_thread_helpercvP11omni_threadEv @74
    _ZN28_internal_omni_thread_helperptEv @75
    _ZTI11omni_thread @76 DATA
    _ZTI17omni_thread_dummy @77 DATA
    _ZTI17omni_thread_fatal @78 DATA
    _ZTI19omni_thread_invalid @79 DATA
    _ZTI27_internal_omni_thread_dummy @80 DATA
    _ZTS11omni_thread @81 DATA
    _ZTS17omni_thread_dummy @82 DATA
    _ZTS17omni_thread_fatal @83 DATA
    _ZTS19omni_thread_invalid @84 DATA
    _ZTS27_internal_omni_thread_dummy @85 DATA
    _ZTV11omni_thread @86 DATA
    _ZTV17omni_thread_dummy @87 DATA
    _ZTV27_internal_omni_thread_dummy @88 DATA
    omni_thread_wrapper@4 @89
