EXPORTS
    _CRT_MT @1 DATA
    _Z21_omni_set_NameServicePN5CORBA6ObjectE @2
    _Z24_CORBA_bad_param_freebufv @3
    _Z24_CORBA_bound_check_errorv @4
    _Z25_CORBA_invoked_nil_objrefv @5
    _Z29_CORBA_invoked_nil_pseudo_refv @6
    _Z31_CORBA_new_operator_return_nullv @7
    _Z32_CORBA_use_nil_ptr_as_nil_objrefv @8
    _Z32_omni_callSystemExceptionHandlerP10omniObjRefmRKN5CORBA15SystemExceptionE @9
    _Z35_omni_callTransientExceptionHandlerP10omniObjRefmRKN5CORBA9TRANSIENTE @10
    _Z37_omni_callCommFailureExceptionHandlerP10omniObjRefmRKN5CORBA12COMM_FAILUREE @11
    _Z39_CORBA_use_nil_ptr_as_nil_pseudo_objrefPKc @12
    _Z41_CORBA_marshal_sequence_range_check_errorR9cdrStream @13
    _Z8omnicopyIPN4omni18resolvePseudoEntryES2_ET0_T_S4_S3_ @14
    _Z8omnicopyIPP10omniObjRefS2_ET0_T_S4_S3_ @15
    _Z8omnicopyIPP17omniObjTableEntryS2_ET0_T_S4_S3_ @16
    _Z8omnicopyIPPKcS2_ET0_T_S4_S3_ @17
    _Z8omnicopyIPPN4omni10giopStrandES3_ET0_T_S5_S4_ @18
    _Z8omnicopyIPPN4omni10orbOptions16HandlerValuePairES4_ET0_T_S6_S5_ @19
    _Z8omnicopyIPPN4omni10orbOptions7HandlerES4_ET0_T_S6_S5_ @20
    _Z8omnicopyIPPN4omni11giopAddressES3_ET0_T_S5_S4_ @21
    _Z8omnicopyIPPN4omni12giopEndpointES3_ET0_T_S5_S4_ @22
    _Z8omnicopyIPPN4omni14omniObjAdapter7Options11EndpointURIES5_ET0_T_S7_S6_ @23
    _Z8omnicopyIPPN4omni14transportRules14RuleActionPairES4_ET0_T_S6_S5_ @24
    _Z8omnicopyIPPN4omni14transportRules8RuleTypeES4_ET0_T_S6_S5_ @25
    _Z8omnicopyIPPN4omni15omniInitialiserES3_ET0_T_S5_S4_ @26
    _Z8omnicopyIPPN4omni17omniTrackedObjectES3_ET0_T_S5_S4_ @27
    _Z8omnicopyIPPN4omni20giopActiveCollectionES3_ET0_T_S5_S4_ @28
    _Z8omnicopyIPPN4omni7omniURI10URIHandlerES4_ET0_T_S6_S5_ @29
    _Z8omnicopyIPPN4omni9orbServerES3_ET0_T_S5_S4_ @30
    _Z8omnicopyIPPN5CORBA6ObjectES3_ET0_T_S5_S4_ @31
    _Z8omnicopyIPmS0_ET0_T_S2_S1_ @32
    _ZN10omniObjKey8set_sizeEi @33
    _ZN10omniObjKey9write_keyEv @34
    _ZN10omniObjKeyC1EPKhi @35
    _ZN10omniObjKeyC1ERS_i @36
    _ZN10omniObjKeyC1Ev @37
    _ZN10omniObjKeyD1Ev @38
    _ZN10omniObjRef10_real_is_aEPKc @39
    _ZN10omniObjRef10_unMarshalEPKcR9cdrStream @40
    _ZN10omniObjRef11_fromStringEPKc @41
    _ZN10omniObjRef11_realNarrowEPKc @42
    _ZN10omniObjRef11_setTimeoutEmm @43
    _ZN10omniObjRef12_remote_is_aEPKc @44
    _ZN10omniObjRef12_setIdentityEP12omniIdentity @45
    _ZN10omniObjRef14_locateRequestEv @46
    _ZN10omniObjRef15__is_equivalentEPS_ @47
    _ZN10omniObjRef15_enableShortcutEP11omniServantPKb @48
    _ZN10omniObjRef16_noExistentCheckEv @49
    _ZN10omniObjRef16_uncheckedNarrowEPKc @50
    _ZN10omniObjRef19_localServantTargetEv @51
    _ZN10omniObjRef20_remote_non_existentEv @52
    _ZN10omniObjRef23_systemExceptionHandlerEPvS0_ @53
    _ZN10omniObjRef23_systemExceptionHandlerERPv @54
    _ZN10omniObjRef26_transientExceptionHandlerEPvS0_ @55
    _ZN10omniObjRef26_transientExceptionHandlerERPv @56
    _ZN10omniObjRef28_assertExistsAndTypeVerifiedEv @57
    _ZN10omniObjRef28_commFailureExceptionHandlerEPvS0_ @58
    _ZN10omniObjRef28_commFailureExceptionHandlerERPv @59
    _ZN10omniObjRef6__hashEm @60
    _ZN10omniObjRef7_getIOREv @61
    _ZN10omniObjRef7_invokeER18omniCallDescriptorb @62
    _ZN10omniObjRef7_is_nilEv @63
    _ZN10omniObjRef8_disableEv @64
    _ZN10omniObjRef8_marshalEPS_R9cdrStream @65
    _ZN10omniObjRef9_identityEv @66
    _ZN10omniObjRef9_shutdownEv @67
    _ZN10omniObjRef9_toStringEPS_ @68
    _ZN10omniObjRefC1EPKcP7omniIORP12omniIdentityb @69
    _ZN10omniObjRefC1Ev @70
    _ZN10omniObjRefC2EPKcP7omniIORP12omniIdentityb @71
    _ZN10omniObjRefC2Ev @72
    _ZN10omniObjRefD0Ev @73
    _ZN10omniObjRefD1Ev @74
    _ZN10omniObjRefD2Ev @75
    _ZN10omniOrbORB11do_shutdownEb @76
    _ZN10omniOrbORB11run_timeoutEmm @77
    _ZN10omniOrbORB12_ptrToObjRefEPKc @78
    _ZN10omniOrbORB12perform_workEv @79
    _ZN10omniOrbORB12work_pendingEv @80
    _ZN10omniOrbORB13_non_existentEv @81
    _ZN10omniOrbORB13all_destroyedEv @82
    _ZN10omniOrbORB15actual_shutdownEv @83
    _ZN10omniOrbORB16_NP_decrRefCountEv @84
    _ZN10omniOrbORB16_NP_incrRefCountEv @85
    _ZN10omniOrbORB16object_to_stringEPN5CORBA6ObjectE @86
    _ZN10omniOrbORB16string_to_objectEPKc @87
    _ZN10omniOrbORB21list_initial_servicesEv @88
    _ZN10omniOrbORB26register_initial_referenceEPKcPN5CORBA6ObjectE @89
    _ZN10omniOrbORB26resolve_initial_referencesEPKc @90
    _ZN10omniOrbORB2idEv @91
    _ZN10omniOrbORB3runEv @92
    _ZN10omniOrbORB7destroyEv @93
    _ZN10omniOrbORB8shutdownEb @94
    _ZN10omniOrbORBC1Ei @95
    _ZN10omniOrbORBC2Ei @96
    _ZN10omniOrbORBD0Ev @97
    _ZN10omniOrbORBD1Ev @98
    _ZN10omniOrbORBD2Ev @99
    _ZN10omniPolicy19LocalShortcutPolicy10_PD_repoIdE @100 DATA
    _ZN10omniPolicy19LocalShortcutPolicy10_duplicateEPS0_ @101
    _ZN10omniPolicy19LocalShortcutPolicy12_ptrToObjRefEPKc @102
    _ZN10omniPolicy19LocalShortcutPolicy4_nilEv @103
    _ZN10omniPolicy19LocalShortcutPolicy4copyEv @104
    _ZN10omniPolicy19LocalShortcutPolicy5valueEv @105
    _ZN10omniPolicy19LocalShortcutPolicy7_narrowEPN5CORBA6ObjectE @106
    _ZN10omniPolicy19LocalShortcutPolicyC1Et @107
    _ZN10omniPolicy19LocalShortcutPolicyC1Ev @108
    _ZN10omniPolicy19LocalShortcutPolicyD0Ev @109
    _ZN10omniPolicy19LocalShortcutPolicyD1Ev @110
    _ZN10omniPolicy19LocalShortcutPolicyD2Ev @111
    _ZN10omni_mutex4lockEv @112
    _ZN10omni_mutex6unlockEv @113
    _ZN10omnivectorIN4omni18resolvePseudoEntryEE10deallocateEv @114
    _ZN10omnivectorIN4omni18resolvePseudoEntryEE3endEv @115
    _ZN10omnivectorIN4omni18resolvePseudoEntryEE4moreEv @116
    _ZN10omnivectorIN4omni18resolvePseudoEntryEE5beginEv @117
    _ZN10omnivectorIN4omni18resolvePseudoEntryEE7reserveEj @118
    _ZN10omnivectorIN4omni18resolvePseudoEntryEE8allocateEj @119
    _ZN10omnivectorIN4omni18resolvePseudoEntryEE9push_backERKS1_ @120
    _ZN10omnivectorIN4omni18resolvePseudoEntryEEC1Ev @121
    _ZN10omnivectorIN4omni18resolvePseudoEntryEED1Ev @122
    _ZN10omnivectorIP10omniObjRefE10deallocateEv @123
    _ZN10omnivectorIP10omniObjRefE3endEv @124
    _ZN10omnivectorIP10omniObjRefE4moreEv @125
    _ZN10omnivectorIP10omniObjRefE5beginEv @126
    _ZN10omnivectorIP10omniObjRefE5eraseEPS1_ @127
    _ZN10omnivectorIP10omniObjRefE7reserveEj @128
    _ZN10omnivectorIP10omniObjRefE8allocateEj @129
    _ZN10omnivectorIP10omniObjRefE9push_backERKS1_ @130
    _ZN10omnivectorIP10omniObjRefEC1Ev @131
    _ZN10omnivectorIP10omniObjRefED1Ev @132
    _ZN10omnivectorIP17omniObjTableEntryE10deallocateEv @133
    _ZN10omnivectorIP17omniObjTableEntryE3endEv @134
    _ZN10omnivectorIP17omniObjTableEntryE4moreEv @135
    _ZN10omnivectorIP17omniObjTableEntryE5beginEv @136
    _ZN10omnivectorIP17omniObjTableEntryE5eraseEPS1_ @137
    _ZN10omnivectorIP17omniObjTableEntryE7reserveEj @138
    _ZN10omnivectorIP17omniObjTableEntryE8allocateEj @139
    _ZN10omnivectorIP17omniObjTableEntryE9push_backERKS1_ @140
    _ZN10omnivectorIP17omniObjTableEntryEC1Ev @141
    _ZN10omnivectorIP17omniObjTableEntryED1Ev @142
    _ZN10omnivectorIPKcE10deallocateEv @143
    _ZN10omnivectorIPKcE3endEv @144
    _ZN10omnivectorIPKcE4moreEv @145
    _ZN10omnivectorIPKcE5beginEv @146
    _ZN10omnivectorIPKcE5eraseEPS1_ @147
    _ZN10omnivectorIPKcE7reserveEj @148
    _ZN10omnivectorIPKcE8allocateEj @149
    _ZN10omnivectorIPKcE9push_backERKS1_ @150
    _ZN10omnivectorIPKcEC1Ev @151
    _ZN10omnivectorIPKcED1Ev @152
    _ZN10omnivectorIPN4omni10giopStrandEE10deallocateEv @153
    _ZN10omnivectorIPN4omni10giopStrandEE3endEv @154
    _ZN10omnivectorIPN4omni10giopStrandEE4moreEv @155
    _ZN10omnivectorIPN4omni10giopStrandEE5beginEv @156
    _ZN10omnivectorIPN4omni10giopStrandEE5eraseEPS2_ @157
    _ZN10omnivectorIPN4omni10giopStrandEE7reserveEj @158
    _ZN10omnivectorIPN4omni10giopStrandEE8allocateEj @159
    _ZN10omnivectorIPN4omni10giopStrandEE9push_backERKS2_ @160
    _ZN10omnivectorIPN4omni10giopStrandEEC1Ev @161
    _ZN10omnivectorIPN4omni10giopStrandEED1Ev @162
    _ZN10omnivectorIPN4omni10orbOptions16HandlerValuePairEE10deallocateEv @163
    _ZN10omnivectorIPN4omni10orbOptions16HandlerValuePairEE3endEv @164
    _ZN10omnivectorIPN4omni10orbOptions16HandlerValuePairEE4moreEv @165
    _ZN10omnivectorIPN4omni10orbOptions16HandlerValuePairEE5beginEv @166
    _ZN10omnivectorIPN4omni10orbOptions16HandlerValuePairEE5eraseEPS3_S5_ @167
    _ZN10omnivectorIPN4omni10orbOptions16HandlerValuePairEE7reserveEj @168
    _ZN10omnivectorIPN4omni10orbOptions16HandlerValuePairEE8allocateEj @169
    _ZN10omnivectorIPN4omni10orbOptions16HandlerValuePairEE9push_backERKS3_ @170
    _ZN10omnivectorIPN4omni10orbOptions16HandlerValuePairEEC1Ev @171
    _ZN10omnivectorIPN4omni10orbOptions16HandlerValuePairEED1Ev @172
    _ZN10omnivectorIPN4omni10orbOptions7HandlerEE10deallocateEv @173
    _ZN10omnivectorIPN4omni10orbOptions7HandlerEE3endEv @174
    _ZN10omnivectorIPN4omni10orbOptions7HandlerEE4moreEv @175
    _ZN10omnivectorIPN4omni10orbOptions7HandlerEE5beginEv @176
    _ZN10omnivectorIPN4omni10orbOptions7HandlerEE7reserveEj @177
    _ZN10omnivectorIPN4omni10orbOptions7HandlerEE8allocateEj @178
    _ZN10omnivectorIPN4omni10orbOptions7HandlerEE9push_backERKS3_ @179
    _ZN10omnivectorIPN4omni10orbOptions7HandlerEEC1Ev @180
    _ZN10omnivectorIPN4omni10orbOptions7HandlerEED1Ev @181
    _ZN10omnivectorIPN4omni10orbOptions7HandlerEEixEj @182
    _ZN10omnivectorIPN4omni11giopAddressEE10deallocateEv @183
    _ZN10omnivectorIPN4omni11giopAddressEE3endEv @184
    _ZN10omnivectorIPN4omni11giopAddressEE4moreEv @185
    _ZN10omnivectorIPN4omni11giopAddressEE5beginEv @186
    _ZN10omnivectorIPN4omni11giopAddressEE7reserveEj @187
    _ZN10omnivectorIPN4omni11giopAddressEE8allocateEj @188
    _ZN10omnivectorIPN4omni11giopAddressEE9push_backERKS2_ @189
    _ZN10omnivectorIPN4omni11giopAddressEEC1Ev @190
    _ZN10omnivectorIPN4omni11giopAddressEED1Ev @191
    _ZN10omnivectorIPN4omni11giopAddressEEixEj @192
    _ZN10omnivectorIPN4omni12giopEndpointEE10deallocateEv @193
    _ZN10omnivectorIPN4omni12giopEndpointEE3endEv @194
    _ZN10omnivectorIPN4omni12giopEndpointEE4moreEv @195
    _ZN10omnivectorIPN4omni12giopEndpointEE5beginEv @196
    _ZN10omnivectorIPN4omni12giopEndpointEE5eraseEPS2_ @197
    _ZN10omnivectorIPN4omni12giopEndpointEE7reserveEj @198
    _ZN10omnivectorIPN4omni12giopEndpointEE8allocateEj @199
    _ZN10omnivectorIPN4omni12giopEndpointEE9push_backERKS2_ @200
    _ZN10omnivectorIPN4omni12giopEndpointEEC1Ev @201
    _ZN10omnivectorIPN4omni12giopEndpointEED1Ev @202
    _ZN10omnivectorIPN4omni14omniObjAdapter7Options11EndpointURIEE10deallocateEv @203
    _ZN10omnivectorIPN4omni14omniObjAdapter7Options11EndpointURIEE3endEv @204
    _ZN10omnivectorIPN4omni14omniObjAdapter7Options11EndpointURIEE4moreEv @205
    _ZN10omnivectorIPN4omni14omniObjAdapter7Options11EndpointURIEE5beginEv @206
    _ZN10omnivectorIPN4omni14omniObjAdapter7Options11EndpointURIEE5eraseEPS4_S6_ @207
    _ZN10omnivectorIPN4omni14omniObjAdapter7Options11EndpointURIEE7reserveEj @208
    _ZN10omnivectorIPN4omni14omniObjAdapter7Options11EndpointURIEE8allocateEj @209
    _ZN10omnivectorIPN4omni14omniObjAdapter7Options11EndpointURIEE9push_backERKS4_ @210
    _ZN10omnivectorIPN4omni14omniObjAdapter7Options11EndpointURIEEC1Ev @211
    _ZN10omnivectorIPN4omni14omniObjAdapter7Options11EndpointURIEED1Ev @212
    _ZN10omnivectorIPN4omni14transportRules14RuleActionPairEE10deallocateEv @213
    _ZN10omnivectorIPN4omni14transportRules14RuleActionPairEE3endEv @214
    _ZN10omnivectorIPN4omni14transportRules14RuleActionPairEE4moreEv @215
    _ZN10omnivectorIPN4omni14transportRules14RuleActionPairEE5beginEv @216
    _ZN10omnivectorIPN4omni14transportRules14RuleActionPairEE5eraseEPS3_S5_ @217
    _ZN10omnivectorIPN4omni14transportRules14RuleActionPairEE7reserveEj @218
    _ZN10omnivectorIPN4omni14transportRules14RuleActionPairEE8allocateEj @219
    _ZN10omnivectorIPN4omni14transportRules14RuleActionPairEE9push_backERKS3_ @220
    _ZN10omnivectorIPN4omni14transportRules14RuleActionPairEEC1Ev @221
    _ZN10omnivectorIPN4omni14transportRules14RuleActionPairEED1Ev @222
    _ZN10omnivectorIPN4omni14transportRules8RuleTypeEE10deallocateEv @223
    _ZN10omnivectorIPN4omni14transportRules8RuleTypeEE3endEv @224
    _ZN10omnivectorIPN4omni14transportRules8RuleTypeEE4moreEv @225
    _ZN10omnivectorIPN4omni14transportRules8RuleTypeEE5beginEv @226
    _ZN10omnivectorIPN4omni14transportRules8RuleTypeEE7reserveEj @227
    _ZN10omnivectorIPN4omni14transportRules8RuleTypeEE8allocateEj @228
    _ZN10omnivectorIPN4omni14transportRules8RuleTypeEE9push_backERKS3_ @229
    _ZN10omnivectorIPN4omni14transportRules8RuleTypeEEC1Ev @230
    _ZN10omnivectorIPN4omni14transportRules8RuleTypeEED1Ev @231
    _ZN10omnivectorIPN4omni15omniInitialiserEE10deallocateEv @232
    _ZN10omnivectorIPN4omni15omniInitialiserEE3endEv @233
    _ZN10omnivectorIPN4omni15omniInitialiserEE4moreEv @234
    _ZN10omnivectorIPN4omni15omniInitialiserEE5beginEv @235
    _ZN10omnivectorIPN4omni15omniInitialiserEE7reserveEj @236
    _ZN10omnivectorIPN4omni15omniInitialiserEE8allocateEj @237
    _ZN10omnivectorIPN4omni15omniInitialiserEE9push_backERKS2_ @238
    _ZN10omnivectorIPN4omni15omniInitialiserEEC1Ev @239
    _ZN10omnivectorIPN4omni15omniInitialiserEED1Ev @240
    _ZN10omnivectorIPN4omni17omniTrackedObjectEE10deallocateEv @241
    _ZN10omnivectorIPN4omni17omniTrackedObjectEE3endEv @242
    _ZN10omnivectorIPN4omni17omniTrackedObjectEE4moreEv @243
    _ZN10omnivectorIPN4omni17omniTrackedObjectEE5beginEv @244
    _ZN10omnivectorIPN4omni17omniTrackedObjectEE7reserveEj @245
    _ZN10omnivectorIPN4omni17omniTrackedObjectEE8allocateEj @246
    _ZN10omnivectorIPN4omni17omniTrackedObjectEE9push_backERKS2_ @247
    _ZN10omnivectorIPN4omni17omniTrackedObjectEEC1Ev @248
    _ZN10omnivectorIPN4omni17omniTrackedObjectEED1Ev @249
    _ZN10omnivectorIPN4omni20giopActiveCollectionEE10deallocateEv @250
    _ZN10omnivectorIPN4omni20giopActiveCollectionEE3endEv @251
    _ZN10omnivectorIPN4omni20giopActiveCollectionEE4moreEv @252
    _ZN10omnivectorIPN4omni20giopActiveCollectionEE5beginEv @253
    _ZN10omnivectorIPN4omni20giopActiveCollectionEE5eraseEPS2_ @254
    _ZN10omnivectorIPN4omni20giopActiveCollectionEE7reserveEj @255
    _ZN10omnivectorIPN4omni20giopActiveCollectionEE8allocateEj @256
    _ZN10omnivectorIPN4omni20giopActiveCollectionEE9push_backERKS2_ @257
    _ZN10omnivectorIPN4omni20giopActiveCollectionEEC1Ev @258
    _ZN10omnivectorIPN4omni20giopActiveCollectionEED1Ev @259
    _ZN10omnivectorIPN4omni7omniURI10URIHandlerEE10deallocateEv @260
    _ZN10omnivectorIPN4omni7omniURI10URIHandlerEE3endEv @261
    _ZN10omnivectorIPN4omni7omniURI10URIHandlerEE4moreEv @262
    _ZN10omnivectorIPN4omni7omniURI10URIHandlerEE5beginEv @263
    _ZN10omnivectorIPN4omni7omniURI10URIHandlerEE7reserveEj @264
    _ZN10omnivectorIPN4omni7omniURI10URIHandlerEE8allocateEj @265
    _ZN10omnivectorIPN4omni7omniURI10URIHandlerEE9push_backERKS3_ @266
    _ZN10omnivectorIPN4omni7omniURI10URIHandlerEEC1Ev @267
    _ZN10omnivectorIPN4omni7omniURI10URIHandlerEED1Ev @268
    _ZN10omnivectorIPN4omni9orbServerEE10deallocateEv @269
    _ZN10omnivectorIPN4omni9orbServerEE3endEv @270
    _ZN10omnivectorIPN4omni9orbServerEE4moreEv @271
    _ZN10omnivectorIPN4omni9orbServerEE5beginEv @272
    _ZN10omnivectorIPN4omni9orbServerEE5eraseEPS2_S4_ @273
    _ZN10omnivectorIPN4omni9orbServerEE7reserveEj @274
    _ZN10omnivectorIPN4omni9orbServerEE8allocateEj @275
    _ZN10omnivectorIPN4omni9orbServerEE9push_backERKS2_ @276
    _ZN10omnivectorIPN4omni9orbServerEEC1Ev @277
    _ZN10omnivectorIPN4omni9orbServerEED1Ev @278
    _ZN10omnivectorIPN5CORBA6ObjectEE10deallocateEv @279
    _ZN10omnivectorIPN5CORBA6ObjectEE3endEv @280
    _ZN10omnivectorIPN5CORBA6ObjectEE4moreEv @281
    _ZN10omnivectorIPN5CORBA6ObjectEE5beginEv @282
    _ZN10omnivectorIPN5CORBA6ObjectEE7reserveEj @283
    _ZN10omnivectorIPN5CORBA6ObjectEE8allocateEj @284
    _ZN10omnivectorIPN5CORBA6ObjectEE9push_backERKS2_ @285
    _ZN10omnivectorIPN5CORBA6ObjectEEC1Ev @286
    _ZN10omnivectorIPN5CORBA6ObjectEED1Ev @287
    _ZN10omnivectorImE10deallocateEv @288
    _ZN10omnivectorImE4moreEv @289
    _ZN10omnivectorImE7reserveEj @290
    _ZN10omnivectorImE8allocateEj @291
    _ZN10omnivectorImE9push_backERKm @292
    _ZN10omnivectorImEC1Ev @293
    _ZN10omnivectorImED1Ev @294
    _ZN10omnivectorImEixEj @295
    _ZN11BiDirPolicy19BidirectionalPolicy10_PD_repoIdE @296 DATA
    _ZN11BiDirPolicy19BidirectionalPolicy10_duplicateEPS0_ @297
    _ZN11BiDirPolicy19BidirectionalPolicy12_ptrToObjRefEPKc @298
    _ZN11BiDirPolicy19BidirectionalPolicy4_nilEv @299
    _ZN11BiDirPolicy19BidirectionalPolicy4copyEv @300
    _ZN11BiDirPolicy19BidirectionalPolicy5valueEv @301
    _ZN11BiDirPolicy19BidirectionalPolicy7_narrowEPN5CORBA6ObjectE @302
    _ZN11BiDirPolicy19BidirectionalPolicyC1Et @303
    _ZN11BiDirPolicy19BidirectionalPolicyC1Ev @304
    _ZN11BiDirPolicy19BidirectionalPolicyD0Ev @305
    _ZN11BiDirPolicy19BidirectionalPolicyD1Ev @306
    _ZN11BiDirPolicy19BidirectionalPolicyD2Ev @307
    _ZN11omniCurrent10setTimeoutEmm @308
    _ZN11omniCurrent10thread_keyE @309 DATA
    _ZN11omniCurrent11setDeadlineEmm @310
    _ZN11omniCurrent12timeout_secsEv @311
    _ZN11omniCurrent14callDescriptorEv @312
    _ZN11omniCurrent16timeout_absoluteEv @313
    _ZN11omniCurrent16timeout_nanosecsEv @314
    _ZN11omniCurrent17setCallDescriptorEP18omniCallDescriptor @315
    _ZN11omniCurrent3getEP11omni_thread @316
    _ZN11omniCurrent3getEv @317
    _ZN11omniCurrent4initEv @318
    _ZN11omniCurrentC1EP11omni_thread @319
    _ZN11omniCurrentC2EP11omni_thread @320
    _ZN11omniCurrentD0Ev @321
    _ZN11omniCurrentD1Ev @322
    _ZN11omniCurrentD2Ev @323
    _ZN11omniIOR_var5_retnEv @324
    _ZN11omniIOR_varC1EP7omniIOR @325
    _ZN11omniIOR_varC1Ev @326
    _ZN11omniIOR_varD1Ev @327
    _ZN11omniIOR_varaSEP7omniIOR @328
    _ZN11omniServant11_remove_refEv @329
    _ZN11omniServant13_non_existentEv @330
    _ZN11omniServant14_addActivationEP17omniObjTableEntry @331
    _ZN11omniServant15_ptrToInterfaceEPKc @332
    _ZN11omniServant17_removeActivationEP17omniObjTableEntry @333
    _ZN11omniServant18_mostDerivedRepoIdEv @334
    _ZN11omniServant5_is_aEPKc @335
    _ZN11omniServant8_add_refEv @336
    _ZN11omniServant9_dispatchER14omniCallHandle @337
    _ZN11omniServant9_downcastEv @338
    _ZN11omniServantC2Ev @339
    _ZN11omniServantD0Ev @340
    _ZN11omniServantD1Ev @341
    _ZN11omniServantD2Ev @342
    _ZN11omni_rmutex4lockEv @343
    _ZN11omni_rmutex6unlockEv @344
    _ZN11omni_rmutexC1Ev @345
    _ZN11omni_rmutexC2Ev @346
    _ZN11omni_rmutexD1Ev @347
    _ZN11omni_rmutexD2Ev @348
    _ZN11omni_thread14run_undetachedEPv @349
    _ZN11omni_thread2idEv @350
    _ZN11omni_thread3runEPv @351
    _ZN11omni_thread7value_tC2Ev @352
    _ZN11omni_thread7value_tD0Ev @353
    _ZN11omni_thread7value_tD1Ev @354
    _ZN11omni_thread7value_tD2Ev @355
    _ZN12omniIORHintsC1EPK32_CORBA_Pseudo_Unbounded_SequenceIN5CORBA6PolicyE23_CORBA_PseudoObj_MemberIS2_20_CORBA_PseudoObj_VarIS2_EEE @356
    _ZN12omniIdentity10ptrToClassEPi @357
    _ZN12omniIdentity13is_equivalentEPKS_ @358
    _ZN12omniIdentity14identity_countE @359 DATA
    _ZN12omniIdentity19waitForLastIdentityEv @360
    _ZN12omniIdentity26lastIdentityHasBeenDeletedEv @361
    _ZN12omniIdentity8_classidE @362 DATA
    _ZN12omniIdentityC2EPKhi @363
    _ZN12omniIdentityC2ER10omniObjKey @364
    _ZN12omniIdentityC2Ev @365
    _ZN12omniIdentityD0Ev @366
    _ZN12omniIdentityD1Ev @367
    _ZN12omniIdentityD2Ev @368
    _ZN12omniObjTable12locateActiveEPKhimb @369
    _ZN12omniObjTable6locateEPKhimm @370
    _ZN12omniObjTable6resizeEv @371
    _ZN12omniObjTable8newEntryER10omniObjKey @372
    _ZN12omniObjTable8newEntryER10omniObjKeym @373
    _ZN12omniTaskLink3deqEv @374
    _ZN12omniTaskLink3enqERS_ @375
    _ZN12omniTaskLink8is_emptyERS_ @376
    _ZN12omniTaskLinkC1Ev @377
    _ZN12omniTaskLinkC2Ev @378
    _ZN13POA_CosNaming13NamingContextD0Ev @379
    _ZN13POA_CosNaming13NamingContextD1Ev @380
    _ZN13POA_CosNaming13NamingContextD2Ev @381
    _ZN13POA_CosNaming15BindingIteratorD0Ev @382
    _ZN13POA_CosNaming15BindingIteratorD1Ev @383
    _ZN13POA_CosNaming15BindingIteratorD2Ev @384
    _ZN13POA_CosNaming16NamingContextExtD0Ev @385
    _ZN13POA_CosNaming16NamingContextExtD1Ev @386
    _ZN13POA_CosNaming16NamingContextExtD2Ev @387
    _ZN14PortableServer10POAManager10_PD_repoIdE @388 DATA
    _ZN14PortableServer10POAManager10_duplicateEPS0_ @389
    _ZN14PortableServer10POAManager15AdapterInactive10_PD_repoIdE @390 DATA
    _ZN14PortableServer10POAManager15AdapterInactive13insertToAnyFnE @391 DATA
    _ZN14PortableServer10POAManager15AdapterInactive16insertToAnyFnNCPE @392 DATA
    _ZN14PortableServer10POAManager15AdapterInactive9_downcastEPKN5CORBA9ExceptionE @393
    _ZN14PortableServer10POAManager15AdapterInactive9_downcastEPN5CORBA9ExceptionE @394
    _ZN14PortableServer10POAManager15AdapterInactiveC1ERKS1_ @395
    _ZN14PortableServer10POAManager15AdapterInactiveC1Ev @396
    _ZN14PortableServer10POAManager15AdapterInactiveD0Ev @397
    _ZN14PortableServer10POAManager15AdapterInactiveD1Ev @398
    _ZN14PortableServer10POAManager15AdapterInactiveD2Ev @399
    _ZN14PortableServer10POAManager4_nilEv @400
    _ZN14PortableServer10POAManager7_narrowEPN5CORBA6ObjectE @401
    _ZN14PortableServer10POAManagerC2Ei @402
    _ZN14PortableServer10POAManagerD0Ev @403
    _ZN14PortableServer10POAManagerD1Ev @404
    _ZN14PortableServer10POAManagerD2Ev @405
    _ZN14PortableServer10POA_Helper4_nilEv @406
    _ZN14PortableServer10POA_Helper6is_nilEPNS_3POAE @407
    _ZN14PortableServer10POA_Helper7releaseEPNS_3POAE @408
    _ZN14PortableServer10POA_Helper9duplicateEPNS_3POAE @409
    _ZN14PortableServer11ServantBase11_remove_refEv @410
    _ZN14PortableServer11ServantBase12_default_POAEv @411
    _ZN14PortableServer11ServantBase14_get_interfaceEv @412
    _ZN14PortableServer11ServantBase15_refcount_valueEv @413
    _ZN14PortableServer11ServantBase17_do_get_interfaceEv @414
    _ZN14PortableServer11ServantBase8_add_refEv @415
    _ZN14PortableServer11ServantBase8_do_thisEPKc @416
    _ZN14PortableServer11ServantBase9_downcastEv @417
    _ZN14PortableServer11ServantBaseC2Ev @418
    _ZN14PortableServer11ServantBaseD0Ev @419
    _ZN14PortableServer11ServantBaseD1Ev @420
    _ZN14PortableServer11ServantBaseD2Ev @421
    _ZN14PortableServer11Servant_varINS_11ServantBaseEEC1EPS1_ @422
    _ZN14PortableServer11Servant_varINS_11ServantBaseEED1Ev @423
    _ZN14PortableServer12ThreadPolicy10_PD_repoIdE @424 DATA
    _ZN14PortableServer12ThreadPolicy10_duplicateEPS0_ @425
    _ZN14PortableServer12ThreadPolicy12_ptrToObjRefEPKc @426
    _ZN14PortableServer12ThreadPolicy4_nilEv @427
    _ZN14PortableServer12ThreadPolicy4copyEv @428
    _ZN14PortableServer12ThreadPolicy5valueEv @429
    _ZN14PortableServer12ThreadPolicy7_narrowEPN5CORBA6ObjectE @430
    _ZN14PortableServer12ThreadPolicyC1ENS_17ThreadPolicyValueE @431
    _ZN14PortableServer12ThreadPolicyC1Ev @432
    _ZN14PortableServer12ThreadPolicyD0Ev @433
    _ZN14PortableServer12ThreadPolicyD1Ev @434
    _ZN14PortableServer12ThreadPolicyD2Ev @435
    _ZN14PortableServer14ForwardRequest10_PD_repoIdE @436 DATA
    _ZN14PortableServer14ForwardRequest13insertToAnyFnE @437 DATA
    _ZN14PortableServer14ForwardRequest16insertToAnyFnNCPE @438 DATA
    _ZN14PortableServer14ForwardRequest9_downcastEPKN5CORBA9ExceptionE @439
    _ZN14PortableServer14ForwardRequest9_downcastEPN5CORBA9ExceptionE @440
    _ZN14PortableServer14ForwardRequestC1EPN5CORBA6ObjectE @441
    _ZN14PortableServer14ForwardRequestC1ERKS0_ @442
    _ZN14PortableServer14ForwardRequestC2EPN5CORBA6ObjectE @443
    _ZN14PortableServer14ForwardRequestC2ERKS0_ @444
    _ZN14PortableServer14ForwardRequestD0Ev @445
    _ZN14PortableServer14ForwardRequestD1Ev @446
    _ZN14PortableServer14ForwardRequestD2Ev @447
    _ZN14PortableServer14ForwardRequestaSERKS0_ @448
    _ZN14PortableServer14ForwardRequestlSER9cdrStream @449
    _ZN14PortableServer14LifespanPolicy10_PD_repoIdE @450 DATA
    _ZN14PortableServer14LifespanPolicy10_duplicateEPS0_ @451
    _ZN14PortableServer14LifespanPolicy12_ptrToObjRefEPKc @452
    _ZN14PortableServer14LifespanPolicy4_nilEv @453
    _ZN14PortableServer14LifespanPolicy4copyEv @454
    _ZN14PortableServer14LifespanPolicy5valueEv @455
    _ZN14PortableServer14LifespanPolicy7_narrowEPN5CORBA6ObjectE @456
    _ZN14PortableServer14LifespanPolicyC1ENS_19LifespanPolicyValueE @457
    _ZN14PortableServer14LifespanPolicyC1Ev @458
    _ZN14PortableServer14LifespanPolicyD0Ev @459
    _ZN14PortableServer14LifespanPolicyD1Ev @460
    _ZN14PortableServer14LifespanPolicyD2Ev @461
    _ZN14PortableServer14ServantLocator10_PD_repoIdE @462 DATA
    _ZN14PortableServer14ServantLocator10_duplicateEPS0_ @463
    _ZN14PortableServer14ServantLocator12_ptrToObjRefEPKc @464
    _ZN14PortableServer14ServantLocator14_marshalObjRefEPS0_R9cdrStream @465
    _ZN14PortableServer14ServantLocator16_unmarshalObjRefER9cdrStream @466
    _ZN14PortableServer14ServantLocator17_unchecked_narrowEPN5CORBA6ObjectE @467
    _ZN14PortableServer14ServantLocator4_nilEv @468
    _ZN14PortableServer14ServantLocator7_narrowEPN5CORBA6ObjectE @469
    _ZN14PortableServer14ServantLocatorC1Ev @470
    _ZN14PortableServer14ServantLocatorC2Ev @471
    _ZN14PortableServer14ServantLocatorD0Ev @472
    _ZN14PortableServer14ServantLocatorD1Ev @473
    _ZN14PortableServer14ServantLocatorD2Ev @474
    _ZN14PortableServer14ServantManager10_PD_repoIdE @475 DATA
    _ZN14PortableServer14ServantManager10_duplicateEPS0_ @476
    _ZN14PortableServer14ServantManager12_ptrToObjRefEPKc @477
    _ZN14PortableServer14ServantManager14_marshalObjRefEPS0_R9cdrStream @478
    _ZN14PortableServer14ServantManager16_NP_decrRefCountEv @479
    _ZN14PortableServer14ServantManager16_NP_incrRefCountEv @480
    _ZN14PortableServer14ServantManager16_unmarshalObjRefER9cdrStream @481
    _ZN14PortableServer14ServantManager17_unchecked_narrowEPN5CORBA6ObjectE @482
    _ZN14PortableServer14ServantManager4_nilEv @483
    _ZN14PortableServer14ServantManager7_narrowEPN5CORBA6ObjectE @484
    _ZN14PortableServer14ServantManagerC1Ev @485
    _ZN14PortableServer14ServantManagerC2Ev @486
    _ZN14PortableServer14ServantManagerD0Ev @487
    _ZN14PortableServer14ServantManagerD1Ev @488
    _ZN14PortableServer14ServantManagerD2Ev @489
    _ZN14PortableServer16AdapterActivator10_PD_repoIdE @490 DATA
    _ZN14PortableServer16AdapterActivator10_duplicateEPS0_ @491
    _ZN14PortableServer16AdapterActivator12_ptrToObjRefEPKc @492
    _ZN14PortableServer16AdapterActivator14_marshalObjRefEPS0_R9cdrStream @493
    _ZN14PortableServer16AdapterActivator16_NP_decrRefCountEv @494
    _ZN14PortableServer16AdapterActivator16_NP_incrRefCountEv @495
    _ZN14PortableServer16AdapterActivator16_unmarshalObjRefER9cdrStream @496
    _ZN14PortableServer16AdapterActivator17_unchecked_narrowEPN5CORBA6ObjectE @497
    _ZN14PortableServer16AdapterActivator4_nilEv @498
    _ZN14PortableServer16AdapterActivator7_narrowEPN5CORBA6ObjectE @499
    _ZN14PortableServer16AdapterActivatorC1Ev @500
    _ZN14PortableServer16AdapterActivatorC2Ev @501
    _ZN14PortableServer16AdapterActivatorD0Ev @502
    _ZN14PortableServer16AdapterActivatorD1Ev @503
    _ZN14PortableServer16AdapterActivatorD2Ev @504
    _ZN14PortableServer16ServantActivator10_PD_repoIdE @505 DATA
    _ZN14PortableServer16ServantActivator10_duplicateEPS0_ @506
    _ZN14PortableServer16ServantActivator12_ptrToObjRefEPKc @507
    _ZN14PortableServer16ServantActivator14_marshalObjRefEPS0_R9cdrStream @508
    _ZN14PortableServer16ServantActivator16_unmarshalObjRefER9cdrStream @509
    _ZN14PortableServer16ServantActivator17_unchecked_narrowEPN5CORBA6ObjectE @510
    _ZN14PortableServer16ServantActivator4_nilEv @511
    _ZN14PortableServer16ServantActivator7_narrowEPN5CORBA6ObjectE @512
    _ZN14PortableServer16ServantActivatorC1Ev @513
    _ZN14PortableServer16ServantActivatorC2Ev @514
    _ZN14PortableServer16ServantActivatorD0Ev @515
    _ZN14PortableServer16ServantActivatorD1Ev @516
    _ZN14PortableServer16ServantActivatorD2Ev @517
    _ZN14PortableServer18IdAssignmentPolicy10_PD_repoIdE @518 DATA
    _ZN14PortableServer18IdAssignmentPolicy10_duplicateEPS0_ @519
    _ZN14PortableServer18IdAssignmentPolicy12_ptrToObjRefEPKc @520
    _ZN14PortableServer18IdAssignmentPolicy4_nilEv @521
    _ZN14PortableServer18IdAssignmentPolicy4copyEv @522
    _ZN14PortableServer18IdAssignmentPolicy5valueEv @523
    _ZN14PortableServer18IdAssignmentPolicy7_narrowEPN5CORBA6ObjectE @524
    _ZN14PortableServer18IdAssignmentPolicyC1ENS_23IdAssignmentPolicyValueE @525
    _ZN14PortableServer18IdAssignmentPolicyC1Ev @526
    _ZN14PortableServer18IdAssignmentPolicyD0Ev @527
    _ZN14PortableServer18IdAssignmentPolicyD1Ev @528
    _ZN14PortableServer18IdAssignmentPolicyD2Ev @529
    _ZN14PortableServer18IdUniquenessPolicy10_PD_repoIdE @530 DATA
    _ZN14PortableServer18IdUniquenessPolicy10_duplicateEPS0_ @531
    _ZN14PortableServer18IdUniquenessPolicy12_ptrToObjRefEPKc @532
    _ZN14PortableServer18IdUniquenessPolicy4_nilEv @533
    _ZN14PortableServer18IdUniquenessPolicy4copyEv @534
    _ZN14PortableServer18IdUniquenessPolicy5valueEv @535
    _ZN14PortableServer18IdUniquenessPolicy7_narrowEPN5CORBA6ObjectE @536
    _ZN14PortableServer18IdUniquenessPolicyC1ENS_23IdUniquenessPolicyValueE @537
    _ZN14PortableServer18IdUniquenessPolicyC1Ev @538
    _ZN14PortableServer18IdUniquenessPolicyD0Ev @539
    _ZN14PortableServer18IdUniquenessPolicyD1Ev @540
    _ZN14PortableServer18IdUniquenessPolicyD2Ev @541
    _ZN14PortableServer18ObjectId_to_stringERKNS_8ObjectIdE @542
    _ZN14PortableServer18string_to_ObjectIdEPKc @543
    _ZN14PortableServer19ObjectId_to_wstringERKNS_8ObjectIdE @544
    _ZN14PortableServer19_pof_ServantLocator9newObjRefEP7omniIORP12omniIdentity @545
    _ZN14PortableServer19_pof_ServantLocatorC1Ev @546
    _ZN14PortableServer19_pof_ServantLocatorD0Ev @547
    _ZN14PortableServer19_pof_ServantLocatorD1Ev @548
    _ZN14PortableServer19_pof_ServantLocatorD2Ev @549
    _ZN14PortableServer19_pof_ServantManager9newObjRefEP7omniIORP12omniIdentity @550
    _ZN14PortableServer19_pof_ServantManagerC1Ev @551
    _ZN14PortableServer19_pof_ServantManagerD0Ev @552
    _ZN14PortableServer19_pof_ServantManagerD1Ev @553
    _ZN14PortableServer19_pof_ServantManagerD2Ev @554
    _ZN14PortableServer19wstring_to_ObjectIdEPKw @555
    _ZN14PortableServer20_impl_ServantLocator15_ptrToInterfaceEPKc @556
    _ZN14PortableServer20_impl_ServantLocator18_mostDerivedRepoIdEv @557
    _ZN14PortableServer20_impl_ServantLocator9_dispatchER14omniCallHandle @558
    _ZN14PortableServer20_impl_ServantLocatorD0Ev @559
    _ZN14PortableServer20_impl_ServantLocatorD1Ev @560
    _ZN14PortableServer20_impl_ServantLocatorD2Ev @561
    _ZN14PortableServer20_impl_ServantManager15_ptrToInterfaceEPKc @562
    _ZN14PortableServer20_impl_ServantManager18_mostDerivedRepoIdEv @563
    _ZN14PortableServer20_impl_ServantManager9_dispatchER14omniCallHandle @564
    _ZN14PortableServer20_impl_ServantManagerD0Ev @565
    _ZN14PortableServer20_impl_ServantManagerD1Ev @566
    _ZN14PortableServer20_impl_ServantManagerD2Ev @567
    _ZN14PortableServer21ServantLocator_Helper13marshalObjRefEPNS_14ServantLocatorER9cdrStream @568
    _ZN14PortableServer21ServantLocator_Helper15unmarshalObjRefER9cdrStream @569
    _ZN14PortableServer21ServantLocator_Helper4_nilEv @570
    _ZN14PortableServer21ServantLocator_Helper6is_nilEPNS_14ServantLocatorE @571
    _ZN14PortableServer21ServantLocator_Helper7releaseEPNS_14ServantLocatorE @572
    _ZN14PortableServer21ServantLocator_Helper9duplicateEPNS_14ServantLocatorE @573
    _ZN14PortableServer21ServantManager_Helper13marshalObjRefEPNS_14ServantManagerER9cdrStream @574
    _ZN14PortableServer21ServantManager_Helper15unmarshalObjRefER9cdrStream @575
    _ZN14PortableServer21ServantManager_Helper4_nilEv @576
    _ZN14PortableServer21ServantManager_Helper6is_nilEPNS_14ServantManagerE @577
    _ZN14PortableServer21ServantManager_Helper7releaseEPNS_14ServantManagerE @578
    _ZN14PortableServer21ServantManager_Helper9duplicateEPNS_14ServantManagerE @579
    _ZN14PortableServer21_pof_AdapterActivator9newObjRefEP7omniIORP12omniIdentity @580
    _ZN14PortableServer21_pof_AdapterActivatorC1Ev @581
    _ZN14PortableServer21_pof_AdapterActivatorD0Ev @582
    _ZN14PortableServer21_pof_AdapterActivatorD1Ev @583
    _ZN14PortableServer21_pof_AdapterActivatorD2Ev @584
    _ZN14PortableServer21_pof_ServantActivator9newObjRefEP7omniIORP12omniIdentity @585
    _ZN14PortableServer21_pof_ServantActivatorC1Ev @586
    _ZN14PortableServer21_pof_ServantActivatorD0Ev @587
    _ZN14PortableServer21_pof_ServantActivatorD1Ev @588
    _ZN14PortableServer21_pof_ServantActivatorD2Ev @589
    _ZN14PortableServer22ServantRetentionPolicy10_PD_repoIdE @590 DATA
    _ZN14PortableServer22ServantRetentionPolicy10_duplicateEPS0_ @591
    _ZN14PortableServer22ServantRetentionPolicy12_ptrToObjRefEPKc @592
    _ZN14PortableServer22ServantRetentionPolicy4_nilEv @593
    _ZN14PortableServer22ServantRetentionPolicy4copyEv @594
    _ZN14PortableServer22ServantRetentionPolicy5valueEv @595
    _ZN14PortableServer22ServantRetentionPolicy7_narrowEPN5CORBA6ObjectE @596
    _ZN14PortableServer22ServantRetentionPolicyC1ENS_27ServantRetentionPolicyValueE @597
    _ZN14PortableServer22ServantRetentionPolicyC1Ev @598
    _ZN14PortableServer22ServantRetentionPolicyD0Ev @599
    _ZN14PortableServer22ServantRetentionPolicyD1Ev @600
    _ZN14PortableServer22ServantRetentionPolicyD2Ev @601
    _ZN14PortableServer22_impl_AdapterActivator15_ptrToInterfaceEPKc @602
    _ZN14PortableServer22_impl_AdapterActivator18_mostDerivedRepoIdEv @603
    _ZN14PortableServer22_impl_AdapterActivator9_dispatchER14omniCallHandle @604
    _ZN14PortableServer22_impl_AdapterActivatorD0Ev @605
    _ZN14PortableServer22_impl_AdapterActivatorD1Ev @606
    _ZN14PortableServer22_impl_AdapterActivatorD2Ev @607
    _ZN14PortableServer22_impl_ServantActivator15_ptrToInterfaceEPKc @608
    _ZN14PortableServer22_impl_ServantActivator18_mostDerivedRepoIdEv @609
    _ZN14PortableServer22_impl_ServantActivator9_dispatchER14omniCallHandle @610
    _ZN14PortableServer22_impl_ServantActivatorD0Ev @611
    _ZN14PortableServer22_impl_ServantActivatorD1Ev @612
    _ZN14PortableServer22_impl_ServantActivatorD2Ev @613
    _ZN14PortableServer22_objref_ServantLocator10postinvokeERKNS_8ObjectIdEPNS_3POAEPKcPvPNS_11ServantBaseE @614
    _ZN14PortableServer22_objref_ServantLocator12_ptrToObjRefEPKc @615
    _ZN14PortableServer22_objref_ServantLocator15_enableShortcutEP11omniServantPKb @616
    _ZN14PortableServer22_objref_ServantLocator9preinvokeERKNS_8ObjectIdEPNS_3POAEPKcRPv @617
    _ZN14PortableServer22_objref_ServantLocatorC1EP7omniIORP12omniIdentity @618
    _ZN14PortableServer22_objref_ServantLocatorC1Ev @619
    _ZN14PortableServer22_objref_ServantLocatorC2EP7omniIORP12omniIdentity @620
    _ZN14PortableServer22_objref_ServantLocatorD0Ev @621
    _ZN14PortableServer22_objref_ServantLocatorD1Ev @622
    _ZN14PortableServer22_objref_ServantLocatorD2Ev @623
    _ZN14PortableServer22_objref_ServantManager12_ptrToObjRefEPKc @624
    _ZN14PortableServer22_objref_ServantManagerC1EP7omniIORP12omniIdentity @625
    _ZN14PortableServer22_objref_ServantManagerC1Ev @626
    _ZN14PortableServer22_objref_ServantManagerC2EP7omniIORP12omniIdentity @627
    _ZN14PortableServer22_objref_ServantManagerC2Ev @628
    _ZN14PortableServer22_objref_ServantManagerD0Ev @629
    _ZN14PortableServer22_objref_ServantManagerD1Ev @630
    _ZN14PortableServer22_objref_ServantManagerD2Ev @631
    _ZN14PortableServer23AdapterActivator_Helper13marshalObjRefEPNS_16AdapterActivatorER9cdrStream @632
    _ZN14PortableServer23AdapterActivator_Helper15unmarshalObjRefER9cdrStream @633
    _ZN14PortableServer23AdapterActivator_Helper4_nilEv @634
    _ZN14PortableServer23AdapterActivator_Helper6is_nilEPNS_16AdapterActivatorE @635
    _ZN14PortableServer23AdapterActivator_Helper7releaseEPNS_16AdapterActivatorE @636
    _ZN14PortableServer23AdapterActivator_Helper9duplicateEPNS_16AdapterActivatorE @637
    _ZN14PortableServer23RequestProcessingPolicy10_PD_repoIdE @638 DATA
    _ZN14PortableServer23RequestProcessingPolicy10_duplicateEPS0_ @639
    _ZN14PortableServer23RequestProcessingPolicy12_ptrToObjRefEPKc @640
    _ZN14PortableServer23RequestProcessingPolicy4_nilEv @641
    _ZN14PortableServer23RequestProcessingPolicy4copyEv @642
    _ZN14PortableServer23RequestProcessingPolicy5valueEv @643
    _ZN14PortableServer23RequestProcessingPolicy7_narrowEPN5CORBA6ObjectE @644
    _ZN14PortableServer23RequestProcessingPolicyC1ENS_28RequestProcessingPolicyValueE @645
    _ZN14PortableServer23RequestProcessingPolicyC1Ev @646
    _ZN14PortableServer23RequestProcessingPolicyD0Ev @647
    _ZN14PortableServer23RequestProcessingPolicyD1Ev @648
    _ZN14PortableServer23RequestProcessingPolicyD2Ev @649
    _ZN14PortableServer23ServantActivator_Helper13marshalObjRefEPNS_16ServantActivatorER9cdrStream @650
    _ZN14PortableServer23ServantActivator_Helper15unmarshalObjRefER9cdrStream @651
    _ZN14PortableServer23ServantActivator_Helper4_nilEv @652
    _ZN14PortableServer23ServantActivator_Helper6is_nilEPNS_16ServantActivatorE @653
    _ZN14PortableServer23ServantActivator_Helper7releaseEPNS_16ServantActivatorE @654
    _ZN14PortableServer23ServantActivator_Helper9duplicateEPNS_16ServantActivatorE @655
    _ZN14PortableServer24ImplicitActivationPolicy10_PD_repoIdE @656 DATA
    _ZN14PortableServer24ImplicitActivationPolicy10_duplicateEPS0_ @657
    _ZN14PortableServer24ImplicitActivationPolicy12_ptrToObjRefEPKc @658
    _ZN14PortableServer24ImplicitActivationPolicy4_nilEv @659
    _ZN14PortableServer24ImplicitActivationPolicy4copyEv @660
    _ZN14PortableServer24ImplicitActivationPolicy5valueEv @661
    _ZN14PortableServer24ImplicitActivationPolicy7_narrowEPN5CORBA6ObjectE @662
    _ZN14PortableServer24ImplicitActivationPolicyC1ENS_29ImplicitActivationPolicyValueE @663
    _ZN14PortableServer24ImplicitActivationPolicyC1Ev @664
    _ZN14PortableServer24ImplicitActivationPolicyD0Ev @665
    _ZN14PortableServer24ImplicitActivationPolicyD1Ev @666
    _ZN14PortableServer24ImplicitActivationPolicyD2Ev @667
    _ZN14PortableServer24_objref_AdapterActivator12_ptrToObjRefEPKc @668
    _ZN14PortableServer24_objref_AdapterActivator15unknown_adapterEPNS_3POAEPKc @669
    _ZN14PortableServer24_objref_AdapterActivatorC1EP7omniIORP12omniIdentity @670
    _ZN14PortableServer24_objref_AdapterActivatorC1Ev @671
    _ZN14PortableServer24_objref_AdapterActivatorC2EP7omniIORP12omniIdentity @672
    _ZN14PortableServer24_objref_AdapterActivatorD0Ev @673
    _ZN14PortableServer24_objref_AdapterActivatorD1Ev @674
    _ZN14PortableServer24_objref_AdapterActivatorD2Ev @675
    _ZN14PortableServer24_objref_ServantActivator11etherealizeERKNS_8ObjectIdEPNS_3POAEPNS_11ServantBaseEbb @676
    _ZN14PortableServer24_objref_ServantActivator12_ptrToObjRefEPKc @677
    _ZN14PortableServer24_objref_ServantActivator15_enableShortcutEP11omniServantPKb @678
    _ZN14PortableServer24_objref_ServantActivator9incarnateERKNS_8ObjectIdEPNS_3POAE @679
    _ZN14PortableServer24_objref_ServantActivatorC1EP7omniIORP12omniIdentity @680
    _ZN14PortableServer24_objref_ServantActivatorC1Ev @681
    _ZN14PortableServer24_objref_ServantActivatorC2EP7omniIORP12omniIdentity @682
    _ZN14PortableServer24_objref_ServantActivatorD0Ev @683
    _ZN14PortableServer24_objref_ServantActivatorD1Ev @684
    _ZN14PortableServer24_objref_ServantActivatorD2Ev @685
    _ZN14PortableServer3POA10_PD_repoIdE @686 DATA
    _ZN14PortableServer3POA10_duplicateEPS0_ @687
    _ZN14PortableServer3POA11WrongPolicy10_PD_repoIdE @688 DATA
    _ZN14PortableServer3POA11WrongPolicy13insertToAnyFnE @689 DATA
    _ZN14PortableServer3POA11WrongPolicy16insertToAnyFnNCPE @690 DATA
    _ZN14PortableServer3POA11WrongPolicy9_downcastEPKN5CORBA9ExceptionE @691
    _ZN14PortableServer3POA11WrongPolicy9_downcastEPN5CORBA9ExceptionE @692
    _ZN14PortableServer3POA11WrongPolicyC1ERKS1_ @693
    _ZN14PortableServer3POA11WrongPolicyC1Ev @694
    _ZN14PortableServer3POA11WrongPolicyD0Ev @695
    _ZN14PortableServer3POA11WrongPolicyD1Ev @696
    _ZN14PortableServer3POA11WrongPolicyD2Ev @697
    _ZN14PortableServer3POA12WrongAdapter10_PD_repoIdE @698 DATA
    _ZN14PortableServer3POA12WrongAdapter13insertToAnyFnE @699 DATA
    _ZN14PortableServer3POA12WrongAdapter16insertToAnyFnNCPE @700 DATA
    _ZN14PortableServer3POA12WrongAdapter9_downcastEPKN5CORBA9ExceptionE @701
    _ZN14PortableServer3POA12WrongAdapter9_downcastEPN5CORBA9ExceptionE @702
    _ZN14PortableServer3POA12WrongAdapterC1ERKS1_ @703
    _ZN14PortableServer3POA12WrongAdapterC1Ev @704
    _ZN14PortableServer3POA12WrongAdapterD0Ev @705
    _ZN14PortableServer3POA12WrongAdapterD1Ev @706
    _ZN14PortableServer3POA12WrongAdapterD2Ev @707
    _ZN14PortableServer3POA13InvalidPolicy10_PD_repoIdE @708 DATA
    _ZN14PortableServer3POA13InvalidPolicy13insertToAnyFnE @709 DATA
    _ZN14PortableServer3POA13InvalidPolicy16insertToAnyFnNCPE @710 DATA
    _ZN14PortableServer3POA13InvalidPolicy9_downcastEPKN5CORBA9ExceptionE @711
    _ZN14PortableServer3POA13InvalidPolicy9_downcastEPN5CORBA9ExceptionE @712
    _ZN14PortableServer3POA13InvalidPolicyC1ERKS1_ @713
    _ZN14PortableServer3POA13InvalidPolicyC1Et @714
    _ZN14PortableServer3POA13InvalidPolicyC2ERKS1_ @715
    _ZN14PortableServer3POA13InvalidPolicyC2Et @716
    _ZN14PortableServer3POA13InvalidPolicyD0Ev @717
    _ZN14PortableServer3POA13InvalidPolicyD1Ev @718
    _ZN14PortableServer3POA13InvalidPolicyD2Ev @719
    _ZN14PortableServer3POA13InvalidPolicyaSERKS1_ @720
    _ZN14PortableServer3POA13InvalidPolicylSER9cdrStream @721
    _ZN14PortableServer3POA13_the_root_poaEv @722
    _ZN14PortableServer3POA15AdapterInactive10_PD_repoIdE @723 DATA
    _ZN14PortableServer3POA15AdapterInactive13insertToAnyFnE @724 DATA
    _ZN14PortableServer3POA15AdapterInactive16insertToAnyFnNCPE @725 DATA
    _ZN14PortableServer3POA15AdapterInactive9_downcastEPKN5CORBA9ExceptionE @726
    _ZN14PortableServer3POA15AdapterInactive9_downcastEPN5CORBA9ExceptionE @727
    _ZN14PortableServer3POA15AdapterInactiveC1ERKS1_ @728
    _ZN14PortableServer3POA15AdapterInactiveD0Ev @729
    _ZN14PortableServer3POA15AdapterInactiveD1Ev @730
    _ZN14PortableServer3POA15AdapterInactiveD2Ev @731
    _ZN14PortableServer3POA15ObjectNotActive10_PD_repoIdE @732 DATA
    _ZN14PortableServer3POA15ObjectNotActive13insertToAnyFnE @733 DATA
    _ZN14PortableServer3POA15ObjectNotActive16insertToAnyFnNCPE @734 DATA
    _ZN14PortableServer3POA15ObjectNotActive9_downcastEPKN5CORBA9ExceptionE @735
    _ZN14PortableServer3POA15ObjectNotActive9_downcastEPN5CORBA9ExceptionE @736
    _ZN14PortableServer3POA15ObjectNotActiveC1ERKS1_ @737
    _ZN14PortableServer3POA15ObjectNotActiveC1Ev @738
    _ZN14PortableServer3POA15ObjectNotActiveD0Ev @739
    _ZN14PortableServer3POA15ObjectNotActiveD1Ev @740
    _ZN14PortableServer3POA15ObjectNotActiveD2Ev @741
    _ZN14PortableServer3POA16ServantNotActive10_PD_repoIdE @742 DATA
    _ZN14PortableServer3POA16ServantNotActive13insertToAnyFnE @743 DATA
    _ZN14PortableServer3POA16ServantNotActive16insertToAnyFnNCPE @744 DATA
    _ZN14PortableServer3POA16ServantNotActive9_downcastEPKN5CORBA9ExceptionE @745
    _ZN14PortableServer3POA16ServantNotActive9_downcastEPN5CORBA9ExceptionE @746
    _ZN14PortableServer3POA16ServantNotActiveC1ERKS1_ @747
    _ZN14PortableServer3POA16ServantNotActiveC1Ev @748
    _ZN14PortableServer3POA16ServantNotActiveD0Ev @749
    _ZN14PortableServer3POA16ServantNotActiveD1Ev @750
    _ZN14PortableServer3POA16ServantNotActiveD2Ev @751
    _ZN14PortableServer3POA18AdapterNonExistent10_PD_repoIdE @752 DATA
    _ZN14PortableServer3POA18AdapterNonExistent13insertToAnyFnE @753 DATA
    _ZN14PortableServer3POA18AdapterNonExistent16insertToAnyFnNCPE @754 DATA
    _ZN14PortableServer3POA18AdapterNonExistent9_downcastEPKN5CORBA9ExceptionE @755
    _ZN14PortableServer3POA18AdapterNonExistent9_downcastEPN5CORBA9ExceptionE @756
    _ZN14PortableServer3POA18AdapterNonExistentC1ERKS1_ @757
    _ZN14PortableServer3POA18AdapterNonExistentC1Ev @758
    _ZN14PortableServer3POA18AdapterNonExistentD0Ev @759
    _ZN14PortableServer3POA18AdapterNonExistentD1Ev @760
    _ZN14PortableServer3POA18AdapterNonExistentD2Ev @761
    _ZN14PortableServer3POA19ObjectAlreadyActive10_PD_repoIdE @762 DATA
    _ZN14PortableServer3POA19ObjectAlreadyActive13insertToAnyFnE @763 DATA
    _ZN14PortableServer3POA19ObjectAlreadyActive16insertToAnyFnNCPE @764 DATA
    _ZN14PortableServer3POA19ObjectAlreadyActive9_downcastEPKN5CORBA9ExceptionE @765
    _ZN14PortableServer3POA19ObjectAlreadyActive9_downcastEPN5CORBA9ExceptionE @766
    _ZN14PortableServer3POA19ObjectAlreadyActiveC1ERKS1_ @767
    _ZN14PortableServer3POA19ObjectAlreadyActiveC1Ev @768
    _ZN14PortableServer3POA19ObjectAlreadyActiveD0Ev @769
    _ZN14PortableServer3POA19ObjectAlreadyActiveD1Ev @770
    _ZN14PortableServer3POA19ObjectAlreadyActiveD2Ev @771
    _ZN14PortableServer3POA20AdapterAlreadyExists10_PD_repoIdE @772 DATA
    _ZN14PortableServer3POA20AdapterAlreadyExists13insertToAnyFnE @773 DATA
    _ZN14PortableServer3POA20AdapterAlreadyExists16insertToAnyFnNCPE @774 DATA
    _ZN14PortableServer3POA20AdapterAlreadyExists9_downcastEPKN5CORBA9ExceptionE @775
    _ZN14PortableServer3POA20AdapterAlreadyExists9_downcastEPN5CORBA9ExceptionE @776
    _ZN14PortableServer3POA20AdapterAlreadyExistsC1ERKS1_ @777
    _ZN14PortableServer3POA20AdapterAlreadyExistsC1Ev @778
    _ZN14PortableServer3POA20AdapterAlreadyExistsD0Ev @779
    _ZN14PortableServer3POA20AdapterAlreadyExistsD1Ev @780
    _ZN14PortableServer3POA20AdapterAlreadyExistsD2Ev @781
    _ZN14PortableServer3POA20ServantAlreadyActive10_PD_repoIdE @782 DATA
    _ZN14PortableServer3POA20ServantAlreadyActive13insertToAnyFnE @783 DATA
    _ZN14PortableServer3POA20ServantAlreadyActive16insertToAnyFnNCPE @784 DATA
    _ZN14PortableServer3POA20ServantAlreadyActive9_downcastEPKN5CORBA9ExceptionE @785
    _ZN14PortableServer3POA20ServantAlreadyActive9_downcastEPN5CORBA9ExceptionE @786
    _ZN14PortableServer3POA20ServantAlreadyActiveC1ERKS1_ @787
    _ZN14PortableServer3POA20ServantAlreadyActiveC1Ev @788
    _ZN14PortableServer3POA20ServantAlreadyActiveD0Ev @789
    _ZN14PortableServer3POA20ServantAlreadyActiveD1Ev @790
    _ZN14PortableServer3POA20ServantAlreadyActiveD2Ev @791
    _ZN14PortableServer3POA20create_thread_policyENS_17ThreadPolicyValueE @792
    _ZN14PortableServer3POA22create_lifespan_policyENS_19LifespanPolicyValueE @793
    _ZN14PortableServer3POA27create_id_assignment_policyENS_23IdAssignmentPolicyValueE @794
    _ZN14PortableServer3POA27create_id_uniqueness_policyENS_23IdUniquenessPolicyValueE @795
    _ZN14PortableServer3POA31create_servant_retention_policyENS_27ServantRetentionPolicyValueE @796
    _ZN14PortableServer3POA32create_request_processing_policyENS_28RequestProcessingPolicyValueE @797
    _ZN14PortableServer3POA33create_implicit_activation_policyENS_29ImplicitActivationPolicyValueE @798
    _ZN14PortableServer3POA4_nilEv @799
    _ZN14PortableServer3POA7_narrowEPN5CORBA6ObjectE @800
    _ZN14PortableServer3POA9NoServant10_PD_repoIdE @801 DATA
    _ZN14PortableServer3POA9NoServant13insertToAnyFnE @802 DATA
    _ZN14PortableServer3POA9NoServant16insertToAnyFnNCPE @803 DATA
    _ZN14PortableServer3POA9NoServant9_downcastEPKN5CORBA9ExceptionE @804
    _ZN14PortableServer3POA9NoServant9_downcastEPN5CORBA9ExceptionE @805
    _ZN14PortableServer3POA9NoServantC1ERKS1_ @806
    _ZN14PortableServer3POA9NoServantC1Ev @807
    _ZN14PortableServer3POA9NoServantD0Ev @808
    _ZN14PortableServer3POA9NoServantD1Ev @809
    _ZN14PortableServer3POA9NoServantD2Ev @810
    _ZN14PortableServer3POAC2Ei @811
    _ZN14PortableServer3POAD0Ev @812
    _ZN14PortableServer3POAD1Ev @813
    _ZN14PortableServer3POAD2Ev @814
    _ZN14PortableServer7Current10_PD_repoIdE @815 DATA
    _ZN14PortableServer7Current10_duplicateEPS0_ @816
    _ZN14PortableServer7Current4_nilEv @817
    _ZN14PortableServer7Current7_narrowEPN5CORBA6ObjectE @818
    _ZN14PortableServer7Current9NoContext10_PD_repoIdE @819 DATA
    _ZN14PortableServer7Current9NoContext13insertToAnyFnE @820 DATA
    _ZN14PortableServer7Current9NoContext16insertToAnyFnNCPE @821 DATA
    _ZN14PortableServer7Current9NoContext9_downcastEPKN5CORBA9ExceptionE @822
    _ZN14PortableServer7Current9NoContext9_downcastEPN5CORBA9ExceptionE @823
    _ZN14PortableServer7Current9NoContextC1ERKS1_ @824
    _ZN14PortableServer7Current9NoContextC1Ev @825
    _ZN14PortableServer7Current9NoContextD0Ev @826
    _ZN14PortableServer7Current9NoContextD1Ev @827
    _ZN14PortableServer7Current9NoContextD2Ev @828
    _ZN14PortableServer7CurrentC2Ei @829
    _ZN14PortableServer7CurrentD0Ev @830
    _ZN14PortableServer7CurrentD1Ev @831
    _ZN14PortableServer7CurrentD2Ev @832
    _ZN14PortableServer7POAListC1Ev @833
    _ZN14PortableServer8ObjectIdC1Em @834
    _ZN14PortableServer8ObjectIdC1Ev @835
    _ZN14PortableServer8ObjectIdD1Ev @836
    _ZN14omniCallHandle10mainThreadEP10omni_mutexP14omni_condition @837
    _ZN14omniCallHandle14PostInvokeHookC2Ev @838
    _ZN14omniCallHandle14PostInvokeHookD0Ev @839
    _ZN14omniCallHandle14PostInvokeHookD1Ev @840
    _ZN14omniCallHandle14PostInvokeHookD2Ev @841
    _ZN14omniCallHandle15SkipRequestBodyEv @842
    _ZN14omniCallHandle15postinvoke_hookEPNS_14PostInvokeHookE @843
    _ZN14omniCallHandle3poaEPN4omni10omniOrbPOAE @844
    _ZN14omniCallHandle6upcallEP11omniServantR18omniCallDescriptor @845
    _ZN14omniCallHandle7localIdEP17omniLocalIdentity @846
    _ZN14omniCallHandleC1EP18omniCallDescriptorb @847
    _ZN14omniCallHandleC1EPN4omni5IOP_SEP11omni_thread @848
    _ZN14omniExHandlers5TableE @849 DATA
    _ZN14omniExHandlers9TableLockE @850 DATA
    _ZN14omniExHandlersC1Ev @851
    _ZN14omniExHandlersC2Ev @852
    _ZN14omniNilCurrentC1Ev @853
    _ZN14omniNilCurrentD0Ev @854
    _ZN14omniNilCurrentD1Ev @855
    _ZN15_CORBA_SequenceI31_CORBA_Unbounded_Sequence_OctetE10copybufferEm @856
    _ZN15_CORBA_SequenceI31_CORBA_Unbounded_Sequence_OctetE6lengthEm @857
    _ZN15_CORBA_SequenceI31_CORBA_Unbounded_Sequence_OctetE7freebufEPS0_ @858
    _ZN15_CORBA_SequenceI31_CORBA_Unbounded_Sequence_OctetE8allocbufEm @859
    _ZN15_CORBA_SequenceI31_CORBA_Unbounded_Sequence_OctetEC2Ev @860
    _ZN15_CORBA_SequenceI31_CORBA_Unbounded_Sequence_OctetED2Ev @861
    _ZN15_CORBA_SequenceI31_CORBA_Unbounded_Sequence_OctetEixEm @862
    _ZN15_CORBA_SequenceIN3IOP13TaggedProfileEE10copybufferEm @863
    _ZN15_CORBA_SequenceIN3IOP13TaggedProfileEE6lengthEm @864
    _ZN15_CORBA_SequenceIN3IOP13TaggedProfileEE7freebufEPS1_ @865
    _ZN15_CORBA_SequenceIN3IOP13TaggedProfileEE7replaceEmmPS1_b @866
    _ZN15_CORBA_SequenceIN3IOP13TaggedProfileEE8allocbufEm @867
    _ZN15_CORBA_SequenceIN3IOP13TaggedProfileEEC2EmmPS1_bb @868
    _ZN15_CORBA_SequenceIN3IOP13TaggedProfileEEC2Ev @869
    _ZN15_CORBA_SequenceIN3IOP13TaggedProfileEED2Ev @870
    _ZN15_CORBA_SequenceIN3IOP13TaggedProfileEEixEm @871
    _ZN15_CORBA_SequenceIN3IOP14ServiceContextEE10copybufferEm @872
    _ZN15_CORBA_SequenceIN3IOP14ServiceContextEE6lengthEm @873
    _ZN15_CORBA_SequenceIN3IOP14ServiceContextEE7freebufEPS1_ @874
    _ZN15_CORBA_SequenceIN3IOP14ServiceContextEE8allocbufEm @875
    _ZN15_CORBA_SequenceIN3IOP14ServiceContextEEC2Emb @876
    _ZN15_CORBA_SequenceIN3IOP14ServiceContextEEC2Ev @877
    _ZN15_CORBA_SequenceIN3IOP14ServiceContextEED2Ev @878
    _ZN15_CORBA_SequenceIN3IOP14ServiceContextEEixEm @879
    _ZN15_CORBA_SequenceIN3IOP15TaggedComponentEE10copybufferEm @880
    _ZN15_CORBA_SequenceIN3IOP15TaggedComponentEE6lengthEm @881
    _ZN15_CORBA_SequenceIN3IOP15TaggedComponentEE7freebufEPS1_ @882
    _ZN15_CORBA_SequenceIN3IOP15TaggedComponentEE8allocbufEm @883
    _ZN15_CORBA_SequenceIN3IOP15TaggedComponentEEC2Emb @884
    _ZN15_CORBA_SequenceIN3IOP15TaggedComponentEEC2Ev @885
    _ZN15_CORBA_SequenceIN3IOP15TaggedComponentEED2Ev @886
    _ZN15_CORBA_SequenceIN3IOP15TaggedComponentEEixEm @887
    _ZN15_CORBA_SequenceIN4IIOP7AddressEE10copybufferEm @888
    _ZN15_CORBA_SequenceIN4IIOP7AddressEE6lengthEm @889
    _ZN15_CORBA_SequenceIN4IIOP7AddressEE7freebufEPS1_ @890
    _ZN15_CORBA_SequenceIN4IIOP7AddressEE8allocbufEm @891
    _ZN15_CORBA_SequenceIN4IIOP7AddressEEC2Emb @892
    _ZN15_CORBA_SequenceIN4IIOP7AddressEEC2Ev @893
    _ZN15_CORBA_SequenceIN4IIOP7AddressEED2Ev @894
    _ZN15_CORBA_SequenceIN4IIOP7AddressEEixEm @895
    _ZN15_CORBA_SequenceIN9CosNaming13NameComponentEE10copybufferEm @896
    _ZN15_CORBA_SequenceIN9CosNaming13NameComponentEE6lengthEm @897
    _ZN15_CORBA_SequenceIN9CosNaming13NameComponentEE7freebufEPS1_ @898
    _ZN15_CORBA_SequenceIN9CosNaming13NameComponentEE8allocbufEm @899
    _ZN15_CORBA_SequenceIN9CosNaming13NameComponentEEC2Ev @900
    _ZN15_CORBA_SequenceIN9CosNaming13NameComponentEED2Ev @901
    _ZN15_CORBA_SequenceIN9CosNaming13NameComponentEEaSERKS2_ @902
    _ZN15_CORBA_SequenceIN9CosNaming13NameComponentEEixEm @903
    _ZN15_CORBA_SequenceIN9CosNaming7BindingEE10copybufferEm @904
    _ZN15_CORBA_SequenceIN9CosNaming7BindingEE6lengthEm @905
    _ZN15_CORBA_SequenceIN9CosNaming7BindingEE7freebufEPS1_ @906
    _ZN15_CORBA_SequenceIN9CosNaming7BindingEE8allocbufEm @907
    _ZN15_CORBA_SequenceIN9CosNaming7BindingEEC2Ev @908
    _ZN15_CORBA_SequenceIN9CosNaming7BindingEED2Ev @909
    _ZN15_CORBA_SequenceIhE10copybufferEm @910
    _ZN15_CORBA_SequenceIhE10get_bufferEb @911
    _ZN15_CORBA_SequenceIhE6lengthEm @912
    _ZN15_CORBA_SequenceIhE7freebufEPh @913
    _ZN15_CORBA_SequenceIhE7replaceEmmPhb @914
    _ZN15_CORBA_SequenceIhE8allocbufEm @915
    _ZN15_CORBA_SequenceIhEC2Emb @916
    _ZN15_CORBA_SequenceIhEC2Ev @917
    _ZN15_CORBA_SequenceIhED2Ev @918
    _ZN15_CORBA_SequenceIhEaSERKS0_ @919
    _ZN15_CORBA_SequenceIhEixEm @920
    _ZN15_CORBA_SequenceImE10copybufferEm @921
    _ZN15_CORBA_SequenceImE6lengthEm @922
    _ZN15_CORBA_SequenceImE7freebufEPm @923
    _ZN15_CORBA_SequenceImE8allocbufEm @924
    _ZN15_CORBA_SequenceImEC2Ev @925
    _ZN15_CORBA_SequenceImED2Ev @926
    _ZN15_CORBA_SequenceImEixEm @927
    _ZN15cdrMemoryStream10ptrToClassEPi @928
    _ZN15cdrMemoryStream10rewindPtrsEv @929
    _ZN15cdrMemoryStream14fetchInputDataEN4omni11alignment_tEj @930
    _ZN15cdrMemoryStream14rewindInputPtrEv @931
    _ZN15cdrMemoryStream15get_octet_arrayEPhiN4omni11alignment_tE @932
    _ZN15cdrMemoryStream15put_octet_arrayEPKhiN4omni11alignment_tE @933
    _ZN15cdrMemoryStream15setByteSwapFlagEb @934
    _ZN15cdrMemoryStream17checkInputOverrunEmmN4omni11alignment_tE @935
    _ZN15cdrMemoryStream18checkOutputOverrunEmmN4omni11alignment_tE @936
    _ZN15cdrMemoryStream18reserveOutputSpaceEN4omni11alignment_tEj @937
    _ZN15cdrMemoryStream23maybeReserveOutputSpaceEN4omni11alignment_tEj @938
    _ZN15cdrMemoryStream34reserveOutputSpaceForPrimitiveTypeEN4omni11alignment_tEj @939
    _ZN15cdrMemoryStream7copy_toER9cdrStreamiN4omni11alignment_tE @940
    _ZN15cdrMemoryStream8_classidE @941 DATA
    _ZN15cdrMemoryStream8readOnlyEv @942
    _ZN15cdrMemoryStream9skipInputEm @943
    _ZN15cdrMemoryStreamC1EPv @944
    _ZN15cdrMemoryStreamC1EPvj @945
    _ZN15cdrMemoryStreamC1ERKS_b @946
    _ZN15cdrMemoryStreamC1Emb @947
    _ZN15cdrMemoryStreamC2EPv @948
    _ZN15cdrMemoryStreamC2EPvj @949
    _ZN15cdrMemoryStreamC2ERKS_b @950
    _ZN15cdrMemoryStreamC2Emb @951
    _ZN15cdrMemoryStreamD0Ev @952
    _ZN15cdrMemoryStreamD1Ev @953
    _ZN15cdrMemoryStreamD2Ev @954
    _ZN15cdrMemoryStreamaSERKS_ @955
    _ZN15omniAsyncWorker3runEPv @956
    _ZN15omniAsyncWorker8real_runEv @957
    _ZN15omniAsyncWorkerC1EP16omniAsyncInvokerP8omniTask @958
    _ZN15omniAsyncWorkerD0Ev @959
    _ZN15omniAsyncWorkerD1Ev @960
    _ZN15omniStdCallDesc25_cCORBA_mObject_i_cstring16marshalArgumentsER9cdrStream @961
    _ZN15omniStdCallDesc25_cCORBA_mObject_i_cstring18unmarshalArgumentsER9cdrStream @962
    _ZN15omniStdCallDesc25_cCORBA_mObject_i_cstring21marshalReturnedValuesER9cdrStream @963
    _ZN15omniStdCallDesc25_cCORBA_mObject_i_cstring23unmarshalReturnedValuesER9cdrStream @964
    _ZN15omniStdCallDesc25_cCORBA_mObject_i_cstring6resultEv @965
    _ZN15omniStdCallDesc25_cCORBA_mObject_i_cstringC1EPFvP18omniCallDescriptorP11omniServantEPKcjS8_b @966
    _ZN15omniStdCallDesc25_cCORBA_mObject_i_cstringD0Ev @967
    _ZN15omniStdCallDesc25_cCORBA_mObject_i_cstringD1Ev @968
    _ZN15omni_mutex_lockC1ER10omni_mutex @969
    _ZN15omni_mutex_lockD1Ev @970
    _ZN16cdrStreamAdapter10completionEv @971
    _ZN16cdrStreamAdapter10ptrToClassEPi @972
    _ZN16cdrStreamAdapter14fetchInputDataEN4omni11alignment_tEj @973
    _ZN16cdrStreamAdapter15get_octet_arrayEPhiN4omni11alignment_tE @974
    _ZN16cdrStreamAdapter15put_octet_arrayEPKhiN4omni11alignment_tE @975
    _ZN16cdrStreamAdapter17checkInputOverrunEmmN4omni11alignment_tE @976
    _ZN16cdrStreamAdapter18checkOutputOverrunEmmN4omni11alignment_tE @977
    _ZN16cdrStreamAdapter19copyStateFromActualEv @978
    _ZN16cdrStreamAdapter23maybeReserveOutputSpaceEN4omni11alignment_tEj @979
    _ZN16cdrStreamAdapter34reserveOutputSpaceForPrimitiveTypeEN4omni11alignment_tEj @980
    _ZN16cdrStreamAdapter7copy_toER9cdrStreamiN4omni11alignment_tE @981
    _ZN16cdrStreamAdapter8_classidE @982 DATA
    _ZN16cdrStreamAdapter9skipInputEm @983
    _ZN16cdrStreamAdapterD0Ev @984
    _ZN16cdrStreamAdapterD1Ev @985
    _ZN16omniAsyncInvoker12idle_timeoutE @986 DATA
    _ZN16omniAsyncInvoker12work_pendingEv @987
    _ZN16omniAsyncInvoker16cancel_dedicatedEP8omniTask @988
    _ZN16omniAsyncInvoker16insert_dedicatedEP8omniTask @989
    _ZN16omniAsyncInvoker6cancelEP8omniTask @990
    _ZN16omniAsyncInvoker6insertEP8omniTask @991
    _ZN16omniAsyncInvoker7performEmm @992
    _ZN16omniAsyncInvokerC1Ej @993
    _ZN16omniAsyncInvokerC2Ej @994
    _ZN16omniAsyncInvokerD0Ev @995
    _ZN16omniAsyncInvokerD1Ev @996
    _ZN16omniAsyncInvokerD2Ev @997
    _ZN16omniEtherealiser11set_is_lastEi @998
    _ZN16omniEtherealiser4doitEv @999
    _ZN16omniEtherealiserC1EP17omniObjTableEntryPN14PortableServer16ServantActivatorEPN4omni10omniOrbPOAEPKhib @1000
    _ZN16omniEtherealiserD0Ev @1001
    _ZN16omniEtherealiserD1Ev @1002
    _ZN16traceFileHandler4dumpERN4omni10orbOptions14sequenceStringE @1003
    _ZN16traceFileHandler5visitEPKcN4omni10orbOptions6SourceE @1004
    _ZN16traceFileHandlerC1Ev @1005
    _ZN16traceFileHandlerD0Ev @1006
    _ZN16traceFileHandlerD1Ev @1007
    _ZN16traceTimeHandler4dumpERN4omni10orbOptions14sequenceStringE @1008
    _ZN16traceTimeHandler5visitEPKcN4omni10orbOptions6SourceE @1009
    _ZN16traceTimeHandlerC1Ev @1010
    _ZN16traceTimeHandlerD0Ev @1011
    _ZN16traceTimeHandlerD1Ev @1012
    _ZN17_CORBA_ObjRef_VarIN14PortableServer14ServantLocatorENS0_21ServantLocator_HelperEEC1EPS1_ @1013
    _ZN17_CORBA_ObjRef_VarIN14PortableServer14ServantLocatorENS0_21ServantLocator_HelperEED1Ev @1014
    _ZN17_CORBA_ObjRef_VarIN14PortableServer16ServantActivatorENS0_23ServantActivator_HelperEEC1EPS1_ @1015
    _ZN17_CORBA_ObjRef_VarIN14PortableServer16ServantActivatorENS0_23ServantActivator_HelperEED1Ev @1016
    _ZN17_CORBA_ObjRef_VarIN9CosNaming21_objref_NamingContextENS0_20NamingContext_HelperEE5_retnEv @1017
    _ZN17_CORBA_ObjRef_VarIN9CosNaming21_objref_NamingContextENS0_20NamingContext_HelperEEC1EPS1_ @1018
    _ZN17_CORBA_ObjRef_VarIN9CosNaming21_objref_NamingContextENS0_20NamingContext_HelperEEC1Ev @1019
    _ZN17_CORBA_ObjRef_VarIN9CosNaming21_objref_NamingContextENS0_20NamingContext_HelperEED1Ev @1020
    _ZN17_CORBA_ObjRef_VarIN9CosNaming21_objref_NamingContextENS0_20NamingContext_HelperEEaSEPS1_ @1021
    _ZN17_CORBA_ObjRef_VarIN9CosNaming23_objref_BindingIteratorENS0_22BindingIterator_HelperEE3outEv @1022
    _ZN17_CORBA_ObjRef_VarIN9CosNaming23_objref_BindingIteratorENS0_22BindingIterator_HelperEE5_retnEv @1023
    _ZN17_CORBA_ObjRef_VarIN9CosNaming23_objref_BindingIteratorENS0_22BindingIterator_HelperEEC1Ev @1024
    _ZN17_CORBA_ObjRef_VarIN9CosNaming23_objref_BindingIteratorENS0_22BindingIterator_HelperEED1Ev @1025
    _ZN17_CORBA_ObjRef_VarIN9CosNaming23_objref_BindingIteratorENS0_22BindingIterator_HelperEEaSEPS1_ @1026
    _ZN17_CORBA_String_var5_retnEv @1027
    _ZN17_CORBA_String_varC1EPKc @1028
    _ZN17_CORBA_String_varC1EPc @1029
    _ZN17_CORBA_String_varC1Ev @1030
    _ZN17_CORBA_String_varD1Ev @1031
    _ZN17_CORBA_String_varaSEPKc @1032
    _ZN17_CORBA_String_varaSEPc @1033
    _ZN17_CORBA_String_varaSERKS_ @1034
    _ZN17_CORBA_String_varcvPcEv @1035
    _ZN17_omniFinalCleanupC1Ev @1036
    _ZN17_omniFinalCleanupC2Ev @1037
    _ZN17_omniFinalCleanupD1Ev @1038
    _ZN17_omniFinalCleanupD2Ev @1039
    _ZN17cdrCountingStream10ptrToClassEPi @1040
    _ZN17cdrCountingStream14fetchInputDataEN4omni11alignment_tEj @1041
    _ZN17cdrCountingStream15get_octet_arrayEPhiN4omni11alignment_tE @1042
    _ZN17cdrCountingStream15put_octet_arrayEPKhiN4omni11alignment_tE @1043
    _ZN17cdrCountingStream17checkInputOverrunEmmN4omni11alignment_tE @1044
    _ZN17cdrCountingStream18checkOutputOverrunEmmN4omni11alignment_tE @1045
    _ZN17cdrCountingStream23maybeReserveOutputSpaceEN4omni11alignment_tEj @1046
    _ZN17cdrCountingStream34reserveOutputSpaceForPrimitiveTypeEN4omni11alignment_tEj @1047
    _ZN17cdrCountingStream5totalEv @1048
    _ZN17cdrCountingStream7copy_toER9cdrStreamiN4omni11alignment_tE @1049
    _ZN17cdrCountingStream8_classidE @1050 DATA
    _ZN17cdrCountingStream9skipInputEm @1051
    _ZN17cdrCountingStreamC1EPN4omni11omniCodeSet5TCS_CEPNS1_5TCS_WEj @1052
    _ZN17cdrCountingStreamD0Ev @1053
    _ZN17cdrCountingStreamD1Ev @1054
    _ZN17omniLocalIdentity10ptrToClassEPi @1055
    _ZN17omniLocalIdentity10setServantEP11omniServantPN4omni14omniObjAdapterE @1056
    _ZN17omniLocalIdentity13locateRequestER18omniCallDescriptor @1057
    _ZN17omniLocalIdentity18inThisAddressSpaceEv @1058
    _ZN17omniLocalIdentity18real_is_equivalentEPK12omniIdentityS2_ @1059
    _ZN17omniLocalIdentity7gainRefEP10omniObjRef @1060
    _ZN17omniLocalIdentity7loseRefEP10omniObjRef @1061
    _ZN17omniLocalIdentity8_classidE @1062 DATA
    _ZN17omniLocalIdentity8dispatchER14omniCallHandle @1063
    _ZN17omniLocalIdentity8dispatchER18omniCallDescriptor @1064
    _ZN17omniLocalIdentity8downcastEP12omniIdentity @1065
    _ZN17omniLocalIdentityC1EPKhiP11omniServantPN4omni14omniObjAdapterE @1066
    _ZN17omniLocalIdentityC2ER10omniObjKeyP11omniServantPN4omni14omniObjAdapterE @1067
    _ZN17omniLocalIdentityD0Ev @1068
    _ZN17omniLocalIdentityD1Ev @1069
    _ZN17omniLocalIdentityD2Ev @1070
    _ZN17omniObjTableEntry10ptrToClassEPi @1071
    _ZN17omniObjTableEntry15nextInOAObjListEv @1072
    _ZN17omniObjTableEntry15reRootOAObjListEPPS_ @1073
    _ZN17omniObjTableEntry15setDeactivatingEv @1074
    _ZN17omniObjTableEntry16setEtherealisingEv @1075
    _ZN17omniObjTableEntry17nextInObjectTableEv @1076
    _ZN17omniObjTableEntry17setDeactivatingOAEv @1077
    _ZN17omniObjTableEntry19insertIntoOAObjListEPPS_ @1078
    _ZN17omniObjTableEntry19removeFromOAObjListEv @1079
    _ZN17omniObjTableEntry23addrOfNextInObjectTableEv @1080
    _ZN17omniObjTableEntry4waitEm @1081
    _ZN17omniObjTableEntry5stateEv @1082
    _ZN17omniObjTableEntry7gainRefEP10omniObjRef @1083
    _ZN17omniObjTableEntry7loseRefEP10omniObjRef @1084
    _ZN17omniObjTableEntry7objRefsEv @1085
    _ZN17omniObjTableEntry7setDeadEv @1086
    _ZN17omniObjTableEntry8_classidE @1087 DATA
    _ZN17omniObjTableEntry8downcastEP12omniIdentity @1088
    _ZN17omniObjTableEntry9setActiveEP11omniServantPN4omni14omniObjAdapterE @1089
    _ZN17omniObjTableEntryC1ER10omniObjKey @1090
    _ZN17omniObjTableEntryD0Ev @1091
    _ZN17omniObjTableEntryD1Ev @1092
    _ZN17omniObjTableEntryD2Ev @1093
    _ZN17omniOrbBoaServant13_obj_is_readyEv @1094
    _ZN17omniOrbBoaServant17_do_get_interfaceEv @1095
    _ZN17omniOrbBoaServant5_thisEPKc @1096
    _ZN17omniOrbBoaServant8_disposeEv @1097
    _ZN17omniOrbBoaServantC1Ev @1098
    _ZN17omniOrbBoaServantC2Ev @1099
    _ZN17omniOrbBoaServantD0Ev @1100
    _ZN17omniOrbBoaServantD1Ev @1101
    _ZN17omniOrbBoaServantD2Ev @1102
    _ZN17traceLevelHandler4dumpERN4omni10orbOptions14sequenceStringE @1103
    _ZN17traceLevelHandler5visitEPKcN4omni10orbOptions6SourceE @1104
    _ZN17traceLevelHandlerC1Ev @1105
    _ZN17traceLevelHandlerD0Ev @1106
    _ZN17traceLevelHandlerD1Ev @1107
    _ZN18POA_PortableServer14ServantLocatorD0Ev @1108
    _ZN18POA_PortableServer14ServantLocatorD1Ev @1109
    _ZN18POA_PortableServer14ServantLocatorD2Ev @1110
    _ZN18POA_PortableServer14ServantManagerD0Ev @1111
    _ZN18POA_PortableServer14ServantManagerD1Ev @1112
    _ZN18POA_PortableServer14ServantManagerD2Ev @1113
    _ZN18POA_PortableServer16AdapterActivatorD0Ev @1114
    _ZN18POA_PortableServer16AdapterActivatorD1Ev @1115
    _ZN18POA_PortableServer16AdapterActivatorD2Ev @1116
    _ZN18POA_PortableServer16ServantActivatorD0Ev @1117
    _ZN18POA_PortableServer16ServantActivatorD1Ev @1118
    _ZN18POA_PortableServer16ServantActivatorD2Ev @1119
    _ZN18omniCallDescriptor10user_excnsEv @1120
    _ZN18omniCallDescriptor11doLocalCallEP11omniServant @1121
    _ZN18omniCallDescriptor11setDeadlineEmm @1122
    _ZN18omniCallDescriptor12n_user_excnsEv @1123
    _ZN18omniCallDescriptor13userExceptionER9cdrStreamPN4omni5IOP_CEPKc @1124
    _ZN18omniCallDescriptor14containsValuesEv @1125
    _ZN18omniCallDescriptor14currentAddressEPKN4omni11giopAddressE @1126
    _ZN18omniCallDescriptor14currentAddressEv @1127
    _ZN18omniCallDescriptor14initialiseCallER9cdrStream @1128
    _ZN18omniCallDescriptor16firstAddressUsedEPKN4omni11giopAddressE @1129
    _ZN18omniCallDescriptor16firstAddressUsedEv @1130
    _ZN18omniCallDescriptor16marshalArgumentsER9cdrStream @1131
    _ZN18omniCallDescriptor18unmarshalArgumentsER9cdrStream @1132
    _ZN18omniCallDescriptor21marshalReturnedValuesER9cdrStream @1133
    _ZN18omniCallDescriptor21validateUserExceptionERKN5CORBA13UserExceptionE @1134
    _ZN18omniCallDescriptor23unmarshalReturnedValuesER9cdrStream @1135
    _ZN18omniCallDescriptor3poaEPN4omni10omniOrbPOAE @1136
    _ZN18omniCallDescriptor3poaEv @1137
    _ZN18omniCallDescriptor6objrefEP10omniObjRef @1138
    _ZN18omniCallDescriptor6objrefEv @1139
    _ZN18omniCallDescriptor7localIdEP17omniLocalIdentity @1140
    _ZN18omniCallDescriptor7localIdEv @1141
    _ZN18omniCallDescriptorC1EPFvPS_P11omniServantEPKcibPKS6_ib @1142
    _ZN18omniCallDescriptorC2EPFvPS_P11omniServantEPKcibPKS6_ib @1143
    _ZN18omniCallDescriptorD0Ev @1144
    _ZN18omniCallDescriptorD1Ev @1145
    _ZN18omniCallDescriptorD2Ev @1146
    _ZN18omniRemoteIdentity10ptrToClassEPi @1147
    _ZN18omniRemoteIdentity13locateRequestER18omniCallDescriptor @1148
    _ZN18omniRemoteIdentity18inThisAddressSpaceEv @1149
    _ZN18omniRemoteIdentity18real_is_equivalentEPK12omniIdentityS2_ @1150
    _ZN18omniRemoteIdentity7gainRefEP10omniObjRef @1151
    _ZN18omniRemoteIdentity7loseRefEP10omniObjRef @1152
    _ZN18omniRemoteIdentity8_classidE @1153 DATA
    _ZN18omniRemoteIdentity8dispatchER18omniCallDescriptor @1154
    _ZN18omniRemoteIdentity8downcastEP12omniIdentity @1155
    _ZN18omniRemoteIdentityC1EP7omniIORPKhmPN4omni4RopeE @1156
    _ZN18omniRemoteIdentityD0Ev @1157
    _ZN18omniRemoteIdentityD1Ev @1158
    _ZN18omniRemoteIdentityD2Ev @1159
    _ZN18omni_optional_lockC1ER10omni_mutexii @1160
    _ZN18omni_optional_lockD1Ev @1161
    _ZN19cdrValueChunkStream10completionEv @1162
    _ZN19cdrValueChunkStream10ptrToClassEPi @1163
    _ZN19cdrValueChunkStream12peekChunkTagEv @1164
    _ZN19cdrValueChunkStream13endInputValueEv @1165
    _ZN19cdrValueChunkStream14endOutputChunkEv @1166
    _ZN19cdrValueChunkStream14endOutputValueEv @1167
    _ZN19cdrValueChunkStream14fetchInputDataEN4omni11alignment_tEj @1168
    _ZN19cdrValueChunkStream15get_octet_arrayEPhiN4omni11alignment_tE @1169
    _ZN19cdrValueChunkStream15initialiseInputEv @1170
    _ZN19cdrValueChunkStream15put_octet_arrayEPKhiN4omni11alignment_tE @1171
    _ZN19cdrValueChunkStream15startInputChunkEv @1172
    _ZN19cdrValueChunkStream16startOutputChunkEv @1173
    _ZN19cdrValueChunkStream17checkInputOverrunEmmN4omni11alignment_tE @1174
    _ZN19cdrValueChunkStream17skipToNestedValueEl @1175
    _ZN19cdrValueChunkStream18checkOutputOverrunEmmN4omni11alignment_tE @1176
    _ZN19cdrValueChunkStream18declareArrayLengthEN4omni11alignment_tEj @1177
    _ZN19cdrValueChunkStream18maybeStartNewChunkEN4omni11alignment_tEj @1178
    _ZN19cdrValueChunkStream19copyStateFromActualEv @1179
    _ZN19cdrValueChunkStream19startInputValueBodyEv @1180
    _ZN19cdrValueChunkStream20startOutputValueBodyEv @1181
    _ZN19cdrValueChunkStream22startOutputValueHeaderEl @1182
    _ZN19cdrValueChunkStream23maybeReserveOutputSpaceEN4omni11alignment_tEj @1183
    _ZN19cdrValueChunkStream34reserveOutputSpaceForPrimitiveTypeEN4omni11alignment_tEj @1184
    _ZN19cdrValueChunkStream8_classidE @1185 DATA
    _ZN19cdrValueChunkStream9getLengthEv @1186
    _ZN19cdrValueChunkStream9setLengthEm @1187
    _ZN19cdrValueChunkStream9skipInputEm @1188
    _ZN19cdrValueChunkStreamD0Ev @1189
    _ZN19cdrValueChunkStreamD1Ev @1190
    _ZN19cdrValueChunkStreamD2Ev @1191
    _ZN19omniAsyncWorkerInfo3runEv @1192
    _ZN19omniAsyncWorkerInfoC1EP15omniAsyncWorker @1193
    _ZN19omni_optional_rlockC1EP11omni_rmutexii @1194
    _ZN19omni_optional_rlockD1Ev @1195
    _ZN20_CORBA_ObjRef_MemberIN9CosNaming21_objref_NamingContextENS0_20NamingContext_HelperEEC1Ev @1196
    _ZN20_CORBA_ObjRef_MemberIN9CosNaming21_objref_NamingContextENS0_20NamingContext_HelperEED1Ev @1197
    _ZN20_CORBA_ObjRef_MemberIN9CosNaming21_objref_NamingContextENS0_20NamingContext_HelperEEaSEPS1_ @1198
    _ZN20_CORBA_ObjRef_MemberIN9CosNaming21_objref_NamingContextENS0_20NamingContext_HelperEEaSERKS3_ @1199
    _ZN20_CORBA_PseudoObj_VarIN10omniPolicy19LocalShortcutPolicyEEC1Ev @1200
    _ZN20_CORBA_PseudoObj_VarIN10omniPolicy19LocalShortcutPolicyEED1Ev @1201
    _ZN20_CORBA_PseudoObj_VarIN10omniPolicy19LocalShortcutPolicyEEaSEPS1_ @1202
    _ZN20_CORBA_PseudoObj_VarIN11BiDirPolicy19BidirectionalPolicyEEC1Ev @1203
    _ZN20_CORBA_PseudoObj_VarIN11BiDirPolicy19BidirectionalPolicyEED1Ev @1204
    _ZN20_CORBA_PseudoObj_VarIN11BiDirPolicy19BidirectionalPolicyEEaSEPS1_ @1205
    _ZN20_CORBA_PseudoObj_VarIN14PortableServer12ThreadPolicyEEC1Ev @1206
    _ZN20_CORBA_PseudoObj_VarIN14PortableServer12ThreadPolicyEED1Ev @1207
    _ZN20_CORBA_PseudoObj_VarIN14PortableServer12ThreadPolicyEEaSEPS1_ @1208
    _ZN20_CORBA_PseudoObj_VarIN14PortableServer14LifespanPolicyEEC1Ev @1209
    _ZN20_CORBA_PseudoObj_VarIN14PortableServer14LifespanPolicyEED1Ev @1210
    _ZN20_CORBA_PseudoObj_VarIN14PortableServer14LifespanPolicyEEaSEPS1_ @1211
    _ZN20_CORBA_PseudoObj_VarIN14PortableServer18IdAssignmentPolicyEEC1Ev @1212
    _ZN20_CORBA_PseudoObj_VarIN14PortableServer18IdAssignmentPolicyEED1Ev @1213
    _ZN20_CORBA_PseudoObj_VarIN14PortableServer18IdAssignmentPolicyEEaSEPS1_ @1214
    _ZN20_CORBA_PseudoObj_VarIN14PortableServer18IdUniquenessPolicyEEC1Ev @1215
    _ZN20_CORBA_PseudoObj_VarIN14PortableServer18IdUniquenessPolicyEED1Ev @1216
    _ZN20_CORBA_PseudoObj_VarIN14PortableServer18IdUniquenessPolicyEEaSEPS1_ @1217
    _ZN20_CORBA_PseudoObj_VarIN14PortableServer22ServantRetentionPolicyEEC1Ev @1218
    _ZN20_CORBA_PseudoObj_VarIN14PortableServer22ServantRetentionPolicyEED1Ev @1219
    _ZN20_CORBA_PseudoObj_VarIN14PortableServer22ServantRetentionPolicyEEaSEPS1_ @1220
    _ZN20_CORBA_PseudoObj_VarIN14PortableServer23RequestProcessingPolicyEEC1Ev @1221
    _ZN20_CORBA_PseudoObj_VarIN14PortableServer23RequestProcessingPolicyEED1Ev @1222
    _ZN20_CORBA_PseudoObj_VarIN14PortableServer23RequestProcessingPolicyEEaSEPS1_ @1223
    _ZN20_CORBA_PseudoObj_VarIN14PortableServer24ImplicitActivationPolicyEEC1Ev @1224
    _ZN20_CORBA_PseudoObj_VarIN14PortableServer24ImplicitActivationPolicyEED1Ev @1225
    _ZN20_CORBA_PseudoObj_VarIN14PortableServer24ImplicitActivationPolicyEEaSEPS1_ @1226
    _ZN20_CORBA_PseudoObj_VarIN14PortableServer3POAEEC1EPS1_ @1227
    _ZN20_CORBA_PseudoObj_VarIN14PortableServer3POAEEC1Ev @1228
    _ZN20_CORBA_PseudoObj_VarIN14PortableServer3POAEED1Ev @1229
    _ZN20_CORBA_PseudoObj_VarIN14PortableServer3POAEEaSEPS1_ @1230
    _ZN20_CORBA_String_helper12empty_stringE @1231 DATA
    _ZN20_CORBA_String_helper3dupEPKc @1232
    _ZN20_CORBA_String_helper4freeEPc @1233
    _ZN20_CORBA_String_helper5allocEi @1234
    _ZN20_CORBA_String_memberC1ERKS_ @1235
    _ZN20_CORBA_String_memberC1Ev @1236
    _ZN20_CORBA_String_memberD1Ev @1237
    _ZN20_CORBA_String_memberaSEPKc @1238
    _ZN20_CORBA_String_memberaSEPc @1239
    _ZN20_CORBA_String_memberaSERKS_ @1240
    _ZN20_CORBA_String_membercvPcEv @1241
    _ZN20_CORBA_String_memberlSER9cdrStream @1242
    _ZN20omniShutdownIdentity10ptrToClassEPi @1243
    _ZN20omniShutdownIdentity13locateRequestER18omniCallDescriptor @1244
    _ZN20omniShutdownIdentity18inThisAddressSpaceEv @1245
    _ZN20omniShutdownIdentity18real_is_equivalentEPK12omniIdentityS2_ @1246
    _ZN20omniShutdownIdentity7gainRefEP10omniObjRef @1247
    _ZN20omniShutdownIdentity7loseRefEP10omniObjRef @1248
    _ZN20omniShutdownIdentity8_classidE @1249 DATA
    _ZN20omniShutdownIdentity8dispatchER18omniCallDescriptor @1250
    _ZN20omniShutdownIdentity9singletonEv @1251
    _ZN20omniShutdownIdentityC1Ev @1252
    _ZN20omniShutdownIdentityD0Ev @1253
    _ZN20omniShutdownIdentityD1Ev @1254
    _ZN20traceThreadIdHandler4dumpERN4omni10orbOptions14sequenceStringE @1255
    _ZN20traceThreadIdHandler5visitEPKcN4omni10orbOptions6SourceE @1256
    _ZN20traceThreadIdHandlerC1Ev @1257
    _ZN20traceThreadIdHandlerD0Ev @1258
    _ZN20traceThreadIdHandlerD1Ev @1259
    _ZN21_CORBA_ObjRef_ElementIN14PortableServer3POAENS0_10POA_HelperEEC1ERPS1_b @1260
    _ZN21_CORBA_ObjRef_ElementIN14PortableServer3POAENS0_10POA_HelperEED1Ev @1261
    _ZN21_CORBA_ObjRef_ElementIN14PortableServer3POAENS0_10POA_HelperEEaSEPS1_ @1262
    _ZN21_CORBA_ObjRef_OUT_argIN9CosNaming23_objref_BindingIteratorENS0_22BindingIterator_HelperEEC1ERPS1_ @1263
    _ZN21_CORBA_ObjRef_OUT_argIN9CosNaming23_objref_BindingIteratorENS0_22BindingIterator_HelperEED1Ev @1264
    _ZN21_CORBA_ObjRef_OUT_argIN9CosNaming23_objref_BindingIteratorENS0_22BindingIterator_HelperEEaSEPS1_ @1265
    _ZN21_CORBA_Sequence_OctetC2Emb @1266
    _ZN21_CORBA_Sequence_OctetC2Ev @1267
    _ZN21_CORBA_Sequence_OctetD2Ev @1268
    _ZN21_CORBA_Sequence_OctetaSERKS_ @1269
    _ZN21_CORBA_Sequence_OctetlSER9cdrStream @1270
    _ZN21_CORBA_String_elementC1ERPcb @1271
    _ZN21_CORBA_String_elementD1Ev @1272
    _ZN21_CORBA_String_elementaSEPKc @1273
    _ZN21_CORBA_String_elementaSEPc @1274
    _ZN21_CORBA_String_elementaSERKS_ @1275
    _ZN21_CORBA_String_elementcvPcEv @1276
    _ZN21_CORBA_WString_helper13empty_wstringE @1277 DATA
    _ZN21_CORBA_WString_helper3cpyEPwPKw @1278
    _ZN21_CORBA_WString_helper3dupEPKw @1279
    _ZN21_CORBA_WString_helper3lenEPKw @1280
    _ZN21_CORBA_WString_helper4freeEPw @1281
    _ZN21_CORBA_WString_helper5allocEi @1282
    _ZN21_CORBA_WString_memberlSER9cdrStream @1283
    _ZN21omniInProcessIdentity10ptrToClassEPi @1284
    _ZN21omniInProcessIdentity13locateRequestER18omniCallDescriptor @1285
    _ZN21omniInProcessIdentity18inThisAddressSpaceEv @1286
    _ZN21omniInProcessIdentity7gainRefEP10omniObjRef @1287
    _ZN21omniInProcessIdentity7loseRefEP10omniObjRef @1288
    _ZN21omniInProcessIdentity8_classidE @1289 DATA
    _ZN21omniInProcessIdentity8dispatchER18omniCallDescriptor @1290
    _ZN21omniInProcessIdentity8downcastEP12omniIdentity @1291
    _ZN21omniInProcessIdentityC1EPKhi @1292
    _ZN21omniInProcessIdentityD0Ev @1293
    _ZN21omniInProcessIdentityD1Ev @1294
    _ZN21supportCurrentHandler4dumpERN4omni10orbOptions14sequenceStringE @1295
    _ZN21supportCurrentHandler5visitEPKcN4omni10orbOptions6SourceE @1296
    _ZN21supportCurrentHandlerC1Ev @1297
    _ZN21supportCurrentHandlerD0Ev @1298
    _ZN21supportCurrentHandlerD1Ev @1299
    _ZN22_CORBA_ObjRef_Var_baseC2Ev @1300
    _ZN22_CORBA_Sequence_ObjRefIN14PortableServer3POAE21_CORBA_ObjRef_ElementIS1_NS0_10POA_HelperEES3_E10copybufferEm @1301
    _ZN22_CORBA_Sequence_ObjRefIN14PortableServer3POAE21_CORBA_ObjRef_ElementIS1_NS0_10POA_HelperEES3_E6lengthEm @1302
    _ZN22_CORBA_Sequence_ObjRefIN14PortableServer3POAE21_CORBA_ObjRef_ElementIS1_NS0_10POA_HelperEES3_E7freebufEPPS1_ @1303
    _ZN22_CORBA_Sequence_ObjRefIN14PortableServer3POAE21_CORBA_ObjRef_ElementIS1_NS0_10POA_HelperEES3_E8allocbufEm @1304
    _ZN22_CORBA_Sequence_ObjRefIN14PortableServer3POAE21_CORBA_ObjRef_ElementIS1_NS0_10POA_HelperEES3_EC2Ev @1305
    _ZN22_CORBA_Sequence_ObjRefIN14PortableServer3POAE21_CORBA_ObjRef_ElementIS1_NS0_10POA_HelperEES3_EixEm @1306
    _ZN22_CORBA_Sequence_String10copybufferEm @1307
    _ZN22_CORBA_Sequence_String10get_bufferEb @1308
    _ZN22_CORBA_Sequence_String6lengthEm @1309
    _ZN22_CORBA_Sequence_String7freebufEPPc @1310
    _ZN22_CORBA_Sequence_String7replaceEmmPPcb @1311
    _ZN22_CORBA_Sequence_String8allocbufEm @1312
    _ZN22_CORBA_Sequence_StringC2Emb @1313
    _ZN22_CORBA_Sequence_StringC2Ev @1314
    _ZN22_CORBA_Sequence_StringD2Ev @1315
    _ZN22_CORBA_Sequence_StringaSERKS_ @1316
    _ZN22_CORBA_Sequence_StringixEm @1317
    _ZN22_CORBA_Sequence_StringlSER9cdrStream @1318
    _ZN22_CORBA_WString_elementC1ERPwb @1319
    _ZN22_CORBA_WString_elementD1Ev @1320
    _ZN22_CORBA_WString_elementaSEPw @1321
    _ZN22cdrEncapsulationStream10ptrToClassEPi @1322
    _ZN22cdrEncapsulationStream14getOctetStreamERPhRmS2_ @1323
    _ZN22cdrEncapsulationStream8_classidE @1324 DATA
    _ZN22cdrEncapsulationStreamC1EPKhmb @1325
    _ZN22cdrEncapsulationStreamC1ER9cdrStreamm @1326
    _ZN22cdrEncapsulationStreamC1Emb @1327
    _ZN22cdrEncapsulationStreamC2EPKhmb @1328
    _ZN22cdrEncapsulationStreamC2ER9cdrStreamm @1329
    _ZN22cdrEncapsulationStreamC2Emb @1330
    _ZN22cdrEncapsulationStreamD0Ev @1331
    _ZN22cdrEncapsulationStreamD1Ev @1332
    _ZN22objectTableSizeHandler4dumpERN4omni10orbOptions14sequenceStringE @1333
    _ZN22objectTableSizeHandler5visitEPKcN4omni10orbOptions6SourceE @1334
    _ZN22objectTableSizeHandlerC1Ev @1335
    _ZN22objectTableSizeHandlerD0Ev @1336
    _ZN22objectTableSizeHandlerD1Ev @1337
    _ZN22traceExceptionsHandler4dumpERN4omni10orbOptions14sequenceStringE @1338
    _ZN22traceExceptionsHandler5visitEPKcN4omni10orbOptions6SourceE @1339
    _ZN22traceExceptionsHandlerC1Ev @1340
    _ZN22traceExceptionsHandlerD0Ev @1341
    _ZN22traceExceptionsHandlerD1Ev @1342
    _ZN23CORBA_InitialReferences10_PD_repoIdE @1343 DATA
    _ZN23CORBA_InitialReferences10_duplicateEP31_objref_CORBA_InitialReferences @1344
    _ZN23CORBA_InitialReferences13ObjIdList_var5_retnEv @1345
    _ZN23CORBA_InitialReferences13ObjIdList_varC1Ev @1346
    _ZN23CORBA_InitialReferences13ObjIdList_varD1Ev @1347
    _ZN23CORBA_InitialReferences13ObjIdList_varaSEPNS_9ObjIdListE @1348
    _ZN23CORBA_InitialReferences14_marshalObjRefEP31_objref_CORBA_InitialReferencesR9cdrStream @1349
    _ZN23CORBA_InitialReferences16_unmarshalObjRefER9cdrStream @1350
    _ZN23CORBA_InitialReferences17_unchecked_narrowEPN5CORBA6ObjectE @1351
    _ZN23CORBA_InitialReferences4_nilEv @1352
    _ZN23CORBA_InitialReferences7_narrowEPN5CORBA6ObjectE @1353
    _ZN23CORBA_InitialReferences9ObjIdListC1Em @1354
    _ZN23CORBA_InitialReferences9ObjIdListC1Ev @1355
    _ZN23CORBA_InitialReferences9ObjIdListD1Ev @1356
    _ZN23_CORBA_PseudoObj_MemberIN5CORBA6PolicyE20_CORBA_PseudoObj_VarIS1_EEC1Ev @1357
    _ZN23_CORBA_PseudoObj_MemberIN5CORBA6PolicyE20_CORBA_PseudoObj_VarIS1_EED1Ev @1358
    _ZN23_CORBA_PseudoObj_MemberIN5CORBA6PolicyE20_CORBA_PseudoObj_VarIS1_EEaSEPS1_ @1359
    _ZN23_CORBA_PseudoObj_MemberIN5CORBA6PolicyE20_CORBA_PseudoObj_VarIS1_EEaSERKS4_ @1360
    _ZN23_CORBA_Sequence_WString10copybufferEm @1361
    _ZN23_CORBA_Sequence_WString6lengthEm @1362
    _ZN23_CORBA_Sequence_WString7freebufEPPw @1363
    _ZN23_CORBA_Sequence_WString8allocbufEm @1364
    _ZN23_CORBA_Sequence_WStringixEm @1365
    _ZN23_CORBA_Sequence_WStringlSER9cdrStream @1366
    _ZN23omniExHandlers_iterator14find_or_createEP10omniObjRef @1367
    _ZN23omniExHandlers_iterator4findEP10omniObjRef @1368
    _ZN23omniExHandlers_iterator6removeEP10omniObjRef @1369
    _ZN23omniExHandlers_iteratorC1Ev @1370
    _ZN23omniExHandlers_iteratorC2Ev @1371
    _ZN23omniExHandlers_iteratorD1Ev @1372
    _ZN23omniExHandlers_iteratorD2Ev @1373
    _ZN23traceInvocationsHandler4dumpERN4omni10orbOptions14sequenceStringE @1374
    _ZN23traceInvocationsHandler5visitEPKcN4omni10orbOptions6SourceE @1375
    _ZN23traceInvocationsHandlerC1Ev @1376
    _ZN23traceInvocationsHandlerD0Ev @1377
    _ZN23traceInvocationsHandlerD1Ev @1378
    _ZN24nativeCharCodeSetHandler4dumpERN4omni10orbOptions14sequenceStringE @1379
    _ZN24nativeCharCodeSetHandler5visitEPKcN4omni10orbOptions6SourceE @1380
    _ZN24nativeCharCodeSetHandlerC1Ev @1381
    _ZN24nativeCharCodeSetHandlerD0Ev @1382
    _ZN24nativeCharCodeSetHandlerD1Ev @1383
    _ZN25_CORBA_Unbounded_SequenceI31_CORBA_Unbounded_Sequence_OctetEC1Ev @1384
    _ZN25_CORBA_Unbounded_SequenceI31_CORBA_Unbounded_Sequence_OctetED1Ev @1385
    _ZN25_CORBA_Unbounded_SequenceI31_CORBA_Unbounded_Sequence_OctetElSER9cdrStream @1386
    _ZN25_CORBA_Unbounded_SequenceIN3IOP13TaggedProfileEE7replaceEmmPS1_b @1387
    _ZN25_CORBA_Unbounded_SequenceIN3IOP13TaggedProfileEEC1EmmPS1_b @1388
    _ZN25_CORBA_Unbounded_SequenceIN3IOP13TaggedProfileEEC1Ev @1389
    _ZN25_CORBA_Unbounded_SequenceIN3IOP13TaggedProfileEED1Ev @1390
    _ZN25_CORBA_Unbounded_SequenceIN3IOP13TaggedProfileEElSER9cdrStream @1391
    _ZN25_CORBA_Unbounded_SequenceIN3IOP14ServiceContextEEC1Em @1392
    _ZN25_CORBA_Unbounded_SequenceIN3IOP14ServiceContextEEC1Ev @1393
    _ZN25_CORBA_Unbounded_SequenceIN3IOP14ServiceContextEED1Ev @1394
    _ZN25_CORBA_Unbounded_SequenceIN3IOP14ServiceContextEElSER9cdrStream @1395
    _ZN25_CORBA_Unbounded_SequenceIN3IOP15TaggedComponentEEC1Em @1396
    _ZN25_CORBA_Unbounded_SequenceIN3IOP15TaggedComponentEEC1Ev @1397
    _ZN25_CORBA_Unbounded_SequenceIN3IOP15TaggedComponentEED1Ev @1398
    _ZN25_CORBA_Unbounded_SequenceIN4IIOP7AddressEEC1Em @1399
    _ZN25_CORBA_Unbounded_SequenceIN4IIOP7AddressEEC1Ev @1400
    _ZN25_CORBA_Unbounded_SequenceIN4IIOP7AddressEED1Ev @1401
    _ZN25_CORBA_Unbounded_SequenceIN4IIOP7AddressEElSER9cdrStream @1402
    _ZN25_CORBA_Unbounded_SequenceIN9CosNaming13NameComponentEEC2Ev @1403
    _ZN25_CORBA_Unbounded_SequenceIN9CosNaming13NameComponentEED2Ev @1404
    _ZN25_CORBA_Unbounded_SequenceIN9CosNaming13NameComponentEEaSERKS2_ @1405
    _ZN25_CORBA_Unbounded_SequenceIN9CosNaming13NameComponentEElSER9cdrStream @1406
    _ZN25_CORBA_Unbounded_SequenceIN9CosNaming7BindingEEC2Ev @1407
    _ZN25_CORBA_Unbounded_SequenceIN9CosNaming7BindingEED2Ev @1408
    _ZN25_CORBA_Unbounded_SequenceIN9CosNaming7BindingEElSER9cdrStream @1409
    _ZN25_CORBA_Unbounded_SequenceImEC2Ev @1410
    _ZN25_CORBA_Unbounded_SequenceImED2Ev @1411
    _ZN25nativeWCharCodeSetHandler4dumpERN4omni10orbOptions14sequenceStringE @1412
    _ZN25nativeWCharCodeSetHandler5visitEPKcN4omni10orbOptions6SourceE @1413
    _ZN25nativeWCharCodeSetHandlerC1Ev @1414
    _ZN25nativeWCharCodeSetHandlerD0Ev @1415
    _ZN25nativeWCharCodeSetHandlerD1Ev @1416
    _ZN27POA_CORBA_InitialReferencesC2Ev @1417
    _ZN27POA_CORBA_InitialReferencesD0Ev @1418
    _ZN27POA_CORBA_InitialReferencesD1Ev @1419
    _ZN27POA_CORBA_InitialReferencesD2Ev @1420
    _ZN27_CORBA_PseudoValue_SequenceIN4omni13serviceRecordEE10get_bufferEb @1421
    _ZN27_CORBA_PseudoValue_SequenceIN4omni13serviceRecordEE6lengthEm @1422
    _ZN27_CORBA_PseudoValue_SequenceIN4omni13serviceRecordEE8allocbufEm @1423
    _ZN27_CORBA_PseudoValue_SequenceIN4omni13serviceRecordEEC1Ev @1424
    _ZN27_CORBA_PseudoValue_SequenceIN4omni13serviceRecordEED1Ev @1425
    _ZN27_CORBA_PseudoValue_SequenceIN4omni13serviceRecordEEixEm @1426
    _ZN27_CORBA_PseudoValue_SequenceIPN4omni10omniOrbPOAEE6lengthEm @1427
    _ZN27_CORBA_PseudoValue_SequenceIPN4omni10omniOrbPOAEE8allocbufEm @1428
    _ZN27_CORBA_PseudoValue_SequenceIPN4omni10omniOrbPOAEEC1Ev @1429
    _ZN27_CORBA_PseudoValue_SequenceIPN4omni10omniOrbPOAEED1Ev @1430
    _ZN27_CORBA_PseudoValue_SequenceIPN4omni10omniOrbPOAEEixEm @1431
    _ZN27_CORBA_PseudoValue_SequenceIPN7omniIOR12IORExtraInfoEE6lengthEm @1432
    _ZN27_CORBA_PseudoValue_SequenceIPN7omniIOR12IORExtraInfoEE8allocbufEm @1433
    _ZN27_CORBA_PseudoValue_SequenceIPN7omniIOR12IORExtraInfoEEC1Ev @1434
    _ZN27_CORBA_PseudoValue_SequenceIPN7omniIOR12IORExtraInfoEED1Ev @1435
    _ZN27_CORBA_PseudoValue_SequenceIPN7omniIOR12IORExtraInfoEEixEm @1436
    _ZN27abortOnInternalErrorHandler4dumpERN4omni10orbOptions14sequenceStringE @1437
    _ZN27abortOnInternalErrorHandler5visitEPKcN4omni10orbOptions6SourceE @1438
    _ZN27abortOnInternalErrorHandlerC1Ev @1439
    _ZN27abortOnInternalErrorHandlerD0Ev @1440
    _ZN27abortOnInternalErrorHandlerD1Ev @1441
    _ZN27omniLocalOnlyCallDescriptor16marshalArgumentsER9cdrStream @1442
    _ZN27omniLocalOnlyCallDescriptorC2EPFvP18omniCallDescriptorP11omniServantEPKcib @1443
    _ZN27omniLocalOnlyCallDescriptorD0Ev @1444
    _ZN27omniLocalOnlyCallDescriptorD1Ev @1445
    _ZN27omniLocalOnlyCallDescriptorD2Ev @1446
    _ZN28_pof_CORBA_InitialReferences9newObjRefEP7omniIORP12omniIdentity @1447
    _ZN28_pof_CORBA_InitialReferencesC1Ev @1448
    _ZN28_pof_CORBA_InitialReferencesD0Ev @1449
    _ZN28_pof_CORBA_InitialReferencesD1Ev @1450
    _ZN28_pof_CORBA_InitialReferencesD2Ev @1451
    _ZN29_impl_CORBA_InitialReferences15_ptrToInterfaceEPKc @1452
    _ZN29_impl_CORBA_InitialReferences18_mostDerivedRepoIdEv @1453
    _ZN29_impl_CORBA_InitialReferences9_dispatchER14omniCallHandle @1454
    _ZN29_impl_CORBA_InitialReferencesC2Ev @1455
    _ZN29_impl_CORBA_InitialReferencesD0Ev @1456
    _ZN29_impl_CORBA_InitialReferencesD1Ev @1457
    _ZN29_impl_CORBA_InitialReferencesD2Ev @1458
    _ZN29abortOnNativeExceptionHandler4dumpERN4omni10orbOptions14sequenceStringE @1459
    _ZN29abortOnNativeExceptionHandler5visitEPKcN4omni10orbOptions6SourceE @1460
    _ZN29abortOnNativeExceptionHandlerC1Ev @1461
    _ZN29abortOnNativeExceptionHandlerD0Ev @1462
    _ZN29abortOnNativeExceptionHandlerD1Ev @1463
    _ZN29traceInvocationReturnsHandler4dumpERN4omni10orbOptions14sequenceStringE @1464
    _ZN29traceInvocationReturnsHandler5visitEPKcN4omni10orbOptions6SourceE @1465
    _ZN29traceInvocationReturnsHandlerC1Ev @1466
    _ZN29traceInvocationReturnsHandlerD0Ev @1467
    _ZN29traceInvocationReturnsHandlerD1Ev @1468
    _ZN30CORBA_InitialReferences_Helper13marshalObjRefEP31_objref_CORBA_InitialReferencesR9cdrStream @1469
    _ZN30CORBA_InitialReferences_Helper15unmarshalObjRefER9cdrStream @1470
    _ZN30CORBA_InitialReferences_Helper4_nilEv @1471
    _ZN30CORBA_InitialReferences_Helper6is_nilEP31_objref_CORBA_InitialReferences @1472
    _ZN30CORBA_InitialReferences_Helper7releaseEP31_objref_CORBA_InitialReferences @1473
    _ZN30CORBA_InitialReferences_Helper9duplicateEP31_objref_CORBA_InitialReferences @1474
    _ZN30_CORBA_ConstrType_Variable_VarIN9CosNaming7BindingEE3outEv @1475
    _ZN30_CORBA_ConstrType_Variable_VarIN9CosNaming7BindingEE5_retnEv @1476
    _ZN30_CORBA_ConstrType_Variable_VarIN9CosNaming7BindingEEC1Ev @1477
    _ZN30_CORBA_ConstrType_Variable_VarIN9CosNaming7BindingEED1Ev @1478
    _ZN30_CORBA_ConstrType_Variable_VarIN9CosNaming7BindingEEaSEPS1_ @1479
    _ZN31_CORBA_Unbounded_Sequence_Octet7replaceEmmPhb @1480
    _ZN31_CORBA_Unbounded_Sequence_OctetC1Ev @1481
    _ZN31_CORBA_Unbounded_Sequence_OctetC2Em @1482
    _ZN31_CORBA_Unbounded_Sequence_OctetC2Ev @1483
    _ZN31_CORBA_Unbounded_Sequence_OctetD1Ev @1484
    _ZN31_CORBA_Unbounded_Sequence_OctetD2Ev @1485
    _ZN31_CORBA_Unbounded_Sequence_OctetaSERKS_ @1486
    _ZN31_objref_CORBA_InitialReferences12_ptrToObjRefEPKc @1487
    _ZN31_objref_CORBA_InitialReferences3getEPKc @1488
    _ZN31_objref_CORBA_InitialReferences4listEv @1489
    _ZN31_objref_CORBA_InitialReferencesC1EP7omniIORP12omniIdentity @1490
    _ZN31_objref_CORBA_InitialReferencesC1Ev @1491
    _ZN31_objref_CORBA_InitialReferencesC2EP7omniIORP12omniIdentity @1492
    _ZN31_objref_CORBA_InitialReferencesD0Ev @1493
    _ZN31_objref_CORBA_InitialReferencesD1Ev @1494
    _ZN31_objref_CORBA_InitialReferencesD2Ev @1495
    _ZN32_CORBA_Pseudo_Unbounded_SequenceIN5CORBA6PolicyE23_CORBA_PseudoObj_MemberIS1_20_CORBA_PseudoObj_VarIS1_EEE6lengthEm @1496
    _ZN32_CORBA_Pseudo_Unbounded_SequenceIN5CORBA6PolicyE23_CORBA_PseudoObj_MemberIS1_20_CORBA_PseudoObj_VarIS1_EEEC1ERKS6_ @1497
    _ZN32_CORBA_Pseudo_Unbounded_SequenceIN5CORBA6PolicyE23_CORBA_PseudoObj_MemberIS1_20_CORBA_PseudoObj_VarIS1_EEEC1Em @1498
    _ZN32_CORBA_Pseudo_Unbounded_SequenceIN5CORBA6PolicyE23_CORBA_PseudoObj_MemberIS1_20_CORBA_PseudoObj_VarIS1_EEEC1Ev @1499
    _ZN32_CORBA_Pseudo_Unbounded_SequenceIN5CORBA6PolicyE23_CORBA_PseudoObj_MemberIS1_20_CORBA_PseudoObj_VarIS1_EEED1Ev @1500
    _ZN32_CORBA_Pseudo_Unbounded_SequenceIN5CORBA6PolicyE23_CORBA_PseudoObj_MemberIS1_20_CORBA_PseudoObj_VarIS1_EEEixEm @1501
    _ZN32_CORBA_Unbounded_Sequence_ObjRefIN14PortableServer3POAE21_CORBA_ObjRef_ElementIS1_NS0_10POA_HelperEES3_EC2Ev @1502
    _ZN32_CORBA_Unbounded_Sequence_String7replaceEmmPPcb @1503
    _ZN32_CORBA_Unbounded_Sequence_StringC1Ev @1504
    _ZN32_CORBA_Unbounded_Sequence_StringC2Em @1505
    _ZN32_CORBA_Unbounded_Sequence_StringC2Ev @1506
    _ZN32_CORBA_Unbounded_Sequence_StringD1Ev @1507
    _ZN32_CORBA_Unbounded_Sequence_StringD2Ev @1508
    _ZN32_CORBA_Unbounded_Sequence_StringaSERKS_ @1509
    _ZN33_0RL_cd_3c165f58b5a16b59_000000006resultEv @1510
    _ZN33_0RL_cd_3c165f58b5a16b59_00000000C1EPFvP18omniCallDescriptorP11omniServantEPKcjbPN14PortableServer3POAES7_ @1511
    _ZN33_0RL_cd_3c165f58b5a16b59_00000000D0Ev @1512
    _ZN33_0RL_cd_3c165f58b5a16b59_00000000D1Ev @1513
    _ZN33_0RL_cd_3c165f58b5a16b59_200000006resultEv @1514
    _ZN33_0RL_cd_3c165f58b5a16b59_20000000C1EPFvP18omniCallDescriptorP11omniServantEPKcjbRKN14PortableServer8ObjectIdEPNS8_3POAE @1515
    _ZN33_0RL_cd_3c165f58b5a16b59_20000000D0Ev @1516
    _ZN33_0RL_cd_3c165f58b5a16b59_20000000D1Ev @1517
    _ZN33_0RL_cd_3c165f58b5a16b59_40000000C1EPFvP18omniCallDescriptorP11omniServantEPKcjbRKN14PortableServer8ObjectIdEPNS8_3POAEPNS8_11ServantBaseEbb @1518
    _ZN33_0RL_cd_3c165f58b5a16b59_40000000D0Ev @1519
    _ZN33_0RL_cd_3c165f58b5a16b59_40000000D1Ev @1520
    _ZN33_0RL_cd_3c165f58b5a16b59_600000006resultEv @1521
    _ZN33_0RL_cd_3c165f58b5a16b59_60000000C1EPFvP18omniCallDescriptorP11omniServantEPKcjbRKN14PortableServer8ObjectIdEPNS8_3POAES7_RPv @1522
    _ZN33_0RL_cd_3c165f58b5a16b59_60000000D0Ev @1523
    _ZN33_0RL_cd_3c165f58b5a16b59_60000000D1Ev @1524
    _ZN33_0RL_cd_3c165f58b5a16b59_80000000C1EPFvP18omniCallDescriptorP11omniServantEPKcjbRKN14PortableServer8ObjectIdEPNS8_3POAES7_PvPNS8_11ServantBaseE @1525
    _ZN33_0RL_cd_3c165f58b5a16b59_80000000D0Ev @1526
    _ZN33_0RL_cd_3c165f58b5a16b59_80000000D1Ev @1527
    _ZN33_0RL_cd_69CECA6A39F685B5_0000000010_user_exnsE @1528 DATA
    _ZN33_0RL_cd_69CECA6A39F685B5_0000000013userExceptionER9cdrStreamPN4omni5IOP_CEPKc @1529
    _ZN33_0RL_cd_69CECA6A39F685B5_0000000016marshalArgumentsER9cdrStream @1530
    _ZN33_0RL_cd_69CECA6A39F685B5_0000000018unmarshalArgumentsER9cdrStream @1531
    _ZN33_0RL_cd_69CECA6A39F685B5_00000000C1EPFvP18omniCallDescriptorP11omniServantEPKcjb @1532
    _ZN33_0RL_cd_69CECA6A39F685B5_00000000D0Ev @1533
    _ZN33_0RL_cd_69CECA6A39F685B5_00000000D1Ev @1534
    _ZN33_0RL_cd_69CECA6A39F685B5_0100000010_user_exnsE @1535 DATA
    _ZN33_0RL_cd_69CECA6A39F685B5_0100000013userExceptionER9cdrStreamPN4omni5IOP_CEPKc @1536
    _ZN33_0RL_cd_69CECA6A39F685B5_01000000C1EPFvP18omniCallDescriptorP11omniServantEPKcjb @1537
    _ZN33_0RL_cd_69CECA6A39F685B5_01000000D0Ev @1538
    _ZN33_0RL_cd_69CECA6A39F685B5_01000000D1Ev @1539
    _ZN33_0RL_cd_69CECA6A39F685B5_0200000010_user_exnsE @1540 DATA
    _ZN33_0RL_cd_69CECA6A39F685B5_0200000013userExceptionER9cdrStreamPN4omni5IOP_CEPKc @1541
    _ZN33_0RL_cd_69CECA6A39F685B5_0200000016marshalArgumentsER9cdrStream @1542
    _ZN33_0RL_cd_69CECA6A39F685B5_0200000018unmarshalArgumentsER9cdrStream @1543
    _ZN33_0RL_cd_69CECA6A39F685B5_0200000021marshalReturnedValuesER9cdrStream @1544
    _ZN33_0RL_cd_69CECA6A39F685B5_0200000023unmarshalReturnedValuesER9cdrStream @1545
    _ZN33_0RL_cd_69CECA6A39F685B5_02000000C1EPFvP18omniCallDescriptorP11omniServantEPKcjb @1546
    _ZN33_0RL_cd_69CECA6A39F685B5_02000000D0Ev @1547
    _ZN33_0RL_cd_69CECA6A39F685B5_02000000D1Ev @1548
    _ZN33_0RL_cd_69CECA6A39F685B5_2000000010_user_exnsE @1549 DATA
    _ZN33_0RL_cd_69CECA6A39F685B5_2000000013userExceptionER9cdrStreamPN4omni5IOP_CEPKc @1550
    _ZN33_0RL_cd_69CECA6A39F685B5_2000000016marshalArgumentsER9cdrStream @1551
    _ZN33_0RL_cd_69CECA6A39F685B5_2000000018unmarshalArgumentsER9cdrStream @1552
    _ZN33_0RL_cd_69CECA6A39F685B5_20000000C1EPFvP18omniCallDescriptorP11omniServantEPKcjb @1553
    _ZN33_0RL_cd_69CECA6A39F685B5_20000000D0Ev @1554
    _ZN33_0RL_cd_69CECA6A39F685B5_20000000D1Ev @1555
    _ZN33_0RL_cd_69CECA6A39F685B5_2100000010_user_exnsE @1556 DATA
    _ZN33_0RL_cd_69CECA6A39F685B5_2100000016marshalArgumentsER9cdrStream @1557
    _ZN33_0RL_cd_69CECA6A39F685B5_2100000018unmarshalArgumentsER9cdrStream @1558
    _ZN33_0RL_cd_69CECA6A39F685B5_2100000021marshalReturnedValuesER9cdrStream @1559
    _ZN33_0RL_cd_69CECA6A39F685B5_2100000023unmarshalReturnedValuesER9cdrStream @1560
    _ZN33_0RL_cd_69CECA6A39F685B5_21000000C1EPFvP18omniCallDescriptorP11omniServantEPKcjb @1561
    _ZN33_0RL_cd_69CECA6A39F685B5_21000000D0Ev @1562
    _ZN33_0RL_cd_69CECA6A39F685B5_21000000D1Ev @1563
    _ZN33_0RL_cd_69CECA6A39F685B5_4000000010_user_exnsE @1564 DATA
    _ZN33_0RL_cd_69CECA6A39F685B5_4000000013userExceptionER9cdrStreamPN4omni5IOP_CEPKc @1565
    _ZN33_0RL_cd_69CECA6A39F685B5_4000000016marshalArgumentsER9cdrStream @1566
    _ZN33_0RL_cd_69CECA6A39F685B5_4000000018unmarshalArgumentsER9cdrStream @1567
    _ZN33_0RL_cd_69CECA6A39F685B5_40000000C1EPFvP18omniCallDescriptorP11omniServantEPKcjb @1568
    _ZN33_0RL_cd_69CECA6A39F685B5_40000000D0Ev @1569
    _ZN33_0RL_cd_69CECA6A39F685B5_40000000D1Ev @1570
    _ZN33_0RL_cd_69CECA6A39F685B5_4100000010_user_exnsE @1571 DATA
    _ZN33_0RL_cd_69CECA6A39F685B5_4100000021marshalReturnedValuesER9cdrStream @1572
    _ZN33_0RL_cd_69CECA6A39F685B5_4100000023unmarshalReturnedValuesER9cdrStream @1573
    _ZN33_0RL_cd_69CECA6A39F685B5_41000000C1EPFvP18omniCallDescriptorP11omniServantEPKcjb @1574
    _ZN33_0RL_cd_69CECA6A39F685B5_41000000D0Ev @1575
    _ZN33_0RL_cd_69CECA6A39F685B5_41000000D1Ev @1576
    _ZN33_0RL_cd_69CECA6A39F685B5_6000000010_user_exnsE @1577 DATA
    _ZN33_0RL_cd_69CECA6A39F685B5_6000000013userExceptionER9cdrStreamPN4omni5IOP_CEPKc @1578
    _ZN33_0RL_cd_69CECA6A39F685B5_6000000016marshalArgumentsER9cdrStream @1579
    _ZN33_0RL_cd_69CECA6A39F685B5_6000000018unmarshalArgumentsER9cdrStream @1580
    _ZN33_0RL_cd_69CECA6A39F685B5_60000000C1EPFvP18omniCallDescriptorP11omniServantEPKcjb @1581
    _ZN33_0RL_cd_69CECA6A39F685B5_60000000D0Ev @1582
    _ZN33_0RL_cd_69CECA6A39F685B5_60000000D1Ev @1583
    _ZN33_0RL_cd_69CECA6A39F685B5_6100000010_user_exnsE @1584 DATA
    _ZN33_0RL_cd_69CECA6A39F685B5_6100000016marshalArgumentsER9cdrStream @1585
    _ZN33_0RL_cd_69CECA6A39F685B5_6100000018unmarshalArgumentsER9cdrStream @1586
    _ZN33_0RL_cd_69CECA6A39F685B5_6100000021marshalReturnedValuesER9cdrStream @1587
    _ZN33_0RL_cd_69CECA6A39F685B5_6100000023unmarshalReturnedValuesER9cdrStream @1588
    _ZN33_0RL_cd_69CECA6A39F685B5_61000000C1EPFvP18omniCallDescriptorP11omniServantEPKcjb @1589
    _ZN33_0RL_cd_69CECA6A39F685B5_61000000D0Ev @1590
    _ZN33_0RL_cd_69CECA6A39F685B5_61000000D1Ev @1591
    _ZN33_0RL_cd_69CECA6A39F685B5_8000000010_user_exnsE @1592 DATA
    _ZN33_0RL_cd_69CECA6A39F685B5_8000000013userExceptionER9cdrStreamPN4omni5IOP_CEPKc @1593
    _ZN33_0RL_cd_69CECA6A39F685B5_8000000016marshalArgumentsER9cdrStream @1594
    _ZN33_0RL_cd_69CECA6A39F685B5_8000000018unmarshalArgumentsER9cdrStream @1595
    _ZN33_0RL_cd_69CECA6A39F685B5_8000000021marshalReturnedValuesER9cdrStream @1596
    _ZN33_0RL_cd_69CECA6A39F685B5_8000000023unmarshalReturnedValuesER9cdrStream @1597
    _ZN33_0RL_cd_69CECA6A39F685B5_80000000C1EPFvP18omniCallDescriptorP11omniServantEPKcjb @1598
    _ZN33_0RL_cd_69CECA6A39F685B5_80000000D0Ev @1599
    _ZN33_0RL_cd_69CECA6A39F685B5_80000000D1Ev @1600
    _ZN33_0RL_cd_69CECA6A39F685B5_8100000010_user_exnsE @1601 DATA
    _ZN33_0RL_cd_69CECA6A39F685B5_81000000C1EPFvP18omniCallDescriptorP11omniServantEPKcjb @1602
    _ZN33_0RL_cd_69CECA6A39F685B5_81000000D0Ev @1603
    _ZN33_0RL_cd_69CECA6A39F685B5_81000000D1Ev @1604
    _ZN33_0RL_cd_69CECA6A39F685B5_a000000010_user_exnsE @1605 DATA
    _ZN33_0RL_cd_69CECA6A39F685B5_a000000013userExceptionER9cdrStreamPN4omni5IOP_CEPKc @1606
    _ZN33_0RL_cd_69CECA6A39F685B5_a000000016marshalArgumentsER9cdrStream @1607
    _ZN33_0RL_cd_69CECA6A39F685B5_a000000018unmarshalArgumentsER9cdrStream @1608
    _ZN33_0RL_cd_69CECA6A39F685B5_a0000000C1EPFvP18omniCallDescriptorP11omniServantEPKcjb @1609
    _ZN33_0RL_cd_69CECA6A39F685B5_a0000000D0Ev @1610
    _ZN33_0RL_cd_69CECA6A39F685B5_a0000000D1Ev @1611
    _ZN33_0RL_cd_69CECA6A39F685B5_a100000010_user_exnsE @1612 DATA
    _ZN33_0RL_cd_69CECA6A39F685B5_a100000013userExceptionER9cdrStreamPN4omni5IOP_CEPKc @1613
    _ZN33_0RL_cd_69CECA6A39F685B5_a100000016marshalArgumentsER9cdrStream @1614
    _ZN33_0RL_cd_69CECA6A39F685B5_a100000018unmarshalArgumentsER9cdrStream @1615
    _ZN33_0RL_cd_69CECA6A39F685B5_a100000021marshalReturnedValuesER9cdrStream @1616
    _ZN33_0RL_cd_69CECA6A39F685B5_a100000023unmarshalReturnedValuesER9cdrStream @1617
    _ZN33_0RL_cd_69CECA6A39F685B5_a1000000C1EPFvP18omniCallDescriptorP11omniServantEPKcjb @1618
    _ZN33_0RL_cd_69CECA6A39F685B5_a1000000D0Ev @1619
    _ZN33_0RL_cd_69CECA6A39F685B5_a1000000D1Ev @1620
    _ZN33_0RL_cd_69CECA6A39F685B5_c000000010_user_exnsE @1621 DATA
    _ZN33_0RL_cd_69CECA6A39F685B5_c000000021marshalReturnedValuesER9cdrStream @1622
    _ZN33_0RL_cd_69CECA6A39F685B5_c000000023unmarshalReturnedValuesER9cdrStream @1623
    _ZN33_0RL_cd_69CECA6A39F685B5_c0000000C1EPFvP18omniCallDescriptorP11omniServantEPKcjb @1624
    _ZN33_0RL_cd_69CECA6A39F685B5_c0000000D0Ev @1625
    _ZN33_0RL_cd_69CECA6A39F685B5_c0000000D1Ev @1626
    _ZN33_0RL_cd_69CECA6A39F685B5_c100000010_user_exnsE @1627 DATA
    _ZN33_0RL_cd_69CECA6A39F685B5_c100000013userExceptionER9cdrStreamPN4omni5IOP_CEPKc @1628
    _ZN33_0RL_cd_69CECA6A39F685B5_c100000016marshalArgumentsER9cdrStream @1629
    _ZN33_0RL_cd_69CECA6A39F685B5_c100000018unmarshalArgumentsER9cdrStream @1630
    _ZN33_0RL_cd_69CECA6A39F685B5_c100000021marshalReturnedValuesER9cdrStream @1631
    _ZN33_0RL_cd_69CECA6A39F685B5_c100000023unmarshalReturnedValuesER9cdrStream @1632
    _ZN33_0RL_cd_69CECA6A39F685B5_c1000000C1EPFvP18omniCallDescriptorP11omniServantEPKcjb @1633
    _ZN33_0RL_cd_69CECA6A39F685B5_c1000000D0Ev @1634
    _ZN33_0RL_cd_69CECA6A39F685B5_c1000000D1Ev @1635
    _ZN33_0RL_cd_69CECA6A39F685B5_e000000010_user_exnsE @1636 DATA
    _ZN33_0RL_cd_69CECA6A39F685B5_e000000013userExceptionER9cdrStreamPN4omni5IOP_CEPKc @1637
    _ZN33_0RL_cd_69CECA6A39F685B5_e000000016marshalArgumentsER9cdrStream @1638
    _ZN33_0RL_cd_69CECA6A39F685B5_e000000018unmarshalArgumentsER9cdrStream @1639
    _ZN33_0RL_cd_69CECA6A39F685B5_e000000021marshalReturnedValuesER9cdrStream @1640
    _ZN33_0RL_cd_69CECA6A39F685B5_e000000023unmarshalReturnedValuesER9cdrStream @1641
    _ZN33_0RL_cd_69CECA6A39F685B5_e0000000C1EPFvP18omniCallDescriptorP11omniServantEPKcjb @1642
    _ZN33_0RL_cd_69CECA6A39F685B5_e0000000D0Ev @1643
    _ZN33_0RL_cd_69CECA6A39F685B5_e0000000D1Ev @1644
    _ZN33_0RL_cd_69CECA6A39F685B5_e100000010_user_exnsE @1645 DATA
    _ZN33_0RL_cd_69CECA6A39F685B5_e100000013userExceptionER9cdrStreamPN4omni5IOP_CEPKc @1646
    _ZN33_0RL_cd_69CECA6A39F685B5_e100000016marshalArgumentsER9cdrStream @1647
    _ZN33_0RL_cd_69CECA6A39F685B5_e100000018unmarshalArgumentsER9cdrStream @1648
    _ZN33_0RL_cd_69CECA6A39F685B5_e100000021marshalReturnedValuesER9cdrStream @1649
    _ZN33_0RL_cd_69CECA6A39F685B5_e100000023unmarshalReturnedValuesER9cdrStream @1650
    _ZN33_0RL_cd_69CECA6A39F685B5_e1000000C1EPFvP18omniCallDescriptorP11omniServantEPKcjb @1651
    _ZN33_0RL_cd_69CECA6A39F685B5_e1000000D0Ev @1652
    _ZN33_0RL_cd_69CECA6A39F685B5_e1000000D1Ev @1653
    _ZN33_0RL_cd_96F078E2247AB9DA_0000000010_user_exnsE @1654 DATA
    _ZN33_0RL_cd_96F078E2247AB9DA_0000000016marshalArgumentsER9cdrStream @1655
    _ZN33_0RL_cd_96F078E2247AB9DA_0000000018unmarshalArgumentsER9cdrStream @1656
    _ZN33_0RL_cd_96F078E2247AB9DA_0000000021marshalReturnedValuesER9cdrStream @1657
    _ZN33_0RL_cd_96F078E2247AB9DA_0000000023unmarshalReturnedValuesER9cdrStream @1658
    _ZN33_0RL_cd_96F078E2247AB9DA_00000000C1EPFvP18omniCallDescriptorP11omniServantEPKcjb @1659
    _ZN33_0RL_cd_96F078E2247AB9DA_00000000D0Ev @1660
    _ZN33_0RL_cd_96F078E2247AB9DA_00000000D1Ev @1661
    _ZN33_0RL_cd_96F078E2247AB9DA_2000000010_user_exnsE @1662 DATA
    _ZN33_0RL_cd_96F078E2247AB9DA_2000000021marshalReturnedValuesER9cdrStream @1663
    _ZN33_0RL_cd_96F078E2247AB9DA_2000000023unmarshalReturnedValuesER9cdrStream @1664
    _ZN33_0RL_cd_96F078E2247AB9DA_20000000C1EPFvP18omniCallDescriptorP11omniServantEPKcjb @1665
    _ZN33_0RL_cd_96F078E2247AB9DA_20000000D0Ev @1666
    _ZN33_0RL_cd_96F078E2247AB9DA_20000000D1Ev @1667
    _ZN34_CORBA_ConstrType_Variable_OUT_argIN9CosNaming7BindingE30_CORBA_ConstrType_Variable_VarIS1_EEC1ERPS1_ @1668
    _ZN34_CORBA_ConstrType_Variable_OUT_argIN9CosNaming7BindingE30_CORBA_ConstrType_Variable_VarIS1_EEaSEPS1_ @1669
    _ZN3IOP11BI_DIR_IIOPE @1670 DATA
    _ZN3IOP11TAG_PRIMARYE @1671 DATA
    _ZN3IOP12TAG_NULL_TAGE @1672 DATA
    _ZN3IOP12TAG_ORB_TYPEE @1673 DATA
    _ZN3IOP12TAG_POLICIESE @1674 DATA
    _ZN3IOP12TAG_SCCP_IOPE @1675 DATA
    _ZN3IOP12TAG_SEC_NAMEE @1676 DATA
    _ZN3IOP13GROUP_VERSIONE @1677 DATA
    _ZN3IOP13TAG_CODE_SETSE @1678 DATA
    _ZN3IOP13TaggedProfileC1Ev @1679
    _ZN3IOP13TaggedProfileD1Ev @1680
    _ZN3IOP13TaggedProfileaSERKS0_ @1681
    _ZN3IOP13TaggedProfilelSER9cdrStream @1682
    _ZN3IOP13dumpComponentERKNS_15TaggedComponentE @1683
    _ZN3IOP14ServiceContextC1Ev @1684
    _ZN3IOP14ServiceContextD1Ev @1685
    _ZN3IOP14ServiceContextaSERKS0_ @1686
    _ZN3IOP14ServiceContextlSER9cdrStream @1687
    _ZN3IOP15ChainBypassInfoE @1688 DATA
    _ZN3IOP15LogicalThreadIdE @1689 DATA
    _ZN3IOP15RTCorbaPriorityE @1690 DATA
    _ZN3IOP15ServiceIDtoNameEm @1691
    _ZN3IOP15TaggedComponentC1Ev @1692
    _ZN3IOP15TaggedComponentD1Ev @1693
    _ZN3IOP15TaggedComponentaSERKS0_ @1694
    _ZN3IOP15TaggedComponentlSER9cdrStream @1695
    _ZN3IOP16ChainBypassCheckE @1696 DATA
    _ZN3IOP16TAG_DCE_NO_PIPESE @1697 DATA
    _ZN3IOP16TAG_DCE_SEC_MECHE @1698 DATA
    _ZN3IOP16TAG_INTERNET_IOPE @1699 DATA
    _ZN3IOP17ComponentIDtoNameEm @1700
    _ZN3IOP17TAG_JAVA_CODEBASEE @1701 DATA
    _ZN3IOP17TAG_OMNIORB_BIDIRE @1702 DATA
    _ZN3IOP17TAG_SSL_SEC_TRANSE @1703 DATA
    _ZN3IOP17TAG_TLS_SEC_TRANSE @1704 DATA
    _ZN3IOP18FORWARDED_IDENTITYE @1705 DATA
    _ZN3IOP18TAG_FIREWALL_TRANSE @1706 DATA
    _ZN3IOP18TAG_INET_SEC_TRANSE @1707 DATA
    _ZN3IOP18TransactionServiceE @1708 DATA
    _ZN3IOP19INVOCATION_POLICIESE @1709 DATA
    _ZN3IOP19TAG_LOCATION_POLICYE @1710 DATA
    _ZN3IOP19TAG_SPKM_1_SEC_MECHE @1711 DATA
    _ZN3IOP19TAG_SPKM_2_SEC_MECHE @1712 DATA
    _ZN3IOP20RTCorbaPriorityRangeE @1713 DATA
    _ZN3IOP20TAG_DCE_BINDING_NAMEE @1714 DATA
    _ZN3IOP20TAG_GENERIC_SEC_MECHE @1715 DATA
    _ZN3IOP20UnknownExceptionInfoE @1716 DATA
    _ZN3IOP21SendingContextRunTimeE @1717 DATA
    _ZN3IOP21TAG_CSI_SEC_MECH_LISTE @1718 DATA
    _ZN3IOP21TAG_HEARTBEAT_ENABLEDE @1719 DATA
    _ZN3IOP21TAG_SCCP_CONTACT_INFOE @1720 DATA
    _ZN3IOP21TaggedProfileList_var5_retnEv @1721
    _ZN3IOP21TaggedProfileList_varC1EP25_CORBA_Unbounded_SequenceINS_13TaggedProfileEE @1722
    _ZN3IOP21TaggedProfileList_varC1Ev @1723
    _ZN3IOP21TaggedProfileList_varD1Ev @1724
    _ZN3IOP21TaggedProfileList_varaSEP25_CORBA_Unbounded_SequenceINS_13TaggedProfileEE @1725
    _ZN3IOP21TaggedProfileList_varcvR25_CORBA_Unbounded_SequenceINS_13TaggedProfileEEEv @1726
    _ZN3IOP21TaggedProfileList_varixEm @1727
    _ZN3IOP21TaggedProfileList_varptEv @1728
    _ZN3IOP22TAG_DCE_STRING_BINDINGE @1729 DATA
    _ZN3IOP22TAG_OMNIORB_UNIX_TRANSE @1730 DATA
    _ZN3IOP23TAG_ASSOCIATION_OPTIONSE @1731 DATA
    _ZN3IOP23TAG_COMPLETE_OBJECT_KEYE @1732 DATA
    _ZN3IOP23TAG_KERBEROSV5_SEC_MECHE @1733 DATA
    _ZN3IOP23TAG_MULTIPLE_COMPONENTSE @1734 DATA
    _ZN3IOP24TAG_ENDPOINT_ID_POSITIONE @1735 DATA
    _ZN3IOP25TAG_OMNIORB_PERSISTENT_IDE @1736 DATA
    _ZN3IOP26TAG_ALTERNATE_IIOP_ADDRESSE @1737 DATA
    _ZN3IOP28TAG_CSI_ECMA_HYBRID_SEC_MECHE @1738 DATA
    _ZN3IOP28TAG_CSI_ECMA_PUBLIC_SEC_MECHE @1739 DATA
    _ZN3IOP28TAG_CSI_ECMA_SECRET_SEC_MECHE @1740 DATA
    _ZN3IOP29OMNIORB_RESTRICTED_CONNECTIONE @1741 DATA
    _ZN3IOP33TAG_OMNIORB_RESTRICTED_CONNECTIONE @1742 DATA
    _ZN3IOP3IOR16unmarshaltype_idER9cdrStream @1743
    _ZN3IOP3IORC1Ev @1744
    _ZN3IOP3IORD1Ev @1745
    _ZN3IOP3IORlSER9cdrStream @1746
    _ZN3IOP3IORrSER9cdrStream @1747
    _ZN3IOP7REQUESTE @1748 DATA
    _ZN3IOP8CodeSetsE @1749 DATA
    _ZN3IOP9TAG_GROUPE @1750 DATA
    _ZN42_CORBA_Unbounded_Sequence_w_FixSizeElementImLi4ELi4EEC1Ev @1751
    _ZN42_CORBA_Unbounded_Sequence_w_FixSizeElementImLi4ELi4EED1Ev @1752
    _ZN42_CORBA_Unbounded_Sequence_w_FixSizeElementImLi4ELi4EElSER9cdrStream @1753
    _ZN4GIOP11ProfileAddrE @1754 DATA
    _ZN4GIOP13ReferenceAddrE @1755 DATA
    _ZN4GIOP17IORAddressingInfoC1Ev @1756
    _ZN4GIOP17IORAddressingInfoD1Ev @1757
    _ZN4GIOP7KeyAddrE @1758 DATA
    _ZN4IIOP11ProfileBodyC1Ev @1759
    _ZN4IIOP11ProfileBodyD1Ev @1760
    _ZN4IIOP13encodeProfileERKNS_11ProfileBodyERN3IOP13TaggedProfileE @1761
    _ZN4IIOP16unmarshalProfileERKN3IOP13TaggedProfileERNS_11ProfileBodyE @1762
    _ZN4IIOP18unmarshalObjectKeyERKN3IOP13TaggedProfileER31_CORBA_Unbounded_Sequence_Octet @1763
    _ZN4IIOP21DEFAULT_CORBALOC_PORTE @1764 DATA
    _ZN4IIOP27encodeMultiComponentProfileERK25_CORBA_Unbounded_SequenceIN3IOP15TaggedComponentEERNS1_13TaggedProfileE @1765
    _ZN4IIOP30unmarshalMultiComponentProfileERKN3IOP13TaggedProfileER25_CORBA_Unbounded_SequenceINS0_15TaggedComponentEE @1766
    _ZN4IIOP7AddressC1ERKS0_ @1767
    _ZN4IIOP7AddressC1Ev @1768
    _ZN4IIOP7AddressD1Ev @1769
    _ZN4IIOP7AddressaSERKS0_ @1770
    _ZN4IIOP7AddresslSER9cdrStream @1771
    _ZN4omni10CONV_FRAME16CodeSetComponentC1Ev @1772
    _ZN4omni10CONV_FRAME16CodeSetComponentD1Ev @1773
    _ZN4omni10CONV_FRAME16CodeSetComponentlSER9cdrStream @1774
    _ZN4omni10CONV_FRAME20CodeSetComponentInfoC1Ev @1775
    _ZN4omni10CONV_FRAME20CodeSetComponentInfoD1Ev @1776
    _ZN4omni10CONV_FRAME20CodeSetComponentInfolSER9cdrStream @1777
    _ZN4omni10StrandList6insertERS0_ @1778
    _ZN4omni10StrandList6removeEv @1779
    _ZN4omni10StrandList8is_emptyERS0_ @1780
    _ZN4omni10StrandListC1Ev @1781
    _ZN4omni10StrandListC2Ev @1782
    _ZN4omni10assertFailEPKciS1_ @1783
    _ZN4omni10giopImpl1011outputFlushEPNS_10giopStreamE @1784
    _ZN4omni10giopImpl1012getInputDataEPNS_10giopStreamENS_11alignment_tEj @1785
    _ZN4omni10giopImpl1013copyInputDataEPNS_10giopStreamEPvjNS_11alignment_tE @1786
    _ZN4omni10giopImpl1013skipInputDataEPNS_10giopStreamEj @1787
    _ZN4omni10giopImpl1014copyOutputDataEPNS_10giopStreamEPvjNS_11alignment_tE @1788
    _ZN4omni10giopImpl1014inputRemainingEPNS_10giopStreamE @1789
    _ZN4omni10giopImpl1015currentInputPtrEPKNS_10giopStreamE @1790
    _ZN4omni10giopImpl1015getReserveSpaceEPNS_10giopStreamENS_11alignment_tEj @1791
    _ZN4omni10giopImpl1015inputMessageEndEPNS_10giopStreamEb @1792
    _ZN4omni10giopImpl1015inputReplyBeginEPNS_10giopStreamEPFvS2_E @1793
    _ZN4omni10giopImpl1015outputRemainingEPKNS_10giopStreamE @1794
    _ZN4omni10giopImpl1015sendLocateReplyEPNS_10giopStreamEN4GIOP16LocateStatusTypeEPN5CORBA6ObjectEPNS5_15SystemExceptionE @1795
    _ZN4omni10giopImpl1016currentOutputPtrEPKNS_10giopStreamE @1796
    _ZN4omni10giopImpl1016outputMessageEndEPNS_10giopStreamE @1797
    _ZN4omni10giopImpl1016outputNewMessageEPNS_10giopStreamE @1798
    _ZN4omni10giopImpl1017inputMessageBeginEPNS_10giopStreamEPFvS2_E @1799
    _ZN4omni10giopImpl1017sendLocateRequestEPNS_10giopStreamE @1800
    _ZN4omni10giopImpl1017sendUserExceptionEPNS_10giopStreamERKN5CORBA13UserExceptionE @1801
    _ZN4omni10giopImpl1018marshalReplyHeaderEPNS_10giopStreamE @1802
    _ZN4omni10giopImpl1018outputMessageBeginEPNS_10giopStreamEPFvS2_E @1803
    _ZN4omni10giopImpl1019sendMsgErrorMessageEPNS_10giopStreamEPKN5CORBA15SystemExceptionE @1804
    _ZN4omni10giopImpl1019sendSystemExceptionEPNS_10giopStreamERKN5CORBA15SystemExceptionE @1805
    _ZN4omni10giopImpl1020marshalRequestHeaderEPNS_10giopStreamE @1806
    _ZN4omni10giopImpl1020outputSetMessageSizeEPNS_10giopStreamEm @1807
    _ZN4omni10giopImpl1020unmarshalLocateReplyEPNS_10giopStreamE @1808
    _ZN4omni10giopImpl1020unmarshalReplyHeaderEPNS_10giopStreamE @1809
    _ZN4omni10giopImpl1021inputRaiseCommFailureEPNS_10giopStreamEPKc @1810
    _ZN4omni10giopImpl1022unmarshalLocateRequestEPNS_10giopStreamE @1811
    _ZN4omni10giopImpl1022unmarshalRequestHeaderEPNS_10giopStreamE @1812
    _ZN4omni10giopImpl1024sendLocationForwardReplyEPNS_10giopStreamEPN5CORBA6ObjectEb @1813
    _ZN4omni10giopImpl1026inputTerminalProtocolErrorEPNS_10giopStreamEPKciS4_ @1814
    _ZN4omni10giopImpl1030unmarshalWildCardRequestHeaderEPNS_10giopStreamE @1815
    _ZN4omni10giopImpl1111outputFlushEPNS_10giopStreamEb @1816
    _ZN4omni10giopImpl1112getInputDataEPNS_10giopStreamENS_11alignment_tEj @1817
    _ZN4omni10giopImpl1113copyInputDataEPNS_10giopStreamEPvjNS_11alignment_tE @1818
    _ZN4omni10giopImpl1113skipInputDataEPNS_10giopStreamEj @1819
    _ZN4omni10giopImpl1114copyOutputDataEPNS_10giopStreamEPvjNS_11alignment_tE @1820
    _ZN4omni10giopImpl1114inputRemainingEPNS_10giopStreamE @1821
    _ZN4omni10giopImpl1115currentInputPtrEPKNS_10giopStreamE @1822
    _ZN4omni10giopImpl1115getReserveSpaceEPNS_10giopStreamENS_11alignment_tEj @1823
    _ZN4omni10giopImpl1115inputMessageEndEPNS_10giopStreamEb @1824
    _ZN4omni10giopImpl1115inputReplyBeginEPNS_10giopStreamEPFvS2_E @1825
    _ZN4omni10giopImpl1115outputRemainingEPKNS_10giopStreamE @1826
    _ZN4omni10giopImpl1115sendLocateReplyEPNS_10giopStreamEN4GIOP16LocateStatusTypeEPN5CORBA6ObjectEPNS5_15SystemExceptionE @1827
    _ZN4omni10giopImpl1116currentOutputPtrEPKNS_10giopStreamE @1828
    _ZN4omni10giopImpl1116inputNewFragmentEPNS_10giopStreamE @1829
    _ZN4omni10giopImpl1116outputMessageEndEPNS_10giopStreamE @1830
    _ZN4omni10giopImpl1116outputNewMessageEPNS_10giopStreamE @1831
    _ZN4omni10giopImpl1117inputMessageBeginEPNS_10giopStreamEPFvS2_E @1832
    _ZN4omni10giopImpl1117sendLocateRequestEPNS_10giopStreamE @1833
    _ZN4omni10giopImpl1117sendUserExceptionEPNS_10giopStreamERKN5CORBA13UserExceptionE @1834
    _ZN4omni10giopImpl1118marshalReplyHeaderEPNS_10giopStreamE @1835
    _ZN4omni10giopImpl1118outputMessageBeginEPNS_10giopStreamEPFvS2_E @1836
    _ZN4omni10giopImpl1119sendMsgErrorMessageEPNS_10giopStreamEPKN5CORBA15SystemExceptionE @1837
    _ZN4omni10giopImpl1119sendSystemExceptionEPNS_10giopStreamERKN5CORBA15SystemExceptionE @1838
    _ZN4omni10giopImpl1120marshalRequestHeaderEPNS_10giopStreamE @1839
    _ZN4omni10giopImpl1120unmarshalLocateReplyEPNS_10giopStreamE @1840
    _ZN4omni10giopImpl1120unmarshalReplyHeaderEPNS_10giopStreamE @1841
    _ZN4omni10giopImpl1121inputRaiseCommFailureEPNS_10giopStreamEPKc @1842
    _ZN4omni10giopImpl1121inputSkipWholeMessageEPNS_10giopStreamE @1843
    _ZN4omni10giopImpl1121outputHasReachedLimitEPNS_10giopStreamE @1844
    _ZN4omni10giopImpl1121outputSetFragmentSizeEPNS_10giopStreamEm @1845
    _ZN4omni10giopImpl1122unmarshalLocateRequestEPNS_10giopStreamE @1846
    _ZN4omni10giopImpl1122unmarshalRequestHeaderEPNS_10giopStreamE @1847
    _ZN4omni10giopImpl1124sendLocationForwardReplyEPNS_10giopStreamEPN5CORBA6ObjectEb @1848
    _ZN4omni10giopImpl1126inputTerminalProtocolErrorEPNS_10giopStreamEPKciS4_ @1849
    _ZN4omni10giopImpl1130unmarshalWildCardRequestHeaderEPNS_10giopStreamE @1850
    _ZN4omni10giopImpl1211outputFlushEPNS_10giopStreamEb @1851
    _ZN4omni10giopImpl1212getInputDataEPNS_10giopStreamENS_11alignment_tEj @1852
    _ZN4omni10giopImpl1213copyInputDataEPNS_10giopStreamEPvjNS_11alignment_tE @1853
    _ZN4omni10giopImpl1213skipInputDataEPNS_10giopStreamEj @1854
    _ZN4omni10giopImpl1214copyOutputDataEPNS_10giopStreamEPvjNS_11alignment_tE @1855
    _ZN4omni10giopImpl1214inputRemainingEPNS_10giopStreamE @1856
    _ZN4omni10giopImpl1215currentInputPtrEPKNS_10giopStreamE @1857
    _ZN4omni10giopImpl1215getReserveSpaceEPNS_10giopStreamENS_11alignment_tEj @1858
    _ZN4omni10giopImpl1215inputMessageEndEPNS_10giopStreamEb @1859
    _ZN4omni10giopImpl1215inputReplyBeginEPNS_10giopStreamEPFvS2_E @1860
    _ZN4omni10giopImpl1215outputRemainingEPKNS_10giopStreamE @1861
    _ZN4omni10giopImpl1215sendLocateReplyEPNS_10giopStreamEN4GIOP16LocateStatusTypeEPN5CORBA6ObjectEPNS5_15SystemExceptionE @1862
    _ZN4omni10giopImpl1216currentOutputPtrEPKNS_10giopStreamE @1863
    _ZN4omni10giopImpl1216inputNewFragmentEPNS_10giopStreamE @1864
    _ZN4omni10giopImpl1216outputMessageEndEPNS_10giopStreamE @1865
    _ZN4omni10giopImpl1216outputNewMessageEPNS_10giopStreamE @1866
    _ZN4omni10giopImpl1217inputMessageBeginEPNS_10giopStreamEPFvS2_E @1867
    _ZN4omni10giopImpl1217inputQueueMessageEPNS_10giopStreamEPNS_17giopStream_BufferE @1868
    _ZN4omni10giopImpl1217sendLocateRequestEPNS_10giopStreamE @1869
    _ZN4omni10giopImpl1217sendUserExceptionEPNS_10giopStreamERKN5CORBA13UserExceptionE @1870
    _ZN4omni10giopImpl1218marshalReplyHeaderEPNS_10giopStreamE @1871
    _ZN4omni10giopImpl1218outputMessageBeginEPNS_10giopStreamEPFvS2_E @1872
    _ZN4omni10giopImpl1219sendMsgErrorMessageEPNS_10giopStreamEPKN5CORBA15SystemExceptionE @1873
    _ZN4omni10giopImpl1219sendSystemExceptionEPNS_10giopStreamERKN5CORBA15SystemExceptionE @1874
    _ZN4omni10giopImpl1220marshalRequestHeaderEPNS_10giopStreamE @1875
    _ZN4omni10giopImpl1220unmarshalLocateReplyEPNS_10giopStreamE @1876
    _ZN4omni10giopImpl1220unmarshalReplyHeaderEPNS_10giopStreamE @1877
    _ZN4omni10giopImpl1221inputNewServerMessageEPNS_10giopStreamE @1878
    _ZN4omni10giopImpl1221inputRaiseCommFailureEPNS_10giopStreamEPKc @1879
    _ZN4omni10giopImpl1221inputSkipWholeMessageEPNS_10giopStreamE @1880
    _ZN4omni10giopImpl1221outputHasReachedLimitEPNS_10giopStreamE @1881
    _ZN4omni10giopImpl1221outputSetFragmentSizeEPNS_10giopStreamEm @1882
    _ZN4omni10giopImpl1222unmarshalLocateRequestEPNS_10giopStreamE @1883
    _ZN4omni10giopImpl1222unmarshalRequestHeaderEPNS_10giopStreamE @1884
    _ZN4omni10giopImpl1224sendLocationForwardReplyEPNS_10giopStreamEPN5CORBA6ObjectEb @1885
    _ZN4omni10giopImpl1226inputTerminalProtocolErrorEPNS_10giopStreamEPKciS4_ @1886
    _ZN4omni10giopImpl1230unmarshalWildCardRequestHeaderEPNS_10giopStreamE @1887
    _ZN4omni10giopServer10deactivateEv @1888
    _ZN4omni10giopServer11instantiateEPKcbR32_CORBA_Unbounded_Sequence_String @1889
    _ZN4omni10giopServer12notifyMrDoneEPNS_11giopMonitorEb @1890
    _ZN4omni10giopServer12notifyRzDoneEPNS_16giopRendezvouserEb @1891
    _ZN4omni10giopServer12notifyWkDoneEPNS_10giopWorkerEb @1892
    _ZN4omni10giopServer12peekCallBackEPvPNS_14giopConnectionE @1893
    _ZN4omni10giopServer14addBiDirStrandEPNS_10giopStrandEPNS_20giopActiveCollectionE @1894
    _ZN4omni10giopServer15connectionState8hashsizeE @1895 DATA
    _ZN4omni10giopServer15connectionStateC1EPNS_14giopConnectionEPNS_10giopStrandE @1896
    _ZN4omni10giopServer15connectionStateC2EPNS_14giopConnectionEPNS_10giopStrandE @1897
    _ZN4omni10giopServer15connectionStateD1Ev @1898
    _ZN4omni10giopServer15connectionStateD2Ev @1899
    _ZN4omni10giopServer15ensureNotInFluxEv @1900
    _ZN4omni10giopServer16notifyRzReadableEPNS_14giopConnectionEb @1901
    _ZN4omni10giopServer17notifyWkPreUpCallEPNS_10giopWorkerEb @1902
    _ZN4omni10giopServer21notifyRzNewConnectionEPNS_16giopRendezvouserEPNS_14giopConnectionE @1903
    _ZN4omni10giopServer23notifyCallFullyBufferedEPNS_14giopConnectionE @1904
    _ZN4omni10giopServer25removeConnectionAndWorkerEPNS_10giopWorkerE @1905
    _ZN4omni10giopServer27notifySwitchToBiDirectionalEPNS_14giopConnectionE @1906
    _ZN4omni10giopServer4Link6insertERS1_ @1907
    _ZN4omni10giopServer4Link6removeEv @1908
    _ZN4omni10giopServer4Link8is_emptyERS1_ @1909
    _ZN4omni10giopServer4LinkC1Ev @1910
    _ZN4omni10giopServer4LinkC2Ev @1911
    _ZN4omni10giopServer4stopEv @1912
    _ZN4omni10giopServer5startEv @1913
    _ZN4omni10giopServer6removeEv @1914
    _ZN4omni10giopServer7publishERK32_CORBA_Unbounded_Sequence_StringbbRS1_ @1915
    _ZN4omni10giopServer8activateEv @1916
    _ZN4omni10giopServer8csInsertEPNS_10giopStrandE @1917
    _ZN4omni10giopServer8csInsertEPNS_14giopConnectionE @1918
    _ZN4omni10giopServer8csLocateEPNS_14giopConnectionE @1919
    _ZN4omni10giopServer8csRemoveEPNS_14giopConnectionE @1920
    _ZN4omni10giopServer9singletonEv @1921
    _ZN4omni10giopServerC1Ev @1922
    _ZN4omni10giopServerC2Ev @1923
    _ZN4omni10giopServerD0Ev @1924
    _ZN4omni10giopServerD1Ev @1925
    _ZN4omni10giopServerD2Ev @1926
    _ZN4omni10giopStrand10safeDeleteEb @1927
    _ZN4omni10giopStrand12newSeqNumberEv @1928
    _ZN4omni10giopStrand13acquireServerEPNS_10giopWorkerE @1929
    _ZN4omni10giopStrand13deletePendingEv @1930
    _ZN4omni10giopStrand13releaseServerEPNS_5IOP_SE @1931
    _ZN4omni10giopStrand15active_timedoutE @1932 DATA
    _ZN4omni10giopStrand15stopIdleCounterEv @1933
    _ZN4omni10giopStrand16startIdleCounterEv @1934
    _ZN4omni10giopStrand17idleIncomingBeatsE @1935 DATA
    _ZN4omni10giopStrand17idleOutgoingBeatsE @1936 DATA
    _ZN4omni10giopStrand25deleteStrandAndConnectionEb @1937
    _ZN4omni10giopStrand5stateENS0_5StateE @1938
    _ZN4omni10giopStrand6activeE @1939 DATA
    _ZN4omni10giopStrand7passiveE @1940 DATA
    _ZN4omni10giopStrand8isClientEv @1941
    _ZN4omni10giopStrandC1EPKNS_11giopAddressE @1942
    _ZN4omni10giopStrandC1EPNS_14giopConnectionEPNS_10giopServerE @1943
    _ZN4omni10giopStrandC2EPKNS_11giopAddressE @1944
    _ZN4omni10giopStrandC2EPNS_14giopConnectionEPNS_10giopServerE @1945
    _ZN4omni10giopStrandD0Ev @1946
    _ZN4omni10giopStrandD1Ev @1947
    _ZN4omni10giopStrandD2Ev @1948
    _ZN4omni10giopStream10bufferSizeE @1949 DATA
    _ZN4omni10giopStream10inputChunkEm @1950
    _ZN4omni10giopStream10markRdLockEv @1951
    _ZN4omni10giopStream10ptrToClassEPi @1952
    _ZN4omni10giopStream11CommFailure6_raiseEmN5CORBA16CompletionStatusEbPKcmS5_PNS_10giopStrandE @1953
    _ZN4omni10giopStream11CommFailureC1EmN5CORBA16CompletionStatusEb @1954
    _ZN4omni10giopStream11CommFailureD1Ev @1955
    _ZN4omni10giopStream11errorOnSendEiPKcmbS2_ @1956
    _ZN4omni10giopStream11setDeadlineEmm @1957
    _ZN4omni10giopStream12RdLockIsHeldEPNS_10giopStrandE @1958
    _ZN4omni10giopStream12inputMessageEv @1959
    _ZN4omni10giopStream12wakeUpRdLockEPNS_10giopStrandE @1960
    _ZN4omni10giopStream13noLockWaitingEPNS_10giopStrandE @1961
    _ZN4omni10giopStream13sendCopyChunkEPvm @1962
    _ZN4omni10giopStream13sleepOnRdLockEPNS_10giopStrandE @1963
    _ZN4omni10giopStream13sleepOnRdLockEv @1964
    _ZN4omni10giopStream14errorOnReceiveEiPKcmPNS_17giopStream_BufferEbS2_ @1965
    _ZN4omni10giopStream14fetchInputDataENS_11alignment_tEj @1966
    _ZN4omni10giopStream14inputCopyChunkEPvm @1967
    _ZN4omni10giopStream14inputMatchedIdEb @1968
    _ZN4omni10giopStream15get_octet_arrayEPhiNS_11alignment_tE @1969
    _ZN4omni10giopStream15put_octet_arrayEPKhiNS_11alignment_tE @1970
    _ZN4omni10giopStream16directSendCutOffE @1971 DATA
    _ZN4omni10giopStream16ensureSaneHeaderEPKcmPNS_17giopStream_BufferEm @1972
    _ZN4omni10giopStream16inputMessageSizeEm @1973
    _ZN4omni10giopStream17checkInputOverrunEmmNS_11alignment_tE @1974
    _ZN4omni10giopStream17notifyCommFailureEbRmRb @1975
    _ZN4omni10giopStream17outputMessageSizeEm @1976
    _ZN4omni10giopStream17rdLockNonBlockingEPNS_10giopStrandE @1977
    _ZN4omni10giopStream17rdLockNonBlockingEv @1978
    _ZN4omni10giopStream18checkOutputOverrunEmmNS_11alignment_tE @1979
    _ZN4omni10giopStream18inputFullyBufferedEb @1980
    _ZN4omni10giopStream18outputFragmentSizeEm @1981
    _ZN4omni10giopStream18releaseInputBufferEPNS_17giopStream_BufferE @1982
    _ZN4omni10giopStream19directReceiveCutOffE @1983 DATA
    _ZN4omni10giopStream19inputFragmentToComeEm @1984
    _ZN4omni10giopStream19sleepOnRdLockAlwaysEv @1985
    _ZN4omni10giopStream23maybeReserveOutputSpaceENS_11alignment_tEj @1986
    _ZN4omni10giopStream26inputExpectAnotherFragmentEb @1987
    _ZN4omni10giopStream34reserveOutputSpaceForPrimitiveTypeENS_11alignment_tEj @1988
    _ZN4omni10giopStream4implEPNS_14giopStreamImplE @1989
    _ZN4omni10giopStream5resetEv @1990
    _ZN4omni10giopStream6rdLockEv @1991
    _ZN4omni10giopStream6wrLockEv @1992
    _ZN4omni10giopStream7dumpbufEPhj @1993
    _ZN4omni10giopStream7versionEv @1994
    _ZN4omni10giopStream8_classidE @1995 DATA
    _ZN4omni10giopStream8downcastEP9cdrStream @1996
    _ZN4omni10giopStream8rdUnLockEv @1997
    _ZN4omni10giopStream8wrUnLockEv @1998
    _ZN4omni10giopStream9requestIdEm @1999
    _ZN4omni10giopStream9sendChunkEPNS_17giopStream_BufferE @2000
    _ZN4omni10giopStream9skipInputEm @2001
    _ZN4omni10giopStreamC1EPNS_10giopStrandE @2002
    _ZN4omni10giopStreamC2EPNS_10giopStrandE @2003
    _ZN4omni10giopStreamD0Ev @2004
    _ZN4omni10giopStreamD1Ev @2005
    _ZN4omni10giopStreamD2Ev @2006
    _ZN4omni10giopStreamcvRNS_10giopStrandEEv @2007
    _ZN4omni10giopWorker12real_executeEv @2008
    _ZN4omni10giopWorker7executeEv @2009
    _ZN4omni10giopWorker9terminateEv @2010
    _ZN4omni10giopWorkerC1EPNS_10giopStrandEPNS_10giopServerEb @2011
    _ZN4omni10giopWorkerC2EPNS_10giopStrandEPNS_10giopServerEb @2012
    _ZN4omni10giopWorkerD0Ev @2013
    _ZN4omni10giopWorkerD1Ev @2014
    _ZN4omni10nilRefLockEv @2015
    _ZN4omni10omniOrbBOA11_ptrToClassEPi @2016
    _ZN4omni10omniOrbBOA12_ptrToObjRefEPKc @2017
    _ZN4omni10omniOrbBOA12decrRefCountEv @2018
    _ZN4omni10omniOrbBOA12incrRefCountEv @2019
    _ZN4omni10omniOrbBOA12obj_is_readyEP17omniOrbBoaServantPN5CORBA17ImplementationDefE @2020
    _ZN4omni10omniOrbBOA12obj_is_readyEPN5CORBA6ObjectEPNS1_17ImplementationDefE @2021
    _ZN4omni10omniOrbBOA12objectExistsEPKhi @2022
    _ZN4omni10omniOrbBOA13_non_existentEv @2023
    _ZN4omni10omniOrbBOA13activeObjListEv @2024
    _ZN4omni10omniOrbBOA13get_principalEPN5CORBA6ObjectEPNS1_11EnvironmentE @2025
    _ZN4omni10omniOrbBOA13impl_is_readyEPN5CORBA17ImplementationDefEb @2026
    _ZN4omni10omniOrbBOA13impl_shutdownEv @2027
    _ZN4omni10omniOrbBOA14deactivate_objEPN5CORBA6ObjectE @2028
    _ZN4omni10omniOrbBOA15deactivate_implEPN5CORBA17ImplementationDefE @2029
    _ZN4omni10omniOrbBOA16_NP_decrRefCountEv @2030
    _ZN4omni10omniOrbBOA16_NP_incrRefCountEv @2031
    _ZN4omni10omniOrbBOA19incrRefCount_lockedEv @2032
    _ZN4omni10omniOrbBOA19synchronise_requestEv @2033
    _ZN4omni10omniOrbBOA21change_implementationEPN5CORBA6ObjectEPNS1_17ImplementationDefE @2034
    _ZN4omni10omniOrbBOA26lastInvocationHasCompletedEP17omniLocalIdentity @2035
    _ZN4omni10omniOrbBOA6createERKN5CORBA13ReferenceDataEPNS1_20_objref_InterfaceDefEPNS1_17ImplementationDefE @2036
    _ZN4omni10omniOrbBOA6get_idEPN5CORBA6ObjectE @2037
    _ZN4omni10omniOrbBOA6theBOAEv @2038
    _ZN4omni10omniOrbBOA7destroyEv @2039
    _ZN4omni10omniOrbBOA7disposeEP12omniIdentity @2040
    _ZN4omni10omniOrbBOA7disposeEPN5CORBA6ObjectE @2041
    _ZN4omni10omniOrbBOA8_classidE @2042 DATA
    _ZN4omni10omniOrbBOA8dispatchER14omniCallHandleP17omniLocalIdentity @2043
    _ZN4omni10omniOrbBOA8dispatchER14omniCallHandlePKhi @2044
    _ZN4omni10omniOrbBOA8dispatchER18omniCallDescriptorP17omniLocalIdentity @2045
    _ZN4omni10omniOrbBOAC1Ei @2046
    _ZN4omni10omniOrbBOAC2Ei @2047
    _ZN4omni10omniOrbBOAD0Ev @2048
    _ZN4omni10omniOrbBOAD1Ev @2049
    _ZN4omni10omniOrbBOAD2Ev @2050
    _ZN4omni10omniOrbPOA10create_POAEPKcPN14PortableServer10POAManagerERK32_CORBA_Pseudo_Unbounded_SequenceIN5CORBA6PolicyE23_CORBA_PseudoObj_MemberIS8_20_CORBA_PseudoObj_VarIS8_EEE @2051
    _ZN4omni10omniOrbPOA10create_keyER10omniObjKeyPKhi @2052
    _ZN4omni10omniOrbPOA10do_destroyEb @2053
    _ZN4omni10omniOrbPOA10find_childEPKc @2054
    _ZN4omni10omniOrbPOA10find_childEPKcS2_ @2055
    _ZN4omni10omniOrbPOA10getAdapterEPKhi @2056
    _ZN4omni10omniOrbPOA10lose_childEPS0_ @2057
    _ZN4omni10omniOrbPOA10omniINSPOAEv @2058
    _ZN4omni10omniOrbPOA10the_parentEv @2059
    _ZN4omni10omniOrbPOA11_ptrToClassEPi @2060
    _ZN4omni10omniOrbPOA11get_servantEv @2061
    _ZN4omni10omniOrbPOA11set_servantEPN14PortableServer11ServantBaseE @2062
    _ZN4omni10omniOrbPOA12_ptrToObjRefEPKc @2063
    _ZN4omni10omniOrbPOA12decrRefCountEv @2064
    _ZN4omni10omniOrbPOA12incrRefCountEv @2065
    _ZN4omni10omniOrbPOA12insert_childEPS0_ @2066
    _ZN4omni10omniOrbPOA12objectExistsEPKhi @2067
    _ZN4omni10omniOrbPOA12the_childrenEv @2068
    _ZN4omni10omniOrbPOA13_non_existentEv @2069
    _ZN4omni10omniOrbPOA13id_to_servantERKN14PortableServer8ObjectIdE @2070
    _ZN4omni10omniOrbPOA13pm_deactivateEb @2071
    _ZN4omni10omniOrbPOA13servant__thisEPN14PortableServer11ServantBaseEPKc @2072
    _ZN4omni10omniOrbPOA13servant_to_idEPN14PortableServer11ServantBaseE @2073
    _ZN4omni10omniOrbPOA13the_activatorEPN14PortableServer16AdapterActivatorE @2074
    _ZN4omni10omniOrbPOA13the_activatorEv @2075
    _ZN4omni10omniOrbPOA14create_new_keyER10omniObjKeyPPKhPi @2076
    _ZN4omni10omniOrbPOA14dispatch_to_dsER14omniCallHandlePKhi @2077
    _ZN4omni10omniOrbPOA14dispatch_to_saER14omniCallHandlePKhi @2078
    _ZN4omni10omniOrbPOA14dispatch_to_slER14omniCallHandlePKhi @2079
    _ZN4omni10omniOrbPOA14the_POAManagerEv @2080
    _ZN4omni10omniOrbPOA15activate_objectEPN14PortableServer11ServantBaseE @2081
    _ZN4omni10omniOrbPOA15id_to_referenceERKN14PortableServer8ObjectIdE @2082
    _ZN4omni10omniOrbPOA15pm_change_stateEN14PortableServer10POAManager5StateE @2083
    _ZN4omni10omniOrbPOA15reference_to_idEPN5CORBA6ObjectE @2084
    _ZN4omni10omniOrbPOA16SLPostInvokeHook10postinvokeEv @2085
    _ZN4omni10omniOrbPOA16SLPostInvokeHookC1EPS0_PN14PortableServer14ServantLocatorERNS3_8ObjectIdEPKcPvPNS3_11ServantBaseE @2086
    _ZN4omni10omniOrbPOA16SLPostInvokeHookD0Ev @2087
    _ZN4omni10omniOrbPOA16SLPostInvokeHookD1Ev @2088
    _ZN4omni10omniOrbPOA16SLPostInvokeHookD2Ev @2089
    _ZN4omni10omniOrbPOA16_NP_decrRefCountEv @2090
    _ZN4omni10omniOrbPOA16_NP_incrRefCountEv @2091
    _ZN4omni10omniOrbPOA16create_referenceEPKc @2092
    _ZN4omni10omniOrbPOA17deactivate_objectERKN14PortableServer8ObjectIdE @2093
    _ZN4omni10omniOrbPOA18deactivate_objectsEP17omniObjTableEntry @2094
    _ZN4omni10omniOrbPOA19etherealise_objectsEP17omniObjTableEntrybPN14PortableServer16ServantActivatorE @2095
    _ZN4omni10omniOrbPOA19get_servant_managerEv @2096
    _ZN4omni10omniOrbPOA19localId_to_ObjectIdEP12omniIdentity @2097
    _ZN4omni10omniOrbPOA19localId_to_ObjectIdEP12omniIdentityRN14PortableServer8ObjectIdE @2098
    _ZN4omni10omniOrbPOA19set_servant_managerEPN14PortableServer14ServantManagerE @2099
    _ZN4omni10omniOrbPOA19synchronise_requestEP17omniLocalIdentity @2100
    _ZN4omni10omniOrbPOA20reference_to_servantEPN5CORBA6ObjectE @2101
    _ZN4omni10omniOrbPOA20servant_to_referenceEPN14PortableServer11ServantBaseE @2102
    _ZN4omni10omniOrbPOA21adapter_name_is_validEPKc @2103
    _ZN4omni10omniOrbPOA23activate_object_with_idERKN14PortableServer8ObjectIdEPNS1_11ServantBaseE @2104
    _ZN4omni10omniOrbPOA24create_reference_with_idERKN14PortableServer8ObjectIdEPKc @2105
    _ZN4omni10omniOrbPOA26is_adapteractivating_childEPKc @2106
    _ZN4omni10omniOrbPOA26lastInvocationHasCompletedEP17omniLocalIdentity @2107
    _ZN4omni10omniOrbPOA27attempt_to_activate_adapterEPKc @2108
    _ZN4omni10omniOrbPOA28complete_object_deactivationEP17omniObjTableEntry @2109
    _ZN4omni10omniOrbPOA29pm_waitForReqCmpltnOrSttChngeEN14PortableServer10POAManager5StateE @2110
    _ZN4omni10omniOrbPOA2idEv @2111
    _ZN4omni10omniOrbPOA30finish_adapteractivating_childEPKc @2112
    _ZN4omni10omniOrbPOA35add_object_to_etherealisation_queueEP17omniObjTableEntryPN14PortableServer16ServantActivatorEii @2113
    _ZN4omni10omniOrbPOA38start_adapteractivating_child_or_blockEPKc @2114
    _ZN4omni10omniOrbPOA7destroyEbb @2115
    _ZN4omni10omniOrbPOA7rootPOAEi @2116
    _ZN4omni10omniOrbPOA8_classidE @2117 DATA
    _ZN4omni10omniOrbPOA8dispatchER14omniCallHandleP17omniLocalIdentity @2118
    _ZN4omni10omniOrbPOA8dispatchER14omniCallHandlePKhi @2119
    _ZN4omni10omniOrbPOA8dispatchER18omniCallDescriptorP17omniLocalIdentity @2120
    _ZN4omni10omniOrbPOA8find_POAEPKcb @2121
    _ZN4omni10omniOrbPOA8shutdownEv @2122
    _ZN4omni10omniOrbPOA8the_nameEv @2123
    _ZN4omni10omniOrbPOA9_downcastEPNS_14omniObjAdapterE @2124
    _ZN4omni10omniOrbPOAC1EPKcPNS_17omniOrbPOAManagerERKNS0_8PoliciesERK32_CORBA_Pseudo_Unbounded_SequenceIN5CORBA6PolicyE23_CORBA_PseudoObj_MemberISA_20_CORBA_PseudoObj_VarISA_EEEPS0_ @2125
    _ZN4omni10omniOrbPOAC1Ev @2126
    _ZN4omni10omniOrbPOAC2EPKcPNS_17omniOrbPOAManagerERKNS0_8PoliciesERK32_CORBA_Pseudo_Unbounded_SequenceIN5CORBA6PolicyE23_CORBA_PseudoObj_MemberISA_20_CORBA_PseudoObj_VarISA_EEEPS0_ @2127
    _ZN4omni10omniOrbPOAC2Ev @2128
    _ZN4omni10omniOrbPOAD0Ev @2129
    _ZN4omni10omniOrbPOAD1Ev @2130
    _ZN4omni10omniOrbPOAD2Ev @2131
    _ZN4omni10orbOptions10addKVULongEPKcmRNS0_14sequenceStringE @2132
    _ZN4omni10orbOptions10addOptionsEPA2_PKc @2133
    _ZN4omni10orbOptions10getBooleanEPKcRb @2134
    _ZN4omni10orbOptions11addKVStringEPKcS2_RNS0_14sequenceStringE @2135
    _ZN4omni10orbOptions11findHandlerEPKc @2136
    _ZN4omni10orbOptions12addKVBooleanEPKcbRNS0_14sequenceStringE @2137
    _ZN4omni10orbOptions12sortHandlersEv @2138
    _ZN4omni10orbOptions13getTraceLevelEiPPc @2139
    _ZN4omni10orbOptions13importFromEnvEv @2140
    _ZN4omni10orbOptions14importFromFileEPKc @2141
    _ZN4omni10orbOptions14sequenceStringC1Em @2142
    _ZN4omni10orbOptions14sequenceStringC1Ev @2143
    _ZN4omni10orbOptions14sequenceStringD1Ev @2144
    _ZN4omni10orbOptions15registerHandlerERNS0_7HandlerE @2145
    _ZN4omni10orbOptions16HandlerValuePairC1EPNS0_7HandlerEPKcNS0_6SourceE @2146
    _ZN4omni10orbOptions16HandlerValuePairD1Ev @2147
    _ZN4omni10orbOptions16expect_ulong_msgE @2148 DATA
    _ZN4omni10orbOptions17getConfigFileNameEiPPcPKc @2149
    _ZN4omni10orbOptions18expect_boolean_msgE @2150 DATA
    _ZN4omni10orbOptions18extractInitOptionsERiPPc @2151
    _ZN4omni10orbOptions18importFromRegistryEv @2152
    _ZN4omni10orbOptions18sequenceString_var5_retnEv @2153
    _ZN4omni10orbOptions18sequenceString_var5inoutEv @2154
    _ZN4omni10orbOptions18sequenceString_varC1EPNS0_14sequenceStringE @2155
    _ZN4omni10orbOptions18sequenceString_varC1Ev @2156
    _ZN4omni10orbOptions18sequenceString_varD1Ev @2157
    _ZN4omni10orbOptions18sequenceString_varaSEPNS0_14sequenceStringE @2158
    _ZN4omni10orbOptions18sequenceString_varixEm @2159
    _ZN4omni10orbOptions18sequenceString_varptEv @2160
    _ZN4omni10orbOptions34expect_greater_than_zero_ulong_msgE @2161 DATA
    _ZN4omni10orbOptions5resetEv @2162
    _ZN4omni10orbOptions5visitEv @2163
    _ZN4omni10orbOptions7HandlerC2EPKcS3_bS3_b @2164
    _ZN4omni10orbOptions7HandlerD0Ev @2165
    _ZN4omni10orbOptions7HandlerD1Ev @2166
    _ZN4omni10orbOptions7HandlerD2Ev @2167
    _ZN4omni10orbOptions7UnknownC1EPKcS3_ @2168
    _ZN4omni10orbOptions7UnknownD1Ev @2169
    _ZN4omni10orbOptions7getLongEPKcRl @2170
    _ZN4omni10orbOptions8BadParamC1EPKcS3_S3_ @2171
    _ZN4omni10orbOptions8BadParamD1Ev @2172
    _ZN4omni10orbOptions8getULongEPKcRm @2173
    _ZN4omni10orbOptions9addKVLongEPKclRNS0_14sequenceStringE @2174
    _ZN4omni10orbOptions9addOptionEPKcS2_NS0_6SourceE @2175
    _ZN4omni10orbOptions9move_argsERiPPcii @2176
    _ZN4omni10orbOptions9singletonEv @2177
    _ZN4omni10orbOptionsC1Ev @2178
    _ZN4omni10orbOptionsC2Ev @2179
    _ZN4omni10orbOptionsD1Ev @2180
    _ZN4omni10orbOptionsD2Ev @2181
    _ZN4omni10tcpAddressC1ERKN4IIOP7AddressE @2182
    _ZN4omni10tcpAddressC2ERKN4IIOP7AddressE @2183
    _ZN4omni10tcpAddressD0Ev @2184
    _ZN4omni10tcpAddressD1Ev @2185
    _ZN4omni10ucheckFailEPKciS1_ @2186
    _ZN4omni11IP4AddrInfo10addrFamilyEv @2187
    _ZN4omni11IP4AddrInfo4addrEv @2188
    _ZN4omni11IP4AddrInfo4nameEv @2189
    _ZN4omni11IP4AddrInfo4nextEv @2190
    _ZN4omni11IP4AddrInfo8addrSizeEv @2191
    _ZN4omni11IP4AddrInfo8asStringEv @2192
    _ZN4omni11IP4AddrInfoC1EPKcmt @2193
    _ZN4omni11IP4AddrInfoC2EPKcmt @2194
    _ZN4omni11IP4AddrInfoD0Ev @2195
    _ZN4omni11IP4AddrInfoD1Ev @2196
    _ZN4omni11IP4AddrInfoD2Ev @2197
    _ZN4omni11LibcWrapper11getAddrInfoEPKct @2198
    _ZN4omni11LibcWrapper12AddrInfo_varC1EPNS0_8AddrInfoE @2199
    _ZN4omni11LibcWrapper12AddrInfo_varC1Ev @2200
    _ZN4omni11LibcWrapper12AddrInfo_varD1Ev @2201
    _ZN4omni11LibcWrapper12AddrInfo_varaSEPNS0_8AddrInfoE @2202
    _ZN4omni11LibcWrapper12freeAddrInfoEPNS0_8AddrInfoE @2203
    _ZN4omni11LibcWrapper8AddrInfoC2Ev @2204
    _ZN4omni11LibcWrapper8AddrInfoD0Ev @2205
    _ZN4omni11LibcWrapper8AddrInfoD1Ev @2206
    _ZN4omni11LibcWrapper8AddrInfoD2Ev @2207
    _ZN4omni11LibcWrapper8isipaddrEPKc @2208
    _ZN4omni11LibcWrapper9isip4addrEPKc @2209
    _ZN4omni11LibcWrapper9isip6addrEPKc @2210
    _ZN4omni11NCS_C_UTF_811marshalCharER9cdrStreamPNS_11omniCodeSet5TCS_CEh @2211
    _ZN4omni11NCS_C_UTF_813marshalStringER9cdrStreamPNS_11omniCodeSet5TCS_CEmmPKc @2212
    _ZN4omni11NCS_C_UTF_813unmarshalCharER9cdrStreamPNS_11omniCodeSet5TCS_CE @2213
    _ZN4omni11NCS_C_UTF_815unmarshalStringER9cdrStreamPNS_11omniCodeSet5TCS_CEmRPc @2214
    _ZN4omni11NCS_C_UTF_8C1Ev @2215
    _ZN4omni11NCS_C_UTF_8D0Ev @2216
    _ZN4omni11NCS_C_UTF_8D1Ev @2217
    _ZN4omni11TCS_C_UTF_811marshalCharER9cdrStreamw @2218
    _ZN4omni11TCS_C_UTF_813marshalStringER9cdrStreammmPKw @2219
    _ZN4omni11TCS_C_UTF_813unmarshalCharER9cdrStream @2220
    _ZN4omni11TCS_C_UTF_814validateStringEPKcN5CORBA16CompletionStatusE @2221
    _ZN4omni11TCS_C_UTF_815fastMarshalCharER9cdrStreamPNS_11omniCodeSet5NCS_CEh @2222
    _ZN4omni11TCS_C_UTF_815unmarshalStringER9cdrStreammRPw @2223
    _ZN4omni11TCS_C_UTF_817fastMarshalStringER9cdrStreamPNS_11omniCodeSet5NCS_CEmmPKc @2224
    _ZN4omni11TCS_C_UTF_817fastUnmarshalCharER9cdrStreamPNS_11omniCodeSet5NCS_CERh @2225
    _ZN4omni11TCS_C_UTF_819fastUnmarshalStringER9cdrStreamPNS_11omniCodeSet5NCS_CEmRmRPc @2226
    _ZN4omni11TCS_C_UTF_8C1EN4GIOP7VersionE @2227
    _ZN4omni11TCS_C_UTF_8D0Ev @2228
    _ZN4omni11TCS_C_UTF_8D1Ev @2229
    _ZN4omni11giopAddress11str2AddressEPKc @2230
    _ZN4omni11giopAddress14fromSslAddressERKN4IIOP7AddressE @2231
    _ZN4omni11giopAddress14fromTcpAddressERKN4IIOP7AddressE @2232
    _ZN4omni11giopAddressC2Ev @2233
    _ZN4omni11giopAddressD0Ev @2234
    _ZN4omni11giopAddressD1Ev @2235
    _ZN4omni11giopAddressD2Ev @2236
    _ZN4omni11giopMonitor10deactivateEv @2237
    _ZN4omni11giopMonitor14notifyReadableEPvPNS_14giopConnectionE @2238
    _ZN4omni11giopMonitor7executeEv @2239
    _ZN4omni11giopMonitorC1EPNS_20giopActiveCollectionEPNS_10giopServerE @2240
    _ZN4omni11giopMonitorD0Ev @2241
    _ZN4omni11giopMonitorD1Ev @2242
    _ZN4omni11helpHandler4dumpERNS_10orbOptions14sequenceStringE @2243
    _ZN4omni11helpHandler5visitEPKcNS_10orbOptions6SourceE @2244
    _ZN4omni11helpHandlerC1Ev @2245
    _ZN4omni11helpHandlerD0Ev @2246
    _ZN4omni11helpHandlerD1Ev @2247
    _ZN4omni11myByteOrderE @2248 DATA
    _ZN4omni11omniCodeSet10ID_8859_10E @2249 DATA
    _ZN4omni11omniCodeSet10ID_8859_11E @2250 DATA
    _ZN4omni11omniCodeSet10ID_8859_13E @2251 DATA
    _ZN4omni11omniCodeSet10ID_8859_14E @2252 DATA
    _ZN4omni11omniCodeSet10ID_8859_15E @2253 DATA
    _ZN4omni11omniCodeSet10ID_8859_16E @2254 DATA
    _ZN4omni11omniCodeSet10NCS_C_8bit11marshalCharER9cdrStreamPNS0_5TCS_CEh @2255
    _ZN4omni11omniCodeSet10NCS_C_8bit13marshalStringER9cdrStreamPNS0_5TCS_CEmmPKc @2256
    _ZN4omni11omniCodeSet10NCS_C_8bit13unmarshalCharER9cdrStreamPNS0_5TCS_CE @2257
    _ZN4omni11omniCodeSet10NCS_C_8bit15unmarshalStringER9cdrStreamPNS0_5TCS_CEmRPc @2258
    _ZN4omni11omniCodeSet10NCS_C_8bitC1EmPKcPKwPPKh @2259
    _ZN4omni11omniCodeSet10NCS_C_8bitD0Ev @2260
    _ZN4omni11omniCodeSet10NCS_C_8bitD1Ev @2261
    _ZN4omni11omniCodeSet10TCS_C_8bit11marshalCharER9cdrStreamw @2262
    _ZN4omni11omniCodeSet10TCS_C_8bit13marshalStringER9cdrStreammmPKw @2263
    _ZN4omni11omniCodeSet10TCS_C_8bit13unmarshalCharER9cdrStream @2264
    _ZN4omni11omniCodeSet10TCS_C_8bit15fastMarshalCharER9cdrStreamPNS0_5NCS_CEh @2265
    _ZN4omni11omniCodeSet10TCS_C_8bit15unmarshalStringER9cdrStreammRPw @2266
    _ZN4omni11omniCodeSet10TCS_C_8bit17fastMarshalStringER9cdrStreamPNS0_5NCS_CEmmPKc @2267
    _ZN4omni11omniCodeSet10TCS_C_8bit17fastUnmarshalCharER9cdrStreamPNS0_5NCS_CERh @2268
    _ZN4omni11omniCodeSet10TCS_C_8bit19fastUnmarshalStringER9cdrStreamPNS0_5NCS_CEmRmRPc @2269
    _ZN4omni11omniCodeSet10TCS_C_8bitC1EmPKcN4GIOP7VersionEPKwPPKh @2270
    _ZN4omni11omniCodeSet10TCS_C_8bitD0Ev @2271
    _ZN4omni11omniCodeSet10TCS_C_8bitD1Ev @2272
    _ZN4omni11omniCodeSet11NCS_W_16bit12marshalWCharER9cdrStreamPNS0_5TCS_WEw @2273
    _ZN4omni11omniCodeSet11NCS_W_16bit14marshalWStringER9cdrStreamPNS0_5TCS_WEmmPKw @2274
    _ZN4omni11omniCodeSet11NCS_W_16bit14unmarshalWCharER9cdrStreamPNS0_5TCS_WE @2275
    _ZN4omni11omniCodeSet11NCS_W_16bit16unmarshalWStringER9cdrStreamPNS0_5TCS_WEmRPw @2276
    _ZN4omni11omniCodeSet11NCS_W_16bitD0Ev @2277
    _ZN4omni11omniCodeSet11NCS_W_16bitD1Ev @2278
    _ZN4omni11omniCodeSet11TCS_W_16bit12marshalWCharER9cdrStreamw @2279
    _ZN4omni11omniCodeSet11TCS_W_16bit14marshalWStringER9cdrStreammmPKw @2280
    _ZN4omni11omniCodeSet11TCS_W_16bit14unmarshalWCharER9cdrStream @2281
    _ZN4omni11omniCodeSet11TCS_W_16bit16fastMarshalWCharER9cdrStreamPNS0_5NCS_WEw @2282
    _ZN4omni11omniCodeSet11TCS_W_16bit16unmarshalWStringER9cdrStreammRPw @2283
    _ZN4omni11omniCodeSet11TCS_W_16bit18fastMarshalWStringER9cdrStreamPNS0_5NCS_WEmmPKw @2284
    _ZN4omni11omniCodeSet11TCS_W_16bit18fastUnmarshalWCharER9cdrStreamPNS0_5NCS_WERw @2285
    _ZN4omni11omniCodeSet11TCS_W_16bit20fastUnmarshalWStringER9cdrStreamPNS0_5NCS_WEmRmRPw @2286
    _ZN4omni11omniCodeSet11TCS_W_16bitD0Ev @2287
    _ZN4omni11omniCodeSet11TCS_W_16bitD1Ev @2288
    _ZN4omni11omniCodeSet11logCodeSetsEv @2289
    _ZN4omni11omniCodeSet13registerNCS_CEPNS0_5NCS_CE @2290
    _ZN4omni11omniCodeSet13registerNCS_WEPNS0_5NCS_WE @2291
    _ZN4omni11omniCodeSet13registerTCS_CEPNS0_5TCS_CE @2292
    _ZN4omni11omniCodeSet13registerTCS_WEPNS0_5TCS_WE @2293
    _ZN4omni11omniCodeSet14empty8BitTableE @2294 DATA
    _ZN4omni11omniCodeSet15empty16BitTableE @2295 DATA
    _ZN4omni11omniCodeSet4BaseC2EmPKcNS0_4KindE @2296
    _ZN4omni11omniCodeSet4BaseD0Ev @2297
    _ZN4omni11omniCodeSet4BaseD1Ev @2298
    _ZN4omni11omniCodeSet4BaseD2Ev @2299
    _ZN4omni11omniCodeSet5NCS_CC1EmPKcNS0_4KindE @2300
    _ZN4omni11omniCodeSet5NCS_CC2EmPKcNS0_4KindE @2301
    _ZN4omni11omniCodeSet5NCS_CD0Ev @2302
    _ZN4omni11omniCodeSet5NCS_CD1Ev @2303
    _ZN4omni11omniCodeSet5NCS_CD2Ev @2304
    _ZN4omni11omniCodeSet5NCS_WC1EmPKcNS0_4KindE @2305
    _ZN4omni11omniCodeSet5NCS_WC2EmPKcNS0_4KindE @2306
    _ZN4omni11omniCodeSet5NCS_WD0Ev @2307
    _ZN4omni11omniCodeSet5NCS_WD1Ev @2308
    _ZN4omni11omniCodeSet5NCS_WD2Ev @2309
    _ZN4omni11omniCodeSet5TCS_C15fastMarshalCharER9cdrStreamPNS0_5NCS_CEh @2310
    _ZN4omni11omniCodeSet5TCS_C17fastMarshalStringER9cdrStreamPNS0_5NCS_CEmmPKc @2311
    _ZN4omni11omniCodeSet5TCS_C17fastUnmarshalCharER9cdrStreamPNS0_5NCS_CERh @2312
    _ZN4omni11omniCodeSet5TCS_C19fastUnmarshalStringER9cdrStreamPNS0_5NCS_CEmRmRPc @2313
    _ZN4omni11omniCodeSet5TCS_CC1EmPKcNS0_4KindEN4GIOP7VersionE @2314
    _ZN4omni11omniCodeSet5TCS_CC2EmPKcNS0_4KindEN4GIOP7VersionE @2315
    _ZN4omni11omniCodeSet5TCS_CD0Ev @2316
    _ZN4omni11omniCodeSet5TCS_CD1Ev @2317
    _ZN4omni11omniCodeSet5TCS_CD2Ev @2318
    _ZN4omni11omniCodeSet5TCS_W16fastMarshalWCharER9cdrStreamPNS0_5NCS_WEw @2319
    _ZN4omni11omniCodeSet5TCS_W18fastMarshalWStringER9cdrStreamPNS0_5NCS_WEmmPKw @2320
    _ZN4omni11omniCodeSet5TCS_W18fastUnmarshalWCharER9cdrStreamPNS0_5NCS_WERw @2321
    _ZN4omni11omniCodeSet5TCS_W20fastUnmarshalWStringER9cdrStreamPNS0_5NCS_WEmRmRPw @2322
    _ZN4omni11omniCodeSet5TCS_WC1EmPKcNS0_4KindEN4GIOP7VersionE @2323
    _ZN4omni11omniCodeSet5TCS_WC2EmPKcNS0_4KindEN4GIOP7VersionE @2324
    _ZN4omni11omniCodeSet5TCS_WD0Ev @2325
    _ZN4omni11omniCodeSet5TCS_WD1Ev @2326
    _ZN4omni11omniCodeSet5TCS_WD2Ev @2327
    _ZN4omni11omniCodeSet6ID_037E @2328 DATA
    _ZN4omni11omniCodeSet6ID_500E @2329 DATA
    _ZN4omni11omniCodeSet8ID_EDF_4E @2330 DATA
    _ZN4omni11omniCodeSet8ID_UCS_2E @2331 DATA
    _ZN4omni11omniCodeSet8ID_UCS_4E @2332 DATA
    _ZN4omni11omniCodeSet8ID_UTF_8E @2333 DATA
    _ZN4omni11omniCodeSet8getNCS_CEPKc @2334
    _ZN4omni11omniCodeSet8getNCS_CEm @2335
    _ZN4omni11omniCodeSet8getNCS_WEPKc @2336
    _ZN4omni11omniCodeSet8getNCS_WEm @2337
    _ZN4omni11omniCodeSet8getTCS_CEPKcN4GIOP7VersionE @2338
    _ZN4omni11omniCodeSet8getTCS_CEmN4GIOP7VersionE @2339
    _ZN4omni11omniCodeSet8getTCS_WEPKcN4GIOP7VersionE @2340
    _ZN4omni11omniCodeSet8getTCS_WEmN4GIOP7VersionE @2341
    _ZN4omni11omniCodeSet9ID_8859_1E @2342 DATA
    _ZN4omni11omniCodeSet9ID_8859_2E @2343 DATA
    _ZN4omni11omniCodeSet9ID_8859_3E @2344 DATA
    _ZN4omni11omniCodeSet9ID_8859_4E @2345 DATA
    _ZN4omni11omniCodeSet9ID_8859_5E @2346 DATA
    _ZN4omni11omniCodeSet9ID_8859_6E @2347 DATA
    _ZN4omni11omniCodeSet9ID_8859_7E @2348 DATA
    _ZN4omni11omniCodeSet9ID_8859_8E @2349 DATA
    _ZN4omni11omniCodeSet9ID_8859_9E @2350 DATA
    _ZN4omni11omniCodeSet9ID_CP1250E @2351 DATA
    _ZN4omni11omniCodeSet9ID_CP1251E @2352 DATA
    _ZN4omni11omniCodeSet9ID_CP1252E @2353 DATA
    _ZN4omni11omniCodeSet9ID_CP1253E @2354 DATA
    _ZN4omni11omniCodeSet9ID_CP1254E @2355 DATA
    _ZN4omni11omniCodeSet9ID_CP1255E @2356 DATA
    _ZN4omni11omniCodeSet9ID_CP1256E @2357 DATA
    _ZN4omni11omniCodeSet9ID_CP1257E @2358 DATA
    _ZN4omni11omniCodeSet9ID_CP1258E @2359 DATA
    _ZN4omni11omniCodeSet9ID_UTF_16E @2360 DATA
    _ZN4omni11omniORB_4_1E @2361 DATA
    _ZN4omni11ptrStrMatchEPKcS1_ @2362
    _ZN4omni11tcpEndpoint14notifyReadableEPNS_12SocketHolderE @2363
    _ZN4omni11tcpEndpoint16AcceptAndMonitorEPFvPvPNS_14giopConnectionEES1_ @2364
    _ZN4omni11tcpEndpoint4BindEv @2365
    _ZN4omni11tcpEndpoint4PokeEv @2366
    _ZN4omni11tcpEndpoint7publishERK32_CORBA_Unbounded_Sequence_StringbbRS1_ @2367
    _ZN4omni11tcpEndpoint8ShutdownEv @2368
    _ZN4omni11tcpEndpointC1ERKN4IIOP7AddressE @2369
    _ZN4omni11tcpEndpointC2ERKN4IIOP7AddressE @2370
    _ZN4omni11tcpEndpointD0Ev @2371
    _ZN4omni11tcpEndpointD1Ev @2372
    _ZN4omni11tcpEndpointD2Ev @2373
    _ZN4omni12IOP_C_HolderC1EPK7omniIORPKhmPNS_4RopeEP18omniCallDescriptor @2374
    _ZN4omni12IOP_C_HolderC2EPK7omniIORPKhmPNS_4RopeEP18omniCallDescriptor @2375
    _ZN4omni12IOP_C_HolderD1Ev @2376
    _ZN4omni12IOP_C_HolderD2Ev @2377
    _ZN4omni12IOP_C_HoldercvRNS_5IOP_CEEv @2378
    _ZN4omni12IOP_C_HolderptEv @2379
    _ZN4omni12NCS_W_UTF_1612marshalWCharER9cdrStreamPNS_11omniCodeSet5TCS_WEw @2380
    _ZN4omni12NCS_W_UTF_1614marshalWStringER9cdrStreamPNS_11omniCodeSet5TCS_WEmmPKw @2381
    _ZN4omni12NCS_W_UTF_1614unmarshalWCharER9cdrStreamPNS_11omniCodeSet5TCS_WE @2382
    _ZN4omni12NCS_W_UTF_1616unmarshalWStringER9cdrStreamPNS_11omniCodeSet5TCS_WEmRPw @2383
    _ZN4omni12NCS_W_UTF_16C1Ev @2384
    _ZN4omni12NCS_W_UTF_16D0Ev @2385
    _ZN4omni12NCS_W_UTF_16D1Ev @2386
    _ZN4omni12SocketHolder13setSelectableEibb @2387
    _ZN4omni12SocketHolder15clearSelectableEv @2388
    _ZN4omni12SocketHolder4PeekEv @2389
    _ZN4omni12SocketHolderC2Ej @2390
    _ZN4omni12SocketHolderD0Ev @2391
    _ZN4omni12SocketHolderD1Ev @2392
    _ZN4omni12SocketHolderD2Ev @2393
    _ZN4omni12TCS_W_UTF_1612marshalWCharER9cdrStreamw @2394
    _ZN4omni12TCS_W_UTF_1614marshalWStringER9cdrStreammmPKw @2395
    _ZN4omni12TCS_W_UTF_1614unmarshalWCharER9cdrStream @2396
    _ZN4omni12TCS_W_UTF_1616fastMarshalWCharER9cdrStreamPNS_11omniCodeSet5NCS_WEw @2397
    _ZN4omni12TCS_W_UTF_1616unmarshalWStringER9cdrStreammRPw @2398
    _ZN4omni12TCS_W_UTF_1618fastMarshalWStringER9cdrStreamPNS_11omniCodeSet5NCS_WEmmPKw @2399
    _ZN4omni12TCS_W_UTF_1618fastUnmarshalWCharER9cdrStreamPNS_11omniCodeSet5NCS_WERw @2400
    _ZN4omni12TCS_W_UTF_1620fastUnmarshalWStringER9cdrStreamPNS_11omniCodeSet5NCS_WEmRmRPw @2401
    _ZN4omni12TCS_W_UTF_16C1Ev @2402
    _ZN4omni12TCS_W_UTF_16D0Ev @2403
    _ZN4omni12TCS_W_UTF_16D1Ev @2404
    _ZN4omni12createObjRefEPKcP7omniIORbP12omniIdentity @2405
    _ZN4omni12giopEndpoint10no_publishEv @2406
    _ZN4omni12giopEndpoint12str2EndpointEPKc @2407
    _ZN4omni12giopEndpoint14set_no_publishEv @2408
    _ZN4omni12giopEndpoint18strIsValidEndpointEPKc @2409
    _ZN4omni12giopEndpoint8addToIOREPKc @2410
    _ZN4omni12giopEndpointC2Ev @2411
    _ZN4omni12giopEndpointD0Ev @2412
    _ZN4omni12giopEndpointD1Ev @2413
    _ZN4omni12giopEndpointD2Ev @2414
    _ZN4omni12internalLockE @2415 DATA
    _ZN4omni12mainThreadIdE @2416 DATA
    _ZN4omni12omniExHelper10INITIALIZEEPKcimN5CORBA16CompletionStatusE @2417
    _ZN4omni12omniExHelper10INTF_REPOSEPKcimN5CORBA16CompletionStatusE @2418
    _ZN4omni12omniExHelper10INV_OBJREFEPKcimN5CORBA16CompletionStatusE @2419
    _ZN4omni12omniExHelper10INV_POLICYEPKcimN5CORBA16CompletionStatusE @2420
    _ZN4omni12omniExHelper11BAD_CONTEXTEPKcimN5CORBA16CompletionStatusE @2421
    _ZN4omni12omniExHelper11NO_RESPONSEEPKcimN5CORBA16CompletionStatusE @2422
    _ZN4omni12omniExHelper11OBJ_ADAPTEREPKcimN5CORBA16CompletionStatusE @2423
    _ZN4omni12omniExHelper12BAD_TYPECODEEPKcimN5CORBA16CompletionStatusE @2424
    _ZN4omni12omniExHelper12COMM_FAILUREEPKcimN5CORBA16CompletionStatusE @2425
    _ZN4omni12omniExHelper12NO_IMPLEMENTEPKcimN5CORBA16CompletionStatusE @2426
    _ZN4omni12omniExHelper12NO_RESOURCESEPKcimN5CORBA16CompletionStatusE @2427
    _ZN4omni12omniExHelper13BAD_INV_ORDEREPKcimN5CORBA16CompletionStatusE @2428
    _ZN4omni12omniExHelper13BAD_OPERATIONEPKcimN5CORBA16CompletionStatusE @2429
    _ZN4omni12omniExHelper13NO_PERMISSIONEPKcimN5CORBA16CompletionStatusE @2430
    _ZN4omni12omniExHelper13PERSIST_STOREEPKcimN5CORBA16CompletionStatusE @2431
    _ZN4omni12omniExHelper15DATA_CONVERSIONEPKcimN5CORBA16CompletionStatusE @2432
    _ZN4omni12omniExHelper16OBJECT_NOT_EXISTEPKcimN5CORBA16CompletionStatusE @2433
    _ZN4omni12omniExHelper16TRANSACTION_MODEEPKcimN5CORBA16CompletionStatusE @2434
    _ZN4omni12omniExHelper19INVALID_TRANSACTIONEPKcimN5CORBA16CompletionStatusE @2435
    _ZN4omni12omniExHelper20CODESET_INCOMPATIBLEEPKcimN5CORBA16CompletionStatusE @2436
    _ZN4omni12omniExHelper20TRANSACTION_REQUIREDEPKcimN5CORBA16CompletionStatusE @2437
    _ZN4omni12omniExHelper22TRANSACTION_ROLLEDBACKEPKcimN5CORBA16CompletionStatusE @2438
    _ZN4omni12omniExHelper23TRANSACTION_UNAVAILABLEEPKcimN5CORBA16CompletionStatusE @2439
    _ZN4omni12omniExHelper5stripEPKc @2440
    _ZN4omni12omniExHelper6REBINDEPKcimN5CORBA16CompletionStatusE @2441
    _ZN4omni12omniExHelper7BAD_QOSEPKcimN5CORBA16CompletionStatusE @2442
    _ZN4omni12omniExHelper7MARSHALEPKcimN5CORBA16CompletionStatusE @2443
    _ZN4omni12omniExHelper7TIMEOUTEPKcimN5CORBA16CompletionStatusE @2444
    _ZN4omni12omniExHelper7UNKNOWNEPKcimN5CORBA16CompletionStatusE @2445
    _ZN4omni12omniExHelper8FREE_MEMEPKcimN5CORBA16CompletionStatusE @2446
    _ZN4omni12omniExHelper8INTERNALEPKcimN5CORBA16CompletionStatusE @2447
    _ZN4omni12omniExHelper8INV_FLAGEPKcimN5CORBA16CompletionStatusE @2448
    _ZN4omni12omniExHelper9BAD_PARAMEPKcimN5CORBA16CompletionStatusE @2449
    _ZN4omni12omniExHelper9IMP_LIMITEPKcimN5CORBA16CompletionStatusE @2450
    _ZN4omni12omniExHelper9INV_IDENTEPKcimN5CORBA16CompletionStatusE @2451
    _ZN4omni12omniExHelper9NO_MEMORYEPKcimN5CORBA16CompletionStatusE @2452
    _ZN4omni12omniExHelper9TRANSIENTEPKcimN5CORBA16CompletionStatusE @2453
    _ZN4omni13CS_UTF_8_initC1Ev @2454
    _ZN4omni13GIOP_S_HolderC1EPNS_10giopStrandEPNS_10giopWorkerE @2455
    _ZN4omni13GIOP_S_HolderC2EPNS_10giopStrandEPNS_10giopWorkerE @2456
    _ZN4omni13GIOP_S_HolderD1Ev @2457
    _ZN4omni13GIOP_S_HolderD2Ev @2458
    _ZN4omni13GIOP_S_HolderptEv @2459
    _ZN4omni13iorURIHandler13syntaxIsValidEPKc @2460
    _ZN4omni13iorURIHandler8supportsEPKc @2461
    _ZN4omni13iorURIHandler8toObjectEPKcj @2462
    _ZN4omni13iorURIHandlerC1Ev @2463
    _ZN4omni13iorURIHandlerD0Ev @2464
    _ZN4omni13iorURIHandlerD1Ev @2465
    _ZN4omni13max_alignmentE @2466 DATA
    _ZN4omni13myPrincipalIDE @2467 DATA
    _ZN4omni13orbParameters10strictIIOPE @2468 DATA
    _ZN4omni13orbParameters12persistentIdE @2469 DATA
    _ZN4omni13orbParameters13maxSocketRecvE @2470 DATA
    _ZN4omni13orbParameters13maxSocketSendE @2471 DATA
    _ZN4omni13orbParameters13tcAliasExpandE @2472 DATA
    _ZN4omni13orbParameters14anyCharCodeSetE @2473 DATA
    _ZN4omni13orbParameters14giopMaxMsgSizeE @2474 DATA
    _ZN4omni13orbParameters14maxGIOPVersionE @2475 DATA
    _ZN4omni13orbParameters14supportCurrentE @2476 DATA
    _ZN4omni13orbParameters15anyWCharCodeSetE @2477 DATA
    _ZN4omni13orbParameters15inConScanPeriodE @2478 DATA
    _ZN4omni13orbParameters15objectTableSizeE @2479 DATA
    _ZN4omni13orbParameters15scanGranularityE @2480 DATA
    _ZN4omni13orbParameters16outConScanPeriodE @2481 DATA
    _ZN4omni13orbParameters16socketSendBufferE @2482 DATA
    _ZN4omni13orbParameters17dumpConfigurationE @2483 DATA
    _ZN4omni13orbParameters17nativeCharCodeSetE @2484 DATA
    _ZN4omni13orbParameters18bootstrapAgentPortE @2485 DATA
    _ZN4omni13orbParameters18nativeWCharCodeSetE @2486 DATA
    _ZN4omni13orbParameters19immediateRopeSwitchE @2487 DATA
    _ZN4omni13orbParameters20abortOnInternalErrorE @2488 DATA
    _ZN4omni13orbParameters20oneCallPerConnectionE @2489 DATA
    _ZN4omni13orbParameters21giopTargetAddressModeE @2490 DATA
    _ZN4omni13orbParameters21poaHoldRequestTimeoutE @2491 DATA
    _ZN4omni13orbParameters21resetTimeOutOnRetriesE @2492 DATA
    _ZN4omni13orbParameters21supportBootstrapAgentE @2493 DATA
    _ZN4omni13orbParameters22bootstrapAgentHostnameE @2494 DATA
    _ZN4omni13orbParameters22copyValuesInLocalCallsE @2495 DATA
    _ZN4omni13orbParameters22diiThrowsSysExceptionsE @2496 DATA
    _ZN4omni13orbParameters22offerBiDirectionalGIOPE @2497 DATA
    _ZN4omni13orbParameters22unixTransportDirectoryE @2498 DATA
    _ZN4omni13orbParameters23acceptBiDirectionalGIOPE @2499 DATA
    _ZN4omni13orbParameters23clientCallTimeOutPeriodE @2500 DATA
    _ZN4omni13orbParameters23maxServerThreadPoolSizeE @2501 DATA
    _ZN4omni13orbParameters23serverCallTimeOutPeriodE @2502 DATA
    _ZN4omni13orbParameters23supportPerThreadTimeOutE @2503 DATA
    _ZN4omni13orbParameters23unixTransportPermissionE @2504 DATA
    _ZN4omni13orbParameters23useTypeCodeIndirectionsE @2505 DATA
    _ZN4omni13orbParameters24connectionWatchImmediateE @2506 DATA
    _ZN4omni13orbParameters25threadPerConnectionPolicyE @2507 DATA
    _ZN4omni13orbParameters25threadPoolWatchConnectionE @2508 DATA
    _ZN4omni13orbParameters25verifyObjectExistsAndTypeE @2509 DATA
    _ZN4omni13orbParameters26clientConnectTimeOutPeriodE @2510 DATA
    _ZN4omni13orbParameters26maxGIOPConnectionPerServerE @2511 DATA
    _ZN4omni13orbParameters28maxServerThreadPerConnectionE @2512 DATA
    _ZN4omni13orbParameters29threadPerConnectionLowerLimitE @2513 DATA
    _ZN4omni13orbParameters29threadPerConnectionUpperLimitE @2514 DATA
    _ZN4omni13orbParameters30acceptMisalignedTcIndirectionsE @2515 DATA
    _ZN4omni13orbParameters32maxInterleavedCallsPerConnectionE @2516 DATA
    _ZN4omni13orbParameters7lcdModeE @2517 DATA
    _ZN4omni13releaseObjRefEP10omniObjRef @2518
    _ZN4omni13serviceRecordC1Ev @2519
    _ZN4omni13serviceRecordD1Ev @2520
    _ZN4omni13serviceRecordaSERKS0_ @2521
    _ZN4omni13tcpConnection10addrToPortEP8sockaddr @2522
    _ZN4omni13tcpConnection11peeraddressEv @2523
    _ZN4omni13tcpConnection12addrToStringEP8sockaddr @2524
    _ZN4omni13tcpConnection12isSelectableEv @2525
    _ZN4omni13tcpConnection13setSelectableEib @2526
    _ZN4omni13tcpConnection15clearSelectableEv @2527
    _ZN4omni13tcpConnection4PeekEv @2528
    _ZN4omni13tcpConnection4RecvEPvjmm @2529
    _ZN4omni13tcpConnection4SendEPvjmm @2530
    _ZN4omni13tcpConnection8ShutdownEv @2531
    _ZN4omni13tcpConnection9addrToURIEP8sockaddrPKc @2532
    _ZN4omni13tcpConnection9myaddressEv @2533
    _ZN4omni13tcpConnectionC1EjPNS_16SocketCollectionE @2534
    _ZN4omni13tcpConnectionC2EjPNS_16SocketCollectionE @2535
    _ZN4omni13tcpConnectionD0Ev @2536
    _ZN4omni13tcpConnectionD1Ev @2537
    _ZN4omni13tcpConnectionD2Ev @2538
    _ZN4omni14CS_8859_1_initC1Ev @2539
    _ZN4omni14CS_UTF_16_initC1Ev @2540
    _ZN4omni14InitRefHandler10dumpRecordERNS_13serviceRecordERNS_10orbOptions14sequenceStringE @2541
    _ZN4omni14InitRefHandler4dumpERNS_10orbOptions14sequenceStringE @2542
    _ZN4omni14InitRefHandler5visitEPKcNS_10orbOptions6SourceE @2543
    _ZN4omni14InitRefHandlerC1Ev @2544
    _ZN4omni14InitRefHandlerD0Ev @2545
    _ZN4omni14InitRefHandlerD1Ev @2546
    _ZN4omni14createIdentityEP7omniIORPKcb @2547
    _ZN4omni14giopConnection12decrRefCountEb @2548
    _ZN4omni14giopConnection12incrRefCountEv @2549
    _ZN4omni14giopConnection12peeridentityEv @2550
    _ZN4omni14giopConnectionC2Ev @2551
    _ZN4omni14giopConnectionD0Ev @2552
    _ZN4omni14giopConnectionD1Ev @2553
    _ZN4omni14giopConnectionD2Ev @2554
    _ZN4omni14giopStreamImpl10maxVersionEv @2555
    _ZN4omni14giopStreamImpl12matchVersionERKN4GIOP7VersionE @2556
    _ZN4omni14giopStreamImpl12registerImplEPS0_ @2557
    _ZN4omni14giopStreamImpl7versionEv @2558
    _ZN4omni14giopStreamImplC1ERKN4GIOP7VersionE @2559
    _ZN4omni14giopStreamImplC2ERKN4GIOP7VersionE @2560
    _ZN4omni14giopStreamImplD1Ev @2561
    _ZN4omni14giopStreamImplD2Ev @2562
    _ZN4omni14giopStreamList6insertERS0_ @2563
    _ZN4omni14giopStreamList6removeEv @2564
    _ZN4omni14giopStreamList8is_emptyERS0_ @2565
    _ZN4omni14giopStreamListC1Ev @2566
    _ZN4omni14giopStreamListC2Ev @2567
    _ZN4omni14giopWorkerInfo3runEv @2568
    _ZN4omni14giopWorkerInfoC1EPNS_10giopWorkerE @2569
    _ZN4omni14lcdModeHandler4dumpERNS_10orbOptions14sequenceStringE @2570
    _ZN4omni14lcdModeHandler5visitEPKcNS_10orbOptions6SourceE @2571
    _ZN4omni14lcdModeHandlerC1Ev @2572
    _ZN4omni14lcdModeHandlerD0Ev @2573
    _ZN4omni14lcdModeHandlerD1Ev @2574
    _ZN4omni14objref_rc_lockE @2575 DATA
    _ZN4omni14omniAnonObjRef12_ptrToObjRefEPKc @2576
    _ZN4omni14omniAnonObjRefC1EP7omniIORP12omniIdentity @2577
    _ZN4omni14omniAnonObjRefD0Ev @2578
    _ZN4omni14omniAnonObjRefD1Ev @2579
    _ZN4omni14omniAnonObjRefD2Ev @2580
    _ZN4omni14omniDynamicLib3opsE @2581 DATA
    _ZN4omni14omniDynamicLib4hookE @2582 DATA
    _ZN4omni14omniObjAdapter10getAdapterEPKhi @2583
    _ZN4omni14omniObjAdapter10initialiseEv @2584
    _ZN4omni14omniObjAdapter11_ptrToClassEPi @2585
    _ZN4omni14omniObjAdapter11exitAdapterEii @2586
    _ZN4omni14omniObjAdapter12enterAdapterEv @2587
    _ZN4omni14omniObjAdapter12leaveAdapterEv @2588
    _ZN4omni14omniObjAdapter12startRequestEv @2589
    _ZN4omni14omniObjAdapter13adapterActiveEv @2590
    _ZN4omni14omniObjAdapter13isInitialisedEv @2591
    _ZN4omni14omniObjAdapter14endpointInListEPKcRK32_CORBA_Unbounded_Sequence_String @2592
    _ZN4omni14omniObjAdapter14isDeactivatingEv @2593
    _ZN4omni14omniObjAdapter15adapterInactiveEv @2594
    _ZN4omni14omniObjAdapter15detached_objectEv @2595
    _ZN4omni14omniObjAdapter15listMyEndpointsEv @2596
    _ZN4omni14omniObjAdapter16adapterDestroyedEv @2597
    _ZN4omni14omniObjAdapter16matchMyEndpointsEPKc @2598
    _ZN4omni14omniObjAdapter19met_detached_objectEv @2599
    _ZN4omni14omniObjAdapter21sd_detachedObjectLockE @2600 DATA
    _ZN4omni14omniObjAdapter23sd_detachedObjectSignalE @2601 DATA
    _ZN4omni14omniObjAdapter25wait_for_detached_objectsEv @2602
    _ZN4omni14omniObjAdapter28waitForAllRequestsToCompleteEi @2603
    _ZN4omni14omniObjAdapter31waitForActiveRequestsToCompleteEi @2604
    _ZN4omni14omniObjAdapter7Options11EndpointURIC1Ev @2605
    _ZN4omni14omniObjAdapter7Options11EndpointURID1Ev @2606
    _ZN4omni14omniObjAdapter7OptionsC1Ev @2607
    _ZN4omni14omniObjAdapter7OptionsD1Ev @2608
    _ZN4omni14omniObjAdapter7OptionsD2Ev @2609
    _ZN4omni14omniObjAdapter7optionsE @2610 DATA
    _ZN4omni14omniObjAdapter8_classidE @2611 DATA
    _ZN4omni14omniObjAdapter8shutdownEv @2612
    _ZN4omni14omniObjAdapterC1Ei @2613
    _ZN4omni14omniObjAdapterC2Ei @2614
    _ZN4omni14omniObjAdapterD0Ev @2615
    _ZN4omni14omniObjAdapterD1Ev @2616
    _ZN4omni14omniObjAdapterD2Ev @2617
    _ZN4omni14transportRules11addRuleTypeEPNS0_8RuleTypeE @2618
    _ZN4omni14transportRules11clientRulesEv @2619
    _ZN4omni14transportRules11serverRulesEv @2620
    _ZN4omni14transportRules14RuleActionPairC1EPNS0_4RuleERNS0_14sequenceStringE @2621
    _ZN4omni14transportRules14RuleActionPairD1Ev @2622
    _ZN4omni14transportRules14sequenceStringC1Em @2623
    _ZN4omni14transportRules14sequenceStringC1Ev @2624
    _ZN4omni14transportRules14sequenceStringD1Ev @2625
    _ZN4omni14transportRules4Rule11addressMaskEv @2626
    _ZN4omni14transportRules4RuleC2EPKc @2627
    _ZN4omni14transportRules4RuleD0Ev @2628
    _ZN4omni14transportRules4RuleD1Ev @2629
    _ZN4omni14transportRules4RuleD2Ev @2630
    _ZN4omni14transportRules5matchEPKcRNS0_14sequenceStringERm @2631
    _ZN4omni14transportRules5resetEv @2632
    _ZN4omni14transportRules8RuleTypeC2Ev @2633
    _ZN4omni14transportRules8RuleTypeD0Ev @2634
    _ZN4omni14transportRules8RuleTypeD1Ev @2635
    _ZN4omni14transportRules8RuleTypeD2Ev @2636
    _ZN4omni14transportRules8dumpRuleEm @2637
    _ZN4omni14transportRulesC1Ev @2638
    _ZN4omni14transportRulesC2Ev @2639
    _ZN4omni14transportRulesD1Ev @2640
    _ZN4omni14transportRulesD2Ev @2641
    _ZN4omni15BiDirClientRope13acquireClientEPK7omniIORPKhmP18omniCallDescriptor @2642
    _ZN4omni15BiDirClientRopeC1ERK10omnivectorIPNS_11giopAddressEERKS1_ImE @2643
    _ZN4omni15BiDirClientRopeC2ERK10omnivectorIPNS_11giopAddressEERKS1_ImE @2644
    _ZN4omni15BiDirClientRopeD0Ev @2645
    _ZN4omni15BiDirClientRopeD1Ev @2646
    _ZN4omni15BiDirServerRope10selectRopeERK10omnivectorIPNS_11giopAddressEEPN7omniIOR7IORInfoERPNS_4RopeE @2647
    _ZN4omni15BiDirServerRope12decrRefCountEv @2648
    _ZN4omni15BiDirServerRope13acquireClientEPK7omniIORPKhmP18omniCallDescriptor @2649
    _ZN4omni15BiDirServerRope16realIncrRefCountEv @2650
    _ZN4omni15BiDirServerRope5ropesE @2651 DATA
    _ZN4omni15BiDirServerRope7addRopeEPNS_10giopStrandERK10omnivectorIPNS_11giopAddressEE @2652
    _ZN4omni15BiDirServerRopeC1EPNS_10giopStrandEPNS_11giopAddressE @2653
    _ZN4omni15BiDirServerRopeC2EPNS_10giopStrandEPNS_11giopAddressE @2654
    _ZN4omni15BiDirServerRopeD0Ev @2655
    _ZN4omni15BiDirServerRopeD1Ev @2656
    _ZN4omni15BiDirServerRopeD2Ev @2657
    _ZN4omni15ORBAsyncInvoker12work_pendingEv @2658
    _ZN4omni15ORBAsyncInvoker16cancel_dedicatedEP8omniTask @2659
    _ZN4omni15ORBAsyncInvoker16insert_dedicatedEP8omniTask @2660
    _ZN4omni15ORBAsyncInvoker7performEmm @2661
    _ZN4omni15ORBAsyncInvokerC1Ej @2662
    _ZN4omni15ORBAsyncInvokerD0Ev @2663
    _ZN4omni15ORBAsyncInvokerD1Ev @2664
    _ZN4omni15ORBAsyncInvokerD2Ev @2665
    _ZN4omni15builtinIPv4Rule5matchEPKc @2666
    _ZN4omni15builtinIPv4RuleC1EPKcmm @2667
    _ZN4omni15builtinIPv4RuleD0Ev @2668
    _ZN4omni15builtinIPv4RuleD1Ev @2669
    _ZN4omni15builtinRuleType10createRuleEPKc @2670
    _ZN4omni15builtinRuleType20parseIPv4AddressMaskEPKcRmS3_ @2671
    _ZN4omni15builtinRuleTypeC1Ev @2672
    _ZN4omni15builtinRuleTypeD0Ev @2673
    _ZN4omni15builtinRuleTypeD1Ev @2674
    _ZN4omni15duplicateObjRefEP10omniObjRef @2675
    _ZN4omni15endpointHandler4dumpERNS_10orbOptions14sequenceStringE @2676
    _ZN4omni15endpointHandler5visitEPKcNS_10orbOptions6SourceE @2677
    _ZN4omni15endpointHandlerC1Ev @2678
    _ZN4omni15endpointHandlerD0Ev @2679
    _ZN4omni15endpointHandlerD1Ev @2680
    _ZN4omni15locationForwardEP10omniObjRefS1_b @2681
    _ZN4omni15omniCodeSetUtil5freeCEPc @2682
    _ZN4omni15omniCodeSetUtil5freeUEPw @2683
    _ZN4omni15omniCodeSetUtil5freeWEPw @2684
    _ZN4omni15omniCodeSetUtil6GIOP10E @2685 DATA
    _ZN4omni15omniCodeSetUtil6GIOP11E @2686 DATA
    _ZN4omni15omniCodeSetUtil6GIOP12E @2687 DATA
    _ZN4omni15omniCodeSetUtil6allocCEm @2688
    _ZN4omni15omniCodeSetUtil6allocUEm @2689
    _ZN4omni15omniCodeSetUtil6allocWEm @2690
    _ZN4omni15omniCodeSetUtil7BufferC6bufferEv @2691
    _ZN4omni15omniCodeSetUtil7BufferC6insertEh @2692
    _ZN4omni15omniCodeSetUtil7BufferC6lengthEv @2693
    _ZN4omni15omniCodeSetUtil7BufferC7extractEv @2694
    _ZN4omni15omniCodeSetUtil7BufferCC1Em @2695
    _ZN4omni15omniCodeSetUtil7BufferCD1Ev @2696
    _ZN4omni15omniCodeSetUtil7BufferU6bufferEv @2697
    _ZN4omni15omniCodeSetUtil7BufferU6insertEw @2698
    _ZN4omni15omniCodeSetUtil7BufferU6lengthEv @2699
    _ZN4omni15omniCodeSetUtil7BufferU7extractEv @2700
    _ZN4omni15omniCodeSetUtil7BufferUC1Em @2701
    _ZN4omni15omniCodeSetUtil7BufferUD1Ev @2702
    _ZN4omni15omniCodeSetUtil7HolderC4dropEv @2703
    _ZN4omni15omniCodeSetUtil7HolderCC1EPc @2704
    _ZN4omni15omniCodeSetUtil7HolderCD1Ev @2705
    _ZN4omni15omniCodeSetUtil7HolderU4dropEv @2706
    _ZN4omni15omniCodeSetUtil7HolderUC1EPw @2707
    _ZN4omni15omniCodeSetUtil7HolderUD1Ev @2708
    _ZN4omni15omniCodeSetUtil7HolderW4dropEv @2709
    _ZN4omni15omniCodeSetUtil7HolderWC1EPw @2710
    _ZN4omni15omniCodeSetUtil7HolderWD1Ev @2711
    _ZN4omni15omniCodeSetUtil8reallocCEPcmm @2712
    _ZN4omni15omniCodeSetUtil8reallocUEPwmm @2713
    _ZN4omni15omniInitialiser7installEPS0_ @2714
    _ZN4omni15omniInitialiserC2Ev @2715
    _ZN4omni15orbAsyncInvokerE @2716 DATA
    _ZN4omni16SocketCollection10idle_scansE @2717 DATA
    _ZN4omni16SocketCollection12decrRefCountEv @2718
    _ZN4omni16SocketCollection12incrRefCountEv @2719
    _ZN4omni16SocketCollection12isSelectableEj @2720
    _ZN4omni16SocketCollection12removeSocketEPNS_12SocketHolderE @2721
    _ZN4omni16SocketCollection17scan_interval_secE @2722 DATA
    _ZN4omni16SocketCollection18scan_interval_nsecE @2723 DATA
    _ZN4omni16SocketCollection6SelectEv @2724
    _ZN4omni16SocketCollection6wakeUpEv @2725
    _ZN4omni16SocketCollection9addSocketEPNS_12SocketHolderE @2726
    _ZN4omni16SocketCollectionC1Ev @2727
    _ZN4omni16SocketCollectionC2Ev @2728
    _ZN4omni16SocketCollectionD0Ev @2729
    _ZN4omni16SocketCollectionD1Ev @2730
    _ZN4omni16SocketCollectionD2Ev @2731
    _ZN4omni16SocketSetTimeOutEmmR7timeval @2732
    _ZN4omni16giopRendezvouser14notifyReadableEPvPNS_14giopConnectionE @2733
    _ZN4omni16giopRendezvouser7executeEv @2734
    _ZN4omni16giopRendezvouser9terminateEv @2735
    _ZN4omni16giopRendezvouserC1EPNS_12giopEndpointEPNS_10giopServerEb @2736
    _ZN4omni16giopRendezvouserD0Ev @2737
    _ZN4omni16giopRendezvouserD1Ev @2738
    _ZN4omni16minorCode2StringEPKNS_15minorCodeLookupEm @2739
    _ZN4omni16omniInterceptorP12createPolicyE @2740 DATA
    _ZN4omni16omniInterceptorP12createThreadE @2741 DATA
    _ZN4omni16omniInterceptorP14createIdentityE @2742 DATA
    _ZN4omni16omniInterceptorP15createORBServerE @2743 DATA
    _ZN4omni16omniInterceptorP15serverSendReplyE @2744 DATA
    _ZN4omni16omniInterceptorP17clientSendRequestE @2745 DATA
    _ZN4omni16omniInterceptorP18assignUpcallThreadE @2746 DATA
    _ZN4omni16omniInterceptorP18clientReceiveReplyE @2747 DATA
    _ZN4omni16omniInterceptorP19serverSendExceptionE @2748 DATA
    _ZN4omni16omniInterceptorP20serverReceiveRequestE @2749 DATA
    _ZN4omni16omniInterceptorP5visitERNS_16omniInterceptors11decodeIOR_T6info_TE @2750
    _ZN4omni16omniInterceptorP5visitERNS_16omniInterceptors11encodeIOR_T6info_TE @2751
    _ZN4omni16omniInterceptorP5visitERNS_16omniInterceptors16createIdentity_T6info_TE @2752
    _ZN4omni16omniInterceptorP5visitERNS_16omniInterceptors17createORBServer_T6info_TE @2753
    _ZN4omni16omniInterceptorP5visitERNS_16omniInterceptors17serverSendReply_T6info_TE @2754
    _ZN4omni16omniInterceptorP5visitERNS_16omniInterceptors19clientSendRequest_T6info_TE @2755
    _ZN4omni16omniInterceptorP5visitERNS_16omniInterceptors20clientReceiveReply_T6info_TE @2756
    _ZN4omni16omniInterceptorP5visitERNS_16omniInterceptors21serverSendException_T6info_TE @2757
    _ZN4omni16omniInterceptorP5visitERNS_16omniInterceptors22serverReceiveRequest_T6info_TE @2758
    _ZN4omni16omniInterceptorP9decodeIORE @2759 DATA
    _ZN4omni16omniInterceptorP9encodeIORE @2760 DATA
    _ZN4omni16omniInterceptors11decodeIOR_T3addEPFbRNS1_6info_TEE @2761
    _ZN4omni16omniInterceptors11decodeIOR_T6info_TC1ERKN4IIOP11ProfileBodyER7omniIORb @2762
    _ZN4omni16omniInterceptors11decodeIOR_T6removeEPFbRNS1_6info_TEE @2763
    _ZN4omni16omniInterceptors11encodeIOR_T3addEPFbRNS1_6info_TEE @2764
    _ZN4omni16omniInterceptors11encodeIOR_T6info_TC1ER7omniIORRN4IIOP11ProfileBodyERK12omniIORHintsb @2765
    _ZN4omni16omniInterceptors11encodeIOR_T6removeEPFbRNS1_6info_TEE @2766
    _ZN4omni16omniInterceptors14createPolicy_T3addEPFbRNS1_6info_TEE @2767
    _ZN4omni16omniInterceptors14createPolicy_T6removeEPFbRNS1_6info_TEE @2768
    _ZN4omni16omniInterceptors14createThread_T3addEPFvRNS1_6info_TEE @2769
    _ZN4omni16omniInterceptors14createThread_T6info_TC2Ev @2770
    _ZN4omni16omniInterceptors14createThread_T6removeEPFvRNS1_6info_TEE @2771
    _ZN4omni16omniInterceptors16createIdentity_T3addEPFbRNS1_6info_TEE @2772
    _ZN4omni16omniInterceptors16createIdentity_T6info_TC1EP7omniIORPKcRP12omniIdentityb @2773
    _ZN4omni16omniInterceptors16createIdentity_T6removeEPFbRNS1_6info_TEE @2774
    _ZN4omni16omniInterceptors17createORBServer_T3addEPFbRNS1_6info_TEE @2775
    _ZN4omni16omniInterceptors17createORBServer_T6info_TC1ER10omnivectorIPNS_9orbServerEE @2776
    _ZN4omni16omniInterceptors17createORBServer_T6removeEPFbRNS1_6info_TEE @2777
    _ZN4omni16omniInterceptors17serverSendReply_T3addEPFbRNS1_6info_TEE @2778
    _ZN4omni16omniInterceptors17serverSendReply_T6info_TC1ERNS_6GIOP_SE @2779
    _ZN4omni16omniInterceptors17serverSendReply_T6removeEPFbRNS1_6info_TEE @2780
    _ZN4omni16omniInterceptors19clientSendRequest_T3addEPFbRNS1_6info_TEE @2781
    _ZN4omni16omniInterceptors19clientSendRequest_T6info_TC1ERNS_6GIOP_CE @2782
    _ZN4omni16omniInterceptors19clientSendRequest_T6info_TD1Ev @2783
    _ZN4omni16omniInterceptors19clientSendRequest_T6removeEPFbRNS1_6info_TEE @2784
    _ZN4omni16omniInterceptors20assignUpcallThread_T3addEPFvRNS1_6info_TEE @2785
    _ZN4omni16omniInterceptors20assignUpcallThread_T6info_TC2Ev @2786
    _ZN4omni16omniInterceptors20assignUpcallThread_T6removeEPFvRNS1_6info_TEE @2787
    _ZN4omni16omniInterceptors20clientReceiveReply_T3addEPFbRNS1_6info_TEE @2788
    _ZN4omni16omniInterceptors20clientReceiveReply_T6info_TC1ERNS_6GIOP_CER25_CORBA_Unbounded_SequenceIN3IOP14ServiceContextEE @2789
    _ZN4omni16omniInterceptors20clientReceiveReply_T6removeEPFbRNS1_6info_TEE @2790
    _ZN4omni16omniInterceptors21serverSendException_T3addEPFbRNS1_6info_TEE @2791
    _ZN4omni16omniInterceptors21serverSendException_T6info_TC1ERNS_6GIOP_SEPKN5CORBA9ExceptionE @2792
    _ZN4omni16omniInterceptors21serverSendException_T6removeEPFbRNS1_6info_TEE @2793
    _ZN4omni16omniInterceptors22serverReceiveRequest_T3addEPFbRNS1_6info_TEE @2794
    _ZN4omni16omniInterceptors22serverReceiveRequest_T6info_TC1ERNS_6GIOP_SE @2795
    _ZN4omni16omniInterceptors22serverReceiveRequest_T6removeEPFbRNS1_6info_TEE @2796
    _ZN4omni16omniInterceptorsC1Ev @2797
    _ZN4omni16omniInterceptorsC2Ev @2798
    _ZN4omni16omniInterceptorsD1Ev @2799
    _ZN4omni16omniInterceptorsD2Ev @2800
    _ZN4omni16principalHandler4dumpERNS_10orbOptions14sequenceStringE @2801
    _ZN4omni16principalHandler5visitEPKcNS_10orbOptions6SourceE @2802
    _ZN4omni16principalHandlerC1Ev @2803
    _ZN4omni16principalHandlerD0Ev @2804
    _ZN4omni16principalHandlerD1Ev @2805
    _ZN4omni16tcpTransportImpl10initialiseEv @2806
    _ZN4omni16tcpTransportImpl10toEndpointEPKc @2807
    _ZN4omni16tcpTransportImpl12parseAddressEPKcRN4IIOP7AddressE @2808
    _ZN4omni16tcpTransportImpl19getInterfaceAddressEv @2809
    _ZN4omni16tcpTransportImpl7isValidEPKc @2810
    _ZN4omni16tcpTransportImpl8addToIOREPKc @2811
    _ZN4omni16tcpTransportImpl9toAddressEPKc @2812
    _ZN4omni16tcpTransportImplC1Ev @2813
    _ZN4omni16tcpTransportImplC2Ev @2814
    _ZN4omni16tcpTransportImplD0Ev @2815
    _ZN4omni16tcpTransportImplD1Ev @2816
    _ZN4omni16tcpTransportImplD2Ev @2817
    _ZN4omni17SocketSetblockingEj @2818
    _ZN4omni17configFileHandler4dumpERNS_10orbOptions14sequenceStringE @2819
    _ZN4omni17configFileHandler5visitEPKcNS_10orbOptions6SourceE @2820
    _ZN4omni17configFileHandlerC1Ev @2821
    _ZN4omni17configFileHandlerD0Ev @2822
    _ZN4omni17configFileHandlerD1Ev @2823
    _ZN4omni17createLocalObjRefEPKcS1_P17omniObjTableEntryRK12omniIORHints @2824
    _ZN4omni17createLocalObjRefEPKcS1_PKhiRK12omniIORHints @2825
    _ZN4omni17giopStream_Buffer10alignStartENS_11alignment_tE @2826
    _ZN4omni17giopStream_Buffer12deleteBufferEPS0_ @2827
    _ZN4omni17giopStream_Buffer9newBufferEm @2828
    _ZN4omni17giopTransportImpl10initialiseEv @2829
    _ZN4omni17giopTransportImpl13str2TransportEPKc @2830
    _ZN4omni17giopTransportImpl19getInterfaceAddressEPKc @2831
    _ZN4omni17giopTransportImplC1EPKc @2832
    _ZN4omni17giopTransportImplC2EPKc @2833
    _ZN4omni17giopTransportImplD0Ev @2834
    _ZN4omni17giopTransportImplD1Ev @2835
    _ZN4omni17giopTransportImplD2Ev @2836
    _ZN4omni17omniOrbPOACurrent10theCurrentEv @2837
    _ZN4omni17omniOrbPOACurrent11get_servantEv @2838
    _ZN4omni17omniOrbPOACurrent12_ptrToObjRefEPKc @2839
    _ZN4omni17omniOrbPOACurrent13get_object_idEv @2840
    _ZN4omni17omniOrbPOACurrent13get_referenceEv @2841
    _ZN4omni17omniOrbPOACurrent16_NP_decrRefCountEv @2842
    _ZN4omni17omniOrbPOACurrent16_NP_incrRefCountEv @2843
    _ZN4omni17omniOrbPOACurrent16real_get_servantEP18omniCallDescriptor @2844
    _ZN4omni17omniOrbPOACurrent18real_get_referenceEP18omniCallDescriptor @2845
    _ZN4omni17omniOrbPOACurrent7get_POAEv @2846
    _ZN4omni17omniOrbPOACurrentC1Eb @2847
    _ZN4omni17omniOrbPOACurrentD0Ev @2848
    _ZN4omni17omniOrbPOACurrentD1Ev @2849
    _ZN4omni17omniOrbPOACurrentD2Ev @2850
    _ZN4omni17omniOrbPOAManager10deactivateEbb @2851
    _ZN4omni17omniOrbPOAManager12_ptrToObjRefEPKc @2852
    _ZN4omni17omniOrbPOAManager13hold_requestsEb @2853
    _ZN4omni17omniOrbPOAManager16_NP_decrRefCountEv @2854
    _ZN4omni17omniOrbPOAManager16_NP_incrRefCountEv @2855
    _ZN4omni17omniOrbPOAManager16discard_requestsEb @2856
    _ZN4omni17omniOrbPOAManager8activateEv @2857
    _ZN4omni17omniOrbPOAManager8gain_poaEPNS_10omniOrbPOAE @2858
    _ZN4omni17omniOrbPOAManager8lose_poaEPNS_10omniOrbPOAE @2859
    _ZN4omni17omniOrbPOAManager9get_stateEv @2860
    _ZN4omni17omniOrbPOAManagerC1Ei @2861
    _ZN4omni17omniOrbPOAManagerD0Ev @2862
    _ZN4omni17omniOrbPOAManagerD1Ev @2863
    _ZN4omni17omniOrbPOAManagerD2Ev @2864
    _ZN4omni17omniTransportLockE @2865 DATA
    _ZN4omni17strictIIOPHandler4dumpERNS_10orbOptions14sequenceStringE @2866
    _ZN4omni17strictIIOPHandler5visitEPKcNS_10orbOptions6SourceE @2867
    _ZN4omni17strictIIOPHandlerC1Ev @2868
    _ZN4omni17strictIIOPHandlerD0Ev @2869
    _ZN4omni17strictIIOPHandlerD1Ev @2870
    _ZN4omni18REBIND_LookupTableE @2871 DATA
    _ZN4omni18corbalocURIHandler10RirObjAddr4kindEv @2872
    _ZN4omni18corbalocURIHandler10RirObjAddrC1ERPKc @2873
    _ZN4omni18corbalocURIHandler10RirObjAddrD0Ev @2874
    _ZN4omni18corbalocURIHandler10RirObjAddrD1Ev @2875
    _ZN4omni18corbalocURIHandler11IiopObjAddr4hostEv @2876
    _ZN4omni18corbalocURIHandler11IiopObjAddr4kindEv @2877
    _ZN4omni18corbalocURIHandler11IiopObjAddr4portEv @2878
    _ZN4omni18corbalocURIHandler11IiopObjAddr6majverEv @2879
    _ZN4omni18corbalocURIHandler11IiopObjAddr6minverEv @2880
    _ZN4omni18corbalocURIHandler11IiopObjAddrC1ERPKc @2881
    _ZN4omni18corbalocURIHandler11IiopObjAddrC2ERPKc @2882
    _ZN4omni18corbalocURIHandler11IiopObjAddrD0Ev @2883
    _ZN4omni18corbalocURIHandler11IiopObjAddrD1Ev @2884
    _ZN4omni18corbalocURIHandler11IiopObjAddrD2Ev @2885
    _ZN4omni18corbalocURIHandler11ObjAddrList6appendEPNS0_7ObjAddrE @2886
    _ZN4omni18corbalocURIHandler11ObjAddrListC1Ev @2887
    _ZN4omni18corbalocURIHandler11ObjAddrListD1Ev @2888
    _ZN4omni18corbalocURIHandler11UiopObjAddr4kindEv @2889
    _ZN4omni18corbalocURIHandler11UiopObjAddr8filenameEv @2890
    _ZN4omni18corbalocURIHandler11UiopObjAddrC1ERPKc @2891
    _ZN4omni18corbalocURIHandler11UiopObjAddrC2ERPKc @2892
    _ZN4omni18corbalocURIHandler11UiopObjAddrD0Ev @2893
    _ZN4omni18corbalocURIHandler11UiopObjAddrD1Ev @2894
    _ZN4omni18corbalocURIHandler11locToObjectERPKcjS2_ @2895
    _ZN4omni18corbalocURIHandler13SsliopObjAddr4kindEv @2896
    _ZN4omni18corbalocURIHandler13SsliopObjAddrC1ERPKc @2897
    _ZN4omni18corbalocURIHandler13SsliopObjAddrD0Ev @2898
    _ZN4omni18corbalocURIHandler13SsliopObjAddrD1Ev @2899
    _ZN4omni18corbalocURIHandler13syntaxIsValidEPKc @2900
    _ZN4omni18corbalocURIHandler6ParsedC1ERPKcS3_ @2901
    _ZN4omni18corbalocURIHandler6ParsedC2ERPKcS3_ @2902
    _ZN4omni18corbalocURIHandler6ParsedD1Ev @2903
    _ZN4omni18corbalocURIHandler7ObjAddr5parseERPKc @2904
    _ZN4omni18corbalocURIHandler7ObjAddrC2Ev @2905
    _ZN4omni18corbalocURIHandler7ObjAddrD0Ev @2906
    _ZN4omni18corbalocURIHandler7ObjAddrD1Ev @2907
    _ZN4omni18corbalocURIHandler7ObjAddrD2Ev @2908
    _ZN4omni18corbalocURIHandler8supportsEPKc @2909
    _ZN4omni18corbalocURIHandler8toObjectEPKcj @2910
    _ZN4omni18corbalocURIHandlerC1Ev @2911
    _ZN4omni18corbalocURIHandlerD0Ev @2912
    _ZN4omni18corbalocURIHandlerD1Ev @2913
    _ZN4omni18omniAnonObjRef_pof9newObjRefEP7omniIORP12omniIdentity @2914
    _ZN4omni18omniAnonObjRef_pofC1Ev @2915
    _ZN4omni18omniAnonObjRef_pofD0Ev @2916
    _ZN4omni18omniAnonObjRef_pofD1Ev @2917
    _ZN4omni18omniAnonObjRef_pofD2Ev @2918
    _ZN4omni18omniObjAdapter_varC1EPNS_14omniObjAdapterE @2919
    _ZN4omni18omniObjAdapter_varD1Ev @2920
    _ZN4omni18omniObjAdapter_varcvPNS_14omniObjAdapterEEv @2921
    _ZN4omni18omniObjAdapter_varptEv @2922
    _ZN4omni18omni_is_a_CallDesc16marshalArgumentsER9cdrStream @2923
    _ZN4omni18omni_is_a_CallDesc18unmarshalArgumentsER9cdrStream @2924
    _ZN4omni18omni_is_a_CallDesc21marshalReturnedValuesER9cdrStream @2925
    _ZN4omni18omni_is_a_CallDesc23unmarshalReturnedValuesER9cdrStream @2926
    _ZN4omni18omni_is_a_CallDesc4lcfnEP18omniCallDescriptorP11omniServant @2927
    _ZN4omni18omni_is_a_CallDescC1EPKciS2_b @2928
    _ZN4omni18omni_is_a_CallDescD0Ev @2929
    _ZN4omni18omni_is_a_CallDescD1Ev @2930
    _ZN4omni18proxyObjectFactory6lookupEPKc @2931
    _ZN4omni18proxyObjectFactory8shutdownEv @2932
    _ZN4omni18proxyObjectFactoryC1EPKc @2933
    _ZN4omni18proxyObjectFactoryC2EPKc @2934
    _ZN4omni18proxyObjectFactoryD0Ev @2935
    _ZN4omni18proxyObjectFactoryD1Ev @2936
    _ZN4omni18proxyObjectFactoryD2Ev @2937
    _ZN4omni18resolvePseudoEntryC1EPKcPFPN5CORBA6ObjectEvE @2938
    _ZN4omni18resolvePseudoEntryC1Ev @2939
    _ZN4omni19BAD_QOS_LookupTableE @2940 DATA
    _ZN4omni19MARSHAL_LookupTableE @2941 DATA
    _ZN4omni19TIMEOUT_LookupTableE @2942 DATA
    _ZN4omni19UNKNOWN_LookupTableE @2943 DATA
    _ZN4omni19builtinMatchAllRule5matchEPKc @2944
    _ZN4omni19builtinMatchAllRuleC1EPKc @2945
    _ZN4omni19builtinMatchAllRuleD0Ev @2946
    _ZN4omni19builtinMatchAllRuleD1Ev @2947
    _ZN4omni19corbanameURIHandler13syntaxIsValidEPKc @2948
    _ZN4omni19corbanameURIHandler8supportsEPKc @2949
    _ZN4omni19corbanameURIHandler8toObjectEPKcj @2950
    _ZN4omni19corbanameURIHandlerC1Ev @2951
    _ZN4omni19corbanameURIHandlerD0Ev @2952
    _ZN4omni19corbanameURIHandlerD1Ev @2953
    _ZN4omni19tcpActiveCollection10addMonitorEj @2954
    _ZN4omni19tcpActiveCollection10deactivateEv @2955
    _ZN4omni19tcpActiveCollection13removeMonitorEj @2956
    _ZN4omni19tcpActiveCollection14notifyReadableEPNS_12SocketHolderE @2957
    _ZN4omni19tcpActiveCollection7MonitorEPFvPvPNS_14giopConnectionEES1_ @2958
    _ZN4omni19tcpActiveCollectionC1Ev @2959
    _ZN4omni19tcpActiveCollectionC2Ev @2960
    _ZN4omni19tcpActiveCollectionD0Ev @2961
    _ZN4omni19tcpActiveCollectionD1Ev @2962
    _ZN4omni19tcpActiveCollectionD2Ev @2963
    _ZN4omni19tcpActiveConnection13getConnectionEv @2964
    _ZN4omni19tcpActiveConnection15registerMonitorEv @2965
    _ZN4omni19tcpActiveConnectionC1Ej @2966
    _ZN4omni19tcpActiveConnectionC2Ej @2967
    _ZN4omni19tcpActiveConnectionD0Ev @2968
    _ZN4omni19tcpActiveConnectionD1Ev @2969
    _ZN4omni19tcpActiveConnectionD2Ev @2970
    _ZN4omni19validateUTF8Handler4dumpERNS_10orbOptions14sequenceStringE @2971
    _ZN4omni19validateUTF8Handler5visitEPKcNS_10orbOptions6SourceE @2972
    _ZN4omni19validateUTF8HandlerC1Ev @2973
    _ZN4omni19validateUTF8HandlerD0Ev @2974
    _ZN4omni19validateUTF8HandlerD1Ev @2975
    _ZN4omni20FREE_MEM_LookupTableE @2976 DATA
    _ZN4omni20INTERNAL_LookupTableE @2977 DATA
    _ZN4omni20INV_FLAG_LookupTableE @2978 DATA
    _ZN4omni20SocketSetCloseOnExecEj @2979
    _ZN4omni20SocketSetnonblockingEj @2980
    _ZN4omni20builtinLocalHostRule5matchEPKc @2981
    _ZN4omni20builtinLocalHostRuleC1EPKc @2982
    _ZN4omni20builtinLocalHostRuleD0Ev @2983
    _ZN4omni20builtinLocalHostRuleD1Ev @2984
    _ZN4omni20giopActiveCollectionC2Ev @2985
    _ZN4omni20giopActiveCollectionD0Ev @2986
    _ZN4omni20giopActiveCollectionD1Ev @2987
    _ZN4omni20giopActiveCollectionD2Ev @2988
    _ZN4omni20giopActiveConnectionC2Ev @2989
    _ZN4omni20giopActiveConnectionD0Ev @2990
    _ZN4omni20giopActiveConnectionD1Ev @2991
    _ZN4omni20giopActiveConnectionD2Ev @2992
    _ZN4omni20localInvocationCountE @2993 DATA
    _ZN4omni20maxSocketRecvHandler4dumpERNS_10orbOptions14sequenceStringE @2994
    _ZN4omni20maxSocketRecvHandler5visitEPKcNS_10orbOptions6SourceE @2995
    _ZN4omni20maxSocketRecvHandlerC1Ev @2996
    _ZN4omni20maxSocketRecvHandlerD0Ev @2997
    _ZN4omni20maxSocketRecvHandlerD1Ev @2998
    _ZN4omni20maxSocketSendHandler4dumpERNS_10orbOptions14sequenceStringE @2999
    _ZN4omni20maxSocketSendHandler5visitEPKcNS_10orbOptions6SourceE @3000
    _ZN4omni20maxSocketSendHandlerC1Ev @3001
    _ZN4omni20maxSocketSendHandlerD0Ev @3002
    _ZN4omni20maxSocketSendHandlerD1Ev @3003
    _ZN4omni20omniORB_TAG_ORB_TYPEE @3004 DATA
    _ZN4omni20omni_ior_initialiser6attachEv @3005
    _ZN4omni20omni_ior_initialiser6detachEv @3006
    _ZN4omni20omni_ior_initialiserC1Ev @3007
    _ZN4omni20omni_poa_initialiser6attachEv @3008
    _ZN4omni20omni_poa_initialiser6detachEv @3009
    _ZN4omni20omni_poa_initialiserC1Ev @3010
    _ZN4omni20omni_uri_initialiser6attachEv @3011
    _ZN4omni20omni_uri_initialiser6detachEv @3012
    _ZN4omni20omni_uri_initialiserC1Ev @3013
    _ZN4omni20poa_iiop_portHandler4dumpERNS_10orbOptions14sequenceStringE @3014
    _ZN4omni20poa_iiop_portHandler5visitEPKcNS_10orbOptions6SourceE @3015
    _ZN4omni20poa_iiop_portHandlerC1Ev @3016
    _ZN4omni20poa_iiop_portHandlerD0Ev @3017
    _ZN4omni20poa_iiop_portHandlerD1Ev @3018
    _ZN4omni20tcAliasExpandHandler4dumpERNS_10orbOptions14sequenceStringE @3019
    _ZN4omni20tcAliasExpandHandler5visitEPKcNS_10orbOptions6SourceE @3020
    _ZN4omni20tcAliasExpandHandlerC1Ev @3021
    _ZN4omni20tcAliasExpandHandlerD0Ev @3022
    _ZN4omni20tcAliasExpandHandlerD1Ev @3023
    _ZN4omni21BAD_PARAM_LookupTableE @3024 DATA
    _ZN4omni21DefaultInitRefHandler4dumpERNS_10orbOptions14sequenceStringE @3025
    _ZN4omni21DefaultInitRefHandler5visitEPKcNS_10orbOptions6SourceE @3026
    _ZN4omni21DefaultInitRefHandlerC1Ev @3027
    _ZN4omni21DefaultInitRefHandlerD0Ev @3028
    _ZN4omni21DefaultInitRefHandlerD1Ev @3029
    _ZN4omni21IMP_LIMIT_LookupTableE @3030 DATA
    _ZN4omni21INV_IDENT_LookupTableE @3031 DATA
    _ZN4omni21NO_MEMORY_LookupTableE @3032 DATA
    _ZN4omni21TRANSIENT_LookupTableE @3033 DATA
    _ZN4omni21giopMaxMsgSizeHandler4dumpERNS_10orbOptions14sequenceStringE @3034
    _ZN4omni21giopMaxMsgSizeHandler5visitEPKcNS_10orbOptions6SourceE @3035
    _ZN4omni21giopMaxMsgSizeHandlerC1Ev @3036
    _ZN4omni21giopMaxMsgSizeHandlerD0Ev @3037
    _ZN4omni21giopMaxMsgSizeHandlerD1Ev @3038
    _ZN4omni21is_COMM_FAILURE_minorEm @3039
    _ZN4omni21maxGIOPVersionHandler4dumpERNS_10orbOptions14sequenceStringE @3040
    _ZN4omni21maxGIOPVersionHandler5visitEPKcNS_10orbOptions6SourceE @3041
    _ZN4omni21maxGIOPVersionHandlerC1Ev @3042
    _ZN4omni21maxGIOPVersionHandlerD0Ev @3043
    _ZN4omni21maxGIOPVersionHandlerD1Ev @3044
    _ZN4omni21omniInitialReferences10setFromORBEPKcPN5CORBA6ObjectE @3045
    _ZN4omni21omniInitialReferences11remFromArgsEPKc @3046
    _ZN4omni21omniInitialReferences11remFromFileEPKc @3047
    _ZN4omni21omniInitialReferences11setFromArgsEPKcS2_ @3048
    _ZN4omni21omniInitialReferences11setFromFileEPKcS2_ @3049
    _ZN4omni21omniInitialReferences19registerPseudoObjFnEPKcPFPN5CORBA6ObjectEvE @3050
    _ZN4omni21omniInitialReferences25setDefaultInitRefFromArgsEPKc @3051
    _ZN4omni21omniInitialReferences25setDefaultInitRefFromFileEPKc @3052
    _ZN4omni21omniInitialReferences26initialise_bootstrap_agentEPKct @3053
    _ZN4omni21omniInitialReferences26invoke_bootstrap_agentImplER14omniCallHandle @3054
    _ZN4omni21omniInitialReferences30initialise_bootstrap_agentImplEv @3055
    _ZN4omni21omniInitialReferences34is_bootstrap_agentImpl_initialisedEv @3056
    _ZN4omni21omniInitialReferences4listEv @3057
    _ZN4omni21omniInitialReferences7resolveEPKcj @3058
    _ZN4omni21omni_ior_initialiser_E @3059 DATA
    _ZN4omni21omni_poa_initialiser_E @3060 DATA
    _ZN4omni21omni_uri_initialiser_E @3061 DATA
    _ZN4omni21poaCurrentStackInsertC1EP18omniCallDescriptorP11omni_thread @3062
    _ZN4omni21poaCurrentStackInsertD1Ev @3063
    _ZN4omni21registerTrackedObjectEPNS_17omniTrackedObjectE @3064
    _ZN4omni21remoteInvocationCountE @3065 DATA
    _ZN4omni21saTaskQueueAssignInfo3runEv @3066
    _ZN4omni21saTaskQueueAssignInfoC1EPNS_29omniServantActivatorTaskQueueE @3067
    _ZN4omni21saTaskQueueCreateInfo3runEv @3068
    _ZN4omni21saTaskQueueCreateInfoC1EPNS_29omniServantActivatorTaskQueueE @3069
    _ZN4omni22INITIALIZE_LookupTableE @3070 DATA
    _ZN4omni22INTF_REPOS_LookupTableE @3071 DATA
    _ZN4omni22INV_OBJREF_LookupTableE @3072 DATA
    _ZN4omni22INV_POLICY_LookupTableE @3073 DATA
    _ZN4omni22endpointPublishHandler4dumpERNS_10orbOptions14sequenceStringE @3074
    _ZN4omni22endpointPublishHandler5visitEPKcNS_10orbOptions6SourceE @3075
    _ZN4omni22endpointPublishHandlerC1Ev @3076
    _ZN4omni22endpointPublishHandlerD0Ev @3077
    _ZN4omni22endpointPublishHandlerD1Ev @3078
    _ZN4omni22inConScanPeriodHandler4dumpERNS_10orbOptions14sequenceStringE @3079
    _ZN4omni22inConScanPeriodHandler5visitEPKcNS_10orbOptions6SourceE @3080
    _ZN4omni22inConScanPeriodHandlerC1Ev @3081
    _ZN4omni22inConScanPeriodHandlerD0Ev @3082
    _ZN4omni22inConScanPeriodHandlerD1Ev @3083
    _ZN4omni22registerNilCorbaObjectEPN5CORBA6ObjectE @3084
    _ZN4omni22scanGranularityHandler4dumpERNS_10orbOptions14sequenceStringE @3085
    _ZN4omni22scanGranularityHandler5visitEPKcNS_10orbOptions6SourceE @3086
    _ZN4omni22scanGranularityHandlerC1Ev @3087
    _ZN4omni22scanGranularityHandlerD0Ev @3088
    _ZN4omni22scanGranularityHandlerD1Ev @3089
    _ZN4omni23BAD_CONTEXT_LookupTableE @3090 DATA
    _ZN4omni23NO_RESPONSE_LookupTableE @3091 DATA
    _ZN4omni23OBJ_ADAPTER_LookupTableE @3092 DATA
    _ZN4omni23ValueIndirectionTrackerD0Ev @3093
    _ZN4omni23ValueIndirectionTrackerD1Ev @3094
    _ZN4omni23ValueIndirectionTrackerD2Ev @3095
    _ZN4omni23createInProcessIdentityEPKhi @3096
    _ZN4omni23endpointNoListenHandler4dumpERNS_10orbOptions14sequenceStringE @3097
    _ZN4omni23endpointNoListenHandler5visitEPKcNS_10orbOptions6SourceE @3098
    _ZN4omni23endpointNoListenHandlerC1Ev @3099
    _ZN4omni23endpointNoListenHandlerD0Ev @3100
    _ZN4omni23endpointNoListenHandlerD1Ev @3101
    _ZN4omni23omni_ObjRef_initialiser6attachEv @3102
    _ZN4omni23omni_ObjRef_initialiser6detachEv @3103
    _ZN4omni23omni_ObjRef_initialiserC1Ev @3104
    _ZN4omni23omni_hooked_initialiser6attachEv @3105
    _ZN4omni23omni_hooked_initialiser6detachEv @3106
    _ZN4omni23omni_hooked_initialiserC1Ev @3107
    _ZN4omni23omni_hooked_initialiserD0Ev @3108
    _ZN4omni23omni_hooked_initialiserD1Ev @3109
    _ZN4omni23omni_interface_CallDesc21marshalReturnedValuesER9cdrStream @3110
    _ZN4omni23omni_interface_CallDesc23unmarshalReturnedValuesER9cdrStream @3111
    _ZN4omni23omni_interface_CallDesc4lcfnEP18omniCallDescriptorP11omniServant @3112
    _ZN4omni23omni_interface_CallDescC1EPKcib @3113
    _ZN4omni23omni_interface_CallDescD0Ev @3114
    _ZN4omni23omni_interface_CallDescD1Ev @3115
    _ZN4omni23outConScanPeriodHandler4dumpERNS_10orbOptions14sequenceStringE @3116
    _ZN4omni23outConScanPeriodHandler5visitEPKcNS_10orbOptions6SourceE @3117
    _ZN4omni23outConScanPeriodHandlerC1Ev @3118
    _ZN4omni23outConScanPeriodHandlerD0Ev @3119
    _ZN4omni23outConScanPeriodHandlerD1Ev @3120
    _ZN4omni23revertToOriginalProfileEP10omniObjRef @3121
    _ZN4omni23socketSendBufferHandler4dumpERNS_10orbOptions14sequenceStringE @3122
    _ZN4omni23socketSendBufferHandler5visitEPKcNS_10orbOptions6SourceE @3123
    _ZN4omni23socketSendBufferHandlerC1Ev @3124
    _ZN4omni23socketSendBufferHandlerD0Ev @3125
    _ZN4omni23socketSendBufferHandlerD1Ev @3126
    _ZN4omni24BAD_TYPECODE_LookupTableE @3127 DATA
    _ZN4omni24COMM_FAILURE_LookupTableE @3128 DATA
    _ZN4omni24NO_IMPLEMENT_LookupTableE @3129 DATA
    _ZN4omni24NO_RESOURCES_LookupTableE @3130 DATA
    _ZN4omni24StreamAdapterStateCopierC1EP16cdrStreamAdapter @3131
    _ZN4omni24StreamAdapterStateCopierD1Ev @3132
    _ZN4omni24dumpConfigurationHandler4dumpERNS_10orbOptions14sequenceStringE @3133
    _ZN4omni24dumpConfigurationHandler5visitEPKcNS_10orbOptions6SourceE @3134
    _ZN4omni24dumpConfigurationHandlerC1Ev @3135
    _ZN4omni24dumpConfigurationHandlerD0Ev @3136
    _ZN4omni24dumpConfigurationHandlerD1Ev @3137
    _ZN4omni24endpointNoPublishHandler4dumpERNS_10orbOptions14sequenceStringE @3138
    _ZN4omni24endpointNoPublishHandler5visitEPKcNS_10orbOptions6SourceE @3139
    _ZN4omni24endpointNoPublishHandlerC1Ev @3140
    _ZN4omni24endpointNoPublishHandlerD0Ev @3141
    _ZN4omni24endpointNoPublishHandlerD1Ev @3142
    _ZN4omni24idleThreadTimeoutHandler4dumpERNS_10orbOptions14sequenceStringE @3143
    _ZN4omni24idleThreadTimeoutHandler5visitEPKcNS_10orbOptions6SourceE @3144
    _ZN4omni24idleThreadTimeoutHandlerC1Ev @3145
    _ZN4omni24idleThreadTimeoutHandlerD0Ev @3146
    _ZN4omni24idleThreadTimeoutHandlerD1Ev @3147
    _ZN4omni24omni_ObjRef_initialiser_E @3148 DATA
    _ZN4omni24omni_codeSet_initialiser6attachEv @3149
    _ZN4omni24omni_codeSet_initialiser6detachEv @3150
    _ZN4omni24omni_codeSet_initialiserC1Ev @3151
    _ZN4omni24omni_hooked_initialiser_E @3152 DATA
    _ZN4omni24omni_invoker_initialiser6attachEv @3153
    _ZN4omni24omni_invoker_initialiser6detachEv @3154
    _ZN4omni24omni_invoker_initialiserC1Ev @3155
    _ZN4omni24omni_objadpt_initialiser6attachEv @3156
    _ZN4omni24omni_objadpt_initialiser6detachEv @3157
    _ZN4omni24omni_objadpt_initialiserC1Ev @3158
    _ZN4omni24omni_omniIOR_initialiser6attachEv @3159
    _ZN4omni24omni_omniIOR_initialiser6detachEv @3160
    _ZN4omni24omni_omniIOR_initialiserC1Ev @3161
    _ZN4omni25BAD_INV_ORDER_LookupTableE @3162 DATA
    _ZN4omni25BAD_OPERATION_LookupTableE @3163 DATA
    _ZN4omni25CORBA_InitialReferences_i3getEPKc @3164
    _ZN4omni25CORBA_InitialReferences_i4listEv @3165
    _ZN4omni25CORBA_InitialReferences_iC1Ev @3166
    _ZN4omni25CORBA_InitialReferences_iD0Ev @3167
    _ZN4omni25CORBA_InitialReferences_iD1Ev @3168
    _ZN4omni25NO_PERMISSION_LookupTableE @3169 DATA
    _ZN4omni25PERSIST_STORE_LookupTableE @3170 DATA
    _ZN4omni25bootstrapAgentPortHandler4dumpERNS_10orbOptions14sequenceStringE @3171
    _ZN4omni25bootstrapAgentPortHandler5visitEPKcNS_10orbOptions6SourceE @3172
    _ZN4omni25bootstrapAgentPortHandlerC1Ev @3173
    _ZN4omni25bootstrapAgentPortHandlerD0Ev @3174
    _ZN4omni25bootstrapAgentPortHandlerD1Ev @3175
    _ZN4omni25omni_codeSet_initialiser_E @3176 DATA
    _ZN4omni25omni_corbaOrb_initialiser6attachEv @3177
    _ZN4omni25omni_corbaOrb_initialiser6detachEv @3178
    _ZN4omni25omni_corbaOrb_initialiserC1Ev @3179
    _ZN4omni25omni_giopRope_initialiser6attachEv @3180
    _ZN4omni25omni_giopRope_initialiser6detachEv @3181
    _ZN4omni25omni_giopRope_initialiserC1Ev @3182
    _ZN4omni25omni_initRefs_initialiser6attachEv @3183
    _ZN4omni25omni_initRefs_initialiser6detachEv @3184
    _ZN4omni25omni_initRefs_initialiserC1Ev @3185
    _ZN4omni25omni_initRefs_initialiserD0Ev @3186
    _ZN4omni25omni_initRefs_initialiserD1Ev @3187
    _ZN4omni25omni_invoker_initialiser_E @3188 DATA
    _ZN4omni25omni_objadpt_initialiser_E @3189 DATA
    _ZN4omni25omni_omniIOR_initialiser_E @3190 DATA
    _ZN4omni25poa_iiop_name_portHandler4dumpERNS_10orbOptions14sequenceStringE @3191
    _ZN4omni25poa_iiop_name_portHandler5visitEPKcNS_10orbOptions6SourceE @3192
    _ZN4omni25poa_iiop_name_portHandlerC1Ev @3193
    _ZN4omni25poa_iiop_name_portHandlerD0Ev @3194
    _ZN4omni25poa_iiop_name_portHandlerD1Ev @3195
    _ZN4omni26clientTransportRuleHandler4dumpERNS_10orbOptions14sequenceStringE @3196
    _ZN4omni26clientTransportRuleHandler5visitEPKcNS_10orbOptions6SourceE @3197
    _ZN4omni26clientTransportRuleHandlerC1Ev @3198
    _ZN4omni26clientTransportRuleHandlerD0Ev @3199
    _ZN4omni26clientTransportRuleHandlerD1Ev @3200
    _ZN4omni26immediateRopeSwitchHandler4dumpERNS_10orbOptions14sequenceStringE @3201
    _ZN4omni26immediateRopeSwitchHandler5visitEPKcNS_10orbOptions6SourceE @3202
    _ZN4omni26immediateRopeSwitchHandlerC1Ev @3203
    _ZN4omni26immediateRopeSwitchHandlerD0Ev @3204
    _ZN4omni26immediateRopeSwitchHandlerD1Ev @3205
    _ZN4omni26omni_cdrStream_initialiser6attachEv @3206
    _ZN4omni26omni_cdrStream_initialiser6detachEv @3207
    _ZN4omni26omni_cdrStream_initialiserC1Ev @3208
    _ZN4omni26omni_corbaOrb_initialiser_E @3209 DATA
    _ZN4omni26omni_giopRope_initialiser_E @3210 DATA
    _ZN4omni26omni_giopbidir_initialiser6attachEv @3211
    _ZN4omni26omni_giopbidir_initialiser6detachEv @3212
    _ZN4omni26omni_giopbidir_initialiserC1Ev @3213
    _ZN4omni26omni_initRefs_initialiser_E @3214 DATA
    _ZN4omni26omni_non_existent_CallDesc21marshalReturnedValuesER9cdrStream @3215
    _ZN4omni26omni_non_existent_CallDesc23unmarshalReturnedValuesER9cdrStream @3216
    _ZN4omni26omni_non_existent_CallDesc4lcfnEP18omniCallDescriptorP11omniServant @3217
    _ZN4omni26omni_non_existent_CallDescC1EPKcib @3218
    _ZN4omni26omni_non_existent_CallDescD0Ev @3219
    _ZN4omni26omni_non_existent_CallDescD1Ev @3220
    _ZN4omni26serverTransportRuleHandler4dumpERNS_10orbOptions14sequenceStringE @3221
    _ZN4omni26serverTransportRuleHandler5visitEPKcNS_10orbOptions6SourceE @3222
    _ZN4omni26serverTransportRuleHandlerC1Ev @3223
    _ZN4omni26serverTransportRuleHandlerD0Ev @3224
    _ZN4omni26serverTransportRuleHandlerD1Ev @3225
    _ZN4omni27DATA_CONVERSION_LookupTableE @3226 DATA
    _ZN4omni27omniLocalIdentity_RefHolderC1EP17omniLocalIdentity @3227
    _ZN4omni27omniLocalIdentity_RefHolderD1Ev @3228
    _ZN4omni27omni_cdrStream_initialiser_E @3229 DATA
    _ZN4omni27omni_dynamiclib_initialiser6attachEv @3230
    _ZN4omni27omni_dynamiclib_initialiser6detachEv @3231
    _ZN4omni27omni_dynamiclib_initialiserC1Ev @3232
    _ZN4omni27omni_giopImpl10_initialiser6attachEv @3233
    _ZN4omni27omni_giopImpl10_initialiser6detachEv @3234
    _ZN4omni27omni_giopImpl10_initialiserC1Ev @3235
    _ZN4omni27omni_giopImpl11_initialiser6attachEv @3236
    _ZN4omni27omni_giopImpl11_initialiser6detachEv @3237
    _ZN4omni27omni_giopImpl11_initialiserC1Ev @3238
    _ZN4omni27omni_giopImpl12_initialiser6attachEv @3239
    _ZN4omni27omni_giopImpl12_initialiser6detachEv @3240
    _ZN4omni27omni_giopImpl12_initialiserC1Ev @3241
    _ZN4omni27omni_giopStrand_initialiser6attachEv @3242
    _ZN4omni27omni_giopStrand_initialiser6detachEv @3243
    _ZN4omni27omni_giopStrand_initialiserC1Ev @3244
    _ZN4omni27omni_giopbidir_initialiser_E @3245 DATA
    _ZN4omni27omni_giopserver_initialiser6attachEv @3246
    _ZN4omni27omni_giopserver_initialiser6detachEv @3247
    _ZN4omni27omni_giopserver_initialiserC1Ev @3248
    _ZN4omni27omni_orbOptions_initialiser6attachEv @3249
    _ZN4omni27omni_orbOptions_initialiser6detachEv @3250
    _ZN4omni27omni_orbOptions_initialiserC1Ev @3251
    _ZN4omni27omni_orbOptions_initialiserD0Ev @3252
    _ZN4omni27omni_orbOptions_initialiserD1Ev @3253
    _ZN4omni27oneCallPerConnectionHandler4dumpERNS_10orbOptions14sequenceStringE @3254
    _ZN4omni27oneCallPerConnectionHandler5visitEPKcNS_10orbOptions6SourceE @3255
    _ZN4omni27oneCallPerConnectionHandlerC1Ev @3256
    _ZN4omni27oneCallPerConnectionHandlerD0Ev @3257
    _ZN4omni27oneCallPerConnectionHandlerD1Ev @3258
    _ZN4omni28OBJECT_NOT_EXIST_LookupTableE @3259 DATA
    _ZN4omni28TRANSACTION_MODE_LookupTableE @3260 DATA
    _ZN4omni28connectionWatchPeriodHandler4dumpERNS_10orbOptions14sequenceStringE @3261
    _ZN4omni28connectionWatchPeriodHandler5visitEPKcNS_10orbOptions6SourceE @3262
    _ZN4omni28connectionWatchPeriodHandlerC1Ev @3263
    _ZN4omni28connectionWatchPeriodHandlerD0Ev @3264
    _ZN4omni28connectionWatchPeriodHandlerD1Ev @3265
    _ZN4omni28endpointPublishAllIFsHandler4dumpERNS_10orbOptions14sequenceStringE @3266
    _ZN4omni28endpointPublishAllIFsHandler5visitEPKcNS_10orbOptions6SourceE @3267
    _ZN4omni28endpointPublishAllIFsHandlerC1Ev @3268
    _ZN4omni28endpointPublishAllIFsHandlerD0Ev @3269
    _ZN4omni28endpointPublishAllIFsHandlerD1Ev @3270
    _ZN4omni28giopTargetAddressModeHandler4dumpERNS_10orbOptions14sequenceStringE @3271
    _ZN4omni28giopTargetAddressModeHandler5visitEPKcNS_10orbOptions6SourceE @3272
    _ZN4omni28giopTargetAddressModeHandlerC1Ev @3273
    _ZN4omni28giopTargetAddressModeHandlerD0Ev @3274
    _ZN4omni28giopTargetAddressModeHandlerD1Ev @3275
    _ZN4omni28omniRemoteIdentity_RefHolderC1EP18omniRemoteIdentity @3276
    _ZN4omni28omniRemoteIdentity_RefHolderD1Ev @3277
    _ZN4omni28omni_dynamiclib_initialiser_E @3278 DATA
    _ZN4omni28omni_giopImpl10_initialiser_E @3279 DATA
    _ZN4omni28omni_giopImpl11_initialiser_E @3280 DATA
    _ZN4omni28omni_giopImpl12_initialiser_E @3281 DATA
    _ZN4omni28omni_giopStrand_initialiser_E @3282 DATA
    _ZN4omni28omni_giopserver_initialiser_E @3283 DATA
    _ZN4omni28omni_interceptor_initialiser6attachEv @3284
    _ZN4omni28omni_interceptor_initialiser6detachEv @3285
    _ZN4omni28omni_interceptor_initialiserC1Ev @3286
    _ZN4omni28omni_omniCurrent_initialiser6attachEv @3287
    _ZN4omni28omni_omniCurrent_initialiser6detachEv @3288
    _ZN4omni28omni_omniCurrent_initialiserC1Ev @3289
    _ZN4omni28omni_orbOptions_initialiser_E @3290 DATA
    _ZN4omni28poaHoldRequestTimeoutHandler4dumpERNS_10orbOptions14sequenceStringE @3291
    _ZN4omni28poaHoldRequestTimeoutHandler5visitEPKcNS_10orbOptions6SourceE @3292
    _ZN4omni28poaHoldRequestTimeoutHandlerC1Ev @3293
    _ZN4omni28poaHoldRequestTimeoutHandlerD0Ev @3294
    _ZN4omni28poaHoldRequestTimeoutHandlerD1Ev @3295
    _ZN4omni28resetTimeOutOnRetriesHandler4dumpERNS_10orbOptions14sequenceStringE @3296
    _ZN4omni28resetTimeOutOnRetriesHandler5visitEPKcNS_10orbOptions6SourceE @3297
    _ZN4omni28resetTimeOutOnRetriesHandlerC1Ev @3298
    _ZN4omni28resetTimeOutOnRetriesHandlerD0Ev @3299
    _ZN4omni28resetTimeOutOnRetriesHandlerD1Ev @3300
    _ZN4omni28supportBootstrapAgentHandler4dumpERNS_10orbOptions14sequenceStringE @3301
    _ZN4omni28supportBootstrapAgentHandler5visitEPKcNS_10orbOptions6SourceE @3302
    _ZN4omni28supportBootstrapAgentHandlerC1Ev @3303
    _ZN4omni28supportBootstrapAgentHandlerD0Ev @3304
    _ZN4omni28supportBootstrapAgentHandlerD1Ev @3305
    _ZN4omni29bootstrapAgentHostnameHandler4dumpERNS_10orbOptions14sequenceStringE @3306
    _ZN4omni29bootstrapAgentHostnameHandler5visitEPKcNS_10orbOptions6SourceE @3307
    _ZN4omni29bootstrapAgentHostnameHandlerC1Ev @3308
    _ZN4omni29bootstrapAgentHostnameHandlerD0Ev @3309
    _ZN4omni29bootstrapAgentHostnameHandlerD1Ev @3310
    _ZN4omni29copyValuesInLocalCallsHandler4dumpERNS_10orbOptions14sequenceStringE @3311
    _ZN4omni29copyValuesInLocalCallsHandler5visitEPKcNS_10orbOptions6SourceE @3312
    _ZN4omni29copyValuesInLocalCallsHandlerC1Ev @3313
    _ZN4omni29copyValuesInLocalCallsHandlerD0Ev @3314
    _ZN4omni29copyValuesInLocalCallsHandlerD1Ev @3315
    _ZN4omni29diiThrowsSysExceptionsHandler4dumpERNS_10orbOptions14sequenceStringE @3316
    _ZN4omni29diiThrowsSysExceptionsHandler5visitEPKcNS_10orbOptions6SourceE @3317
    _ZN4omni29diiThrowsSysExceptionsHandlerC1Ev @3318
    _ZN4omni29diiThrowsSysExceptionsHandlerD0Ev @3319
    _ZN4omni29diiThrowsSysExceptionsHandlerD1Ev @3320
    _ZN4omni29offerBiDirectionalGIOPHandler4dumpERNS_10orbOptions14sequenceStringE @3321
    _ZN4omni29offerBiDirectionalGIOPHandler5visitEPKcNS_10orbOptions6SourceE @3322
    _ZN4omni29offerBiDirectionalGIOPHandlerC1Ev @3323
    _ZN4omni29offerBiDirectionalGIOPHandlerD0Ev @3324
    _ZN4omni29offerBiDirectionalGIOPHandlerD1Ev @3325
    _ZN4omni29omniServantActivatorTaskQueue14run_undetachedEPv @3326
    _ZN4omni29omniServantActivatorTaskQueue3dieEv @3327
    _ZN4omni29omniServantActivatorTaskQueue4TaskC2Ev @3328
    _ZN4omni29omniServantActivatorTaskQueue4TaskD0Ev @3329
    _ZN4omni29omniServantActivatorTaskQueue4TaskD1Ev @3330
    _ZN4omni29omniServantActivatorTaskQueue4TaskD2Ev @3331
    _ZN4omni29omniServantActivatorTaskQueue4lockEv @3332
    _ZN4omni29omniServantActivatorTaskQueue6insertEPNS0_4TaskE @3333
    _ZN4omni29omniServantActivatorTaskQueue6unlockEv @3334
    _ZN4omni29omniServantActivatorTaskQueue7mid_runEv @3335
    _ZN4omni29omniServantActivatorTaskQueue8real_runEv @3336
    _ZN4omni29omniServantActivatorTaskQueueC1Ev @3337
    _ZN4omni29omniServantActivatorTaskQueueC2Ev @3338
    _ZN4omni29omniServantActivatorTaskQueueD0Ev @3339
    _ZN4omni29omniServantActivatorTaskQueueD1Ev @3340
    _ZN4omni29omniServantActivatorTaskQueueD2Ev @3341
    _ZN4omni29omni_giopEndpoint_initialiser6attachEv @3342
    _ZN4omni29omni_giopEndpoint_initialiser6detachEv @3343
    _ZN4omni29omni_giopEndpoint_initialiserC1Ev @3344
    _ZN4omni29omni_interceptor_initialiser_E @3345 DATA
    _ZN4omni29omni_omniCurrent_initialiser_E @3346 DATA
    _ZN4omni29omni_omniInternal_initialiser6attachEv @3347
    _ZN4omni29omni_omniInternal_initialiser6detachEv @3348
    _ZN4omni29omni_omniInternal_initialiserC1Ev @3349
    _ZN4omni29unixTransportDirectoryHandler4dumpERNS_10orbOptions14sequenceStringE @3350
    _ZN4omni29unixTransportDirectoryHandler5visitEPKcNS_10orbOptions6SourceE @3351
    _ZN4omni29unixTransportDirectoryHandlerC1Ev @3352
    _ZN4omni29unixTransportDirectoryHandlerD0Ev @3353
    _ZN4omni29unixTransportDirectoryHandlerD1Ev @3354
    _ZN4omni30acceptBiDirectionalGIOPHandler4dumpERNS_10orbOptions14sequenceStringE @3355
    _ZN4omni30acceptBiDirectionalGIOPHandler5visitEPKcNS_10orbOptions6SourceE @3356
    _ZN4omni30acceptBiDirectionalGIOPHandlerC1Ev @3357
    _ZN4omni30acceptBiDirectionalGIOPHandlerD0Ev @3358
    _ZN4omni30acceptBiDirectionalGIOPHandlerD1Ev @3359
    _ZN4omni30clientCallTimeOutPeriodHandler4dumpERNS_10orbOptions14sequenceStringE @3360
    _ZN4omni30clientCallTimeOutPeriodHandler5visitEPKcNS_10orbOptions6SourceE @3361
    _ZN4omni30clientCallTimeOutPeriodHandlerC1Ev @3362
    _ZN4omni30clientCallTimeOutPeriodHandlerD0Ev @3363
    _ZN4omni30clientCallTimeOutPeriodHandlerD1Ev @3364
    _ZN4omni30maxServerThreadPoolSizeHandler4dumpERNS_10orbOptions14sequenceStringE @3365
    _ZN4omni30maxServerThreadPoolSizeHandler5visitEPKcNS_10orbOptions6SourceE @3366
    _ZN4omni30maxServerThreadPoolSizeHandlerC1Ev @3367
    _ZN4omni30maxServerThreadPoolSizeHandlerD0Ev @3368
    _ZN4omni30maxServerThreadPoolSizeHandlerD1Ev @3369
    _ZN4omni30omni_giopEndpoint_initialiser_E @3370 DATA
    _ZN4omni30omni_omniInternal_initialiser_E @3371 DATA
    _ZN4omni30omni_omniTransport_initialiser6attachEv @3372
    _ZN4omni30omni_omniTransport_initialiser6detachEv @3373
    _ZN4omni30omni_omniTransport_initialiserC1Ev @3374
    _ZN4omni30serverCallTimeOutPeriodHandler4dumpERNS_10orbOptions14sequenceStringE @3375
    _ZN4omni30serverCallTimeOutPeriodHandler5visitEPKcNS_10orbOptions6SourceE @3376
    _ZN4omni30serverCallTimeOutPeriodHandlerC1Ev @3377
    _ZN4omni30serverCallTimeOutPeriodHandlerD0Ev @3378
    _ZN4omni30serverCallTimeOutPeriodHandlerD1Ev @3379
    _ZN4omni30supportPerThreadTimeOutHandler4dumpERNS_10orbOptions14sequenceStringE @3380
    _ZN4omni30supportPerThreadTimeOutHandler5visitEPKcNS_10orbOptions6SourceE @3381
    _ZN4omni30supportPerThreadTimeOutHandlerC1Ev @3382
    _ZN4omni30supportPerThreadTimeOutHandlerD0Ev @3383
    _ZN4omni30supportPerThreadTimeOutHandlerD1Ev @3384
    _ZN4omni30unixTransportPermissionHandler4dumpERNS_10orbOptions14sequenceStringE @3385
    _ZN4omni30unixTransportPermissionHandler5visitEPKcNS_10orbOptions6SourceE @3386
    _ZN4omni30unixTransportPermissionHandlerC1Ev @3387
    _ZN4omni30unixTransportPermissionHandlerD0Ev @3388
    _ZN4omni30unixTransportPermissionHandlerD1Ev @3389
    _ZN4omni30useTypeCodeIndirectionsHandler4dumpERNS_10orbOptions14sequenceStringE @3390
    _ZN4omni30useTypeCodeIndirectionsHandler5visitEPKcNS_10orbOptions6SourceE @3391
    _ZN4omni30useTypeCodeIndirectionsHandlerC1Ev @3392
    _ZN4omni30useTypeCodeIndirectionsHandlerD0Ev @3393
    _ZN4omni30useTypeCodeIndirectionsHandlerD1Ev @3394
    _ZN4omni31INVALID_TRANSACTION_LookupTableE @3395 DATA
    _ZN4omni31connectionWatchImmediateHandler4dumpERNS_10orbOptions14sequenceStringE @3396
    _ZN4omni31connectionWatchImmediateHandler5visitEPKcNS_10orbOptions6SourceE @3397
    _ZN4omni31connectionWatchImmediateHandlerC1Ev @3398
    _ZN4omni31connectionWatchImmediateHandlerD0Ev @3399
    _ZN4omni31connectionWatchImmediateHandlerD1Ev @3400
    _ZN4omni31omniInProcessIdentity_RefHolderC1EP21omniInProcessIdentity @3401
    _ZN4omni31omniInProcessIdentity_RefHolderD1Ev @3402
    _ZN4omni31omni_giopStreamImpl_initialiser6attachEv @3403
    _ZN4omni31omni_giopStreamImpl_initialiser6detachEv @3404
    _ZN4omni31omni_giopStreamImpl_initialiserC1Ev @3405
    _ZN4omni31omni_omniTransport_initialiser_E @3406 DATA
    _ZN4omni31omni_transportRules_initialiser6attachEv @3407
    _ZN4omni31omni_transportRules_initialiser6detachEv @3408
    _ZN4omni31omni_transportRules_initialiserC1Ev @3409
    _ZN4omni31omni_transportRules_initialiserD0Ev @3410
    _ZN4omni31omni_transportRules_initialiserD1Ev @3411
    _ZN4omni32CODESET_INCOMPATIBLE_LookupTableE @3412 DATA
    _ZN4omni32TRANSACTION_REQUIRED_LookupTableE @3413 DATA
    _ZN4omni32omni_giopStreamImpl_initialiser_E @3414 DATA
    _ZN4omni32omni_transportRules_initialiser_E @3415 DATA
    _ZN4omni32threadPerConnectionPolicyHandler4dumpERNS_10orbOptions14sequenceStringE @3416
    _ZN4omni32threadPerConnectionPolicyHandler5visitEPKcNS_10orbOptions6SourceE @3417
    _ZN4omni32threadPerConnectionPolicyHandlerC1Ev @3418
    _ZN4omni32threadPerConnectionPolicyHandlerD0Ev @3419
    _ZN4omni32threadPerConnectionPolicyHandlerD1Ev @3420
    _ZN4omni32threadPoolWatchConnectionHandler4dumpERNS_10orbOptions14sequenceStringE @3421
    _ZN4omni32threadPoolWatchConnectionHandler5visitEPKcNS_10orbOptions6SourceE @3422
    _ZN4omni32threadPoolWatchConnectionHandlerC1Ev @3423
    _ZN4omni32threadPoolWatchConnectionHandlerD0Ev @3424
    _ZN4omni32threadPoolWatchConnectionHandlerD1Ev @3425
    _ZN4omni32verifyObjectExistsAndTypeHandler4dumpERNS_10orbOptions14sequenceStringE @3426
    _ZN4omni32verifyObjectExistsAndTypeHandler5visitEPKcNS_10orbOptions6SourceE @3427
    _ZN4omni32verifyObjectExistsAndTypeHandlerC1Ev @3428
    _ZN4omni32verifyObjectExistsAndTypeHandlerD0Ev @3429
    _ZN4omni32verifyObjectExistsAndTypeHandlerD1Ev @3430
    _ZN4omni33clientConnectTimeOutPeriodHandler4dumpERNS_10orbOptions14sequenceStringE @3431
    _ZN4omni33clientConnectTimeOutPeriodHandler5visitEPKcNS_10orbOptions6SourceE @3432
    _ZN4omni33clientConnectTimeOutPeriodHandlerC1Ev @3433
    _ZN4omni33clientConnectTimeOutPeriodHandlerD0Ev @3434
    _ZN4omni33clientConnectTimeOutPeriodHandlerD1Ev @3435
    _ZN4omni33maxGIOPConnectionPerServerHandler4dumpERNS_10orbOptions14sequenceStringE @3436
    _ZN4omni33maxGIOPConnectionPerServerHandler5visitEPKcNS_10orbOptions6SourceE @3437
    _ZN4omni33maxGIOPConnectionPerServerHandlerC1Ev @3438
    _ZN4omni33maxGIOPConnectionPerServerHandlerD0Ev @3439
    _ZN4omni33maxGIOPConnectionPerServerHandlerD1Ev @3440
    _ZN4omni34TRANSACTION_ROLLEDBACK_LookupTableE @3441 DATA
    _ZN4omni35TRANSACTION_UNAVAILABLE_LookupTableE @3442 DATA
    _ZN4omni35maxServerThreadPerConnectionHandler4dumpERNS_10orbOptions14sequenceStringE @3443
    _ZN4omni35maxServerThreadPerConnectionHandler5visitEPKcNS_10orbOptions6SourceE @3444
    _ZN4omni35maxServerThreadPerConnectionHandlerC1Ev @3445
    _ZN4omni35maxServerThreadPerConnectionHandlerD0Ev @3446
    _ZN4omni35maxServerThreadPerConnectionHandlerD1Ev @3447
    _ZN4omni35poaUniquePersistentSystemIdsHandler4dumpERNS_10orbOptions14sequenceStringE @3448
    _ZN4omni35poaUniquePersistentSystemIdsHandler5visitEPKcNS_10orbOptions6SourceE @3449
    _ZN4omni35poaUniquePersistentSystemIdsHandlerC1Ev @3450
    _ZN4omni35poaUniquePersistentSystemIdsHandlerD0Ev @3451
    _ZN4omni35poaUniquePersistentSystemIdsHandlerD1Ev @3452
    _ZN4omni36threadPerConnectionLowerLimitHandler4dumpERNS_10orbOptions14sequenceStringE @3453
    _ZN4omni36threadPerConnectionLowerLimitHandler5visitEPKcNS_10orbOptions6SourceE @3454
    _ZN4omni36threadPerConnectionLowerLimitHandlerC1Ev @3455
    _ZN4omni36threadPerConnectionLowerLimitHandlerD0Ev @3456
    _ZN4omni36threadPerConnectionLowerLimitHandlerD1Ev @3457
    _ZN4omni36threadPerConnectionUpperLimitHandler4dumpERNS_10orbOptions14sequenceStringE @3458
    _ZN4omni36threadPerConnectionUpperLimitHandler5visitEPKcNS_10orbOptions6SourceE @3459
    _ZN4omni36threadPerConnectionUpperLimitHandlerC1Ev @3460
    _ZN4omni36threadPerConnectionUpperLimitHandlerD0Ev @3461
    _ZN4omni36threadPerConnectionUpperLimitHandlerD1Ev @3462
    _ZN4omni37acceptMisalignedTcIndirectionsHandler4dumpERNS_10orbOptions14sequenceStringE @3463
    _ZN4omni37acceptMisalignedTcIndirectionsHandler5visitEPKcNS_10orbOptions6SourceE @3464
    _ZN4omni37acceptMisalignedTcIndirectionsHandlerC1Ev @3465
    _ZN4omni37acceptMisalignedTcIndirectionsHandlerD0Ev @3466
    _ZN4omni37acceptMisalignedTcIndirectionsHandlerD1Ev @3467
    _ZN4omni39maxInterleavedCallsPerConnectionHandler4dumpERNS_10orbOptions14sequenceStringE @3468
    _ZN4omni39maxInterleavedCallsPerConnectionHandler5visitEPKcNS_10orbOptions6SourceE @3469
    _ZN4omni39maxInterleavedCallsPerConnectionHandlerC1Ev @3470
    _ZN4omni39maxInterleavedCallsPerConnectionHandlerD0Ev @3471
    _ZN4omni39maxInterleavedCallsPerConnectionHandlerD1Ev @3472
    _ZN4omni4RopeC2Ev @3473
    _ZN4omni4RopeD0Ev @3474
    _ZN4omni4RopeD1Ev @3475
    _ZN4omni4RopeD2Ev @3476
    _ZN4omni4hashEPKhi @3477
    _ZN4omni5IOP_CC2Ev @3478
    _ZN4omni5IOP_CD0Ev @3479
    _ZN4omni5IOP_CD1Ev @3480
    _ZN4omni5IOP_CD2Ev @3481
    _ZN4omni5IOP_SC2Ev @3482
    _ZN4omni5IOP_SD0Ev @3483
    _ZN4omni5IOP_SD1Ev @3484
    _ZN4omni5IOP_SD2Ev @3485
    _ZN4omni6GIOP_C10completionEv @3486
    _ZN4omni6GIOP_C10initialiseEPK7omniIORPKhiP18omniCallDescriptor @3487
    _ZN4omni6GIOP_C10ptrToClassEPi @3488
    _ZN4omni6GIOP_C11replyStatusEN4GIOP15ReplyStatusTypeE @3489
    _ZN4omni6GIOP_C12ReceiveReplyEv @3490
    _ZN4omni6GIOP_C12locateStatusEN4GIOP16LocateStatusTypeE @3491
    _ZN4omni6GIOP_C14calldescriptorEP18omniCallDescriptor @3492
    _ZN4omni6GIOP_C14calldescriptorEv @3493
    _ZN4omni6GIOP_C16RequestCompletedEb @3494
    _ZN4omni6GIOP_C17InitialiseRequestEv @3495
    _ZN4omni6GIOP_C17notifyCommFailureEbRmRb @3496
    _ZN4omni6GIOP_C18IssueLocateRequestEv @3497
    _ZN4omni6GIOP_C25UnMarshallSystemExceptionEv @3498
    _ZN4omni6GIOP_C3iorEPK7omniIOR @3499
    _ZN4omni6GIOP_C3keyEPKh @3500
    _ZN4omni6GIOP_C5stateENS_5IOP_C5StateE @3501
    _ZN4omni6GIOP_C7cleanupEv @3502
    _ZN4omni6GIOP_C7keysizeEm @3503
    _ZN4omni6GIOP_C7replyIdEm @3504
    _ZN4omni6GIOP_C8_classidE @3505 DATA
    _ZN4omni6GIOP_C8downcastEP9cdrStream @3506
    _ZN4omni6GIOP_C9getStreamEv @3507
    _ZN4omni6GIOP_CC1EPNS_8giopRopeEPNS_10giopStrandE @3508
    _ZN4omni6GIOP_CC2EPNS_8giopRopeEPNS_10giopStrandE @3509
    _ZN4omni6GIOP_CD0Ev @3510
    _ZN4omni6GIOP_CD1Ev @3511
    _ZN4omni6GIOP_CD2Ev @3512
    _ZN4omni6GIOP_S10completionEv @3513
    _ZN4omni6GIOP_S10dispatcherEv @3514
    _ZN4omni6GIOP_S10ptrToClassEPi @3515
    _ZN4omni6GIOP_S11requestTypeEN4GIOP7MsgTypeE @3516
    _ZN4omni6GIOP_S13SendExceptionEPN5CORBA9ExceptionE @3517
    _ZN4omni6GIOP_S13handleRequestEv @3518
    _ZN4omni6GIOP_S14ReceiveRequestER18omniCallDescriptor @3519
    _ZN4omni6GIOP_S14calldescriptorEP18omniCallDescriptor @3520
    _ZN4omni6GIOP_S14calldescriptorEv @3521
    _ZN4omni6GIOP_S15SkipRequestBodyEv @3522
    _ZN4omni6GIOP_S15result_expectedEb @3523
    _ZN4omni6GIOP_S16service_contextsEv @3524
    _ZN4omni6GIOP_S17notifyCommFailureEbRmRb @3525
    _ZN4omni6GIOP_S17response_expectedEb @3526
    _ZN4omni6GIOP_S18set_operation_sizeEm @3527
    _ZN4omni6GIOP_S18set_principal_sizeEm @3528
    _ZN4omni6GIOP_S19handleCancelRequestEv @3529
    _ZN4omni6GIOP_S19handleLocateRequestEv @3530
    _ZN4omni6GIOP_S19terminateProcessingC1Ev @3531
    _ZN4omni6GIOP_S19terminateProcessingD1Ev @3532
    _ZN4omni6GIOP_S26unmarshalIORAddressingInfoEv @3533
    _ZN4omni6GIOP_S5stateENS_5IOP_S5StateE @3534
    _ZN4omni6GIOP_S6workerEPNS_10giopWorkerE @3535
    _ZN4omni6GIOP_S7keysizeEi @3536
    _ZN4omni6GIOP_S8_classidE @3537 DATA
    _ZN4omni6GIOP_S8downcastEP9cdrStream @3538
    _ZN4omni6GIOP_S8resetKeyEv @3539
    _ZN4omni6GIOP_S9SendReplyEv @3540
    _ZN4omni6GIOP_S9getStreamEv @3541
    _ZN4omni6GIOP_SC1EPNS_10giopStrandE @3542
    _ZN4omni6GIOP_SC1ERKS0_ @3543
    _ZN4omni6GIOP_SC2EPNS_10giopStrandE @3544
    _ZN4omni6GIOP_SC2ERKS0_ @3545
    _ZN4omni6GIOP_SD0Ev @3546
    _ZN4omni6GIOP_SD1Ev @3547
    _ZN4omni6GIOP_SD2Ev @3548
    _ZN4omni6StrandC2Ev @3549
    _ZN4omni6StrandD0Ev @3550
    _ZN4omni6StrandD1Ev @3551
    _ZN4omni6StrandD2Ev @3552
    _ZN4omni7omniURI10URIHandlerC2Ev @3553
    _ZN4omni7omniURI10URIHandlerD0Ev @3554
    _ZN4omni7omniURI10URIHandlerD1Ev @3555
    _ZN4omni7omniURI10URIHandlerD2Ev @3556
    _ZN4omni7omniURI12nameToStringERKN9CosNaming4NameE @3557
    _ZN4omni7omniURI12stringToNameEPKc @3558
    _ZN4omni7omniURI13validHostPortEPKc @3559
    _ZN4omni7omniURI14objectToStringEPN5CORBA6ObjectE @3560
    _ZN4omni7omniURI14stringToObjectEPKcj @3561
    _ZN4omni7omniURI15extractHostPortEPKcRtPS2_ @3562
    _ZN4omni7omniURI16addrAndNameToURIEPKcS2_ @3563
    _ZN4omni7omniURI16uriSyntaxIsValidEPKc @3564
    _ZN4omni7omniURI8buildURIEPKcS2_t @3565
    _ZN4omni8RopeLink6insertERS0_ @3566
    _ZN4omni8RopeLink6removeEv @3567
    _ZN4omni8RopeLink8is_emptyERS0_ @3568
    _ZN4omni8RopeLinkC1Ev @3569
    _ZN4omni8RopeLinkC2Ev @3570
    _ZN4omni8align_toEmNS_11alignment_tE @3571
    _ZN4omni8giopRope10hasAddressEPKNS_11giopAddressE @3572
    _ZN4omni8giopRope10selectRopeERK10omnivectorIPNS_11giopAddressEEPN7omniIOR7IORInfoERPNS_4RopeERb @3573
    _ZN4omni8giopRope12decrRefCountEv @3574
    _ZN4omni8giopRope12incrRefCountEv @3575
    _ZN4omni8giopRope13acquireClientEPK7omniIORPKhmP18omniCallDescriptor @3576
    _ZN4omni8giopRope13releaseClientEPNS_5IOP_CE @3577
    _ZN4omni8giopRope16realIncrRefCountEv @3578
    _ZN4omni8giopRope17notifyCommFailureEPKNS_11giopAddressEb @3579
    _ZN4omni8giopRope24filterAndSortAddressListERK10omnivectorIPNS_11giopAddressEERS1_ImERb @3580
    _ZN4omni8giopRope5ropesE @3581 DATA
    _ZN4omni8giopRopeC1EPNS_11giopAddressEi @3582
    _ZN4omni8giopRopeC1ERK10omnivectorIPNS_11giopAddressEERKS1_ImE @3583
    _ZN4omni8giopRopeC2EPNS_11giopAddressEi @3584
    _ZN4omni8giopRopeC2ERK10omnivectorIPNS_11giopAddressEERKS1_ImE @3585
    _ZN4omni8giopRopeD0Ev @3586
    _ZN4omni8giopRopeD1Ev @3587
    _ZN4omni8giopRopeD2Ev @3588
    _ZN4omni8poRcLockE @3589 DATA
    _ZN4omni8strMatchEPKcS1_ @3590
    _ZN4omni9BiDirInfoC1EPc @3591
    _ZN4omni9BiDirInfoD0Ev @3592
    _ZN4omni9BiDirInfoD1Ev @3593
    _ZN4omni9Scavenger10initialiseEv @3594
    _ZN4omni9Scavenger10removeIdleERNS_10StrandListES2_b @3595
    _ZN4omni9Scavenger4condE @3596 DATA
    _ZN4omni9Scavenger5mutexE @3597 DATA
    _ZN4omni9Scavenger6notifyEv @3598
    _ZN4omni9Scavenger7executeEv @3599
    _ZN4omni9Scavenger7theTaskE @3600 DATA
    _ZN4omni9Scavenger8shutdownE @3601 DATA
    _ZN4omni9Scavenger9terminateEv @3602
    _ZN4omni9ScavengerC1Ev @3603
    _ZN4omni9ScavengerD0Ev @3604
    _ZN4omni9ScavengerD1Ev @3605
    _ZN4omni9idHandler4dumpERNS_10orbOptions14sequenceStringE @3606
    _ZN4omni9idHandler5visitEPKcNS_10orbOptions6SourceE @3607
    _ZN4omni9idHandlerC1Ev @3608
    _ZN4omni9idHandlerD0Ev @3609
    _ZN4omni9idHandlerD1Ev @3610
    _ZN4omni9orbServerC2Ev @3611
    _ZN4omni9orbServerD0Ev @3612
    _ZN4omni9orbServerD1Ev @3613
    _ZN4omni9orbServerD2Ev @3614
    _ZN5CORBA10INITIALIZE13insertToAnyFnE @3615 DATA
    _ZN5CORBA10INITIALIZE16insertToAnyFnNCPE @3616 DATA
    _ZN5CORBA10INITIALIZE9_downcastEPKNS_9ExceptionE @3617
    _ZN5CORBA10INITIALIZE9_downcastEPNS_9ExceptionE @3618
    _ZN5CORBA10INITIALIZEC1ERKS0_ @3619
    _ZN5CORBA10INITIALIZEC1EmNS_16CompletionStatusE @3620
    _ZN5CORBA10INITIALIZED0Ev @3621
    _ZN5CORBA10INITIALIZED1Ev @3622
    _ZN5CORBA10INITIALIZED2Ev @3623
    _ZN5CORBA10INTF_REPOS13insertToAnyFnE @3624 DATA
    _ZN5CORBA10INTF_REPOS16insertToAnyFnNCPE @3625 DATA
    _ZN5CORBA10INTF_REPOS9_downcastEPKNS_9ExceptionE @3626
    _ZN5CORBA10INTF_REPOS9_downcastEPNS_9ExceptionE @3627
    _ZN5CORBA10INTF_REPOSC1ERKS0_ @3628
    _ZN5CORBA10INTF_REPOSC1EmNS_16CompletionStatusE @3629
    _ZN5CORBA10INTF_REPOSD0Ev @3630
    _ZN5CORBA10INTF_REPOSD1Ev @3631
    _ZN5CORBA10INTF_REPOSD2Ev @3632
    _ZN5CORBA10INV_OBJREF13insertToAnyFnE @3633 DATA
    _ZN5CORBA10INV_OBJREF16insertToAnyFnNCPE @3634 DATA
    _ZN5CORBA10INV_OBJREF9_downcastEPKNS_9ExceptionE @3635
    _ZN5CORBA10INV_OBJREF9_downcastEPNS_9ExceptionE @3636
    _ZN5CORBA10INV_OBJREFC1ERKS0_ @3637
    _ZN5CORBA10INV_OBJREFC1EmNS_16CompletionStatusE @3638
    _ZN5CORBA10INV_OBJREFD0Ev @3639
    _ZN5CORBA10INV_OBJREFD1Ev @3640
    _ZN5CORBA10INV_OBJREFD2Ev @3641
    _ZN5CORBA10INV_POLICY13insertToAnyFnE @3642 DATA
    _ZN5CORBA10INV_POLICY16insertToAnyFnNCPE @3643 DATA
    _ZN5CORBA10INV_POLICY9_downcastEPKNS_9ExceptionE @3644
    _ZN5CORBA10INV_POLICY9_downcastEPNS_9ExceptionE @3645
    _ZN5CORBA10INV_POLICYC1ERKS0_ @3646
    _ZN5CORBA10INV_POLICYC1EmNS_16CompletionStatusE @3647
    _ZN5CORBA10INV_POLICYD0Ev @3648
    _ZN5CORBA10INV_POLICYD1Ev @3649
    _ZN5CORBA10INV_POLICYD2Ev @3650
    _ZN5CORBA10Object_var5_retnEv @3651
    _ZN5CORBA10Object_varC1EPNS_6ObjectE @3652
    _ZN5CORBA10Object_varC1Ev @3653
    _ZN5CORBA10Object_varD1Ev @3654
    _ZN5CORBA10Object_varaSEPNS_6ObjectE @3655
    _ZN5CORBA10string_dupEPKc @3656
    _ZN5CORBA11BAD_CONTEXT13insertToAnyFnE @3657 DATA
    _ZN5CORBA11BAD_CONTEXT16insertToAnyFnNCPE @3658 DATA
    _ZN5CORBA11BAD_CONTEXT9_downcastEPKNS_9ExceptionE @3659
    _ZN5CORBA11BAD_CONTEXT9_downcastEPNS_9ExceptionE @3660
    _ZN5CORBA11BAD_CONTEXTC1ERKS0_ @3661
    _ZN5CORBA11BAD_CONTEXTC1EmNS_16CompletionStatusE @3662
    _ZN5CORBA11BAD_CONTEXTD0Ev @3663
    _ZN5CORBA11BAD_CONTEXTD1Ev @3664
    _ZN5CORBA11BAD_CONTEXTD2Ev @3665
    _ZN5CORBA11LocalObject10_PD_repoIdE @3666 DATA
    _ZN5CORBA11LocalObject10_duplicateEPS0_ @3667
    _ZN5CORBA11LocalObject11_remove_refEv @3668
    _ZN5CORBA11LocalObject12_ptrToObjRefEPKc @3669
    _ZN5CORBA11LocalObject13_non_existentEv @3670
    _ZN5CORBA11LocalObject14_marshalObjRefEPS0_R9cdrStream @3671
    _ZN5CORBA11LocalObject16_NP_decrRefCountEv @3672
    _ZN5CORBA11LocalObject16_NP_incrRefCountEv @3673
    _ZN5CORBA11LocalObject16_unmarshalObjRefER9cdrStream @3674
    _ZN5CORBA11LocalObject17_unchecked_narrowEPNS_6ObjectE @3675
    _ZN5CORBA11LocalObject4_nilEv @3676
    _ZN5CORBA11LocalObject7_narrowEPNS_6ObjectE @3677
    _ZN5CORBA11LocalObject8_add_refEv @3678
    _ZN5CORBA11LocalObjectC1Ev @3679
    _ZN5CORBA11LocalObjectC2Ev @3680
    _ZN5CORBA11LocalObjectD0Ev @3681
    _ZN5CORBA11LocalObjectD1Ev @3682
    _ZN5CORBA11LocalObjectD2Ev @3683
    _ZN5CORBA11NO_RESPONSE13insertToAnyFnE @3684 DATA
    _ZN5CORBA11NO_RESPONSE16insertToAnyFnNCPE @3685 DATA
    _ZN5CORBA11NO_RESPONSE9_downcastEPKNS_9ExceptionE @3686
    _ZN5CORBA11NO_RESPONSE9_downcastEPNS_9ExceptionE @3687
    _ZN5CORBA11NO_RESPONSEC1ERKS0_ @3688
    _ZN5CORBA11NO_RESPONSEC1EmNS_16CompletionStatusE @3689
    _ZN5CORBA11NO_RESPONSED0Ev @3690
    _ZN5CORBA11NO_RESPONSED1Ev @3691
    _ZN5CORBA11NO_RESPONSED2Ev @3692
    _ZN5CORBA11OBJ_ADAPTER13insertToAnyFnE @3693 DATA
    _ZN5CORBA11OBJ_ADAPTER16insertToAnyFnNCPE @3694 DATA
    _ZN5CORBA11OBJ_ADAPTER9_downcastEPKNS_9ExceptionE @3695
    _ZN5CORBA11OBJ_ADAPTER9_downcastEPNS_9ExceptionE @3696
    _ZN5CORBA11OBJ_ADAPTERC1ERKS0_ @3697
    _ZN5CORBA11OBJ_ADAPTERC1EmNS_16CompletionStatusE @3698
    _ZN5CORBA11OBJ_ADAPTERD0Ev @3699
    _ZN5CORBA11OBJ_ADAPTERD1Ev @3700
    _ZN5CORBA11OBJ_ADAPTERD2Ev @3701
    _ZN5CORBA11string_freeEPc @3702
    _ZN5CORBA11wstring_dupEPKw @3703
    _ZN5CORBA12BAD_TYPECODE13insertToAnyFnE @3704 DATA
    _ZN5CORBA12BAD_TYPECODE16insertToAnyFnNCPE @3705 DATA
    _ZN5CORBA12BAD_TYPECODE9_downcastEPKNS_9ExceptionE @3706
    _ZN5CORBA12BAD_TYPECODE9_downcastEPNS_9ExceptionE @3707
    _ZN5CORBA12BAD_TYPECODEC1ERKS0_ @3708
    _ZN5CORBA12BAD_TYPECODEC1EmNS_16CompletionStatusE @3709
    _ZN5CORBA12BAD_TYPECODED0Ev @3710
    _ZN5CORBA12BAD_TYPECODED1Ev @3711
    _ZN5CORBA12BAD_TYPECODED2Ev @3712
    _ZN5CORBA12COMM_FAILURE13insertToAnyFnE @3713 DATA
    _ZN5CORBA12COMM_FAILURE16insertToAnyFnNCPE @3714 DATA
    _ZN5CORBA12COMM_FAILURE9_downcastEPKNS_9ExceptionE @3715
    _ZN5CORBA12COMM_FAILURE9_downcastEPNS_9ExceptionE @3716
    _ZN5CORBA12COMM_FAILUREC1ERKS0_ @3717
    _ZN5CORBA12COMM_FAILUREC1EmNS_16CompletionStatusE @3718
    _ZN5CORBA12COMM_FAILURED0Ev @3719
    _ZN5CORBA12COMM_FAILURED1Ev @3720
    _ZN5CORBA12COMM_FAILURED2Ev @3721
    _ZN5CORBA12NO_IMPLEMENT13insertToAnyFnE @3722 DATA
    _ZN5CORBA12NO_IMPLEMENT16insertToAnyFnNCPE @3723 DATA
    _ZN5CORBA12NO_IMPLEMENT9_downcastEPKNS_9ExceptionE @3724
    _ZN5CORBA12NO_IMPLEMENT9_downcastEPNS_9ExceptionE @3725
    _ZN5CORBA12NO_IMPLEMENTC1ERKS0_ @3726
    _ZN5CORBA12NO_IMPLEMENTC1EmNS_16CompletionStatusE @3727
    _ZN5CORBA12NO_IMPLEMENTD0Ev @3728
    _ZN5CORBA12NO_IMPLEMENTD1Ev @3729
    _ZN5CORBA12NO_IMPLEMENTD2Ev @3730
    _ZN5CORBA12NO_RESOURCES13insertToAnyFnE @3731 DATA
    _ZN5CORBA12NO_RESOURCES16insertToAnyFnNCPE @3732 DATA
    _ZN5CORBA12NO_RESOURCES9_downcastEPKNS_9ExceptionE @3733
    _ZN5CORBA12NO_RESOURCES9_downcastEPNS_9ExceptionE @3734
    _ZN5CORBA12NO_RESOURCESC1ERKS0_ @3735
    _ZN5CORBA12NO_RESOURCESC1EmNS_16CompletionStatusE @3736
    _ZN5CORBA12NO_RESOURCESD0Ev @3737
    _ZN5CORBA12NO_RESOURCESD1Ev @3738
    _ZN5CORBA12NO_RESOURCESD2Ev @3739
    _ZN5CORBA12string_allocEm @3740
    _ZN5CORBA12wstring_freeEPw @3741
    _ZN5CORBA13BAD_INV_ORDER13insertToAnyFnE @3742 DATA
    _ZN5CORBA13BAD_INV_ORDER16insertToAnyFnNCPE @3743 DATA
    _ZN5CORBA13BAD_INV_ORDER9_downcastEPKNS_9ExceptionE @3744
    _ZN5CORBA13BAD_INV_ORDER9_downcastEPNS_9ExceptionE @3745
    _ZN5CORBA13BAD_INV_ORDERC1ERKS0_ @3746
    _ZN5CORBA13BAD_INV_ORDERC1EmNS_16CompletionStatusE @3747
    _ZN5CORBA13BAD_INV_ORDERD0Ev @3748
    _ZN5CORBA13BAD_INV_ORDERD1Ev @3749
    _ZN5CORBA13BAD_INV_ORDERD2Ev @3750
    _ZN5CORBA13BAD_OPERATION13insertToAnyFnE @3751 DATA
    _ZN5CORBA13BAD_OPERATION16insertToAnyFnNCPE @3752 DATA
    _ZN5CORBA13BAD_OPERATION9_downcastEPKNS_9ExceptionE @3753
    _ZN5CORBA13BAD_OPERATION9_downcastEPNS_9ExceptionE @3754
    _ZN5CORBA13BAD_OPERATIONC1ERKS0_ @3755
    _ZN5CORBA13BAD_OPERATIONC1EmNS_16CompletionStatusE @3756
    _ZN5CORBA13BAD_OPERATIOND0Ev @3757
    _ZN5CORBA13BAD_OPERATIOND1Ev @3758
    _ZN5CORBA13BAD_OPERATIOND2Ev @3759
    _ZN5CORBA13NO_PERMISSION13insertToAnyFnE @3760 DATA
    _ZN5CORBA13NO_PERMISSION16insertToAnyFnNCPE @3761 DATA
    _ZN5CORBA13NO_PERMISSION9_downcastEPKNS_9ExceptionE @3762
    _ZN5CORBA13NO_PERMISSION9_downcastEPNS_9ExceptionE @3763
    _ZN5CORBA13NO_PERMISSIONC1ERKS0_ @3764
    _ZN5CORBA13NO_PERMISSIONC1EmNS_16CompletionStatusE @3765
    _ZN5CORBA13NO_PERMISSIOND0Ev @3766
    _ZN5CORBA13NO_PERMISSIOND1Ev @3767
    _ZN5CORBA13NO_PERMISSIOND2Ev @3768
    _ZN5CORBA13Object_Helper13marshalObjRefEPNS_6ObjectER9cdrStream @3769
    _ZN5CORBA13Object_Helper15unmarshalObjRefER9cdrStream @3770
    _ZN5CORBA13Object_Helper4_nilEv @3771
    _ZN5CORBA13Object_Helper6is_nilEPNS_6ObjectE @3772
    _ZN5CORBA13Object_Helper7releaseEPNS_6ObjectE @3773
    _ZN5CORBA13Object_Helper9duplicateEPNS_6ObjectE @3774
    _ZN5CORBA13Object_MemberC1Ev @3775
    _ZN5CORBA13Object_MemberD1Ev @3776
    _ZN5CORBA13Object_MemberaSEPNS_6ObjectE @3777
    _ZN5CORBA13Object_MemberaSERKS0_ @3778
    _ZN5CORBA13PERSIST_STORE13insertToAnyFnE @3779 DATA
    _ZN5CORBA13PERSIST_STORE16insertToAnyFnNCPE @3780 DATA
    _ZN5CORBA13PERSIST_STORE9_downcastEPKNS_9ExceptionE @3781
    _ZN5CORBA13PERSIST_STORE9_downcastEPNS_9ExceptionE @3782
    _ZN5CORBA13PERSIST_STOREC1ERKS0_ @3783
    _ZN5CORBA13PERSIST_STOREC1EmNS_16CompletionStatusE @3784
    _ZN5CORBA13PERSIST_STORED0Ev @3785
    _ZN5CORBA13PERSIST_STORED1Ev @3786
    _ZN5CORBA13PERSIST_STORED2Ev @3787
    _ZN5CORBA13UserException9_downcastEPKNS_9ExceptionE @3788
    _ZN5CORBA13UserException9_downcastEPNS_9ExceptionE @3789
    _ZN5CORBA13UserExceptionC2ERKS0_ @3790
    _ZN5CORBA13UserExceptionC2Ev @3791
    _ZN5CORBA13UserExceptionD0Ev @3792
    _ZN5CORBA13UserExceptionD1Ev @3793
    _ZN5CORBA13UserExceptionD2Ev @3794
    _ZN5CORBA13UserExceptionaSERKS0_ @3795
    _ZN5CORBA13wstring_allocEm @3796
    _ZN5CORBA14IDLType_Helper6is_nilEPNS_15_objref_IDLTypeE @3797
    _ZN5CORBA14IDLType_Helper7releaseEPNS_15_objref_IDLTypeE @3798
    _ZN5CORBA15DATA_CONVERSION13insertToAnyFnE @3799 DATA
    _ZN5CORBA15DATA_CONVERSION16insertToAnyFnNCPE @3800 DATA
    _ZN5CORBA15DATA_CONVERSION9_downcastEPKNS_9ExceptionE @3801
    _ZN5CORBA15DATA_CONVERSION9_downcastEPNS_9ExceptionE @3802
    _ZN5CORBA15DATA_CONVERSIONC1ERKS0_ @3803
    _ZN5CORBA15DATA_CONVERSIONC1EmNS_16CompletionStatusE @3804
    _ZN5CORBA15DATA_CONVERSIOND0Ev @3805
    _ZN5CORBA15DATA_CONVERSIOND1Ev @3806
    _ZN5CORBA15DATA_CONVERSIOND2Ev @3807
    _ZN5CORBA15SystemException9_downcastEPKNS_9ExceptionE @3808
    _ZN5CORBA15SystemException9_downcastEPNS_9ExceptionE @3809
    _ZN5CORBA15SystemExceptionC2ERKS0_ @3810
    _ZN5CORBA15SystemExceptionC2EmNS_16CompletionStatusE @3811
    _ZN5CORBA15SystemExceptionD0Ev @3812
    _ZN5CORBA15SystemExceptionD1Ev @3813
    _ZN5CORBA15SystemExceptionD2Ev @3814
    _ZN5CORBA15TypeCode_memberD1Ev @3815
    _ZN5CORBA15TypeCode_memberD2Ev @3816
    _ZN5CORBA16Contained_Helper6is_nilEPNS_17_objref_ContainedE @3817
    _ZN5CORBA16Contained_Helper7releaseEPNS_17_objref_ContainedE @3818
    _ZN5CORBA16OBJECT_NOT_EXIST13insertToAnyFnE @3819 DATA
    _ZN5CORBA16OBJECT_NOT_EXIST16insertToAnyFnNCPE @3820 DATA
    _ZN5CORBA16OBJECT_NOT_EXIST9_downcastEPKNS_9ExceptionE @3821
    _ZN5CORBA16OBJECT_NOT_EXIST9_downcastEPNS_9ExceptionE @3822
    _ZN5CORBA16OBJECT_NOT_EXISTC1ERKS0_ @3823
    _ZN5CORBA16OBJECT_NOT_EXISTC1EmNS_16CompletionStatusE @3824
    _ZN5CORBA16OBJECT_NOT_EXISTD0Ev @3825
    _ZN5CORBA16OBJECT_NOT_EXISTD1Ev @3826
    _ZN5CORBA16OBJECT_NOT_EXISTD2Ev @3827
    _ZN5CORBA16TRANSACTION_MODE13insertToAnyFnE @3828 DATA
    _ZN5CORBA16TRANSACTION_MODE16insertToAnyFnNCPE @3829 DATA
    _ZN5CORBA16TRANSACTION_MODE9_downcastEPKNS_9ExceptionE @3830
    _ZN5CORBA16TRANSACTION_MODE9_downcastEPNS_9ExceptionE @3831
    _ZN5CORBA16TRANSACTION_MODEC1ERKS0_ @3832
    _ZN5CORBA16TRANSACTION_MODEC1EmNS_16CompletionStatusE @3833
    _ZN5CORBA16TRANSACTION_MODED0Ev @3834
    _ZN5CORBA16TRANSACTION_MODED1Ev @3835
    _ZN5CORBA16TRANSACTION_MODED2Ev @3836
    _ZN5CORBA18LocalObject_Helper13marshalObjRefEPNS_11LocalObjectER9cdrStream @3837
    _ZN5CORBA18LocalObject_Helper15unmarshalObjRefER9cdrStream @3838
    _ZN5CORBA18LocalObject_Helper4_nilEv @3839
    _ZN5CORBA18LocalObject_Helper6is_nilEPNS_11LocalObjectE @3840
    _ZN5CORBA18LocalObject_Helper7releaseEPNS_11LocalObjectE @3841
    _ZN5CORBA18LocalObject_Helper9duplicateEPNS_11LocalObjectE @3842
    _ZN5CORBA19ExceptionDef_Helper6is_nilEPNS_20_objref_ExceptionDefE @3843
    _ZN5CORBA19ExceptionDef_Helper7releaseEPNS_20_objref_ExceptionDefE @3844
    _ZN5CORBA19INVALID_TRANSACTION13insertToAnyFnE @3845 DATA
    _ZN5CORBA19INVALID_TRANSACTION16insertToAnyFnNCPE @3846 DATA
    _ZN5CORBA19INVALID_TRANSACTION9_downcastEPKNS_9ExceptionE @3847
    _ZN5CORBA19INVALID_TRANSACTION9_downcastEPNS_9ExceptionE @3848
    _ZN5CORBA19INVALID_TRANSACTIONC1ERKS0_ @3849
    _ZN5CORBA19INVALID_TRANSACTIONC1EmNS_16CompletionStatusE @3850
    _ZN5CORBA19INVALID_TRANSACTIOND0Ev @3851
    _ZN5CORBA19INVALID_TRANSACTIOND1Ev @3852
    _ZN5CORBA19INVALID_TRANSACTIOND2Ev @3853
    _ZN5CORBA19InterfaceDef_Helper6is_nilEPNS_20_objref_InterfaceDefE @3854
    _ZN5CORBA19InterfaceDef_Helper7releaseEPNS_20_objref_InterfaceDefE @3855
    _ZN5CORBA20CODESET_INCOMPATIBLE13insertToAnyFnE @3856 DATA
    _ZN5CORBA20CODESET_INCOMPATIBLE16insertToAnyFnNCPE @3857 DATA
    _ZN5CORBA20CODESET_INCOMPATIBLE9_downcastEPKNS_9ExceptionE @3858
    _ZN5CORBA20CODESET_INCOMPATIBLE9_downcastEPNS_9ExceptionE @3859
    _ZN5CORBA20CODESET_INCOMPATIBLEC1ERKS0_ @3860
    _ZN5CORBA20CODESET_INCOMPATIBLEC1EmNS_16CompletionStatusE @3861
    _ZN5CORBA20CODESET_INCOMPATIBLED0Ev @3862
    _ZN5CORBA20CODESET_INCOMPATIBLED1Ev @3863
    _ZN5CORBA20CODESET_INCOMPATIBLED2Ev @3864
    _ZN5CORBA20TRANSACTION_REQUIRED13insertToAnyFnE @3865 DATA
    _ZN5CORBA20TRANSACTION_REQUIRED16insertToAnyFnNCPE @3866 DATA
    _ZN5CORBA20TRANSACTION_REQUIRED9_downcastEPKNS_9ExceptionE @3867
    _ZN5CORBA20TRANSACTION_REQUIRED9_downcastEPNS_9ExceptionE @3868
    _ZN5CORBA20TRANSACTION_REQUIREDC1ERKS0_ @3869
    _ZN5CORBA20TRANSACTION_REQUIREDC1EmNS_16CompletionStatusE @3870
    _ZN5CORBA20TRANSACTION_REQUIREDD0Ev @3871
    _ZN5CORBA20TRANSACTION_REQUIREDD1Ev @3872
    _ZN5CORBA20TRANSACTION_REQUIREDD2Ev @3873
    _ZN5CORBA22TRANSACTION_ROLLEDBACK13insertToAnyFnE @3874 DATA
    _ZN5CORBA22TRANSACTION_ROLLEDBACK16insertToAnyFnNCPE @3875 DATA
    _ZN5CORBA22TRANSACTION_ROLLEDBACK9_downcastEPKNS_9ExceptionE @3876
    _ZN5CORBA22TRANSACTION_ROLLEDBACK9_downcastEPNS_9ExceptionE @3877
    _ZN5CORBA22TRANSACTION_ROLLEDBACKC1ERKS0_ @3878
    _ZN5CORBA22TRANSACTION_ROLLEDBACKC1EmNS_16CompletionStatusE @3879
    _ZN5CORBA22TRANSACTION_ROLLEDBACKD0Ev @3880
    _ZN5CORBA22TRANSACTION_ROLLEDBACKD1Ev @3881
    _ZN5CORBA22TRANSACTION_ROLLEDBACKD2Ev @3882
    _ZN5CORBA23TRANSACTION_UNAVAILABLE13insertToAnyFnE @3883 DATA
    _ZN5CORBA23TRANSACTION_UNAVAILABLE16insertToAnyFnNCPE @3884 DATA
    _ZN5CORBA23TRANSACTION_UNAVAILABLE9_downcastEPKNS_9ExceptionE @3885
    _ZN5CORBA23TRANSACTION_UNAVAILABLE9_downcastEPNS_9ExceptionE @3886
    _ZN5CORBA23TRANSACTION_UNAVAILABLEC1ERKS0_ @3887
    _ZN5CORBA23TRANSACTION_UNAVAILABLEC1EmNS_16CompletionStatusE @3888
    _ZN5CORBA23TRANSACTION_UNAVAILABLED0Ev @3889
    _ZN5CORBA23TRANSACTION_UNAVAILABLED1Ev @3890
    _ZN5CORBA23TRANSACTION_UNAVAILABLED2Ev @3891
    _ZN5CORBA3AnyD1Ev @3892
    _ZN5CORBA3AnyD2Ev @3893
    _ZN5CORBA3BOA10_PD_repoIdE @3894 DATA
    _ZN5CORBA3BOA10_duplicateEPS0_ @3895
    _ZN5CORBA3BOA4_nilEv @3896
    _ZN5CORBA3BOA6getBOAEv @3897
    _ZN5CORBA3BOA7_narrowEPNS_6ObjectE @3898
    _ZN5CORBA3BOAC2Ei @3899
    _ZN5CORBA3BOAD0Ev @3900
    _ZN5CORBA3BOAD1Ev @3901
    _ZN5CORBA3BOAD2Ev @3902
    _ZN5CORBA3ORB10_PD_repoIdE @3903 DATA
    _ZN5CORBA3ORB10_duplicateEPS0_ @3904
    _ZN5CORBA3ORB11InvalidName10_PD_repoIdE @3905 DATA
    _ZN5CORBA3ORB11InvalidName13insertToAnyFnE @3906 DATA
    _ZN5CORBA3ORB11InvalidName16insertToAnyFnNCPE @3907 DATA
    _ZN5CORBA3ORB11InvalidName9_downcastEPKNS_9ExceptionE @3908
    _ZN5CORBA3ORB11InvalidName9_downcastEPNS_9ExceptionE @3909
    _ZN5CORBA3ORB11InvalidNameC1ERKS1_ @3910
    _ZN5CORBA3ORB11InvalidNameC1Ev @3911
    _ZN5CORBA3ORB11InvalidNameD0Ev @3912
    _ZN5CORBA3ORB11InvalidNameD1Ev @3913
    _ZN5CORBA3ORB11InvalidNameD2Ev @3914
    _ZN5CORBA3ORB12ObjectIdListC1Em @3915
    _ZN5CORBA3ORB4_nilEv @3916
    _ZN5CORBA3ORB7_narrowEPNS_6ObjectE @3917
    _ZN5CORBA3ORB8BOA_initERiPPcPKc @3918
    _ZN5CORBA3ORBC2Ei @3919
    _ZN5CORBA3ORBD0Ev @3920
    _ZN5CORBA3ORBD1Ev @3921
    _ZN5CORBA3ORBD2Ev @3922
    _ZN5CORBA5Fixed12PR_setLimitsEtt @3923
    _ZN5CORBA5Fixed13NP_fromStringEPKcb @3924
    _ZN5CORBA5Fixed14PR_changeScaleEt @3925
    _ZN5CORBA5Fixed14PR_checkLimitsEv @3926
    _ZN5CORBA5Fixed6NP_cmpERKS0_S2_ @3927
    _ZN5CORBA5FixedC1EPKc @3928
    _ZN5CORBA5FixedC1EPKhttb @3929
    _ZN5CORBA5FixedC1ERKS0_ @3930
    _ZN5CORBA5FixedC1Ed @3931
    _ZN5CORBA5FixedC1Ee @3932
    _ZN5CORBA5FixedC1Ei @3933
    _ZN5CORBA5FixedC1Ej @3934
    _ZN5CORBA5FixedC1El @3935
    _ZN5CORBA5FixedC1Em @3936
    _ZN5CORBA5FixedC1Ex @3937
    _ZN5CORBA5FixedC1Ey @3938
    _ZN5CORBA5FixedC2EPKc @3939
    _ZN5CORBA5FixedC2EPKhttb @3940
    _ZN5CORBA5FixedC2ERKS0_ @3941
    _ZN5CORBA5FixedC2Ed @3942
    _ZN5CORBA5FixedC2Ee @3943
    _ZN5CORBA5FixedC2Ei @3944
    _ZN5CORBA5FixedC2Ej @3945
    _ZN5CORBA5FixedC2El @3946
    _ZN5CORBA5FixedC2Em @3947
    _ZN5CORBA5FixedC2Ex @3948
    _ZN5CORBA5FixedC2Ey @3949
    _ZN5CORBA5FixedD1Ev @3950
    _ZN5CORBA5FixedD2Ev @3951
    _ZN5CORBA5FixedaSERKS0_ @3952
    _ZN5CORBA5FixeddVERKS0_ @3953
    _ZN5CORBA5FixedlSER9cdrStream @3954
    _ZN5CORBA5FixedmIERKS0_ @3955
    _ZN5CORBA5FixedmLERKS0_ @3956
    _ZN5CORBA5FixedmmEi @3957
    _ZN5CORBA5FixedmmEv @3958
    _ZN5CORBA5FixedpLERKS0_ @3959
    _ZN5CORBA5FixedppEi @3960
    _ZN5CORBA5FixedppEv @3961
    _ZN5CORBA6Object10_PD_repoIdE @3962 DATA
    _ZN5CORBA6Object10_PR_getobjEv @3963
    _ZN5CORBA6Object10_PR_setobjEP10omniObjRef @3964
    _ZN5CORBA6Object10_duplicateEPS0_ @3965
    _ZN5CORBA6Object12_PR_is_validEPS0_ @3966
    _ZN5CORBA6Object12_ptrToObjRefEPKc @3967
    _ZN5CORBA6Object13_non_existentEv @3968
    _ZN5CORBA6Object14_is_equivalentEPS0_ @3969
    _ZN5CORBA6Object14_marshalObjRefEPS0_R9cdrStream @3970
    _ZN5CORBA6Object16_NP_decrRefCountEv @3971
    _ZN5CORBA6Object16_NP_incrRefCountEv @3972
    _ZN5CORBA6Object16_unmarshalObjRefER9cdrStream @3973
    _ZN5CORBA6Object4_nilEv @3974
    _ZN5CORBA6Object5_hashEm @3975
    _ZN5CORBA6Object5_is_aEPKc @3976
    _ZN5CORBA6Object9_PR_magicE @3977 DATA
    _ZN5CORBA6ObjectC1Ev @3978
    _ZN5CORBA6ObjectC2Ev @3979
    _ZN5CORBA6ObjectD0Ev @3980
    _ZN5CORBA6ObjectD1Ev @3981
    _ZN5CORBA6ObjectD2Ev @3982
    _ZN5CORBA6Policy10_PD_repoIdE @3983 DATA
    _ZN5CORBA6Policy10_duplicateEPS0_ @3984
    _ZN5CORBA6Policy11policy_typeEv @3985
    _ZN5CORBA6Policy12_ptrToObjRefEPKc @3986
    _ZN5CORBA6Policy16_NP_decrRefCountEv @3987
    _ZN5CORBA6Policy16_NP_incrRefCountEv @3988
    _ZN5CORBA6Policy4_nilEv @3989
    _ZN5CORBA6Policy4copyEv @3990
    _ZN5CORBA6Policy7_narrowEPNS_6ObjectE @3991
    _ZN5CORBA6Policy7destroyEv @3992
    _ZN5CORBA6PolicyC1Em @3993
    _ZN5CORBA6PolicyC1Ev @3994
    _ZN5CORBA6PolicyC2Em @3995
    _ZN5CORBA6PolicyC2Ev @3996
    _ZN5CORBA6PolicyD0Ev @3997
    _ZN5CORBA6PolicyD1Ev @3998
    _ZN5CORBA6PolicyD2Ev @3999
    _ZN5CORBA6REBIND13insertToAnyFnE @4000 DATA
    _ZN5CORBA6REBIND16insertToAnyFnNCPE @4001 DATA
    _ZN5CORBA6REBIND9_downcastEPKNS_9ExceptionE @4002
    _ZN5CORBA6REBIND9_downcastEPNS_9ExceptionE @4003
    _ZN5CORBA6REBINDC1ERKS0_ @4004
    _ZN5CORBA6REBINDC1EmNS_16CompletionStatusE @4005
    _ZN5CORBA6REBINDD0Ev @4006
    _ZN5CORBA6REBINDD1Ev @4007
    _ZN5CORBA6REBINDD2Ev @4008
    _ZN5CORBA6is_nilEPNS_6ObjectE @4009
    _ZN5CORBA7BAD_QOS13insertToAnyFnE @4010 DATA
    _ZN5CORBA7BAD_QOS16insertToAnyFnNCPE @4011 DATA
    _ZN5CORBA7BAD_QOS9_downcastEPKNS_9ExceptionE @4012
    _ZN5CORBA7BAD_QOS9_downcastEPNS_9ExceptionE @4013
    _ZN5CORBA7BAD_QOSC1ERKS0_ @4014
    _ZN5CORBA7BAD_QOSC1EmNS_16CompletionStatusE @4015
    _ZN5CORBA7BAD_QOSD0Ev @4016
    _ZN5CORBA7BAD_QOSD1Ev @4017
    _ZN5CORBA7BAD_QOSD2Ev @4018
    _ZN5CORBA7BOA_varC1EPNS_3BOAE @4019
    _ZN5CORBA7BOA_varD1Ev @4020
    _ZN5CORBA7Current10_PD_repoIdE @4021 DATA
    _ZN5CORBA7Current10_duplicateEPS0_ @4022
    _ZN5CORBA7Current4_nilEv @4023
    _ZN5CORBA7Current7_narrowEPNS_6ObjectE @4024
    _ZN5CORBA7CurrentC1Ei @4025
    _ZN5CORBA7CurrentC2Ei @4026
    _ZN5CORBA7CurrentD0Ev @4027
    _ZN5CORBA7CurrentD1Ev @4028
    _ZN5CORBA7CurrentD2Ev @4029
    _ZN5CORBA7MARSHAL13insertToAnyFnE @4030 DATA
    _ZN5CORBA7MARSHAL16insertToAnyFnNCPE @4031 DATA
    _ZN5CORBA7MARSHAL9_downcastEPKNS_9ExceptionE @4032
    _ZN5CORBA7MARSHAL9_downcastEPNS_9ExceptionE @4033
    _ZN5CORBA7MARSHALC1ERKS0_ @4034
    _ZN5CORBA7MARSHALC1EmNS_16CompletionStatusE @4035
    _ZN5CORBA7MARSHALD0Ev @4036
    _ZN5CORBA7MARSHALD1Ev @4037
    _ZN5CORBA7MARSHALD2Ev @4038
    _ZN5CORBA7TIMEOUT13insertToAnyFnE @4039 DATA
    _ZN5CORBA7TIMEOUT16insertToAnyFnNCPE @4040 DATA
    _ZN5CORBA7TIMEOUT9_downcastEPKNS_9ExceptionE @4041
    _ZN5CORBA7TIMEOUT9_downcastEPNS_9ExceptionE @4042
    _ZN5CORBA7TIMEOUTC1ERKS0_ @4043
    _ZN5CORBA7TIMEOUTC1EmNS_16CompletionStatusE @4044
    _ZN5CORBA7TIMEOUTD0Ev @4045
    _ZN5CORBA7TIMEOUTD1Ev @4046
    _ZN5CORBA7TIMEOUTD2Ev @4047
    _ZN5CORBA7UNKNOWN13insertToAnyFnE @4048 DATA
    _ZN5CORBA7UNKNOWN16insertToAnyFnNCPE @4049 DATA
    _ZN5CORBA7UNKNOWN9_downcastEPKNS_9ExceptionE @4050
    _ZN5CORBA7UNKNOWN9_downcastEPNS_9ExceptionE @4051
    _ZN5CORBA7UNKNOWNC1ERKS0_ @4052
    _ZN5CORBA7UNKNOWNC1EmNS_16CompletionStatusE @4053
    _ZN5CORBA7UNKNOWND0Ev @4054
    _ZN5CORBA7UNKNOWND1Ev @4055
    _ZN5CORBA7UNKNOWND2Ev @4056
    _ZN5CORBA7releaseEPNS_6ObjectE @4057
    _ZN5CORBA8FREE_MEM13insertToAnyFnE @4058 DATA
    _ZN5CORBA8FREE_MEM16insertToAnyFnNCPE @4059 DATA
    _ZN5CORBA8FREE_MEM9_downcastEPKNS_9ExceptionE @4060
    _ZN5CORBA8FREE_MEM9_downcastEPNS_9ExceptionE @4061
    _ZN5CORBA8FREE_MEMC1ERKS0_ @4062
    _ZN5CORBA8FREE_MEMC1EmNS_16CompletionStatusE @4063
    _ZN5CORBA8FREE_MEMD0Ev @4064
    _ZN5CORBA8FREE_MEMD1Ev @4065
    _ZN5CORBA8FREE_MEMD2Ev @4066
    _ZN5CORBA8INTERNAL13insertToAnyFnE @4067 DATA
    _ZN5CORBA8INTERNAL16insertToAnyFnNCPE @4068 DATA
    _ZN5CORBA8INTERNAL9_downcastEPKNS_9ExceptionE @4069
    _ZN5CORBA8INTERNAL9_downcastEPNS_9ExceptionE @4070
    _ZN5CORBA8INTERNALC1ERKS0_ @4071
    _ZN5CORBA8INTERNALC1EmNS_16CompletionStatusE @4072
    _ZN5CORBA8INTERNALD0Ev @4073
    _ZN5CORBA8INTERNALD1Ev @4074
    _ZN5CORBA8INTERNALD2Ev @4075
    _ZN5CORBA8INV_FLAG13insertToAnyFnE @4076 DATA
    _ZN5CORBA8INV_FLAG16insertToAnyFnNCPE @4077 DATA
    _ZN5CORBA8INV_FLAG9_downcastEPKNS_9ExceptionE @4078
    _ZN5CORBA8INV_FLAG9_downcastEPNS_9ExceptionE @4079
    _ZN5CORBA8INV_FLAGC1ERKS0_ @4080
    _ZN5CORBA8INV_FLAGC1EmNS_16CompletionStatusE @4081
    _ZN5CORBA8INV_FLAGD0Ev @4082
    _ZN5CORBA8INV_FLAGD1Ev @4083
    _ZN5CORBA8INV_FLAGD2Ev @4084
    _ZN5CORBA8ORB_initERiPPcPKcPA2_S4_ @4085
    _ZN5CORBA8OctetSeqC1Em @4086
    _ZN5CORBA9BAD_PARAM13insertToAnyFnE @4087 DATA
    _ZN5CORBA9BAD_PARAM16insertToAnyFnNCPE @4088 DATA
    _ZN5CORBA9BAD_PARAM9_downcastEPKNS_9ExceptionE @4089
    _ZN5CORBA9BAD_PARAM9_downcastEPNS_9ExceptionE @4090
    _ZN5CORBA9BAD_PARAMC1ERKS0_ @4091
    _ZN5CORBA9BAD_PARAMC1EmNS_16CompletionStatusE @4092
    _ZN5CORBA9BAD_PARAMD0Ev @4093
    _ZN5CORBA9BAD_PARAMD1Ev @4094
    _ZN5CORBA9BAD_PARAMD2Ev @4095
    _ZN5CORBA9Exception10_duplicateEPS0_ @4096
    _ZN5CORBA9Exception8PR_magicE @4097 DATA
    _ZN5CORBA9Exception8_NP_is_aEPKS0_PKc @4098
    _ZN5CORBA9ExceptionC2ERKS0_ @4099
    _ZN5CORBA9ExceptionC2Ev @4100
    _ZN5CORBA9ExceptionD0Ev @4101
    _ZN5CORBA9ExceptionD1Ev @4102
    _ZN5CORBA9ExceptionD2Ev @4103
    _ZN5CORBA9ExceptionaSERKS0_ @4104
    _ZN5CORBA9IMP_LIMIT13insertToAnyFnE @4105 DATA
    _ZN5CORBA9IMP_LIMIT16insertToAnyFnNCPE @4106 DATA
    _ZN5CORBA9IMP_LIMIT9_downcastEPKNS_9ExceptionE @4107
    _ZN5CORBA9IMP_LIMIT9_downcastEPNS_9ExceptionE @4108
    _ZN5CORBA9IMP_LIMITC1ERKS0_ @4109
    _ZN5CORBA9IMP_LIMITC1EmNS_16CompletionStatusE @4110
    _ZN5CORBA9IMP_LIMITD0Ev @4111
    _ZN5CORBA9IMP_LIMITD1Ev @4112
    _ZN5CORBA9IMP_LIMITD2Ev @4113
    _ZN5CORBA9INV_IDENT13insertToAnyFnE @4114 DATA
    _ZN5CORBA9INV_IDENT16insertToAnyFnNCPE @4115 DATA
    _ZN5CORBA9INV_IDENT9_downcastEPKNS_9ExceptionE @4116
    _ZN5CORBA9INV_IDENT9_downcastEPNS_9ExceptionE @4117
    _ZN5CORBA9INV_IDENTC1ERKS0_ @4118
    _ZN5CORBA9INV_IDENTC1EmNS_16CompletionStatusE @4119
    _ZN5CORBA9INV_IDENTD0Ev @4120
    _ZN5CORBA9INV_IDENTD1Ev @4121
    _ZN5CORBA9INV_IDENTD2Ev @4122
    _ZN5CORBA9NO_MEMORY13insertToAnyFnE @4123 DATA
    _ZN5CORBA9NO_MEMORY16insertToAnyFnNCPE @4124 DATA
    _ZN5CORBA9NO_MEMORY9_downcastEPKNS_9ExceptionE @4125
    _ZN5CORBA9NO_MEMORY9_downcastEPNS_9ExceptionE @4126
    _ZN5CORBA9NO_MEMORYC1ERKS0_ @4127
    _ZN5CORBA9NO_MEMORYC1EmNS_16CompletionStatusE @4128
    _ZN5CORBA9NO_MEMORYD0Ev @4129
    _ZN5CORBA9NO_MEMORYD1Ev @4130
    _ZN5CORBA9NO_MEMORYD2Ev @4131
    _ZN5CORBA9TRANSIENT13insertToAnyFnE @4132 DATA
    _ZN5CORBA9TRANSIENT16insertToAnyFnNCPE @4133 DATA
    _ZN5CORBA9TRANSIENT9_downcastEPKNS_9ExceptionE @4134
    _ZN5CORBA9TRANSIENT9_downcastEPNS_9ExceptionE @4135
    _ZN5CORBA9TRANSIENTC1ERKS0_ @4136
    _ZN5CORBA9TRANSIENTC1EmNS_16CompletionStatusE @4137
    _ZN5CORBA9TRANSIENTD0Ev @4138
    _ZN5CORBA9TRANSIENTD1Ev @4139
    _ZN5CORBA9TRANSIENTD2Ev @4140
    _ZN7omniIOR12IORExtraInfoC1Em @4141
    _ZN7omniIOR12IORExtraInfoC2Em @4142
    _ZN7omniIOR12IORExtraInfoD0Ev @4143
    _ZN7omniIOR12IORExtraInfoD1Ev @4144
    _ZN7omniIOR12IORExtraInfoD2Ev @4145
    _ZN7omniIOR13releaseNoLockEv @4146
    _ZN7omniIOR14dump_TAG_GROUPERKN3IOP15TaggedComponentE @4147
    _ZN7omniIOR15duplicateNoLockEv @4148
    _ZN7omniIOR16add_IIOP_ADDRESSERKN4IIOP7AddressE @4149
    _ZN7omniIOR16decodeIOPprofileERKN4IIOP11ProfileBodyE @4150
    _ZN7omniIOR17add_TAG_CODE_SETSERKN4omni10CONV_FRAME20CodeSetComponentInfoE @4151
    _ZN7omniIOR17dump_TAG_ORB_TYPEERKN3IOP15TaggedComponentE @4152
    _ZN7omniIOR18dump_TAG_CODE_SETSERKN3IOP15TaggedComponentE @4153
    _ZN7omniIOR19unmarshal_TAG_GROUPERKN3IOP15TaggedComponentERS_ @4154
    _ZN7omniIOR21add_TAG_OMNIORB_BIDIREPKcRS_ @4155
    _ZN7omniIOR21add_TAG_SSL_SEC_TRANSERKN4IIOP7AddressEtt @4156
    _ZN7omniIOR22dump_TAG_OMNIORB_BIDIRERKN3IOP15TaggedComponentE @4157
    _ZN7omniIOR22dump_TAG_SSL_SEC_TRANSERKN3IOP15TaggedComponentE @4158
    _ZN7omniIOR22newIIOPtaggedComponentER25_CORBA_Unbounded_SequenceIN3IOP15TaggedComponentEE @4159
    _ZN7omniIOR22unmarshal_TAG_ORB_TYPEERKN3IOP15TaggedComponentERS_ @4160
    _ZN7omniIOR23unmarshal_TAG_CODE_SETSERKN3IOP15TaggedComponentERS_ @4161
    _ZN7omniIOR26add_TAG_OMNIORB_UNIX_TRANSEPKc @4162
    _ZN7omniIOR26dump_TAG_CSI_SEC_MECH_LISTERKN3IOP15TaggedComponentE @4163
    _ZN7omniIOR27addr_selected_profile_indexEl @4164
    _ZN7omniIOR27dump_TAG_OMNIORB_UNIX_TRANSERKN3IOP15TaggedComponentE @4165
    _ZN7omniIOR27unmarshal_TAG_OMNIORB_BIDIRERKN3IOP15TaggedComponentERS_ @4166
    _ZN7omniIOR27unmarshal_TAG_SSL_SEC_TRANSERKN3IOP15TaggedComponentERS_ @4167
    _ZN7omniIOR30add_TAG_ALTERNATE_IIOP_ADDRESSERKN4IIOP7AddressE @4168
    _ZN7omniIOR30dump_TAG_OMNIORB_PERSISTENT_IDERKN3IOP15TaggedComponentE @4169
    _ZN7omniIOR31dump_TAG_ALTERNATE_IIOP_ADDRESSERKN3IOP15TaggedComponentE @4170
    _ZN7omniIOR31unmarshal_TAG_CSI_SEC_MECH_LISTERKN3IOP15TaggedComponentERS_ @4171
    _ZN7omniIOR32unmarshal_TAG_OMNIORB_UNIX_TRANSERKN3IOP15TaggedComponentERS_ @4172
    _ZN7omniIOR35unmarshal_TAG_OMNIORB_PERSISTENT_IDERKN3IOP15TaggedComponentERS_ @4173
    _ZN7omniIOR36unmarshal_TAG_ALTERNATE_IIOP_ADDRESSERKN3IOP15TaggedComponentERS_ @4174
    _ZN7omniIOR4lockE @4175 DATA
    _ZN7omniIOR7IORInfo5TCS_CEPN4omni11omniCodeSet5TCS_CE @4176
    _ZN7omniIOR7IORInfo5TCS_WEPN4omni11omniCodeSet5TCS_WE @4177
    _ZN7omniIOR7IORInfo7orbTypeEm @4178
    _ZN7omniIOR7IORInfo7versionERKN4GIOP7VersionE @4179
    _ZN7omniIOR7IORInfo9addressesEv @4180
    _ZN7omniIOR7IORInfo9extraInfoEv @4181
    _ZN7omniIOR7IORInfoC1Ev @4182
    _ZN7omniIOR7IORInfoC2Ev @4183
    _ZN7omniIOR7IORInfoD1Ev @4184
    _ZN7omniIOR7IORInfoD2Ev @4185
    _ZN7omniIOR7releaseEv @4186
    _ZN7omniIOR9addr_modeEs @4187
    _ZN7omniIOR9duplicateEv @4188
    _ZN7omniIORC1EPKcPKhiRK12omniIORHints @4189
    _ZN7omniIORC1EPKcRK31_CORBA_Unbounded_Sequence_OctetPKN4IIOP7AddressEmN4GIOP7VersionENS_17interceptorOptionEPK25_CORBA_Unbounded_SequenceIN3IOP15TaggedComponentEE @4190
    _ZN7omniIORC1EPcP25_CORBA_Unbounded_SequenceIN3IOP13TaggedProfileEE @4191
    _ZN7omniIORC1EPcPN3IOP13TaggedProfileEmm @4192
    _ZN7omniIORC2EPKcPKhiRK12omniIORHints @4193
    _ZN7omniIORC2EPKcRK31_CORBA_Unbounded_Sequence_OctetPKN4IIOP7AddressEmN4GIOP7VersionENS_17interceptorOptionEPK25_CORBA_Unbounded_SequenceIN3IOP15TaggedComponentEE @4194
    _ZN7omniIORC2EPcP25_CORBA_Unbounded_SequenceIN3IOP13TaggedProfileEE @4195
    _ZN7omniIORC2EPcPN3IOP13TaggedProfileEmm @4196
    _ZN7omniIORD1Ev @4197
    _ZN7omniIORD2Ev @4198
    _ZN7omniORB10traceLevelE @4199 DATA
    _ZN7omniORB10versionHexEv @4200
    _ZN7omniORB13setMainThreadEv @4201
    _ZN7omniORB13traceThreadIdE @4202 DATA
    _ZN7omniORB13versionStringEv @4203
    _ZN7omniORB14fatalExceptionC1EPKciS2_ @4204
    _ZN7omniORB14fatalExceptionC2EPKciS2_ @4205
    _ZN7omniORB14fatalExceptionD1Ev @4206
    _ZN7omniORB14generateNewKeyER13omniOrbBoaKey @4207
    _ZN7omniORB14getLogFilenameEv @4208
    _ZN7omniORB14giopMaxMsgSizeEv @4209
    _ZN7omniORB14setLogFilenameEPKc @4210
    _ZN7omniORB14setLogFunctionEPFvPKcE @4211
    _ZN7omniORB15getInterceptorsEv @4212
    _ZN7omniORB15traceExceptionsE @4213 DATA
    _ZN7omniORB16LOCATION_FORWARDC1EPN5CORBA6ObjectEb @4214
    _ZN7omniORB16traceInvocationsE @4215 DATA
    _ZN7omniORB18keyToOctetSequenceERK13omniOrbBoaKey @4216
    _ZN7omniORB18octetSequenceToKeyERK31_CORBA_Unbounded_Sequence_Octet @4217
    _ZN7omniORB20setClientCallTimeoutEPN5CORBA6ObjectEm @4218
    _ZN7omniORB20setClientCallTimeoutEm @4219
    _ZN7omniORB22traceInvocationReturnsE @4220 DATA
    _ZN7omniORB23setClientConnectTimeoutEm @4221
    _ZN7omniORB26setClientThreadCallTimeoutEm @4222
    _ZN7omniORB27setClientThreadCallDeadlineEmm @4223
    _ZN7omniORB29installSystemExceptionHandlerEPN5CORBA6ObjectEPvPFbS3_mRKNS0_15SystemExceptionEE @4224
    _ZN7omniORB29installSystemExceptionHandlerEPvPFbS0_mRKN5CORBA15SystemExceptionEE @4225
    _ZN7omniORB29setPersistentServerIdentifierERK31_CORBA_Unbounded_Sequence_Octet @4226
    _ZN7omniORB32installTransientExceptionHandlerEPN5CORBA6ObjectEPvPFbS3_mRKNS0_9TRANSIENTEE @4227
    _ZN7omniORB32installTransientExceptionHandlerEPvPFbS0_mRKN5CORBA9TRANSIENTEE @4228
    _ZN7omniORB34installCommFailureExceptionHandlerEPN5CORBA6ObjectEPvPFbS3_mRKNS0_12COMM_FAILUREEE @4229
    _ZN7omniORB34installCommFailureExceptionHandlerEPvPFbS0_mRKN5CORBA12COMM_FAILUREEE @4230
    _ZN7omniORB4logsEmPKc @4231
    _ZN7omniORB6loader3setEPFPN5CORBA6ObjectERK13omniOrbBoaKeyE @4232
    _ZN7omniORB6logger15exceptionStatusC1EN5CORBA16CompletionStatusEPKc @4233
    _ZN7omniORB6logger15exceptionStatusC1EN5CORBA16CompletionStatusEm @4234
    _ZN7omniORB6logger4moreEi @4235
    _ZN7omniORB6logger5flushEv @4236
    _ZN7omniORB6logger7reserveEi @4237
    _ZN7omniORB6loggerC1EPKc @4238
    _ZN7omniORB6loggerC2EPKc @4239
    _ZN7omniORB6loggerD1Ev @4240
    _ZN7omniORB6loggerD2Ev @4241
    _ZN7omniORB6loggerlsEPK12omniIdentity @4242
    _ZN7omniORB6loggerlsEPK17omniLocalIdentity @4243
    _ZN7omniORB6loggerlsEPKc @4244
    _ZN7omniORB6loggerlsEPKv @4245
    _ZN7omniORB6loggerlsER10omniObjKey @4246
    _ZN7omniORB6loggerlsERKN5CORBA15SystemExceptionE @4247
    _ZN7omniORB6loggerlsERKNS0_15exceptionStatusE @4248
    _ZN7omniORB6loggerlsEc @4249
    _ZN7omniORB6loggerlsEd @4250
    _ZN7omniORB6loggerlsEi @4251
    _ZN7omniORB6loggerlsEj @4252
    _ZN7omniORB6loggerlsEl @4253
    _ZN7omniORB6loggerlsEm @4254
    _ZN7omniORB6loggerlsEt @4255
    _ZN7omniORB7do_logsEPKc @4256
    _ZN7omniORB7nullkeyEv @4257
    _ZN7omniORB9traceTimeE @4258 DATA
    _ZN7omniORBeqERK13omniOrbBoaKeyS2_ @4259
    _ZN7omniORBneERK13omniOrbBoaKeyS2_ @4260
    _ZN8omniTask10selfThreadEv @4261
    _ZN8omniTask8categoryEv @4262
    _ZN8omniTaskC2ENS_8CategoryE @4263
    _ZN8omniTaskD0Ev @4264
    _ZN8omniTaskD1Ev @4265
    _ZN8omniTaskD2Ev @4266
    _ZN9CosNaming11BindingListC1Ev @4267
    _ZN9CosNaming11BindingListD1Ev @4268
    _ZN9CosNaming13NameComponentC1Ev @4269
    _ZN9CosNaming13NameComponentD1Ev @4270
    _ZN9CosNaming13NameComponentaSERKS0_ @4271
    _ZN9CosNaming13NameComponentlSER9cdrStream @4272
    _ZN9CosNaming13NamingContext10_PD_repoIdE @4273 DATA
    _ZN9CosNaming13NamingContext10_duplicateEPNS_21_objref_NamingContextE @4274
    _ZN9CosNaming13NamingContext11InvalidName10_PD_repoIdE @4275 DATA
    _ZN9CosNaming13NamingContext11InvalidName10_PD_typeIdE @4276 DATA
    _ZN9CosNaming13NamingContext11InvalidName13insertToAnyFnE @4277 DATA
    _ZN9CosNaming13NamingContext11InvalidName16insertToAnyFnNCPE @4278 DATA
    _ZN9CosNaming13NamingContext11InvalidName9_downcastEPKN5CORBA9ExceptionE @4279
    _ZN9CosNaming13NamingContext11InvalidName9_downcastEPN5CORBA9ExceptionE @4280
    _ZN9CosNaming13NamingContext11InvalidNameC1ERKS1_ @4281
    _ZN9CosNaming13NamingContext11InvalidNameC1Ev @4282
    _ZN9CosNaming13NamingContext11InvalidNameC2ERKS1_ @4283
    _ZN9CosNaming13NamingContext11InvalidNameD0Ev @4284
    _ZN9CosNaming13NamingContext11InvalidNameD1Ev @4285
    _ZN9CosNaming13NamingContext11InvalidNameD2Ev @4286
    _ZN9CosNaming13NamingContext11InvalidNameaSERKS1_ @4287
    _ZN9CosNaming13NamingContext11InvalidNamelSER9cdrStream @4288
    _ZN9CosNaming13NamingContext12AlreadyBound10_PD_repoIdE @4289 DATA
    _ZN9CosNaming13NamingContext12AlreadyBound10_PD_typeIdE @4290 DATA
    _ZN9CosNaming13NamingContext12AlreadyBound13insertToAnyFnE @4291 DATA
    _ZN9CosNaming13NamingContext12AlreadyBound16insertToAnyFnNCPE @4292 DATA
    _ZN9CosNaming13NamingContext12AlreadyBound9_downcastEPKN5CORBA9ExceptionE @4293
    _ZN9CosNaming13NamingContext12AlreadyBound9_downcastEPN5CORBA9ExceptionE @4294
    _ZN9CosNaming13NamingContext12AlreadyBoundC1ERKS1_ @4295
    _ZN9CosNaming13NamingContext12AlreadyBoundC1Ev @4296
    _ZN9CosNaming13NamingContext12AlreadyBoundC2ERKS1_ @4297
    _ZN9CosNaming13NamingContext12AlreadyBoundD0Ev @4298
    _ZN9CosNaming13NamingContext12AlreadyBoundD1Ev @4299
    _ZN9CosNaming13NamingContext12AlreadyBoundD2Ev @4300
    _ZN9CosNaming13NamingContext12AlreadyBoundaSERKS1_ @4301
    _ZN9CosNaming13NamingContext12AlreadyBoundlSER9cdrStream @4302
    _ZN9CosNaming13NamingContext13CannotProceed10_PD_repoIdE @4303 DATA
    _ZN9CosNaming13NamingContext13CannotProceed10_PD_typeIdE @4304 DATA
    _ZN9CosNaming13NamingContext13CannotProceed13insertToAnyFnE @4305 DATA
    _ZN9CosNaming13NamingContext13CannotProceed16insertToAnyFnNCPE @4306 DATA
    _ZN9CosNaming13NamingContext13CannotProceed9_downcastEPKN5CORBA9ExceptionE @4307
    _ZN9CosNaming13NamingContext13CannotProceed9_downcastEPN5CORBA9ExceptionE @4308
    _ZN9CosNaming13NamingContext13CannotProceedC1EPNS_21_objref_NamingContextENS_4NameE @4309
    _ZN9CosNaming13NamingContext13CannotProceedC1ERKS1_ @4310
    _ZN9CosNaming13NamingContext13CannotProceedC1Ev @4311
    _ZN9CosNaming13NamingContext13CannotProceedC2EPNS_21_objref_NamingContextENS_4NameE @4312
    _ZN9CosNaming13NamingContext13CannotProceedC2ERKS1_ @4313
    _ZN9CosNaming13NamingContext13CannotProceedD0Ev @4314
    _ZN9CosNaming13NamingContext13CannotProceedD1Ev @4315
    _ZN9CosNaming13NamingContext13CannotProceedD2Ev @4316
    _ZN9CosNaming13NamingContext13CannotProceedaSERKS1_ @4317
    _ZN9CosNaming13NamingContext13CannotProceedlSER9cdrStream @4318
    _ZN9CosNaming13NamingContext14_marshalObjRefEPNS_21_objref_NamingContextER9cdrStream @4319
    _ZN9CosNaming13NamingContext16_unmarshalObjRefER9cdrStream @4320
    _ZN9CosNaming13NamingContext17_unchecked_narrowEPN5CORBA6ObjectE @4321
    _ZN9CosNaming13NamingContext4_nilEv @4322
    _ZN9CosNaming13NamingContext7_narrowEPN5CORBA6ObjectE @4323
    _ZN9CosNaming13NamingContext8NotEmpty10_PD_repoIdE @4324 DATA
    _ZN9CosNaming13NamingContext8NotEmpty10_PD_typeIdE @4325 DATA
    _ZN9CosNaming13NamingContext8NotEmpty13insertToAnyFnE @4326 DATA
    _ZN9CosNaming13NamingContext8NotEmpty16insertToAnyFnNCPE @4327 DATA
    _ZN9CosNaming13NamingContext8NotEmpty9_downcastEPKN5CORBA9ExceptionE @4328
    _ZN9CosNaming13NamingContext8NotEmpty9_downcastEPN5CORBA9ExceptionE @4329
    _ZN9CosNaming13NamingContext8NotEmptyC1ERKS1_ @4330
    _ZN9CosNaming13NamingContext8NotEmptyC1Ev @4331
    _ZN9CosNaming13NamingContext8NotEmptyC2ERKS1_ @4332
    _ZN9CosNaming13NamingContext8NotEmptyD0Ev @4333
    _ZN9CosNaming13NamingContext8NotEmptyD1Ev @4334
    _ZN9CosNaming13NamingContext8NotEmptyD2Ev @4335
    _ZN9CosNaming13NamingContext8NotEmptyaSERKS1_ @4336
    _ZN9CosNaming13NamingContext8NotEmptylSER9cdrStream @4337
    _ZN9CosNaming13NamingContext8NotFound10_PD_repoIdE @4338 DATA
    _ZN9CosNaming13NamingContext8NotFound10_PD_typeIdE @4339 DATA
    _ZN9CosNaming13NamingContext8NotFound13insertToAnyFnE @4340 DATA
    _ZN9CosNaming13NamingContext8NotFound16insertToAnyFnNCPE @4341 DATA
    _ZN9CosNaming13NamingContext8NotFound9_downcastEPKN5CORBA9ExceptionE @4342
    _ZN9CosNaming13NamingContext8NotFound9_downcastEPN5CORBA9ExceptionE @4343
    _ZN9CosNaming13NamingContext8NotFoundC1ENS0_14NotFoundReasonENS_4NameE @4344
    _ZN9CosNaming13NamingContext8NotFoundC1ERKS1_ @4345
    _ZN9CosNaming13NamingContext8NotFoundC1Ev @4346
    _ZN9CosNaming13NamingContext8NotFoundC2ENS0_14NotFoundReasonENS_4NameE @4347
    _ZN9CosNaming13NamingContext8NotFoundC2ERKS1_ @4348
    _ZN9CosNaming13NamingContext8NotFoundD0Ev @4349
    _ZN9CosNaming13NamingContext8NotFoundD1Ev @4350
    _ZN9CosNaming13NamingContext8NotFoundD2Ev @4351
    _ZN9CosNaming13NamingContext8NotFoundaSERKS1_ @4352
    _ZN9CosNaming13NamingContext8NotFoundlSER9cdrStream @4353
    _ZN9CosNaming15BindingIterator10_PD_repoIdE @4354 DATA
    _ZN9CosNaming15BindingIterator10_duplicateEPNS_23_objref_BindingIteratorE @4355
    _ZN9CosNaming15BindingIterator14_marshalObjRefEPNS_23_objref_BindingIteratorER9cdrStream @4356
    _ZN9CosNaming15BindingIterator16_unmarshalObjRefER9cdrStream @4357
    _ZN9CosNaming15BindingIterator17_unchecked_narrowEPN5CORBA6ObjectE @4358
    _ZN9CosNaming15BindingIterator4_nilEv @4359
    _ZN9CosNaming15BindingIterator7_narrowEPN5CORBA6ObjectE @4360
    _ZN9CosNaming15BindingList_outC1ERPNS_11BindingListE @4361
    _ZN9CosNaming15BindingList_outaSEPNS_11BindingListE @4362
    _ZN9CosNaming15BindingList_var3outEv @4363
    _ZN9CosNaming15BindingList_var5_retnEv @4364
    _ZN9CosNaming15BindingList_varC1Ev @4365
    _ZN9CosNaming15BindingList_varD1Ev @4366
    _ZN9CosNaming15BindingList_varaSEPNS_11BindingListE @4367
    _ZN9CosNaming16NamingContextExt10_PD_repoIdE @4368 DATA
    _ZN9CosNaming16NamingContextExt10_duplicateEPNS_24_objref_NamingContextExtE @4369
    _ZN9CosNaming16NamingContextExt14InvalidAddress10_PD_repoIdE @4370 DATA
    _ZN9CosNaming16NamingContextExt14InvalidAddress10_PD_typeIdE @4371 DATA
    _ZN9CosNaming16NamingContextExt14InvalidAddress13insertToAnyFnE @4372 DATA
    _ZN9CosNaming16NamingContextExt14InvalidAddress16insertToAnyFnNCPE @4373 DATA
    _ZN9CosNaming16NamingContextExt14InvalidAddress9_downcastEPKN5CORBA9ExceptionE @4374
    _ZN9CosNaming16NamingContextExt14InvalidAddress9_downcastEPN5CORBA9ExceptionE @4375
    _ZN9CosNaming16NamingContextExt14InvalidAddressC1ERKS1_ @4376
    _ZN9CosNaming16NamingContextExt14InvalidAddressC1Ev @4377
    _ZN9CosNaming16NamingContextExt14InvalidAddressC2ERKS1_ @4378
    _ZN9CosNaming16NamingContextExt14InvalidAddressD0Ev @4379
    _ZN9CosNaming16NamingContextExt14InvalidAddressD1Ev @4380
    _ZN9CosNaming16NamingContextExt14InvalidAddressD2Ev @4381
    _ZN9CosNaming16NamingContextExt14InvalidAddressaSERKS1_ @4382
    _ZN9CosNaming16NamingContextExt14InvalidAddresslSER9cdrStream @4383
    _ZN9CosNaming16NamingContextExt14_marshalObjRefEPNS_24_objref_NamingContextExtER9cdrStream @4384
    _ZN9CosNaming16NamingContextExt16_unmarshalObjRefER9cdrStream @4385
    _ZN9CosNaming16NamingContextExt17_unchecked_narrowEPN5CORBA6ObjectE @4386
    _ZN9CosNaming16NamingContextExt4_nilEv @4387
    _ZN9CosNaming16NamingContextExt7_narrowEPN5CORBA6ObjectE @4388
    _ZN9CosNaming18_pof_NamingContext9newObjRefEP7omniIORP12omniIdentity @4389
    _ZN9CosNaming18_pof_NamingContextC1Ev @4390
    _ZN9CosNaming18_pof_NamingContextD0Ev @4391
    _ZN9CosNaming18_pof_NamingContextD1Ev @4392
    _ZN9CosNaming18_pof_NamingContextD2Ev @4393
    _ZN9CosNaming19_impl_NamingContext15_ptrToInterfaceEPKc @4394
    _ZN9CosNaming19_impl_NamingContext18_mostDerivedRepoIdEv @4395
    _ZN9CosNaming19_impl_NamingContext9_dispatchER14omniCallHandle @4396
    _ZN9CosNaming19_impl_NamingContextD0Ev @4397
    _ZN9CosNaming19_impl_NamingContextD1Ev @4398
    _ZN9CosNaming19_impl_NamingContextD2Ev @4399
    _ZN9CosNaming20NamingContext_Helper13marshalObjRefEPNS_21_objref_NamingContextER9cdrStream @4400
    _ZN9CosNaming20NamingContext_Helper15unmarshalObjRefER9cdrStream @4401
    _ZN9CosNaming20NamingContext_Helper4_nilEv @4402
    _ZN9CosNaming20NamingContext_Helper6is_nilEPNS_21_objref_NamingContextE @4403
    _ZN9CosNaming20NamingContext_Helper7releaseEPNS_21_objref_NamingContextE @4404
    _ZN9CosNaming20NamingContext_Helper9duplicateEPNS_21_objref_NamingContextE @4405
    _ZN9CosNaming20_pof_BindingIterator9newObjRefEP7omniIORP12omniIdentity @4406
    _ZN9CosNaming20_pof_BindingIteratorC1Ev @4407
    _ZN9CosNaming20_pof_BindingIteratorD0Ev @4408
    _ZN9CosNaming20_pof_BindingIteratorD1Ev @4409
    _ZN9CosNaming20_pof_BindingIteratorD2Ev @4410
    _ZN9CosNaming21_impl_BindingIterator15_ptrToInterfaceEPKc @4411
    _ZN9CosNaming21_impl_BindingIterator18_mostDerivedRepoIdEv @4412
    _ZN9CosNaming21_impl_BindingIterator9_dispatchER14omniCallHandle @4413
    _ZN9CosNaming21_impl_BindingIteratorD0Ev @4414
    _ZN9CosNaming21_impl_BindingIteratorD1Ev @4415
    _ZN9CosNaming21_impl_BindingIteratorD2Ev @4416
    _ZN9CosNaming21_objref_NamingContext11new_contextEv @4417
    _ZN9CosNaming21_objref_NamingContext12_ptrToObjRefEPKc @4418
    _ZN9CosNaming21_objref_NamingContext12bind_contextERKNS_4NameEPS0_ @4419
    _ZN9CosNaming21_objref_NamingContext14rebind_contextERKNS_4NameEPS0_ @4420
    _ZN9CosNaming21_objref_NamingContext16bind_new_contextERKNS_4NameE @4421
    _ZN9CosNaming21_objref_NamingContext4bindERKNS_4NameEPN5CORBA6ObjectE @4422
    _ZN9CosNaming21_objref_NamingContext4listEmNS_15BindingList_outE21_CORBA_ObjRef_OUT_argINS_23_objref_BindingIteratorENS_22BindingIterator_HelperEE @4423
    _ZN9CosNaming21_objref_NamingContext6rebindERKNS_4NameEPN5CORBA6ObjectE @4424
    _ZN9CosNaming21_objref_NamingContext6unbindERKNS_4NameE @4425
    _ZN9CosNaming21_objref_NamingContext7destroyEv @4426
    _ZN9CosNaming21_objref_NamingContext7resolveERKNS_4NameE @4427
    _ZN9CosNaming21_objref_NamingContextC1EP7omniIORP12omniIdentity @4428
    _ZN9CosNaming21_objref_NamingContextC1Ev @4429
    _ZN9CosNaming21_objref_NamingContextC2EP7omniIORP12omniIdentity @4430
    _ZN9CosNaming21_objref_NamingContextC2Ev @4431
    _ZN9CosNaming21_objref_NamingContextD0Ev @4432
    _ZN9CosNaming21_objref_NamingContextD1Ev @4433
    _ZN9CosNaming21_objref_NamingContextD2Ev @4434
    _ZN9CosNaming21_pof_NamingContextExt9newObjRefEP7omniIORP12omniIdentity @4435
    _ZN9CosNaming21_pof_NamingContextExtC1Ev @4436
    _ZN9CosNaming21_pof_NamingContextExtD0Ev @4437
    _ZN9CosNaming21_pof_NamingContextExtD1Ev @4438
    _ZN9CosNaming21_pof_NamingContextExtD2Ev @4439
    _ZN9CosNaming22BindingIterator_Helper13marshalObjRefEPNS_23_objref_BindingIteratorER9cdrStream @4440
    _ZN9CosNaming22BindingIterator_Helper15unmarshalObjRefER9cdrStream @4441
    _ZN9CosNaming22BindingIterator_Helper4_nilEv @4442
    _ZN9CosNaming22BindingIterator_Helper6is_nilEPNS_23_objref_BindingIteratorE @4443
    _ZN9CosNaming22BindingIterator_Helper7releaseEPNS_23_objref_BindingIteratorE @4444
    _ZN9CosNaming22BindingIterator_Helper9duplicateEPNS_23_objref_BindingIteratorE @4445
    _ZN9CosNaming22_impl_NamingContextExt15_ptrToInterfaceEPKc @4446
    _ZN9CosNaming22_impl_NamingContextExt18_mostDerivedRepoIdEv @4447
    _ZN9CosNaming22_impl_NamingContextExt9_dispatchER14omniCallHandle @4448
    _ZN9CosNaming22_impl_NamingContextExtD0Ev @4449
    _ZN9CosNaming22_impl_NamingContextExtD1Ev @4450
    _ZN9CosNaming22_impl_NamingContextExtD2Ev @4451
    _ZN9CosNaming23NamingContextExt_Helper13marshalObjRefEPNS_24_objref_NamingContextExtER9cdrStream @4452
    _ZN9CosNaming23NamingContextExt_Helper15unmarshalObjRefER9cdrStream @4453
    _ZN9CosNaming23NamingContextExt_Helper4_nilEv @4454
    _ZN9CosNaming23NamingContextExt_Helper6is_nilEPNS_24_objref_NamingContextExtE @4455
    _ZN9CosNaming23NamingContextExt_Helper7releaseEPNS_24_objref_NamingContextExtE @4456
    _ZN9CosNaming23NamingContextExt_Helper9duplicateEPNS_24_objref_NamingContextExtE @4457
    _ZN9CosNaming23_objref_BindingIterator12_ptrToObjRefEPKc @4458
    _ZN9CosNaming23_objref_BindingIterator6next_nEmNS_15BindingList_outE @4459
    _ZN9CosNaming23_objref_BindingIterator7destroyEv @4460
    _ZN9CosNaming23_objref_BindingIterator8next_oneE34_CORBA_ConstrType_Variable_OUT_argINS_7BindingE30_CORBA_ConstrType_Variable_VarIS2_EE @4461
    _ZN9CosNaming23_objref_BindingIteratorC1EP7omniIORP12omniIdentity @4462
    _ZN9CosNaming23_objref_BindingIteratorC1Ev @4463
    _ZN9CosNaming23_objref_BindingIteratorC2EP7omniIORP12omniIdentity @4464
    _ZN9CosNaming23_objref_BindingIteratorD0Ev @4465
    _ZN9CosNaming23_objref_BindingIteratorD1Ev @4466
    _ZN9CosNaming23_objref_BindingIteratorD2Ev @4467
    _ZN9CosNaming24_objref_NamingContextExt11resolve_strEPKc @4468
    _ZN9CosNaming24_objref_NamingContextExt12_ptrToObjRefEPKc @4469
    _ZN9CosNaming24_objref_NamingContextExt6to_urlEPKcS2_ @4470
    _ZN9CosNaming24_objref_NamingContextExt7to_nameEPKc @4471
    _ZN9CosNaming24_objref_NamingContextExt9to_stringERKNS_4NameE @4472
    _ZN9CosNaming24_objref_NamingContextExtC1EP7omniIORP12omniIdentity @4473
    _ZN9CosNaming24_objref_NamingContextExtC1Ev @4474
    _ZN9CosNaming24_objref_NamingContextExtC2EP7omniIORP12omniIdentity @4475
    _ZN9CosNaming24_objref_NamingContextExtD0Ev @4476
    _ZN9CosNaming24_objref_NamingContextExtD1Ev @4477
    _ZN9CosNaming24_objref_NamingContextExtD2Ev @4478
    _ZN9CosNaming4NameC1Ev @4479
    _ZN9CosNaming4NameD1Ev @4480
    _ZN9CosNaming4NameaSERKS0_ @4481
    _ZN9CosNaming7BindingC1Ev @4482
    _ZN9CosNaming7BindingD1Ev @4483
    _ZN9CosNaming7BindingaSERKS0_ @4484
    _ZN9CosNaming7BindinglSER9cdrStream @4485
    _ZN9CosNaming8Name_var5_retnEv @4486
    _ZN9CosNaming8Name_varC1EPNS_4NameE @4487
    _ZN9CosNaming8Name_varC1Ev @4488
    _ZN9CosNaming8Name_varD1Ev @4489
    _ZN9CosNaming8Name_varaSEPNS_4NameE @4490
    _ZN9CosNaming8Name_varixEm @4491
    _ZN9CosNaming8Name_varptEv @4492
    _ZN9cdrStream10alignInputEN4omni11alignment_tE @4493
    _ZN9cdrStream10completionEv @4494
    _ZN9cdrStream10ptrToClassEPi @4495
    _ZN9cdrStream11alignOutputEN4omni11alignment_tE @4496
    _ZN9cdrStream12marshalOctetEh @4497
    _ZN9cdrStream13marshalStringEPKci @4498
    _ZN9cdrStream14marshalBooleanEb @4499
    _ZN9cdrStream14marshalWStringEPKwi @4500
    _ZN9cdrStream14unmarshalOctetEv @4501
    _ZN9cdrStream15unmarshalStringEi @4502
    _ZN9cdrStream16marshalRawStringEPKc @4503
    _ZN9cdrStream16unmarshalBooleanEv @4504
    _ZN9cdrStream16unmarshalWStringEi @4505
    _ZN9cdrStream17clearValueTrackerEv @4506
    _ZN9cdrStream18declareArrayLengthEN4omni11alignment_tEj @4507
    _ZN9cdrStream18unmarshalRawStringEv @4508
    _ZN9cdrStream20unmarshalArrayUShortEPti @4509
    _ZN9cdrStream21put_small_octet_arrayEPKhi @4510
    _ZN9cdrStream5TCS_CEPN4omni11omniCodeSet5TCS_CE @4511
    _ZN9cdrStream5TCS_WEPN4omni11omniCodeSet5TCS_WE @4512
    _ZN9cdrStream7copy_toERS_iN4omni11alignment_tE @4513
    _ZN9cdrStream8_classidE @4514 DATA
    _ZN9cdrStreamC1Ev @4515
    _ZN9cdrStreamC2Ev @4516
    _ZN9cdrStreamD0Ev @4517
    _ZN9cdrStreamD1Ev @4518
    _ZN9cdrStreamD2Ev @4519
    _ZNK10omniObjKey3keyEv @4520
    _ZNK10omniObjKey4sizeEv @4521
    _ZNK10omniObjKey8is_equalEPKhi @4522
    _ZNK10omniObjRef18_mostDerivedRepoIdEv @4523
    _ZNK10omnivectorIN4omni18resolvePseudoEntryEE4sizeEv @4524
    _ZNK10omnivectorIN4omni18resolvePseudoEntryEE8capacityEv @4525
    _ZNK10omnivectorIP10omniObjRefE4sizeEv @4526
    _ZNK10omnivectorIP10omniObjRefE5emptyEv @4527
    _ZNK10omnivectorIP10omniObjRefE8capacityEv @4528
    _ZNK10omnivectorIP17omniObjTableEntryE3endEv @4529
    _ZNK10omnivectorIP17omniObjTableEntryE4sizeEv @4530
    _ZNK10omnivectorIP17omniObjTableEntryE5beginEv @4531
    _ZNK10omnivectorIP17omniObjTableEntryE5emptyEv @4532
    _ZNK10omnivectorIP17omniObjTableEntryE8capacityEv @4533
    _ZNK10omnivectorIP17omniObjTableEntryEixEj @4534
    _ZNK10omnivectorIPKcE3endEv @4535
    _ZNK10omnivectorIPKcE4sizeEv @4536
    _ZNK10omnivectorIPKcE5beginEv @4537
    _ZNK10omnivectorIPKcE5emptyEv @4538
    _ZNK10omnivectorIPKcE8capacityEv @4539
    _ZNK10omnivectorIPN4omni10giopStrandEE4sizeEv @4540
    _ZNK10omnivectorIPN4omni10giopStrandEE8capacityEv @4541
    _ZNK10omnivectorIPN4omni10orbOptions16HandlerValuePairEE3endEv @4542
    _ZNK10omnivectorIPN4omni10orbOptions16HandlerValuePairEE4sizeEv @4543
    _ZNK10omnivectorIPN4omni10orbOptions16HandlerValuePairEE5beginEv @4544
    _ZNK10omnivectorIPN4omni10orbOptions16HandlerValuePairEE8capacityEv @4545
    _ZNK10omnivectorIPN4omni10orbOptions7HandlerEE3endEv @4546
    _ZNK10omnivectorIPN4omni10orbOptions7HandlerEE4sizeEv @4547
    _ZNK10omnivectorIPN4omni10orbOptions7HandlerEE5beginEv @4548
    _ZNK10omnivectorIPN4omni10orbOptions7HandlerEE8capacityEv @4549
    _ZNK10omnivectorIPN4omni11giopAddressEE3endEv @4550
    _ZNK10omnivectorIPN4omni11giopAddressEE4sizeEv @4551
    _ZNK10omnivectorIPN4omni11giopAddressEE5beginEv @4552
    _ZNK10omnivectorIPN4omni11giopAddressEE5emptyEv @4553
    _ZNK10omnivectorIPN4omni11giopAddressEE8capacityEv @4554
    _ZNK10omnivectorIPN4omni11giopAddressEEixEj @4555
    _ZNK10omnivectorIPN4omni12giopEndpointEE4sizeEv @4556
    _ZNK10omnivectorIPN4omni12giopEndpointEE8capacityEv @4557
    _ZNK10omnivectorIPN4omni14omniObjAdapter7Options11EndpointURIEE4sizeEv @4558
    _ZNK10omnivectorIPN4omni14omniObjAdapter7Options11EndpointURIEE5emptyEv @4559
    _ZNK10omnivectorIPN4omni14omniObjAdapter7Options11EndpointURIEE8capacityEv @4560
    _ZNK10omnivectorIPN4omni14transportRules14RuleActionPairEE4sizeEv @4561
    _ZNK10omnivectorIPN4omni14transportRules14RuleActionPairEE8capacityEv @4562
    _ZNK10omnivectorIPN4omni14transportRules8RuleTypeEE4sizeEv @4563
    _ZNK10omnivectorIPN4omni14transportRules8RuleTypeEE8capacityEv @4564
    _ZNK10omnivectorIPN4omni15omniInitialiserEE4sizeEv @4565
    _ZNK10omnivectorIPN4omni15omniInitialiserEE8capacityEv @4566
    _ZNK10omnivectorIPN4omni17omniTrackedObjectEE4sizeEv @4567
    _ZNK10omnivectorIPN4omni17omniTrackedObjectEE8capacityEv @4568
    _ZNK10omnivectorIPN4omni20giopActiveCollectionEE4sizeEv @4569
    _ZNK10omnivectorIPN4omni20giopActiveCollectionEE8capacityEv @4570
    _ZNK10omnivectorIPN4omni7omniURI10URIHandlerEE4sizeEv @4571
    _ZNK10omnivectorIPN4omni7omniURI10URIHandlerEE8capacityEv @4572
    _ZNK10omnivectorIPN4omni9orbServerEE4sizeEv @4573
    _ZNK10omnivectorIPN4omni9orbServerEE5emptyEv @4574
    _ZNK10omnivectorIPN4omni9orbServerEE8capacityEv @4575
    _ZNK10omnivectorIPN5CORBA6ObjectEE4sizeEv @4576
    _ZNK10omnivectorIPN5CORBA6ObjectEE8capacityEv @4577
    _ZNK10omnivectorImE3endEv @4578
    _ZNK10omnivectorImE4sizeEv @4579
    _ZNK10omnivectorImE5beginEv @4580
    _ZNK10omnivectorImE5emptyEv @4581
    _ZNK10omnivectorImE8capacityEv @4582
    _ZNK11omniIOR_varcvP7omniIOREv @4583
    _ZNK11omniIOR_varptEv @4584
    _ZNK11omniServant12_activationsEv @4585
    _ZNK12omniIdentity3keyEv @4586
    _ZNK12omniIdentity7keysizeEv @4587
    _ZNK12omniIdentity8is_equalEPKhi @4588
    _ZNK14PortableServer10POAManager15AdapterInactive10_NP_repoIdEPi @4589
    _ZNK14PortableServer10POAManager15AdapterInactive10_NP_typeIdEv @4590
    _ZNK14PortableServer10POAManager15AdapterInactive11_NP_marshalER9cdrStream @4591
    _ZNK14PortableServer10POAManager15AdapterInactive13_NP_duplicateEv @4592
    _ZNK14PortableServer10POAManager15AdapterInactive6_raiseEv @4593
    _ZNK14PortableServer10POAManager15AdapterInactiverSER9cdrStream @4594
    _ZNK14PortableServer11Servant_varINS_11ServantBaseEEcvPS1_Ev @4595
    _ZNK14PortableServer14ForwardRequest10_NP_repoIdEPi @4596
    _ZNK14PortableServer14ForwardRequest10_NP_typeIdEv @4597
    _ZNK14PortableServer14ForwardRequest11_NP_marshalER9cdrStream @4598
    _ZNK14PortableServer14ForwardRequest13_NP_duplicateEv @4599
    _ZNK14PortableServer14ForwardRequest6_raiseEv @4600
    _ZNK14PortableServer14ForwardRequestrSER9cdrStream @4601
    _ZNK14PortableServer19_pof_ServantLocator4is_aEPKc @4602
    _ZNK14PortableServer19_pof_ServantManager4is_aEPKc @4603
    _ZNK14PortableServer21_pof_AdapterActivator4is_aEPKc @4604
    _ZNK14PortableServer21_pof_ServantActivator4is_aEPKc @4605
    _ZNK14PortableServer3POA11WrongPolicy10_NP_repoIdEPi @4606
    _ZNK14PortableServer3POA11WrongPolicy10_NP_typeIdEv @4607
    _ZNK14PortableServer3POA11WrongPolicy11_NP_marshalER9cdrStream @4608
    _ZNK14PortableServer3POA11WrongPolicy13_NP_duplicateEv @4609
    _ZNK14PortableServer3POA11WrongPolicy6_raiseEv @4610
    _ZNK14PortableServer3POA11WrongPolicyrSER9cdrStream @4611
    _ZNK14PortableServer3POA12WrongAdapter10_NP_repoIdEPi @4612
    _ZNK14PortableServer3POA12WrongAdapter10_NP_typeIdEv @4613
    _ZNK14PortableServer3POA12WrongAdapter11_NP_marshalER9cdrStream @4614
    _ZNK14PortableServer3POA12WrongAdapter13_NP_duplicateEv @4615
    _ZNK14PortableServer3POA12WrongAdapter6_raiseEv @4616
    _ZNK14PortableServer3POA12WrongAdapterrSER9cdrStream @4617
    _ZNK14PortableServer3POA13InvalidPolicy10_NP_repoIdEPi @4618
    _ZNK14PortableServer3POA13InvalidPolicy10_NP_typeIdEv @4619
    _ZNK14PortableServer3POA13InvalidPolicy11_NP_marshalER9cdrStream @4620
    _ZNK14PortableServer3POA13InvalidPolicy13_NP_duplicateEv @4621
    _ZNK14PortableServer3POA13InvalidPolicy6_raiseEv @4622
    _ZNK14PortableServer3POA13InvalidPolicyrSER9cdrStream @4623
    _ZNK14PortableServer3POA15AdapterInactive10_NP_repoIdEPi @4624
    _ZNK14PortableServer3POA15AdapterInactive10_NP_typeIdEv @4625
    _ZNK14PortableServer3POA15AdapterInactive11_NP_marshalER9cdrStream @4626
    _ZNK14PortableServer3POA15AdapterInactive13_NP_duplicateEv @4627
    _ZNK14PortableServer3POA15AdapterInactive6_raiseEv @4628
    _ZNK14PortableServer3POA15AdapterInactiverSER9cdrStream @4629
    _ZNK14PortableServer3POA15ObjectNotActive10_NP_repoIdEPi @4630
    _ZNK14PortableServer3POA15ObjectNotActive10_NP_typeIdEv @4631
    _ZNK14PortableServer3POA15ObjectNotActive11_NP_marshalER9cdrStream @4632
    _ZNK14PortableServer3POA15ObjectNotActive13_NP_duplicateEv @4633
    _ZNK14PortableServer3POA15ObjectNotActive6_raiseEv @4634
    _ZNK14PortableServer3POA15ObjectNotActiverSER9cdrStream @4635
    _ZNK14PortableServer3POA16ServantNotActive10_NP_repoIdEPi @4636
    _ZNK14PortableServer3POA16ServantNotActive10_NP_typeIdEv @4637
    _ZNK14PortableServer3POA16ServantNotActive11_NP_marshalER9cdrStream @4638
    _ZNK14PortableServer3POA16ServantNotActive13_NP_duplicateEv @4639
    _ZNK14PortableServer3POA16ServantNotActive6_raiseEv @4640
    _ZNK14PortableServer3POA16ServantNotActiverSER9cdrStream @4641
    _ZNK14PortableServer3POA18AdapterNonExistent10_NP_repoIdEPi @4642
    _ZNK14PortableServer3POA18AdapterNonExistent10_NP_typeIdEv @4643
    _ZNK14PortableServer3POA18AdapterNonExistent11_NP_marshalER9cdrStream @4644
    _ZNK14PortableServer3POA18AdapterNonExistent13_NP_duplicateEv @4645
    _ZNK14PortableServer3POA18AdapterNonExistent6_raiseEv @4646
    _ZNK14PortableServer3POA18AdapterNonExistentrSER9cdrStream @4647
    _ZNK14PortableServer3POA19ObjectAlreadyActive10_NP_repoIdEPi @4648
    _ZNK14PortableServer3POA19ObjectAlreadyActive10_NP_typeIdEv @4649
    _ZNK14PortableServer3POA19ObjectAlreadyActive11_NP_marshalER9cdrStream @4650
    _ZNK14PortableServer3POA19ObjectAlreadyActive13_NP_duplicateEv @4651
    _ZNK14PortableServer3POA19ObjectAlreadyActive6_raiseEv @4652
    _ZNK14PortableServer3POA19ObjectAlreadyActiverSER9cdrStream @4653
    _ZNK14PortableServer3POA20AdapterAlreadyExists10_NP_repoIdEPi @4654
    _ZNK14PortableServer3POA20AdapterAlreadyExists10_NP_typeIdEv @4655
    _ZNK14PortableServer3POA20AdapterAlreadyExists11_NP_marshalER9cdrStream @4656
    _ZNK14PortableServer3POA20AdapterAlreadyExists13_NP_duplicateEv @4657
    _ZNK14PortableServer3POA20AdapterAlreadyExists6_raiseEv @4658
    _ZNK14PortableServer3POA20AdapterAlreadyExistsrSER9cdrStream @4659
    _ZNK14PortableServer3POA20ServantAlreadyActive10_NP_repoIdEPi @4660
    _ZNK14PortableServer3POA20ServantAlreadyActive10_NP_typeIdEv @4661
    _ZNK14PortableServer3POA20ServantAlreadyActive11_NP_marshalER9cdrStream @4662
    _ZNK14PortableServer3POA20ServantAlreadyActive13_NP_duplicateEv @4663
    _ZNK14PortableServer3POA20ServantAlreadyActive6_raiseEv @4664
    _ZNK14PortableServer3POA20ServantAlreadyActiverSER9cdrStream @4665
    _ZNK14PortableServer3POA9NoServant10_NP_repoIdEPi @4666
    _ZNK14PortableServer3POA9NoServant10_NP_typeIdEv @4667
    _ZNK14PortableServer3POA9NoServant11_NP_marshalER9cdrStream @4668
    _ZNK14PortableServer3POA9NoServant13_NP_duplicateEv @4669
    _ZNK14PortableServer3POA9NoServant6_raiseEv @4670
    _ZNK14PortableServer3POA9NoServantrSER9cdrStream @4671
    _ZNK14PortableServer7Current9NoContext10_NP_repoIdEPi @4672
    _ZNK14PortableServer7Current9NoContext10_NP_typeIdEv @4673
    _ZNK14PortableServer7Current9NoContext11_NP_marshalER9cdrStream @4674
    _ZNK14PortableServer7Current9NoContext13_NP_duplicateEv @4675
    _ZNK14PortableServer7Current9NoContext6_raiseEv @4676
    _ZNK14PortableServer7Current9NoContextrSER9cdrStream @4677
    _ZNK14omniCallHandle10try_directEv @4678
    _ZNK14omniCallHandle14operation_nameEv @4679
    _ZNK14omniCallHandle9call_descEv @4680
    _ZNK15_CORBA_SequenceI31_CORBA_Unbounded_Sequence_OctetE6lengthEv @4681
    _ZNK15_CORBA_SequenceIN3IOP13TaggedProfileEE10get_bufferEv @4682
    _ZNK15_CORBA_SequenceIN3IOP13TaggedProfileEE6lengthEv @4683
    _ZNK15_CORBA_SequenceIN3IOP13TaggedProfileEE7maximumEv @4684
    _ZNK15_CORBA_SequenceIN3IOP13TaggedProfileEEixEm @4685
    _ZNK15_CORBA_SequenceIN3IOP14ServiceContextEE6lengthEv @4686
    _ZNK15_CORBA_SequenceIN3IOP15TaggedComponentEE6lengthEv @4687
    _ZNK15_CORBA_SequenceIN3IOP15TaggedComponentEE7maximumEv @4688
    _ZNK15_CORBA_SequenceIN3IOP15TaggedComponentEEixEm @4689
    _ZNK15_CORBA_SequenceIN4IIOP7AddressEE6lengthEv @4690
    _ZNK15_CORBA_SequenceIN9CosNaming13NameComponentEE6lengthEv @4691
    _ZNK15_CORBA_SequenceIN9CosNaming13NameComponentEEixEm @4692
    _ZNK15_CORBA_SequenceIhE10get_bufferEv @4693
    _ZNK15_CORBA_SequenceIhE6lengthEv @4694
    _ZNK15_CORBA_SequenceIhE7NP_dataEv @4695
    _ZNK15_CORBA_SequenceIhE7maximumEv @4696
    _ZNK15_CORBA_SequenceIhEixEm @4697
    _ZNK15_CORBA_SequenceImE6lengthEv @4698
    _ZNK15_CORBA_SequenceImE7NP_dataEv @4699
    _ZNK15cdrMemoryStream15currentInputPtrEv @4700
    _ZNK15cdrMemoryStream16currentOutputPtrEv @4701
    _ZNK15cdrMemoryStream6bufPtrEv @4702
    _ZNK15cdrMemoryStream7bufSizeEv @4703
    _ZNK16cdrStreamAdapter15currentInputPtrEv @4704
    _ZNK16cdrStreamAdapter16currentOutputPtrEv @4705
    _ZNK16cdrStreamAdapter17copyStateToActualEv @4706
    _ZNK17_CORBA_ObjRef_VarIN14PortableServer14ServantLocatorENS0_21ServantLocator_HelperEEcvPS1_Ev @4707
    _ZNK17_CORBA_ObjRef_VarIN14PortableServer14ServantLocatorENS0_21ServantLocator_HelperEEptEv @4708
    _ZNK17_CORBA_ObjRef_VarIN14PortableServer16ServantActivatorENS0_23ServantActivator_HelperEEcvPS1_Ev @4709
    _ZNK17_CORBA_ObjRef_VarIN14PortableServer16ServantActivatorENS0_23ServantActivator_HelperEEptEv @4710
    _ZNK17_CORBA_ObjRef_VarIN9CosNaming21_objref_NamingContextENS0_20NamingContext_HelperEE2inEv @4711
    _ZNK17_CORBA_ObjRef_VarIN9CosNaming21_objref_NamingContextENS0_20NamingContext_HelperEEcvPS1_Ev @4712
    _ZNK17_CORBA_ObjRef_VarIN9CosNaming21_objref_NamingContextENS0_20NamingContext_HelperEEptEv @4713
    _ZNK17_CORBA_ObjRef_VarIN9CosNaming23_objref_BindingIteratorENS0_22BindingIterator_HelperEEcvPS1_Ev @4714
    _ZNK17_CORBA_String_var2inEv @4715
    _ZNK17_CORBA_String_varcvPKcEv @4716
    _ZNK17cdrCountingStream15currentInputPtrEv @4717
    _ZNK17cdrCountingStream16currentOutputPtrEv @4718
    _ZNK17omniLocalIdentity11deactivatedEv @4719
    _ZNK17omniLocalIdentity13p_deactivatedEv @4720
    _ZNK17omniLocalIdentity22get_real_is_equivalentEv @4721
    _ZNK17omniLocalIdentity7adapterEv @4722
    _ZNK17omniLocalIdentity7is_idleEv @4723
    _ZNK17omniLocalIdentity7servantEv @4724
    _ZNK18omniCallDescriptor11getDeadlineERmS0_ @4725
    _ZNK18omniCallDescriptor14haslocalCallFnEv @4726
    _ZNK18omniCallDescriptor2opEv @4727
    _ZNK18omniCallDescriptor6op_lenEv @4728
    _ZNK18omniCallDescriptor9is_onewayEv @4729
    _ZNK18omniCallDescriptor9is_upcallEv @4730
    _ZNK18omniRemoteIdentity22get_real_is_equivalentEv @4731
    _ZNK19cdrValueChunkStream15currentInputPtrEv @4732
    _ZNK19cdrValueChunkStream16currentOutputPtrEv @4733
    _ZNK19cdrValueChunkStream17copyStateToActualEv @4734
    _ZNK20_CORBA_ObjRef_MemberIN9CosNaming21_objref_NamingContextENS0_20NamingContext_HelperEEcvPS1_Ev @4735
    _ZNK20_CORBA_PseudoObj_VarIN10omniPolicy19LocalShortcutPolicyEEptEv @4736
    _ZNK20_CORBA_PseudoObj_VarIN11BiDirPolicy19BidirectionalPolicyEEptEv @4737
    _ZNK20_CORBA_PseudoObj_VarIN14PortableServer12ThreadPolicyEEptEv @4738
    _ZNK20_CORBA_PseudoObj_VarIN14PortableServer14LifespanPolicyEEptEv @4739
    _ZNK20_CORBA_PseudoObj_VarIN14PortableServer18IdAssignmentPolicyEEptEv @4740
    _ZNK20_CORBA_PseudoObj_VarIN14PortableServer18IdUniquenessPolicyEEptEv @4741
    _ZNK20_CORBA_PseudoObj_VarIN14PortableServer22ServantRetentionPolicyEEptEv @4742
    _ZNK20_CORBA_PseudoObj_VarIN14PortableServer23RequestProcessingPolicyEEptEv @4743
    _ZNK20_CORBA_PseudoObj_VarIN14PortableServer24ImplicitActivationPolicyEEptEv @4744
    _ZNK20_CORBA_PseudoObj_VarIN14PortableServer3POAEEcvPS1_Ev @4745
    _ZNK20_CORBA_PseudoObj_VarIN14PortableServer3POAEEptEv @4746
    _ZNK20_CORBA_String_membercvPKcEv @4747
    _ZNK20_CORBA_String_memberrSER9cdrStream @4748
    _ZNK20omniShutdownIdentity22get_real_is_equivalentEv @4749
    _ZNK21_CORBA_Sequence_OctetrSER9cdrStream @4750
    _ZNK21_CORBA_String_elementcvPKcEv @4751
    _ZNK21_CORBA_WString_memberrSER9cdrStream @4752
    _ZNK21omniInProcessIdentity22get_real_is_equivalentEv @4753
    _ZNK22_CORBA_Sequence_String6lengthEv @4754
    _ZNK22_CORBA_Sequence_String7maximumEv @4755
    _ZNK22_CORBA_Sequence_StringixEm @4756
    _ZNK22_CORBA_Sequence_StringrSER9cdrStream @4757
    _ZNK23CORBA_InitialReferences13ObjIdList_varcvRNS_9ObjIdListEEv @4758
    _ZNK23_CORBA_PseudoObj_MemberIN5CORBA6PolicyE20_CORBA_PseudoObj_VarIS1_EEcvPS1_Ev @4759
    _ZNK23_CORBA_PseudoObj_MemberIN5CORBA6PolicyE20_CORBA_PseudoObj_VarIS1_EEptEv @4760
    _ZNK23_CORBA_Sequence_WStringrSER9cdrStream @4761
    _ZNK25_CORBA_Unbounded_SequenceIN3IOP13TaggedProfileEErSER9cdrStream @4762
    _ZNK25_CORBA_Unbounded_SequenceIN3IOP14ServiceContextEErSER9cdrStream @4763
    _ZNK25_CORBA_Unbounded_SequenceIN4IIOP7AddressEErSER9cdrStream @4764
    _ZNK25_CORBA_Unbounded_SequenceIN9CosNaming13NameComponentEErSER9cdrStream @4765
    _ZNK25_CORBA_Unbounded_SequenceIN9CosNaming7BindingEErSER9cdrStream @4766
    _ZNK25_CORBA_Unbounded_SequenceImErSER9cdrStream @4767
    _ZNK27_CORBA_PseudoValue_SequenceIN4omni13serviceRecordEE6lengthEv @4768
    _ZNK27_CORBA_PseudoValue_SequenceIPN4omni10omniOrbPOAEE6lengthEv @4769
    _ZNK27_CORBA_PseudoValue_SequenceIPN7omniIOR12IORExtraInfoEE6lengthEv @4770
    _ZNK28_pof_CORBA_InitialReferences4is_aEPKc @4771
    _ZNK30_CORBA_ConstrType_Variable_VarIN9CosNaming7BindingEEcvRS1_Ev @4772
    _ZNK32_CORBA_Pseudo_Unbounded_SequenceIN5CORBA6PolicyE23_CORBA_PseudoObj_MemberIS1_20_CORBA_PseudoObj_VarIS1_EEE6lengthEv @4773
    _ZNK32_CORBA_Pseudo_Unbounded_SequenceIN5CORBA6PolicyE23_CORBA_PseudoObj_MemberIS1_20_CORBA_PseudoObj_VarIS1_EEEixEm @4774
    _ZNK3IOP13TaggedProfilerSER9cdrStream @4775
    _ZNK3IOP14ServiceContextrSER9cdrStream @4776
    _ZNK3IOP15TaggedComponentrSER9cdrStream @4777
    _ZNK3IOP21TaggedProfileList_varcvRK25_CORBA_Unbounded_SequenceINS_13TaggedProfileEEEv @4778
    _ZNK42_CORBA_Unbounded_Sequence_w_FixSizeElementImLi4ELi4EErSER9cdrStream @4779
    _ZNK4IIOP7AddressrSER9cdrStream @4780
    _ZNK4omni10CONV_FRAME16CodeSetComponentrSER9cdrStream @4781
    _ZNK4omni10CONV_FRAME20CodeSetComponentInforSER9cdrStream @4782
    _ZNK4omni10giopStrand5stateEv @4783
    _ZNK4omni10giopStream11CommFailure5minorEv @4784
    _ZNK4omni10giopStream11CommFailure5retryEv @4785
    _ZNK4omni10giopStream11CommFailure9completedEv @4786
    _ZNK4omni10giopStream11getDeadlineERmS1_ @4787
    _ZNK4omni10giopStream14inputMatchedIdEv @4788
    _ZNK4omni10giopStream15currentInputPtrEv @4789
    _ZNK4omni10giopStream16currentOutputPtrEv @4790
    _ZNK4omni10giopStream16inputMessageSizeEv @4791
    _ZNK4omni10giopStream17outputMessageSizeEv @4792
    _ZNK4omni10giopStream18inputFullyBufferedEv @4793
    _ZNK4omni10giopStream18outputFragmentSizeEv @4794
    _ZNK4omni10giopStream19inputFragmentToComeEv @4795
    _ZNK4omni10giopStream26inputExpectAnotherFragmentEv @4796
    _ZNK4omni10giopStream4implEv @4797
    _ZNK4omni10giopStream9requestIdEv @4798
    _ZNK4omni10giopWorker10singleshotEv @4799
    _ZNK4omni10giopWorker6serverEv @4800
    _ZNK4omni10giopWorker6strandEv @4801
    _ZNK4omni10omniOrbPOA11policy_listEv @4802
    _ZNK4omni10omniOrbPOA19acceptBiDirectionalEv @4803
    _ZNK4omni10orbOptions13dumpSpecifiedEv @4804
    _ZNK4omni10orbOptions14dumpCurrentSetEv @4805
    _ZNK4omni10orbOptions5usageEv @4806
    _ZNK4omni10orbOptions7Handler14argvHasNoValueEv @4807
    _ZNK4omni10orbOptions7Handler3keyEv @4808
    _ZNK4omni10orbOptions7Handler5usageEv @4809
    _ZNK4omni10orbOptions7Handler7argvYesEv @4810
    _ZNK4omni10orbOptions7Handler9usageArgvEv @4811
    _ZNK4omni10orbOptions9usageArgvEv @4812
    _ZNK4omni10tcpAddress4PokeEv @4813
    _ZNK4omni10tcpAddress4typeEv @4814
    _ZNK4omni10tcpAddress7ConnectEmmm @4815
    _ZNK4omni10tcpAddress7addressEv @4816
    _ZNK4omni10tcpAddress9duplicateEv @4817
    _ZNK4omni11LibcWrapper12AddrInfo_var2inEv @4818
    _ZNK4omni11LibcWrapper12AddrInfo_varcvPNS0_8AddrInfoEEv @4819
    _ZNK4omni11LibcWrapper12AddrInfo_varptEv @4820
    _ZNK4omni11giopMonitor10collectionEv @4821
    _ZNK4omni11omniCodeSet10NCS_C_8bit3toUEv @4822
    _ZNK4omni11omniCodeSet10NCS_C_8bit5fromUEv @4823
    _ZNK4omni11omniCodeSet4Base2idEv @4824
    _ZNK4omni11omniCodeSet4Base4kindEv @4825
    _ZNK4omni11omniCodeSet4Base4nameEv @4826
    _ZNK4omni11omniCodeSet5TCS_C11giopVersionEv @4827
    _ZNK4omni11omniCodeSet5TCS_W11giopVersionEv @4828
    _ZNK4omni11tcpEndpoint4typeEv @4829
    _ZNK4omni11tcpEndpoint7addressEv @4830
    _ZNK4omni11tcpEndpoint9addressesEv @4831
    _ZNK4omni15BiDirServerRope5matchEPKcRK10omnivectorIPNS_11giopAddressEE @4832
    _ZNK4omni16giopRendezvouser8endpointEv @4833
    _ZNK4omni18omniAnonObjRef_pof4is_aEPKc @4834
    _ZNK4omni19tcpActiveCollection4typeEv @4835
    _ZNK4omni19tcpActiveCollection7isEmptyEv @4836
    _ZNK4omni6GIOP_C11replyStatusEv @4837
    _ZNK4omni6GIOP_C12locateStatusEv @4838
    _ZNK4omni6GIOP_C3iorEv @4839
    _ZNK4omni6GIOP_C3keyEv @4840
    _ZNK4omni6GIOP_C5stateEv @4841
    _ZNK4omni6GIOP_C7keysizeEv @4842
    _ZNK4omni6GIOP_C7replyIdEv @4843
    _ZNK4omni6GIOP_S11requestTypeEv @4844
    _ZNK4omni6GIOP_S14operation_nameEv @4845
    _ZNK4omni6GIOP_S17response_expectedEv @4846
    _ZNK4omni6GIOP_S3keyEv @4847
    _ZNK4omni6GIOP_S5stateEv @4848
    _ZNK4omni6GIOP_S7keysizeEv @4849
    _ZNK4omni6GIOP_S9operationEv @4850
    _ZNK4omni6GIOP_S9principalEv @4851
    _ZNK4omni8giopRope5matchERK10omnivectorIPNS_11giopAddressEE @4852
    _ZNK5CORBA10INITIALIZE10_NP_repoIdEPi @4853
    _ZNK5CORBA10INITIALIZE10_NP_typeIdEv @4854
    _ZNK5CORBA10INITIALIZE13_NP_duplicateEv @4855
    _ZNK5CORBA10INITIALIZE14NP_minorStringEv @4856
    _ZNK5CORBA10INITIALIZE6_raiseEv @4857
    _ZNK5CORBA10INTF_REPOS10_NP_repoIdEPi @4858
    _ZNK5CORBA10INTF_REPOS10_NP_typeIdEv @4859
    _ZNK5CORBA10INTF_REPOS13_NP_duplicateEv @4860
    _ZNK5CORBA10INTF_REPOS14NP_minorStringEv @4861
    _ZNK5CORBA10INTF_REPOS6_raiseEv @4862
    _ZNK5CORBA10INV_OBJREF10_NP_repoIdEPi @4863
    _ZNK5CORBA10INV_OBJREF10_NP_typeIdEv @4864
    _ZNK5CORBA10INV_OBJREF13_NP_duplicateEv @4865
    _ZNK5CORBA10INV_OBJREF14NP_minorStringEv @4866
    _ZNK5CORBA10INV_OBJREF6_raiseEv @4867
    _ZNK5CORBA10INV_POLICY10_NP_repoIdEPi @4868
    _ZNK5CORBA10INV_POLICY10_NP_typeIdEv @4869
    _ZNK5CORBA10INV_POLICY13_NP_duplicateEv @4870
    _ZNK5CORBA10INV_POLICY14NP_minorStringEv @4871
    _ZNK5CORBA10INV_POLICY6_raiseEv @4872
    _ZNK5CORBA10Object_var2inEv @4873
    _ZNK5CORBA10Object_varcvPNS_6ObjectEEv @4874
    _ZNK5CORBA10Object_varptEv @4875
    _ZNK5CORBA11BAD_CONTEXT10_NP_repoIdEPi @4876
    _ZNK5CORBA11BAD_CONTEXT10_NP_typeIdEv @4877
    _ZNK5CORBA11BAD_CONTEXT13_NP_duplicateEv @4878
    _ZNK5CORBA11BAD_CONTEXT14NP_minorStringEv @4879
    _ZNK5CORBA11BAD_CONTEXT6_raiseEv @4880
    _ZNK5CORBA11NO_RESPONSE10_NP_repoIdEPi @4881
    _ZNK5CORBA11NO_RESPONSE10_NP_typeIdEv @4882
    _ZNK5CORBA11NO_RESPONSE13_NP_duplicateEv @4883
    _ZNK5CORBA11NO_RESPONSE14NP_minorStringEv @4884
    _ZNK5CORBA11NO_RESPONSE6_raiseEv @4885
    _ZNK5CORBA11OBJ_ADAPTER10_NP_repoIdEPi @4886
    _ZNK5CORBA11OBJ_ADAPTER10_NP_typeIdEv @4887
    _ZNK5CORBA11OBJ_ADAPTER13_NP_duplicateEv @4888
    _ZNK5CORBA11OBJ_ADAPTER14NP_minorStringEv @4889
    _ZNK5CORBA11OBJ_ADAPTER6_raiseEv @4890
    _ZNK5CORBA12BAD_TYPECODE10_NP_repoIdEPi @4891
    _ZNK5CORBA12BAD_TYPECODE10_NP_typeIdEv @4892
    _ZNK5CORBA12BAD_TYPECODE13_NP_duplicateEv @4893
    _ZNK5CORBA12BAD_TYPECODE14NP_minorStringEv @4894
    _ZNK5CORBA12BAD_TYPECODE6_raiseEv @4895
    _ZNK5CORBA12COMM_FAILURE10_NP_repoIdEPi @4896
    _ZNK5CORBA12COMM_FAILURE10_NP_typeIdEv @4897
    _ZNK5CORBA12COMM_FAILURE13_NP_duplicateEv @4898
    _ZNK5CORBA12COMM_FAILURE14NP_minorStringEv @4899
    _ZNK5CORBA12COMM_FAILURE6_raiseEv @4900
    _ZNK5CORBA12NO_IMPLEMENT10_NP_repoIdEPi @4901
    _ZNK5CORBA12NO_IMPLEMENT10_NP_typeIdEv @4902
    _ZNK5CORBA12NO_IMPLEMENT13_NP_duplicateEv @4903
    _ZNK5CORBA12NO_IMPLEMENT14NP_minorStringEv @4904
    _ZNK5CORBA12NO_IMPLEMENT6_raiseEv @4905
    _ZNK5CORBA12NO_RESOURCES10_NP_repoIdEPi @4906
    _ZNK5CORBA12NO_RESOURCES10_NP_typeIdEv @4907
    _ZNK5CORBA12NO_RESOURCES13_NP_duplicateEv @4908
    _ZNK5CORBA12NO_RESOURCES14NP_minorStringEv @4909
    _ZNK5CORBA12NO_RESOURCES6_raiseEv @4910
    _ZNK5CORBA13BAD_INV_ORDER10_NP_repoIdEPi @4911
    _ZNK5CORBA13BAD_INV_ORDER10_NP_typeIdEv @4912
    _ZNK5CORBA13BAD_INV_ORDER13_NP_duplicateEv @4913
    _ZNK5CORBA13BAD_INV_ORDER14NP_minorStringEv @4914
    _ZNK5CORBA13BAD_INV_ORDER6_raiseEv @4915
    _ZNK5CORBA13BAD_OPERATION10_NP_repoIdEPi @4916
    _ZNK5CORBA13BAD_OPERATION10_NP_typeIdEv @4917
    _ZNK5CORBA13BAD_OPERATION13_NP_duplicateEv @4918
    _ZNK5CORBA13BAD_OPERATION14NP_minorStringEv @4919
    _ZNK5CORBA13BAD_OPERATION6_raiseEv @4920
    _ZNK5CORBA13NO_PERMISSION10_NP_repoIdEPi @4921
    _ZNK5CORBA13NO_PERMISSION10_NP_typeIdEv @4922
    _ZNK5CORBA13NO_PERMISSION13_NP_duplicateEv @4923
    _ZNK5CORBA13NO_PERMISSION14NP_minorStringEv @4924
    _ZNK5CORBA13NO_PERMISSION6_raiseEv @4925
    _ZNK5CORBA13Object_MembercvPNS_6ObjectEEv @4926
    _ZNK5CORBA13PERSIST_STORE10_NP_repoIdEPi @4927
    _ZNK5CORBA13PERSIST_STORE10_NP_typeIdEv @4928
    _ZNK5CORBA13PERSIST_STORE13_NP_duplicateEv @4929
    _ZNK5CORBA13PERSIST_STORE14NP_minorStringEv @4930
    _ZNK5CORBA13PERSIST_STORE6_raiseEv @4931
    _ZNK5CORBA15DATA_CONVERSION10_NP_repoIdEPi @4932
    _ZNK5CORBA15DATA_CONVERSION10_NP_typeIdEv @4933
    _ZNK5CORBA15DATA_CONVERSION13_NP_duplicateEv @4934
    _ZNK5CORBA15DATA_CONVERSION14NP_minorStringEv @4935
    _ZNK5CORBA15DATA_CONVERSION6_raiseEv @4936
    _ZNK5CORBA15SystemException11_NP_marshalER9cdrStream @4937
    _ZNK5CORBA15SystemException5minorEv @4938
    _ZNK5CORBA15SystemException9completedEv @4939
    _ZNK5CORBA16OBJECT_NOT_EXIST10_NP_repoIdEPi @4940
    _ZNK5CORBA16OBJECT_NOT_EXIST10_NP_typeIdEv @4941
    _ZNK5CORBA16OBJECT_NOT_EXIST13_NP_duplicateEv @4942
    _ZNK5CORBA16OBJECT_NOT_EXIST14NP_minorStringEv @4943
    _ZNK5CORBA16OBJECT_NOT_EXIST6_raiseEv @4944
    _ZNK5CORBA16TRANSACTION_MODE10_NP_repoIdEPi @4945
    _ZNK5CORBA16TRANSACTION_MODE10_NP_typeIdEv @4946
    _ZNK5CORBA16TRANSACTION_MODE13_NP_duplicateEv @4947
    _ZNK5CORBA16TRANSACTION_MODE14NP_minorStringEv @4948
    _ZNK5CORBA16TRANSACTION_MODE6_raiseEv @4949
    _ZNK5CORBA19INVALID_TRANSACTION10_NP_repoIdEPi @4950
    _ZNK5CORBA19INVALID_TRANSACTION10_NP_typeIdEv @4951
    _ZNK5CORBA19INVALID_TRANSACTION13_NP_duplicateEv @4952
    _ZNK5CORBA19INVALID_TRANSACTION14NP_minorStringEv @4953
    _ZNK5CORBA19INVALID_TRANSACTION6_raiseEv @4954
    _ZNK5CORBA20CODESET_INCOMPATIBLE10_NP_repoIdEPi @4955
    _ZNK5CORBA20CODESET_INCOMPATIBLE10_NP_typeIdEv @4956
    _ZNK5CORBA20CODESET_INCOMPATIBLE13_NP_duplicateEv @4957
    _ZNK5CORBA20CODESET_INCOMPATIBLE14NP_minorStringEv @4958
    _ZNK5CORBA20CODESET_INCOMPATIBLE6_raiseEv @4959
    _ZNK5CORBA20TRANSACTION_REQUIRED10_NP_repoIdEPi @4960
    _ZNK5CORBA20TRANSACTION_REQUIRED10_NP_typeIdEv @4961
    _ZNK5CORBA20TRANSACTION_REQUIRED13_NP_duplicateEv @4962
    _ZNK5CORBA20TRANSACTION_REQUIRED14NP_minorStringEv @4963
    _ZNK5CORBA20TRANSACTION_REQUIRED6_raiseEv @4964
    _ZNK5CORBA22TRANSACTION_ROLLEDBACK10_NP_repoIdEPi @4965
    _ZNK5CORBA22TRANSACTION_ROLLEDBACK10_NP_typeIdEv @4966
    _ZNK5CORBA22TRANSACTION_ROLLEDBACK13_NP_duplicateEv @4967
    _ZNK5CORBA22TRANSACTION_ROLLEDBACK14NP_minorStringEv @4968
    _ZNK5CORBA22TRANSACTION_ROLLEDBACK6_raiseEv @4969
    _ZNK5CORBA23TRANSACTION_UNAVAILABLE10_NP_repoIdEPi @4970
    _ZNK5CORBA23TRANSACTION_UNAVAILABLE10_NP_typeIdEv @4971
    _ZNK5CORBA23TRANSACTION_UNAVAILABLE13_NP_duplicateEv @4972
    _ZNK5CORBA23TRANSACTION_UNAVAILABLE14NP_minorStringEv @4973
    _ZNK5CORBA23TRANSACTION_UNAVAILABLE6_raiseEv @4974
    _ZNK5CORBA3ORB11InvalidName10_NP_repoIdEPi @4975
    _ZNK5CORBA3ORB11InvalidName10_NP_typeIdEv @4976
    _ZNK5CORBA3ORB11InvalidName11_NP_marshalER9cdrStream @4977
    _ZNK5CORBA3ORB11InvalidName13_NP_duplicateEv @4978
    _ZNK5CORBA3ORB11InvalidName6_raiseEv @4979
    _ZNK5CORBA3ORB11InvalidNamerSER9cdrStream @4980
    _ZNK5CORBA5Fixed11NP_asStringEv @4981
    _ZNK5CORBA5Fixed11PR_negativeEv @4982
    _ZNK5CORBA5Fixed11fixed_scaleEv @4983
    _ZNK5CORBA5Fixed12fixed_digitsEv @4984
    _ZNK5CORBA5Fixed5roundEt @4985
    _ZNK5CORBA5Fixed6PR_valEv @4986
    _ZNK5CORBA5Fixed8truncateEt @4987
    _ZNK5CORBA5Fixed9to_stringEv @4988
    _ZNK5CORBA5FixedcveEv @4989
    _ZNK5CORBA5FixedcvxEv @4990
    _ZNK5CORBA5FixedngEv @4991
    _ZNK5CORBA5FixedntEv @4992
    _ZNK5CORBA5FixedpsEv @4993
    _ZNK5CORBA5FixedrSER9cdrStream @4994
    _ZNK5CORBA6Object10_NP_is_nilEv @4995
    _ZNK5CORBA6Object13_NP_is_pseudoEv @4996
    _ZNK5CORBA6REBIND10_NP_repoIdEPi @4997
    _ZNK5CORBA6REBIND10_NP_typeIdEv @4998
    _ZNK5CORBA6REBIND13_NP_duplicateEv @4999
    _ZNK5CORBA6REBIND14NP_minorStringEv @5000
    _ZNK5CORBA6REBIND6_raiseEv @5001
    _ZNK5CORBA7BAD_QOS10_NP_repoIdEPi @5002
    _ZNK5CORBA7BAD_QOS10_NP_typeIdEv @5003
    _ZNK5CORBA7BAD_QOS13_NP_duplicateEv @5004
    _ZNK5CORBA7BAD_QOS14NP_minorStringEv @5005
    _ZNK5CORBA7BAD_QOS6_raiseEv @5006
    _ZNK5CORBA7MARSHAL10_NP_repoIdEPi @5007
    _ZNK5CORBA7MARSHAL10_NP_typeIdEv @5008
    _ZNK5CORBA7MARSHAL13_NP_duplicateEv @5009
    _ZNK5CORBA7MARSHAL14NP_minorStringEv @5010
    _ZNK5CORBA7MARSHAL6_raiseEv @5011
    _ZNK5CORBA7TIMEOUT10_NP_repoIdEPi @5012
    _ZNK5CORBA7TIMEOUT10_NP_typeIdEv @5013
    _ZNK5CORBA7TIMEOUT13_NP_duplicateEv @5014
    _ZNK5CORBA7TIMEOUT14NP_minorStringEv @5015
    _ZNK5CORBA7TIMEOUT6_raiseEv @5016
    _ZNK5CORBA7UNKNOWN10_NP_repoIdEPi @5017
    _ZNK5CORBA7UNKNOWN10_NP_typeIdEv @5018
    _ZNK5CORBA7UNKNOWN13_NP_duplicateEv @5019
    _ZNK5CORBA7UNKNOWN14NP_minorStringEv @5020
    _ZNK5CORBA7UNKNOWN6_raiseEv @5021
    _ZNK5CORBA8FREE_MEM10_NP_repoIdEPi @5022
    _ZNK5CORBA8FREE_MEM10_NP_typeIdEv @5023
    _ZNK5CORBA8FREE_MEM13_NP_duplicateEv @5024
    _ZNK5CORBA8FREE_MEM14NP_minorStringEv @5025
    _ZNK5CORBA8FREE_MEM6_raiseEv @5026
    _ZNK5CORBA8INTERNAL10_NP_repoIdEPi @5027
    _ZNK5CORBA8INTERNAL10_NP_typeIdEv @5028
    _ZNK5CORBA8INTERNAL13_NP_duplicateEv @5029
    _ZNK5CORBA8INTERNAL14NP_minorStringEv @5030
    _ZNK5CORBA8INTERNAL6_raiseEv @5031
    _ZNK5CORBA8INV_FLAG10_NP_repoIdEPi @5032
    _ZNK5CORBA8INV_FLAG10_NP_typeIdEv @5033
    _ZNK5CORBA8INV_FLAG13_NP_duplicateEv @5034
    _ZNK5CORBA8INV_FLAG14NP_minorStringEv @5035
    _ZNK5CORBA8INV_FLAG6_raiseEv @5036
    _ZNK5CORBA9BAD_PARAM10_NP_repoIdEPi @5037
    _ZNK5CORBA9BAD_PARAM10_NP_typeIdEv @5038
    _ZNK5CORBA9BAD_PARAM13_NP_duplicateEv @5039
    _ZNK5CORBA9BAD_PARAM14NP_minorStringEv @5040
    _ZNK5CORBA9BAD_PARAM6_raiseEv @5041
    _ZNK5CORBA9Exception5_nameEv @5042
    _ZNK5CORBA9Exception7_rep_idEv @5043
    _ZNK5CORBA9IMP_LIMIT10_NP_repoIdEPi @5044
    _ZNK5CORBA9IMP_LIMIT10_NP_typeIdEv @5045
    _ZNK5CORBA9IMP_LIMIT13_NP_duplicateEv @5046
    _ZNK5CORBA9IMP_LIMIT14NP_minorStringEv @5047
    _ZNK5CORBA9IMP_LIMIT6_raiseEv @5048
    _ZNK5CORBA9INV_IDENT10_NP_repoIdEPi @5049
    _ZNK5CORBA9INV_IDENT10_NP_typeIdEv @5050
    _ZNK5CORBA9INV_IDENT13_NP_duplicateEv @5051
    _ZNK5CORBA9INV_IDENT14NP_minorStringEv @5052
    _ZNK5CORBA9INV_IDENT6_raiseEv @5053
    _ZNK5CORBA9NO_MEMORY10_NP_repoIdEPi @5054
    _ZNK5CORBA9NO_MEMORY10_NP_typeIdEv @5055
    _ZNK5CORBA9NO_MEMORY13_NP_duplicateEv @5056
    _ZNK5CORBA9NO_MEMORY14NP_minorStringEv @5057
    _ZNK5CORBA9NO_MEMORY6_raiseEv @5058
    _ZNK5CORBA9TRANSIENT10_NP_repoIdEPi @5059
    _ZNK5CORBA9TRANSIENT10_NP_typeIdEv @5060
    _ZNK5CORBA9TRANSIENT13_NP_duplicateEv @5061
    _ZNK5CORBA9TRANSIENT14NP_minorStringEv @5062
    _ZNK5CORBA9TRANSIENT6_raiseEv @5063
    _ZNK7omniIOR10getIORInfoEv @5064
    _ZNK7omniIOR11iopProfilesEv @5065
    _ZNK7omniIOR12repositoryIDEv @5066
    _ZNK7omniIOR24marshalIORAddressingInfoER9cdrStream @5067
    _ZNK7omniIOR27addr_selected_profile_indexEv @5068
    _ZNK7omniIOR7IORInfo5TCS_CEv @5069
    _ZNK7omniIOR7IORInfo5TCS_WEv @5070
    _ZNK7omniIOR7IORInfo7versionEv @5071
    _ZNK7omniIOR9addr_modeEv @5072
    _ZNK7omniORB14fatalException4fileEv @5073
    _ZNK7omniORB14fatalException4lineEv @5074
    _ZNK7omniORB14fatalException6errmsgEv @5075
    _ZNK7omniORB16LOCATION_FORWARD12is_permanentEv @5076
    _ZNK7omniORB16LOCATION_FORWARD7get_objEv @5077
    _ZNK9CosNaming13NameComponentrSER9cdrStream @5078
    _ZNK9CosNaming13NamingContext11InvalidName10_NP_repoIdEPi @5079
    _ZNK9CosNaming13NamingContext11InvalidName10_NP_typeIdEv @5080
    _ZNK9CosNaming13NamingContext11InvalidName11_NP_marshalER9cdrStream @5081
    _ZNK9CosNaming13NamingContext11InvalidName13_NP_duplicateEv @5082
    _ZNK9CosNaming13NamingContext11InvalidName6_raiseEv @5083
    _ZNK9CosNaming13NamingContext11InvalidNamerSER9cdrStream @5084
    _ZNK9CosNaming13NamingContext12AlreadyBound10_NP_repoIdEPi @5085
    _ZNK9CosNaming13NamingContext12AlreadyBound10_NP_typeIdEv @5086
    _ZNK9CosNaming13NamingContext12AlreadyBound11_NP_marshalER9cdrStream @5087
    _ZNK9CosNaming13NamingContext12AlreadyBound13_NP_duplicateEv @5088
    _ZNK9CosNaming13NamingContext12AlreadyBound6_raiseEv @5089
    _ZNK9CosNaming13NamingContext12AlreadyBoundrSER9cdrStream @5090
    _ZNK9CosNaming13NamingContext13CannotProceed10_NP_repoIdEPi @5091
    _ZNK9CosNaming13NamingContext13CannotProceed10_NP_typeIdEv @5092
    _ZNK9CosNaming13NamingContext13CannotProceed11_NP_marshalER9cdrStream @5093
    _ZNK9CosNaming13NamingContext13CannotProceed13_NP_duplicateEv @5094
    _ZNK9CosNaming13NamingContext13CannotProceed6_raiseEv @5095
    _ZNK9CosNaming13NamingContext13CannotProceedrSER9cdrStream @5096
    _ZNK9CosNaming13NamingContext8NotEmpty10_NP_repoIdEPi @5097
    _ZNK9CosNaming13NamingContext8NotEmpty10_NP_typeIdEv @5098
    _ZNK9CosNaming13NamingContext8NotEmpty11_NP_marshalER9cdrStream @5099
    _ZNK9CosNaming13NamingContext8NotEmpty13_NP_duplicateEv @5100
    _ZNK9CosNaming13NamingContext8NotEmpty6_raiseEv @5101
    _ZNK9CosNaming13NamingContext8NotEmptyrSER9cdrStream @5102
    _ZNK9CosNaming13NamingContext8NotFound10_NP_repoIdEPi @5103
    _ZNK9CosNaming13NamingContext8NotFound10_NP_typeIdEv @5104
    _ZNK9CosNaming13NamingContext8NotFound11_NP_marshalER9cdrStream @5105
    _ZNK9CosNaming13NamingContext8NotFound13_NP_duplicateEv @5106
    _ZNK9CosNaming13NamingContext8NotFound6_raiseEv @5107
    _ZNK9CosNaming13NamingContext8NotFoundrSER9cdrStream @5108
    _ZNK9CosNaming15BindingList_varcvRNS_11BindingListEEv @5109
    _ZNK9CosNaming16NamingContextExt14InvalidAddress10_NP_repoIdEPi @5110
    _ZNK9CosNaming16NamingContextExt14InvalidAddress10_NP_typeIdEv @5111
    _ZNK9CosNaming16NamingContextExt14InvalidAddress11_NP_marshalER9cdrStream @5112
    _ZNK9CosNaming16NamingContextExt14InvalidAddress13_NP_duplicateEv @5113
    _ZNK9CosNaming16NamingContextExt14InvalidAddress6_raiseEv @5114
    _ZNK9CosNaming16NamingContextExt14InvalidAddressrSER9cdrStream @5115
    _ZNK9CosNaming18_pof_NamingContext4is_aEPKc @5116
    _ZNK9CosNaming20_pof_BindingIterator4is_aEPKc @5117
    _ZNK9CosNaming21_pof_NamingContextExt4is_aEPKc @5118
    _ZNK9CosNaming7BindingrSER9cdrStream @5119
    _ZNK9CosNaming8Name_var2inEv @5120
    _ZNK9CosNaming8Name_varcvRNS_4NameEEv @5121
    _ZNK9cdrStream17marshal_byte_swapEv @5122
    _ZNK9cdrStream19unmarshal_byte_swapEv @5123
    _ZNK9cdrStream5TCS_CEv @5124
    _ZNK9cdrStream5TCS_WEv @5125
    _ZTC27POA_CORBA_InitialReferences0_29_impl_CORBA_InitialReferences @5126 DATA
    _ZTC27POA_CORBA_InitialReferences20_N14PortableServer11ServantBaseE @5127 DATA
    _ZTCN10omniPolicy19LocalShortcutPolicyE0_N5CORBA6PolicyE @5128 DATA
    _ZTCN11BiDirPolicy19BidirectionalPolicyE0_N5CORBA6PolicyE @5129 DATA
    _ZTCN13POA_CosNaming13NamingContextE0_N9CosNaming19_impl_NamingContextE @5130 DATA
    _ZTCN13POA_CosNaming13NamingContextE20_N14PortableServer11ServantBaseE @5131 DATA
    _ZTCN13POA_CosNaming15BindingIteratorE0_N9CosNaming21_impl_BindingIteratorE @5132 DATA
    _ZTCN13POA_CosNaming15BindingIteratorE20_N14PortableServer11ServantBaseE @5133 DATA
    _ZTCN13POA_CosNaming16NamingContextExtE0_N9CosNaming19_impl_NamingContextE @5134 DATA
    _ZTCN13POA_CosNaming16NamingContextExtE0_N9CosNaming22_impl_NamingContextExtE @5135 DATA
    _ZTCN13POA_CosNaming16NamingContextExtE20_NS_13NamingContextE @5136 DATA
    _ZTCN13POA_CosNaming16NamingContextExtE24_N14PortableServer11ServantBaseE @5137 DATA
    _ZTCN14PortableServer12ThreadPolicyE0_N5CORBA6PolicyE @5138 DATA
    _ZTCN14PortableServer14LifespanPolicyE0_N5CORBA6PolicyE @5139 DATA
    _ZTCN14PortableServer14ServantLocatorE0_N5CORBA11LocalObjectE @5140 DATA
    _ZTCN14PortableServer14ServantLocatorE0_NS_14ServantManagerE @5141 DATA
    _ZTCN14PortableServer14ServantManagerE0_N5CORBA11LocalObjectE @5142 DATA
    _ZTCN14PortableServer16AdapterActivatorE0_N5CORBA11LocalObjectE @5143 DATA
    _ZTCN14PortableServer16ServantActivatorE0_N5CORBA11LocalObjectE @5144 DATA
    _ZTCN14PortableServer16ServantActivatorE0_NS_14ServantManagerE @5145 DATA
    _ZTCN14PortableServer18IdAssignmentPolicyE0_N5CORBA6PolicyE @5146 DATA
    _ZTCN14PortableServer18IdUniquenessPolicyE0_N5CORBA6PolicyE @5147 DATA
    _ZTCN14PortableServer20_impl_ServantLocatorE0_NS_20_impl_ServantManagerE @5148 DATA
    _ZTCN14PortableServer22ServantRetentionPolicyE0_N5CORBA6PolicyE @5149 DATA
    _ZTCN14PortableServer22_impl_ServantActivatorE0_NS_20_impl_ServantManagerE @5150 DATA
    _ZTCN14PortableServer22_objref_ServantLocatorE0_N5CORBA11LocalObjectE @5151 DATA
    _ZTCN14PortableServer22_objref_ServantLocatorE0_NS_14ServantLocatorE @5152 DATA
    _ZTCN14PortableServer22_objref_ServantLocatorE0_NS_14ServantManagerE @5153 DATA
    _ZTCN14PortableServer22_objref_ServantLocatorE24_NS_22_objref_ServantManagerE @5154 DATA
    _ZTCN14PortableServer22_objref_ServantManagerE0_N5CORBA11LocalObjectE @5155 DATA
    _ZTCN14PortableServer22_objref_ServantManagerE0_NS_14ServantManagerE @5156 DATA
    _ZTCN14PortableServer23RequestProcessingPolicyE0_N5CORBA6PolicyE @5157 DATA
    _ZTCN14PortableServer24ImplicitActivationPolicyE0_N5CORBA6PolicyE @5158 DATA
    _ZTCN14PortableServer24_objref_AdapterActivatorE0_N5CORBA11LocalObjectE @5159 DATA
    _ZTCN14PortableServer24_objref_AdapterActivatorE0_NS_16AdapterActivatorE @5160 DATA
    _ZTCN14PortableServer24_objref_ServantActivatorE0_N5CORBA11LocalObjectE @5161 DATA
    _ZTCN14PortableServer24_objref_ServantActivatorE0_NS_14ServantManagerE @5162 DATA
    _ZTCN14PortableServer24_objref_ServantActivatorE0_NS_16ServantActivatorE @5163 DATA
    _ZTCN14PortableServer24_objref_ServantActivatorE24_NS_22_objref_ServantManagerE @5164 DATA
    _ZTCN18POA_PortableServer14ServantLocatorE0_N14PortableServer20_impl_ServantLocatorE @5165 DATA
    _ZTCN18POA_PortableServer14ServantLocatorE0_N14PortableServer20_impl_ServantManagerE @5166 DATA
    _ZTCN18POA_PortableServer14ServantLocatorE20_N14PortableServer11ServantBaseE @5167 DATA
    _ZTCN18POA_PortableServer14ServantManagerE0_N14PortableServer20_impl_ServantManagerE @5168 DATA
    _ZTCN18POA_PortableServer14ServantManagerE20_N14PortableServer11ServantBaseE @5169 DATA
    _ZTCN18POA_PortableServer16AdapterActivatorE0_N14PortableServer22_impl_AdapterActivatorE @5170 DATA
    _ZTCN18POA_PortableServer16AdapterActivatorE20_N14PortableServer11ServantBaseE @5171 DATA
    _ZTCN18POA_PortableServer16ServantActivatorE0_N14PortableServer20_impl_ServantManagerE @5172 DATA
    _ZTCN18POA_PortableServer16ServantActivatorE0_N14PortableServer22_impl_ServantActivatorE @5173 DATA
    _ZTCN18POA_PortableServer16ServantActivatorE20_N14PortableServer11ServantBaseE @5174 DATA
    _ZTCN4omni25CORBA_InitialReferences_iE0_27POA_CORBA_InitialReferences @5175 DATA
    _ZTCN4omni25CORBA_InitialReferences_iE0_29_impl_CORBA_InitialReferences @5176 DATA
    _ZTCN4omni25CORBA_InitialReferences_iE20_N14PortableServer11ServantBaseE @5177 DATA
    _ZTCN9CosNaming22_impl_NamingContextExtE0_NS_19_impl_NamingContextE @5178 DATA
    _ZTCN9CosNaming24_objref_NamingContextExtE0_NS_21_objref_NamingContextE @5179 DATA
    _ZTI10omniObjRef @5180 DATA
    _ZTI10omniOrbORB @5181 DATA
    _ZTI11omniCurrent @5182 DATA
    _ZTI11omniServant @5183 DATA
    _ZTI11omni_thread @5184 DATA
    _ZTI12omniIdentity @5185 DATA
    _ZTI12omniTaskLink @5186 DATA
    _ZTI14omniNilCurrent @5187 DATA
    _ZTI15cdrMemoryStream @5188 DATA
    _ZTI15omniAsyncWorker @5189 DATA
    _ZTI16cdrStreamAdapter @5190 DATA
    _ZTI16omniAsyncInvoker @5191 DATA
    _ZTI16omniEtherealiser @5192 DATA
    _ZTI16traceFileHandler @5193 DATA
    _ZTI16traceTimeHandler @5194 DATA
    _ZTI17cdrCountingStream @5195 DATA
    _ZTI17omniLocalIdentity @5196 DATA
    _ZTI17omniObjTableEntry @5197 DATA
    _ZTI17omniOrbBoaServant @5198 DATA
    _ZTI17omni_thread_fatal @5199 DATA
    _ZTI17traceLevelHandler @5200 DATA
    _ZTI18omniCallDescriptor @5201 DATA
    _ZTI18omniRemoteIdentity @5202 DATA
    _ZTI19cdrValueChunkStream @5203 DATA
    _ZTI19omniAsyncWorkerInfo @5204 DATA
    _ZTI20omniShutdownIdentity @5205 DATA
    _ZTI20traceThreadIdHandler @5206 DATA
    _ZTI21omniInProcessIdentity @5207 DATA
    _ZTI21supportCurrentHandler @5208 DATA
    _ZTI22cdrEncapsulationStream @5209 DATA
    _ZTI22objectTableSizeHandler @5210 DATA
    _ZTI22traceExceptionsHandler @5211 DATA
    _ZTI23traceInvocationsHandler @5212 DATA
    _ZTI24nativeCharCodeSetHandler @5213 DATA
    _ZTI25nativeWCharCodeSetHandler @5214 DATA
    _ZTI27POA_CORBA_InitialReferences @5215 DATA
    _ZTI27abortOnInternalErrorHandler @5216 DATA
    _ZTI27omniLocalOnlyCallDescriptor @5217 DATA
    _ZTI28_pof_CORBA_InitialReferences @5218 DATA
    _ZTI29_impl_CORBA_InitialReferences @5219 DATA
    _ZTI29abortOnNativeExceptionHandler @5220 DATA
    _ZTI29traceInvocationReturnsHandler @5221 DATA
    _ZTI31_objref_CORBA_InitialReferences @5222 DATA
    _ZTI33_0RL_cd_3c165f58b5a16b59_00000000 @5223 DATA
    _ZTI33_0RL_cd_3c165f58b5a16b59_20000000 @5224 DATA
    _ZTI33_0RL_cd_3c165f58b5a16b59_40000000 @5225 DATA
    _ZTI33_0RL_cd_3c165f58b5a16b59_60000000 @5226 DATA
    _ZTI33_0RL_cd_3c165f58b5a16b59_80000000 @5227 DATA
    _ZTI33_0RL_cd_69CECA6A39F685B5_00000000 @5228 DATA
    _ZTI33_0RL_cd_69CECA6A39F685B5_01000000 @5229 DATA
    _ZTI33_0RL_cd_69CECA6A39F685B5_02000000 @5230 DATA
    _ZTI33_0RL_cd_69CECA6A39F685B5_20000000 @5231 DATA
    _ZTI33_0RL_cd_69CECA6A39F685B5_21000000 @5232 DATA
    _ZTI33_0RL_cd_69CECA6A39F685B5_40000000 @5233 DATA
    _ZTI33_0RL_cd_69CECA6A39F685B5_41000000 @5234 DATA
    _ZTI33_0RL_cd_69CECA6A39F685B5_60000000 @5235 DATA
    _ZTI33_0RL_cd_69CECA6A39F685B5_61000000 @5236 DATA
    _ZTI33_0RL_cd_69CECA6A39F685B5_80000000 @5237 DATA
    _ZTI33_0RL_cd_69CECA6A39F685B5_81000000 @5238 DATA
    _ZTI33_0RL_cd_69CECA6A39F685B5_a0000000 @5239 DATA
    _ZTI33_0RL_cd_69CECA6A39F685B5_a1000000 @5240 DATA
    _ZTI33_0RL_cd_69CECA6A39F685B5_c0000000 @5241 DATA
    _ZTI33_0RL_cd_69CECA6A39F685B5_c1000000 @5242 DATA
    _ZTI33_0RL_cd_69CECA6A39F685B5_e0000000 @5243 DATA
    _ZTI33_0RL_cd_69CECA6A39F685B5_e1000000 @5244 DATA
    _ZTI33_0RL_cd_96F078E2247AB9DA_00000000 @5245 DATA
    _ZTI33_0RL_cd_96F078E2247AB9DA_20000000 @5246 DATA
    _ZTI8omniTask @5247 DATA
    _ZTI9cdrStream @5248 DATA
    _ZTIN10omniPolicy19LocalShortcutPolicyE @5249 DATA
    _ZTIN11BiDirPolicy19BidirectionalPolicyE @5250 DATA
    _ZTIN11omni_thread7value_tE @5251 DATA
    _ZTIN13POA_CosNaming13NamingContextE @5252 DATA
    _ZTIN13POA_CosNaming15BindingIteratorE @5253 DATA
    _ZTIN13POA_CosNaming16NamingContextExtE @5254 DATA
    _ZTIN14PortableServer10POAManager15AdapterInactiveE @5255 DATA
    _ZTIN14PortableServer10POAManagerE @5256 DATA
    _ZTIN14PortableServer11ServantBaseE @5257 DATA
    _ZTIN14PortableServer12ThreadPolicyE @5258 DATA
    _ZTIN14PortableServer14ForwardRequestE @5259 DATA
    _ZTIN14PortableServer14LifespanPolicyE @5260 DATA
    _ZTIN14PortableServer14ServantLocatorE @5261 DATA
    _ZTIN14PortableServer14ServantManagerE @5262 DATA
    _ZTIN14PortableServer16AdapterActivatorE @5263 DATA
    _ZTIN14PortableServer16ServantActivatorE @5264 DATA
    _ZTIN14PortableServer18IdAssignmentPolicyE @5265 DATA
    _ZTIN14PortableServer18IdUniquenessPolicyE @5266 DATA
    _ZTIN14PortableServer19_pof_ServantLocatorE @5267 DATA
    _ZTIN14PortableServer19_pof_ServantManagerE @5268 DATA
    _ZTIN14PortableServer20_impl_ServantLocatorE @5269 DATA
    _ZTIN14PortableServer20_impl_ServantManagerE @5270 DATA
    _ZTIN14PortableServer21_pof_AdapterActivatorE @5271 DATA
    _ZTIN14PortableServer21_pof_ServantActivatorE @5272 DATA
    _ZTIN14PortableServer22ServantRetentionPolicyE @5273 DATA
    _ZTIN14PortableServer22_impl_AdapterActivatorE @5274 DATA
    _ZTIN14PortableServer22_impl_ServantActivatorE @5275 DATA
    _ZTIN14PortableServer22_objref_ServantLocatorE @5276 DATA
    _ZTIN14PortableServer22_objref_ServantManagerE @5277 DATA
    _ZTIN14PortableServer23RequestProcessingPolicyE @5278 DATA
    _ZTIN14PortableServer24ImplicitActivationPolicyE @5279 DATA
    _ZTIN14PortableServer24_objref_AdapterActivatorE @5280 DATA
    _ZTIN14PortableServer24_objref_ServantActivatorE @5281 DATA
    _ZTIN14PortableServer3POA11WrongPolicyE @5282 DATA
    _ZTIN14PortableServer3POA12WrongAdapterE @5283 DATA
    _ZTIN14PortableServer3POA13InvalidPolicyE @5284 DATA
    _ZTIN14PortableServer3POA15AdapterInactiveE @5285 DATA
    _ZTIN14PortableServer3POA15ObjectNotActiveE @5286 DATA
    _ZTIN14PortableServer3POA16ServantNotActiveE @5287 DATA
    _ZTIN14PortableServer3POA18AdapterNonExistentE @5288 DATA
    _ZTIN14PortableServer3POA19ObjectAlreadyActiveE @5289 DATA
    _ZTIN14PortableServer3POA20AdapterAlreadyExistsE @5290 DATA
    _ZTIN14PortableServer3POA20ServantAlreadyActiveE @5291 DATA
    _ZTIN14PortableServer3POA9NoServantE @5292 DATA
    _ZTIN14PortableServer3POAE @5293 DATA
    _ZTIN14PortableServer7Current9NoContextE @5294 DATA
    _ZTIN14PortableServer7CurrentE @5295 DATA
    _ZTIN14omniCallHandle14PostInvokeHookE @5296 DATA
    _ZTIN15omniStdCallDesc25_cCORBA_mObject_i_cstringE @5297 DATA
    _ZTIN18POA_PortableServer14ServantLocatorE @5298 DATA
    _ZTIN18POA_PortableServer14ServantManagerE @5299 DATA
    _ZTIN18POA_PortableServer16AdapterActivatorE @5300 DATA
    _ZTIN18POA_PortableServer16ServantActivatorE @5301 DATA
    _ZTIN4omni10StrandListE @5302 DATA
    _ZTIN4omni10giopServer13outOfResourceE @5303 DATA
    _ZTIN4omni10giopServer4LinkE @5304 DATA
    _ZTIN4omni10giopServer9TerminateE @5305 DATA
    _ZTIN4omni10giopServerE @5306 DATA
    _ZTIN4omni10giopStrandE @5307 DATA
    _ZTIN4omni10giopStream11CommFailureE @5308 DATA
    _ZTIN4omni10giopStreamE @5309 DATA
    _ZTIN4omni10giopWorkerE @5310 DATA
    _ZTIN4omni10omniOrbBOAE @5311 DATA
    _ZTIN4omni10omniOrbPOA16SLPostInvokeHookE @5312 DATA
    _ZTIN4omni10omniOrbPOAE @5313 DATA
    _ZTIN4omni10orbOptions7HandlerE @5314 DATA
    _ZTIN4omni10orbOptions7UnknownE @5315 DATA
    _ZTIN4omni10orbOptions8BadParamE @5316 DATA
    _ZTIN4omni10tcpAddressE @5317 DATA
    _ZTIN4omni11IP4AddrInfoE @5318 DATA
    _ZTIN4omni11LibcWrapper8AddrInfoE @5319 DATA
    _ZTIN4omni11NCS_C_UTF_8E @5320 DATA
    _ZTIN4omni11TCS_C_UTF_8E @5321 DATA
    _ZTIN4omni11giopAddressE @5322 DATA
    _ZTIN4omni11giopMonitorE @5323 DATA
    _ZTIN4omni11helpHandlerE @5324 DATA
    _ZTIN4omni11omniCodeSet10NCS_C_8bitE @5325 DATA
    _ZTIN4omni11omniCodeSet10TCS_C_8bitE @5326 DATA
    _ZTIN4omni11omniCodeSet11NCS_W_16bitE @5327 DATA
    _ZTIN4omni11omniCodeSet11TCS_W_16bitE @5328 DATA
    _ZTIN4omni11omniCodeSet4BaseE @5329 DATA
    _ZTIN4omni11omniCodeSet5NCS_CE @5330 DATA
    _ZTIN4omni11omniCodeSet5NCS_WE @5331 DATA
    _ZTIN4omni11omniCodeSet5TCS_CE @5332 DATA
    _ZTIN4omni11omniCodeSet5TCS_WE @5333 DATA
    _ZTIN4omni11tcpEndpointE @5334 DATA
    _ZTIN4omni12NCS_W_UTF_16E @5335 DATA
    _ZTIN4omni12SocketHolderE @5336 DATA
    _ZTIN4omni12TCS_W_UTF_16E @5337 DATA
    _ZTIN4omni12giopEndpointE @5338 DATA
    _ZTIN4omni13iorURIHandlerE @5339 DATA
    _ZTIN4omni13tcpConnectionE @5340 DATA
    _ZTIN4omni14InitRefHandlerE @5341 DATA
    _ZTIN4omni14giopConnectionE @5342 DATA
    _ZTIN4omni14giopStreamListE @5343 DATA
    _ZTIN4omni14giopWorkerInfoE @5344 DATA
    _ZTIN4omni14lcdModeHandlerE @5345 DATA
    _ZTIN4omni14omniAnonObjRefE @5346 DATA
    _ZTIN4omni14omniObjAdapterE @5347 DATA
    _ZTIN4omni14transportRules4RuleE @5348 DATA
    _ZTIN4omni14transportRules8RuleTypeE @5349 DATA
    _ZTIN4omni15BiDirClientRopeE @5350 DATA
    _ZTIN4omni15BiDirServerRopeE @5351 DATA
    _ZTIN4omni15ORBAsyncInvokerE @5352 DATA
    _ZTIN4omni15builtinIPv4RuleE @5353 DATA
    _ZTIN4omni15builtinRuleTypeE @5354 DATA
    _ZTIN4omni15endpointHandlerE @5355 DATA
    _ZTIN4omni15omniInitialiserE @5356 DATA
    _ZTIN4omni16SocketCollectionE @5357 DATA
    _ZTIN4omni16giopRendezvouserE @5358 DATA
    _ZTIN4omni16omniInterceptors14createThread_T6info_TE @5359 DATA
    _ZTIN4omni16omniInterceptors20assignUpcallThread_T6info_TE @5360 DATA
    _ZTIN4omni16principalHandlerE @5361 DATA
    _ZTIN4omni16tcpTransportImplE @5362 DATA
    _ZTIN4omni17configFileHandlerE @5363 DATA
    _ZTIN4omni17giopTransportImplE @5364 DATA
    _ZTIN4omni17omniOrbPOACurrentE @5365 DATA
    _ZTIN4omni17omniOrbPOAManagerE @5366 DATA
    _ZTIN4omni17strictIIOPHandlerE @5367 DATA
    _ZTIN4omni18corbalocURIHandler10RirObjAddrE @5368 DATA
    _ZTIN4omni18corbalocURIHandler11IiopObjAddrE @5369 DATA
    _ZTIN4omni18corbalocURIHandler11UiopObjAddrE @5370 DATA
    _ZTIN4omni18corbalocURIHandler13SsliopObjAddrE @5371 DATA
    _ZTIN4omni18corbalocURIHandler7ObjAddrE @5372 DATA
    _ZTIN4omni18corbalocURIHandlerE @5373 DATA
    _ZTIN4omni18omniAnonObjRef_pofE @5374 DATA
    _ZTIN4omni18omni_is_a_CallDescE @5375 DATA
    _ZTIN4omni18proxyObjectFactoryE @5376 DATA
    _ZTIN4omni19builtinMatchAllRuleE @5377 DATA
    _ZTIN4omni19corbanameURIHandlerE @5378 DATA
    _ZTIN4omni19tcpActiveCollectionE @5379 DATA
    _ZTIN4omni19tcpActiveConnectionE @5380 DATA
    _ZTIN4omni19validateUTF8HandlerE @5381 DATA
    _ZTIN4omni20builtinLocalHostRuleE @5382 DATA
    _ZTIN4omni20giopActiveCollectionE @5383 DATA
    _ZTIN4omni20giopActiveConnectionE @5384 DATA
    _ZTIN4omni20maxSocketRecvHandlerE @5385 DATA
    _ZTIN4omni20maxSocketSendHandlerE @5386 DATA
    _ZTIN4omni20omni_ior_initialiserE @5387 DATA
    _ZTIN4omni20omni_poa_initialiserE @5388 DATA
    _ZTIN4omni20omni_uri_initialiserE @5389 DATA
    _ZTIN4omni20poa_iiop_portHandlerE @5390 DATA
    _ZTIN4omni20tcAliasExpandHandlerE @5391 DATA
    _ZTIN4omni21DefaultInitRefHandlerE @5392 DATA
    _ZTIN4omni21giopMaxMsgSizeHandlerE @5393 DATA
    _ZTIN4omni21maxGIOPVersionHandlerE @5394 DATA
    _ZTIN4omni21saTaskQueueAssignInfoE @5395 DATA
    _ZTIN4omni21saTaskQueueCreateInfoE @5396 DATA
    _ZTIN4omni22endpointPublishHandlerE @5397 DATA
    _ZTIN4omni22inConScanPeriodHandlerE @5398 DATA
    _ZTIN4omni22scanGranularityHandlerE @5399 DATA
    _ZTIN4omni23ValueIndirectionTrackerE @5400 DATA
    _ZTIN4omni23endpointNoListenHandlerE @5401 DATA
    _ZTIN4omni23omni_ObjRef_initialiserE @5402 DATA
    _ZTIN4omni23omni_hooked_initialiserE @5403 DATA
    _ZTIN4omni23omni_interface_CallDescE @5404 DATA
    _ZTIN4omni23outConScanPeriodHandlerE @5405 DATA
    _ZTIN4omni23socketSendBufferHandlerE @5406 DATA
    _ZTIN4omni24dumpConfigurationHandlerE @5407 DATA
    _ZTIN4omni24endpointNoPublishHandlerE @5408 DATA
    _ZTIN4omni24idleThreadTimeoutHandlerE @5409 DATA
    _ZTIN4omni24omni_codeSet_initialiserE @5410 DATA
    _ZTIN4omni24omni_invoker_initialiserE @5411 DATA
    _ZTIN4omni24omni_objadpt_initialiserE @5412 DATA
    _ZTIN4omni24omni_omniIOR_initialiserE @5413 DATA
    _ZTIN4omni25CORBA_InitialReferences_iE @5414 DATA
    _ZTIN4omni25bootstrapAgentPortHandlerE @5415 DATA
    _ZTIN4omni25omni_corbaOrb_initialiserE @5416 DATA
    _ZTIN4omni25omni_giopRope_initialiserE @5417 DATA
    _ZTIN4omni25omni_initRefs_initialiserE @5418 DATA
    _ZTIN4omni25poa_iiop_name_portHandlerE @5419 DATA
    _ZTIN4omni26clientTransportRuleHandlerE @5420 DATA
    _ZTIN4omni26immediateRopeSwitchHandlerE @5421 DATA
    _ZTIN4omni26omni_cdrStream_initialiserE @5422 DATA
    _ZTIN4omni26omni_giopbidir_initialiserE @5423 DATA
    _ZTIN4omni26omni_non_existent_CallDescE @5424 DATA
    _ZTIN4omni26serverTransportRuleHandlerE @5425 DATA
    _ZTIN4omni27omni_dynamiclib_initialiserE @5426 DATA
    _ZTIN4omni27omni_giopImpl10_initialiserE @5427 DATA
    _ZTIN4omni27omni_giopImpl11_initialiserE @5428 DATA
    _ZTIN4omni27omni_giopImpl12_initialiserE @5429 DATA
    _ZTIN4omni27omni_giopStrand_initialiserE @5430 DATA
    _ZTIN4omni27omni_giopserver_initialiserE @5431 DATA
    _ZTIN4omni27omni_orbOptions_initialiserE @5432 DATA
    _ZTIN4omni27oneCallPerConnectionHandlerE @5433 DATA
    _ZTIN4omni28connectionWatchPeriodHandlerE @5434 DATA
    _ZTIN4omni28endpointPublishAllIFsHandlerE @5435 DATA
    _ZTIN4omni28giopTargetAddressModeHandlerE @5436 DATA
    _ZTIN4omni28omni_interceptor_initialiserE @5437 DATA
    _ZTIN4omni28omni_omniCurrent_initialiserE @5438 DATA
    _ZTIN4omni28poaHoldRequestTimeoutHandlerE @5439 DATA
    _ZTIN4omni28resetTimeOutOnRetriesHandlerE @5440 DATA
    _ZTIN4omni28supportBootstrapAgentHandlerE @5441 DATA
    _ZTIN4omni29bootstrapAgentHostnameHandlerE @5442 DATA
    _ZTIN4omni29copyValuesInLocalCallsHandlerE @5443 DATA
    _ZTIN4omni29diiThrowsSysExceptionsHandlerE @5444 DATA
    _ZTIN4omni29offerBiDirectionalGIOPHandlerE @5445 DATA
    _ZTIN4omni29omniServantActivatorTaskQueue4TaskE @5446 DATA
    _ZTIN4omni29omniServantActivatorTaskQueueE @5447 DATA
    _ZTIN4omni29omni_giopEndpoint_initialiserE @5448 DATA
    _ZTIN4omni29omni_omniInternal_initialiserE @5449 DATA
    _ZTIN4omni29unixTransportDirectoryHandlerE @5450 DATA
    _ZTIN4omni30acceptBiDirectionalGIOPHandlerE @5451 DATA
    _ZTIN4omni30clientCallTimeOutPeriodHandlerE @5452 DATA
    _ZTIN4omni30maxServerThreadPoolSizeHandlerE @5453 DATA
    _ZTIN4omni30omni_omniTransport_initialiserE @5454 DATA
    _ZTIN4omni30serverCallTimeOutPeriodHandlerE @5455 DATA
    _ZTIN4omni30supportPerThreadTimeOutHandlerE @5456 DATA
    _ZTIN4omni30unixTransportPermissionHandlerE @5457 DATA
    _ZTIN4omni30useTypeCodeIndirectionsHandlerE @5458 DATA
    _ZTIN4omni31connectionWatchImmediateHandlerE @5459 DATA
    _ZTIN4omni31omni_giopStreamImpl_initialiserE @5460 DATA
    _ZTIN4omni31omni_transportRules_initialiserE @5461 DATA
    _ZTIN4omni32threadPerConnectionPolicyHandlerE @5462 DATA
    _ZTIN4omni32threadPoolWatchConnectionHandlerE @5463 DATA
    _ZTIN4omni32verifyObjectExistsAndTypeHandlerE @5464 DATA
    _ZTIN4omni33clientConnectTimeOutPeriodHandlerE @5465 DATA
    _ZTIN4omni33maxGIOPConnectionPerServerHandlerE @5466 DATA
    _ZTIN4omni35maxServerThreadPerConnectionHandlerE @5467 DATA
    _ZTIN4omni35poaUniquePersistentSystemIdsHandlerE @5468 DATA
    _ZTIN4omni36threadPerConnectionLowerLimitHandlerE @5469 DATA
    _ZTIN4omni36threadPerConnectionUpperLimitHandlerE @5470 DATA
    _ZTIN4omni37acceptMisalignedTcIndirectionsHandlerE @5471 DATA
    _ZTIN4omni39maxInterleavedCallsPerConnectionHandlerE @5472 DATA
    _ZTIN4omni4RopeE @5473 DATA
    _ZTIN4omni5IOP_CE @5474 DATA
    _ZTIN4omni5IOP_SE @5475 DATA
    _ZTIN4omni6GIOP_CE @5476 DATA
    _ZTIN4omni6GIOP_S19terminateProcessingE @5477 DATA
    _ZTIN4omni6GIOP_SE @5478 DATA
    _ZTIN4omni6StrandE @5479 DATA
    _ZTIN4omni7omniURI10URIHandlerE @5480 DATA
    _ZTIN4omni8RopeLinkE @5481 DATA
    _ZTIN4omni8giopRopeE @5482 DATA
    _ZTIN4omni9BiDirInfoE @5483 DATA
    _ZTIN4omni9ScavengerE @5484 DATA
    _ZTIN4omni9idHandlerE @5485 DATA
    _ZTIN4omni9orbServerE @5486 DATA
    _ZTIN5CORBA10INITIALIZEE @5487 DATA
    _ZTIN5CORBA10INTF_REPOSE @5488 DATA
    _ZTIN5CORBA10INV_OBJREFE @5489 DATA
    _ZTIN5CORBA10INV_POLICYE @5490 DATA
    _ZTIN5CORBA11BAD_CONTEXTE @5491 DATA
    _ZTIN5CORBA11LocalObjectE @5492 DATA
    _ZTIN5CORBA11NO_RESPONSEE @5493 DATA
    _ZTIN5CORBA11OBJ_ADAPTERE @5494 DATA
    _ZTIN5CORBA12BAD_TYPECODEE @5495 DATA
    _ZTIN5CORBA12COMM_FAILUREE @5496 DATA
    _ZTIN5CORBA12NO_IMPLEMENTE @5497 DATA
    _ZTIN5CORBA12NO_RESOURCESE @5498 DATA
    _ZTIN5CORBA13BAD_INV_ORDERE @5499 DATA
    _ZTIN5CORBA13BAD_OPERATIONE @5500 DATA
    _ZTIN5CORBA13NO_PERMISSIONE @5501 DATA
    _ZTIN5CORBA13PERSIST_STOREE @5502 DATA
    _ZTIN5CORBA13UserExceptionE @5503 DATA
    _ZTIN5CORBA15DATA_CONVERSIONE @5504 DATA
    _ZTIN5CORBA15SystemExceptionE @5505 DATA
    _ZTIN5CORBA16OBJECT_NOT_EXISTE @5506 DATA
    _ZTIN5CORBA16TRANSACTION_MODEE @5507 DATA
    _ZTIN5CORBA19INVALID_TRANSACTIONE @5508 DATA
    _ZTIN5CORBA20CODESET_INCOMPATIBLEE @5509 DATA
    _ZTIN5CORBA20TRANSACTION_REQUIREDE @5510 DATA
    _ZTIN5CORBA22TRANSACTION_ROLLEDBACKE @5511 DATA
    _ZTIN5CORBA23TRANSACTION_UNAVAILABLEE @5512 DATA
    _ZTIN5CORBA3BOAE @5513 DATA
    _ZTIN5CORBA3ORB11InvalidNameE @5514 DATA
    _ZTIN5CORBA3ORBE @5515 DATA
    _ZTIN5CORBA6ObjectE @5516 DATA
    _ZTIN5CORBA6PolicyE @5517 DATA
    _ZTIN5CORBA6REBINDE @5518 DATA
    _ZTIN5CORBA7BAD_QOSE @5519 DATA
    _ZTIN5CORBA7CurrentE @5520 DATA
    _ZTIN5CORBA7MARSHALE @5521 DATA
    _ZTIN5CORBA7TIMEOUTE @5522 DATA
    _ZTIN5CORBA7UNKNOWNE @5523 DATA
    _ZTIN5CORBA8FREE_MEME @5524 DATA
    _ZTIN5CORBA8INTERNALE @5525 DATA
    _ZTIN5CORBA8INV_FLAGE @5526 DATA
    _ZTIN5CORBA9BAD_PARAME @5527 DATA
    _ZTIN5CORBA9ExceptionE @5528 DATA
    _ZTIN5CORBA9IMP_LIMITE @5529 DATA
    _ZTIN5CORBA9INV_IDENTE @5530 DATA
    _ZTIN5CORBA9NO_MEMORYE @5531 DATA
    _ZTIN5CORBA9TRANSIENTE @5532 DATA
    _ZTIN7omniIOR12IORExtraInfoE @5533 DATA
    _ZTIN7omniORB14fatalExceptionE @5534 DATA
    _ZTIN7omniORB16LOCATION_FORWARDE @5535 DATA
    _ZTIN9CosNaming13NamingContext11InvalidNameE @5536 DATA
    _ZTIN9CosNaming13NamingContext12AlreadyBoundE @5537 DATA
    _ZTIN9CosNaming13NamingContext13CannotProceedE @5538 DATA
    _ZTIN9CosNaming13NamingContext8NotEmptyE @5539 DATA
    _ZTIN9CosNaming13NamingContext8NotFoundE @5540 DATA
    _ZTIN9CosNaming16NamingContextExt14InvalidAddressE @5541 DATA
    _ZTIN9CosNaming18_pof_NamingContextE @5542 DATA
    _ZTIN9CosNaming19_impl_NamingContextE @5543 DATA
    _ZTIN9CosNaming20_pof_BindingIteratorE @5544 DATA
    _ZTIN9CosNaming21_impl_BindingIteratorE @5545 DATA
    _ZTIN9CosNaming21_objref_NamingContextE @5546 DATA
    _ZTIN9CosNaming21_pof_NamingContextExtE @5547 DATA
    _ZTIN9CosNaming22_impl_NamingContextExtE @5548 DATA
    _ZTIN9CosNaming23_objref_BindingIteratorE @5549 DATA
    _ZTIN9CosNaming24_objref_NamingContextExtE @5550 DATA
    _ZTS10omniObjRef @5551 DATA
    _ZTS10omniOrbORB @5552 DATA
    _ZTS11omniCurrent @5553 DATA
    _ZTS11omniServant @5554 DATA
    _ZTS11omni_thread @5555 DATA
    _ZTS12omniIdentity @5556 DATA
    _ZTS12omniTaskLink @5557 DATA
    _ZTS14omniNilCurrent @5558 DATA
    _ZTS15cdrMemoryStream @5559 DATA
    _ZTS15omniAsyncWorker @5560 DATA
    _ZTS16cdrStreamAdapter @5561 DATA
    _ZTS16omniAsyncInvoker @5562 DATA
    _ZTS16omniEtherealiser @5563 DATA
    _ZTS16traceFileHandler @5564 DATA
    _ZTS16traceTimeHandler @5565 DATA
    _ZTS17cdrCountingStream @5566 DATA
    _ZTS17omniLocalIdentity @5567 DATA
    _ZTS17omniObjTableEntry @5568 DATA
    _ZTS17omniOrbBoaServant @5569 DATA
    _ZTS17omni_thread_fatal @5570 DATA
    _ZTS17traceLevelHandler @5571 DATA
    _ZTS18omniCallDescriptor @5572 DATA
    _ZTS18omniRemoteIdentity @5573 DATA
    _ZTS19cdrValueChunkStream @5574 DATA
    _ZTS19omniAsyncWorkerInfo @5575 DATA
    _ZTS20omniShutdownIdentity @5576 DATA
    _ZTS20traceThreadIdHandler @5577 DATA
    _ZTS21omniInProcessIdentity @5578 DATA
    _ZTS21supportCurrentHandler @5579 DATA
    _ZTS22cdrEncapsulationStream @5580 DATA
    _ZTS22objectTableSizeHandler @5581 DATA
    _ZTS22traceExceptionsHandler @5582 DATA
    _ZTS23traceInvocationsHandler @5583 DATA
    _ZTS24nativeCharCodeSetHandler @5584 DATA
    _ZTS25nativeWCharCodeSetHandler @5585 DATA
    _ZTS27POA_CORBA_InitialReferences @5586 DATA
    _ZTS27abortOnInternalErrorHandler @5587 DATA
    _ZTS27omniLocalOnlyCallDescriptor @5588 DATA
    _ZTS28_pof_CORBA_InitialReferences @5589 DATA
    _ZTS29_impl_CORBA_InitialReferences @5590 DATA
    _ZTS29abortOnNativeExceptionHandler @5591 DATA
    _ZTS29traceInvocationReturnsHandler @5592 DATA
    _ZTS31_objref_CORBA_InitialReferences @5593 DATA
    _ZTS33_0RL_cd_3c165f58b5a16b59_00000000 @5594 DATA
    _ZTS33_0RL_cd_3c165f58b5a16b59_20000000 @5595 DATA
    _ZTS33_0RL_cd_3c165f58b5a16b59_40000000 @5596 DATA
    _ZTS33_0RL_cd_3c165f58b5a16b59_60000000 @5597 DATA
    _ZTS33_0RL_cd_3c165f58b5a16b59_80000000 @5598 DATA
    _ZTS33_0RL_cd_69CECA6A39F685B5_00000000 @5599 DATA
    _ZTS33_0RL_cd_69CECA6A39F685B5_01000000 @5600 DATA
    _ZTS33_0RL_cd_69CECA6A39F685B5_02000000 @5601 DATA
    _ZTS33_0RL_cd_69CECA6A39F685B5_20000000 @5602 DATA
    _ZTS33_0RL_cd_69CECA6A39F685B5_21000000 @5603 DATA
    _ZTS33_0RL_cd_69CECA6A39F685B5_40000000 @5604 DATA
    _ZTS33_0RL_cd_69CECA6A39F685B5_41000000 @5605 DATA
    _ZTS33_0RL_cd_69CECA6A39F685B5_60000000 @5606 DATA
    _ZTS33_0RL_cd_69CECA6A39F685B5_61000000 @5607 DATA
    _ZTS33_0RL_cd_69CECA6A39F685B5_80000000 @5608 DATA
    _ZTS33_0RL_cd_69CECA6A39F685B5_81000000 @5609 DATA
    _ZTS33_0RL_cd_69CECA6A39F685B5_a0000000 @5610 DATA
    _ZTS33_0RL_cd_69CECA6A39F685B5_a1000000 @5611 DATA
    _ZTS33_0RL_cd_69CECA6A39F685B5_c0000000 @5612 DATA
    _ZTS33_0RL_cd_69CECA6A39F685B5_c1000000 @5613 DATA
    _ZTS33_0RL_cd_69CECA6A39F685B5_e0000000 @5614 DATA
    _ZTS33_0RL_cd_69CECA6A39F685B5_e1000000 @5615 DATA
    _ZTS33_0RL_cd_96F078E2247AB9DA_00000000 @5616 DATA
    _ZTS33_0RL_cd_96F078E2247AB9DA_20000000 @5617 DATA
    _ZTS8omniTask @5618 DATA
    _ZTS9cdrStream @5619 DATA
    _ZTSN10omniPolicy19LocalShortcutPolicyE @5620 DATA
    _ZTSN11BiDirPolicy19BidirectionalPolicyE @5621 DATA
    _ZTSN11omni_thread7value_tE @5622 DATA
    _ZTSN13POA_CosNaming13NamingContextE @5623 DATA
    _ZTSN13POA_CosNaming15BindingIteratorE @5624 DATA
    _ZTSN13POA_CosNaming16NamingContextExtE @5625 DATA
    _ZTSN14PortableServer10POAManager15AdapterInactiveE @5626 DATA
    _ZTSN14PortableServer10POAManagerE @5627 DATA
    _ZTSN14PortableServer11ServantBaseE @5628 DATA
    _ZTSN14PortableServer12ThreadPolicyE @5629 DATA
    _ZTSN14PortableServer14ForwardRequestE @5630 DATA
    _ZTSN14PortableServer14LifespanPolicyE @5631 DATA
    _ZTSN14PortableServer14ServantLocatorE @5632 DATA
    _ZTSN14PortableServer14ServantManagerE @5633 DATA
    _ZTSN14PortableServer16AdapterActivatorE @5634 DATA
    _ZTSN14PortableServer16ServantActivatorE @5635 DATA
    _ZTSN14PortableServer18IdAssignmentPolicyE @5636 DATA
    _ZTSN14PortableServer18IdUniquenessPolicyE @5637 DATA
    _ZTSN14PortableServer19_pof_ServantLocatorE @5638 DATA
    _ZTSN14PortableServer19_pof_ServantManagerE @5639 DATA
    _ZTSN14PortableServer20_impl_ServantLocatorE @5640 DATA
    _ZTSN14PortableServer20_impl_ServantManagerE @5641 DATA
    _ZTSN14PortableServer21_pof_AdapterActivatorE @5642 DATA
    _ZTSN14PortableServer21_pof_ServantActivatorE @5643 DATA
    _ZTSN14PortableServer22ServantRetentionPolicyE @5644 DATA
    _ZTSN14PortableServer22_impl_AdapterActivatorE @5645 DATA
    _ZTSN14PortableServer22_impl_ServantActivatorE @5646 DATA
    _ZTSN14PortableServer22_objref_ServantLocatorE @5647 DATA
    _ZTSN14PortableServer22_objref_ServantManagerE @5648 DATA
    _ZTSN14PortableServer23RequestProcessingPolicyE @5649 DATA
    _ZTSN14PortableServer24ImplicitActivationPolicyE @5650 DATA
    _ZTSN14PortableServer24_objref_AdapterActivatorE @5651 DATA
    _ZTSN14PortableServer24_objref_ServantActivatorE @5652 DATA
    _ZTSN14PortableServer3POA11WrongPolicyE @5653 DATA
    _ZTSN14PortableServer3POA12WrongAdapterE @5654 DATA
    _ZTSN14PortableServer3POA13InvalidPolicyE @5655 DATA
    _ZTSN14PortableServer3POA15AdapterInactiveE @5656 DATA
    _ZTSN14PortableServer3POA15ObjectNotActiveE @5657 DATA
    _ZTSN14PortableServer3POA16ServantNotActiveE @5658 DATA
    _ZTSN14PortableServer3POA18AdapterNonExistentE @5659 DATA
    _ZTSN14PortableServer3POA19ObjectAlreadyActiveE @5660 DATA
    _ZTSN14PortableServer3POA20AdapterAlreadyExistsE @5661 DATA
    _ZTSN14PortableServer3POA20ServantAlreadyActiveE @5662 DATA
    _ZTSN14PortableServer3POA9NoServantE @5663 DATA
    _ZTSN14PortableServer3POAE @5664 DATA
    _ZTSN14PortableServer7Current9NoContextE @5665 DATA
    _ZTSN14PortableServer7CurrentE @5666 DATA
    _ZTSN14omniCallHandle14PostInvokeHookE @5667 DATA
    _ZTSN15omniStdCallDesc25_cCORBA_mObject_i_cstringE @5668 DATA
    _ZTSN18POA_PortableServer14ServantLocatorE @5669 DATA
    _ZTSN18POA_PortableServer14ServantManagerE @5670 DATA
    _ZTSN18POA_PortableServer16AdapterActivatorE @5671 DATA
    _ZTSN18POA_PortableServer16ServantActivatorE @5672 DATA
    _ZTSN4omni10StrandListE @5673 DATA
    _ZTSN4omni10giopServer13outOfResourceE @5674 DATA
    _ZTSN4omni10giopServer4LinkE @5675 DATA
    _ZTSN4omni10giopServer9TerminateE @5676 DATA
    _ZTSN4omni10giopServerE @5677 DATA
    _ZTSN4omni10giopStrandE @5678 DATA
    _ZTSN4omni10giopStream11CommFailureE @5679 DATA
    _ZTSN4omni10giopStreamE @5680 DATA
    _ZTSN4omni10giopWorkerE @5681 DATA
    _ZTSN4omni10omniOrbBOAE @5682 DATA
    _ZTSN4omni10omniOrbPOA16SLPostInvokeHookE @5683 DATA
    _ZTSN4omni10omniOrbPOAE @5684 DATA
    _ZTSN4omni10orbOptions7HandlerE @5685 DATA
    _ZTSN4omni10orbOptions7UnknownE @5686 DATA
    _ZTSN4omni10orbOptions8BadParamE @5687 DATA
    _ZTSN4omni10tcpAddressE @5688 DATA
    _ZTSN4omni11IP4AddrInfoE @5689 DATA
    _ZTSN4omni11LibcWrapper8AddrInfoE @5690 DATA
    _ZTSN4omni11NCS_C_UTF_8E @5691 DATA
    _ZTSN4omni11TCS_C_UTF_8E @5692 DATA
    _ZTSN4omni11giopAddressE @5693 DATA
    _ZTSN4omni11giopMonitorE @5694 DATA
    _ZTSN4omni11helpHandlerE @5695 DATA
    _ZTSN4omni11omniCodeSet10NCS_C_8bitE @5696 DATA
    _ZTSN4omni11omniCodeSet10TCS_C_8bitE @5697 DATA
    _ZTSN4omni11omniCodeSet11NCS_W_16bitE @5698 DATA
    _ZTSN4omni11omniCodeSet11TCS_W_16bitE @5699 DATA
    _ZTSN4omni11omniCodeSet4BaseE @5700 DATA
    _ZTSN4omni11omniCodeSet5NCS_CE @5701 DATA
    _ZTSN4omni11omniCodeSet5NCS_WE @5702 DATA
    _ZTSN4omni11omniCodeSet5TCS_CE @5703 DATA
    _ZTSN4omni11omniCodeSet5TCS_WE @5704 DATA
    _ZTSN4omni11tcpEndpointE @5705 DATA
    _ZTSN4omni12NCS_W_UTF_16E @5706 DATA
    _ZTSN4omni12SocketHolderE @5707 DATA
    _ZTSN4omni12TCS_W_UTF_16E @5708 DATA
    _ZTSN4omni12giopEndpointE @5709 DATA
    _ZTSN4omni13iorURIHandlerE @5710 DATA
    _ZTSN4omni13tcpConnectionE @5711 DATA
    _ZTSN4omni14InitRefHandlerE @5712 DATA
    _ZTSN4omni14giopConnectionE @5713 DATA
    _ZTSN4omni14giopStreamListE @5714 DATA
    _ZTSN4omni14giopWorkerInfoE @5715 DATA
    _ZTSN4omni14lcdModeHandlerE @5716 DATA
    _ZTSN4omni14omniAnonObjRefE @5717 DATA
    _ZTSN4omni14omniObjAdapterE @5718 DATA
    _ZTSN4omni14transportRules4RuleE @5719 DATA
    _ZTSN4omni14transportRules8RuleTypeE @5720 DATA
    _ZTSN4omni15BiDirClientRopeE @5721 DATA
    _ZTSN4omni15BiDirServerRopeE @5722 DATA
    _ZTSN4omni15ORBAsyncInvokerE @5723 DATA
    _ZTSN4omni15builtinIPv4RuleE @5724 DATA
    _ZTSN4omni15builtinRuleTypeE @5725 DATA
    _ZTSN4omni15endpointHandlerE @5726 DATA
    _ZTSN4omni15omniInitialiserE @5727 DATA
    _ZTSN4omni16SocketCollectionE @5728 DATA
    _ZTSN4omni16giopRendezvouserE @5729 DATA
    _ZTSN4omni16omniInterceptors14createThread_T6info_TE @5730 DATA
    _ZTSN4omni16omniInterceptors20assignUpcallThread_T6info_TE @5731 DATA
    _ZTSN4omni16principalHandlerE @5732 DATA
    _ZTSN4omni16tcpTransportImplE @5733 DATA
    _ZTSN4omni17configFileHandlerE @5734 DATA
    _ZTSN4omni17giopTransportImplE @5735 DATA
    _ZTSN4omni17omniOrbPOACurrentE @5736 DATA
    _ZTSN4omni17omniOrbPOAManagerE @5737 DATA
    _ZTSN4omni17strictIIOPHandlerE @5738 DATA
    _ZTSN4omni18corbalocURIHandler10RirObjAddrE @5739 DATA
    _ZTSN4omni18corbalocURIHandler11IiopObjAddrE @5740 DATA
    _ZTSN4omni18corbalocURIHandler11UiopObjAddrE @5741 DATA
    _ZTSN4omni18corbalocURIHandler13SsliopObjAddrE @5742 DATA
    _ZTSN4omni18corbalocURIHandler7ObjAddrE @5743 DATA
    _ZTSN4omni18corbalocURIHandlerE @5744 DATA
    _ZTSN4omni18omniAnonObjRef_pofE @5745 DATA
    _ZTSN4omni18omni_is_a_CallDescE @5746 DATA
    _ZTSN4omni18proxyObjectFactoryE @5747 DATA
    _ZTSN4omni19builtinMatchAllRuleE @5748 DATA
    _ZTSN4omni19corbanameURIHandlerE @5749 DATA
    _ZTSN4omni19tcpActiveCollectionE @5750 DATA
    _ZTSN4omni19tcpActiveConnectionE @5751 DATA
    _ZTSN4omni19validateUTF8HandlerE @5752 DATA
    _ZTSN4omni20builtinLocalHostRuleE @5753 DATA
    _ZTSN4omni20giopActiveCollectionE @5754 DATA
    _ZTSN4omni20giopActiveConnectionE @5755 DATA
    _ZTSN4omni20maxSocketRecvHandlerE @5756 DATA
    _ZTSN4omni20maxSocketSendHandlerE @5757 DATA
    _ZTSN4omni20omni_ior_initialiserE @5758 DATA
    _ZTSN4omni20omni_poa_initialiserE @5759 DATA
    _ZTSN4omni20omni_uri_initialiserE @5760 DATA
    _ZTSN4omni20poa_iiop_portHandlerE @5761 DATA
    _ZTSN4omni20tcAliasExpandHandlerE @5762 DATA
    _ZTSN4omni21DefaultInitRefHandlerE @5763 DATA
    _ZTSN4omni21giopMaxMsgSizeHandlerE @5764 DATA
    _ZTSN4omni21maxGIOPVersionHandlerE @5765 DATA
    _ZTSN4omni21saTaskQueueAssignInfoE @5766 DATA
    _ZTSN4omni21saTaskQueueCreateInfoE @5767 DATA
    _ZTSN4omni22endpointPublishHandlerE @5768 DATA
    _ZTSN4omni22inConScanPeriodHandlerE @5769 DATA
    _ZTSN4omni22scanGranularityHandlerE @5770 DATA
    _ZTSN4omni23ValueIndirectionTrackerE @5771 DATA
    _ZTSN4omni23endpointNoListenHandlerE @5772 DATA
    _ZTSN4omni23omni_ObjRef_initialiserE @5773 DATA
    _ZTSN4omni23omni_hooked_initialiserE @5774 DATA
    _ZTSN4omni23omni_interface_CallDescE @5775 DATA
    _ZTSN4omni23outConScanPeriodHandlerE @5776 DATA
    _ZTSN4omni23socketSendBufferHandlerE @5777 DATA
    _ZTSN4omni24dumpConfigurationHandlerE @5778 DATA
    _ZTSN4omni24endpointNoPublishHandlerE @5779 DATA
    _ZTSN4omni24idleThreadTimeoutHandlerE @5780 DATA
    _ZTSN4omni24omni_codeSet_initialiserE @5781 DATA
    _ZTSN4omni24omni_invoker_initialiserE @5782 DATA
    _ZTSN4omni24omni_objadpt_initialiserE @5783 DATA
    _ZTSN4omni24omni_omniIOR_initialiserE @5784 DATA
    _ZTSN4omni25CORBA_InitialReferences_iE @5785 DATA
    _ZTSN4omni25bootstrapAgentPortHandlerE @5786 DATA
    _ZTSN4omni25omni_corbaOrb_initialiserE @5787 DATA
    _ZTSN4omni25omni_giopRope_initialiserE @5788 DATA
    _ZTSN4omni25omni_initRefs_initialiserE @5789 DATA
    _ZTSN4omni25poa_iiop_name_portHandlerE @5790 DATA
    _ZTSN4omni26clientTransportRuleHandlerE @5791 DATA
    _ZTSN4omni26immediateRopeSwitchHandlerE @5792 DATA
    _ZTSN4omni26omni_cdrStream_initialiserE @5793 DATA
    _ZTSN4omni26omni_giopbidir_initialiserE @5794 DATA
    _ZTSN4omni26omni_non_existent_CallDescE @5795 DATA
    _ZTSN4omni26serverTransportRuleHandlerE @5796 DATA
    _ZTSN4omni27omni_dynamiclib_initialiserE @5797 DATA
    _ZTSN4omni27omni_giopImpl10_initialiserE @5798 DATA
    _ZTSN4omni27omni_giopImpl11_initialiserE @5799 DATA
    _ZTSN4omni27omni_giopImpl12_initialiserE @5800 DATA
    _ZTSN4omni27omni_giopStrand_initialiserE @5801 DATA
    _ZTSN4omni27omni_giopserver_initialiserE @5802 DATA
    _ZTSN4omni27omni_orbOptions_initialiserE @5803 DATA
    _ZTSN4omni27oneCallPerConnectionHandlerE @5804 DATA
    _ZTSN4omni28connectionWatchPeriodHandlerE @5805 DATA
    _ZTSN4omni28endpointPublishAllIFsHandlerE @5806 DATA
    _ZTSN4omni28giopTargetAddressModeHandlerE @5807 DATA
    _ZTSN4omni28omni_interceptor_initialiserE @5808 DATA
    _ZTSN4omni28omni_omniCurrent_initialiserE @5809 DATA
    _ZTSN4omni28poaHoldRequestTimeoutHandlerE @5810 DATA
    _ZTSN4omni28resetTimeOutOnRetriesHandlerE @5811 DATA
    _ZTSN4omni28supportBootstrapAgentHandlerE @5812 DATA
    _ZTSN4omni29bootstrapAgentHostnameHandlerE @5813 DATA
    _ZTSN4omni29copyValuesInLocalCallsHandlerE @5814 DATA
    _ZTSN4omni29diiThrowsSysExceptionsHandlerE @5815 DATA
    _ZTSN4omni29offerBiDirectionalGIOPHandlerE @5816 DATA
    _ZTSN4omni29omniServantActivatorTaskQueue4TaskE @5817 DATA
    _ZTSN4omni29omniServantActivatorTaskQueueE @5818 DATA
    _ZTSN4omni29omni_giopEndpoint_initialiserE @5819 DATA
    _ZTSN4omni29omni_omniInternal_initialiserE @5820 DATA
    _ZTSN4omni29unixTransportDirectoryHandlerE @5821 DATA
    _ZTSN4omni30acceptBiDirectionalGIOPHandlerE @5822 DATA
    _ZTSN4omni30clientCallTimeOutPeriodHandlerE @5823 DATA
    _ZTSN4omni30maxServerThreadPoolSizeHandlerE @5824 DATA
    _ZTSN4omni30omni_omniTransport_initialiserE @5825 DATA
    _ZTSN4omni30serverCallTimeOutPeriodHandlerE @5826 DATA
    _ZTSN4omni30supportPerThreadTimeOutHandlerE @5827 DATA
    _ZTSN4omni30unixTransportPermissionHandlerE @5828 DATA
    _ZTSN4omni30useTypeCodeIndirectionsHandlerE @5829 DATA
    _ZTSN4omni31connectionWatchImmediateHandlerE @5830 DATA
    _ZTSN4omni31omni_giopStreamImpl_initialiserE @5831 DATA
    _ZTSN4omni31omni_transportRules_initialiserE @5832 DATA
    _ZTSN4omni32threadPerConnectionPolicyHandlerE @5833 DATA
    _ZTSN4omni32threadPoolWatchConnectionHandlerE @5834 DATA
    _ZTSN4omni32verifyObjectExistsAndTypeHandlerE @5835 DATA
    _ZTSN4omni33clientConnectTimeOutPeriodHandlerE @5836 DATA
    _ZTSN4omni33maxGIOPConnectionPerServerHandlerE @5837 DATA
    _ZTSN4omni35maxServerThreadPerConnectionHandlerE @5838 DATA
    _ZTSN4omni35poaUniquePersistentSystemIdsHandlerE @5839 DATA
    _ZTSN4omni36threadPerConnectionLowerLimitHandlerE @5840 DATA
    _ZTSN4omni36threadPerConnectionUpperLimitHandlerE @5841 DATA
    _ZTSN4omni37acceptMisalignedTcIndirectionsHandlerE @5842 DATA
    _ZTSN4omni39maxInterleavedCallsPerConnectionHandlerE @5843 DATA
    _ZTSN4omni4RopeE @5844 DATA
    _ZTSN4omni5IOP_CE @5845 DATA
    _ZTSN4omni5IOP_SE @5846 DATA
    _ZTSN4omni6GIOP_CE @5847 DATA
    _ZTSN4omni6GIOP_S19terminateProcessingE @5848 DATA
    _ZTSN4omni6GIOP_SE @5849 DATA
    _ZTSN4omni6StrandE @5850 DATA
    _ZTSN4omni7omniURI10URIHandlerE @5851 DATA
    _ZTSN4omni8RopeLinkE @5852 DATA
    _ZTSN4omni8giopRopeE @5853 DATA
    _ZTSN4omni9BiDirInfoE @5854 DATA
    _ZTSN4omni9ScavengerE @5855 DATA
    _ZTSN4omni9idHandlerE @5856 DATA
    _ZTSN4omni9orbServerE @5857 DATA
    _ZTSN5CORBA10INITIALIZEE @5858 DATA
    _ZTSN5CORBA10INTF_REPOSE @5859 DATA
    _ZTSN5CORBA10INV_OBJREFE @5860 DATA
    _ZTSN5CORBA10INV_POLICYE @5861 DATA
    _ZTSN5CORBA11BAD_CONTEXTE @5862 DATA
    _ZTSN5CORBA11LocalObjectE @5863 DATA
    _ZTSN5CORBA11NO_RESPONSEE @5864 DATA
    _ZTSN5CORBA11OBJ_ADAPTERE @5865 DATA
    _ZTSN5CORBA12BAD_TYPECODEE @5866 DATA
    _ZTSN5CORBA12COMM_FAILUREE @5867 DATA
    _ZTSN5CORBA12NO_IMPLEMENTE @5868 DATA
    _ZTSN5CORBA12NO_RESOURCESE @5869 DATA
    _ZTSN5CORBA13BAD_INV_ORDERE @5870 DATA
    _ZTSN5CORBA13BAD_OPERATIONE @5871 DATA
    _ZTSN5CORBA13NO_PERMISSIONE @5872 DATA
    _ZTSN5CORBA13PERSIST_STOREE @5873 DATA
    _ZTSN5CORBA13UserExceptionE @5874 DATA
    _ZTSN5CORBA15DATA_CONVERSIONE @5875 DATA
    _ZTSN5CORBA15SystemExceptionE @5876 DATA
    _ZTSN5CORBA16OBJECT_NOT_EXISTE @5877 DATA
    _ZTSN5CORBA16TRANSACTION_MODEE @5878 DATA
    _ZTSN5CORBA19INVALID_TRANSACTIONE @5879 DATA
    _ZTSN5CORBA20CODESET_INCOMPATIBLEE @5880 DATA
    _ZTSN5CORBA20TRANSACTION_REQUIREDE @5881 DATA
    _ZTSN5CORBA22TRANSACTION_ROLLEDBACKE @5882 DATA
    _ZTSN5CORBA23TRANSACTION_UNAVAILABLEE @5883 DATA
    _ZTSN5CORBA3BOAE @5884 DATA
    _ZTSN5CORBA3ORB11InvalidNameE @5885 DATA
    _ZTSN5CORBA3ORBE @5886 DATA
    _ZTSN5CORBA6ObjectE @5887 DATA
    _ZTSN5CORBA6PolicyE @5888 DATA
    _ZTSN5CORBA6REBINDE @5889 DATA
    _ZTSN5CORBA7BAD_QOSE @5890 DATA
    _ZTSN5CORBA7CurrentE @5891 DATA
    _ZTSN5CORBA7MARSHALE @5892 DATA
    _ZTSN5CORBA7TIMEOUTE @5893 DATA
    _ZTSN5CORBA7UNKNOWNE @5894 DATA
    _ZTSN5CORBA8FREE_MEME @5895 DATA
    _ZTSN5CORBA8INTERNALE @5896 DATA
    _ZTSN5CORBA8INV_FLAGE @5897 DATA
    _ZTSN5CORBA9BAD_PARAME @5898 DATA
    _ZTSN5CORBA9ExceptionE @5899 DATA
    _ZTSN5CORBA9IMP_LIMITE @5900 DATA
    _ZTSN5CORBA9INV_IDENTE @5901 DATA
    _ZTSN5CORBA9NO_MEMORYE @5902 DATA
    _ZTSN5CORBA9TRANSIENTE @5903 DATA
    _ZTSN7omniIOR12IORExtraInfoE @5904 DATA
    _ZTSN7omniORB14fatalExceptionE @5905 DATA
    _ZTSN7omniORB16LOCATION_FORWARDE @5906 DATA
    _ZTSN9CosNaming13NamingContext11InvalidNameE @5907 DATA
    _ZTSN9CosNaming13NamingContext12AlreadyBoundE @5908 DATA
    _ZTSN9CosNaming13NamingContext13CannotProceedE @5909 DATA
    _ZTSN9CosNaming13NamingContext8NotEmptyE @5910 DATA
    _ZTSN9CosNaming13NamingContext8NotFoundE @5911 DATA
    _ZTSN9CosNaming16NamingContextExt14InvalidAddressE @5912 DATA
    _ZTSN9CosNaming18_pof_NamingContextE @5913 DATA
    _ZTSN9CosNaming19_impl_NamingContextE @5914 DATA
    _ZTSN9CosNaming20_pof_BindingIteratorE @5915 DATA
    _ZTSN9CosNaming21_impl_BindingIteratorE @5916 DATA
    _ZTSN9CosNaming21_objref_NamingContextE @5917 DATA
    _ZTSN9CosNaming21_pof_NamingContextExtE @5918 DATA
    _ZTSN9CosNaming22_impl_NamingContextExtE @5919 DATA
    _ZTSN9CosNaming23_objref_BindingIteratorE @5920 DATA
    _ZTSN9CosNaming24_objref_NamingContextExtE @5921 DATA
    _ZTT17omniOrbBoaServant @5922 DATA
    _ZTT27POA_CORBA_InitialReferences @5923 DATA
    _ZTT29_impl_CORBA_InitialReferences @5924 DATA
    _ZTT31_objref_CORBA_InitialReferences @5925 DATA
    _ZTTN10omniPolicy19LocalShortcutPolicyE @5926 DATA
    _ZTTN11BiDirPolicy19BidirectionalPolicyE @5927 DATA
    _ZTTN13POA_CosNaming13NamingContextE @5928 DATA
    _ZTTN13POA_CosNaming15BindingIteratorE @5929 DATA
    _ZTTN13POA_CosNaming16NamingContextExtE @5930 DATA
    _ZTTN14PortableServer11ServantBaseE @5931 DATA
    _ZTTN14PortableServer12ThreadPolicyE @5932 DATA
    _ZTTN14PortableServer14LifespanPolicyE @5933 DATA
    _ZTTN14PortableServer14ServantLocatorE @5934 DATA
    _ZTTN14PortableServer14ServantManagerE @5935 DATA
    _ZTTN14PortableServer16AdapterActivatorE @5936 DATA
    _ZTTN14PortableServer16ServantActivatorE @5937 DATA
    _ZTTN14PortableServer18IdAssignmentPolicyE @5938 DATA
    _ZTTN14PortableServer18IdUniquenessPolicyE @5939 DATA
    _ZTTN14PortableServer20_impl_ServantLocatorE @5940 DATA
    _ZTTN14PortableServer20_impl_ServantManagerE @5941 DATA
    _ZTTN14PortableServer22ServantRetentionPolicyE @5942 DATA
    _ZTTN14PortableServer22_impl_AdapterActivatorE @5943 DATA
    _ZTTN14PortableServer22_impl_ServantActivatorE @5944 DATA
    _ZTTN14PortableServer22_objref_ServantLocatorE @5945 DATA
    _ZTTN14PortableServer22_objref_ServantManagerE @5946 DATA
    _ZTTN14PortableServer23RequestProcessingPolicyE @5947 DATA
    _ZTTN14PortableServer24ImplicitActivationPolicyE @5948 DATA
    _ZTTN14PortableServer24_objref_AdapterActivatorE @5949 DATA
    _ZTTN14PortableServer24_objref_ServantActivatorE @5950 DATA
    _ZTTN18POA_PortableServer14ServantLocatorE @5951 DATA
    _ZTTN18POA_PortableServer14ServantManagerE @5952 DATA
    _ZTTN18POA_PortableServer16AdapterActivatorE @5953 DATA
    _ZTTN18POA_PortableServer16ServantActivatorE @5954 DATA
    _ZTTN4omni14omniAnonObjRefE @5955 DATA
    _ZTTN4omni25CORBA_InitialReferences_iE @5956 DATA
    _ZTTN5CORBA11LocalObjectE @5957 DATA
    _ZTTN5CORBA6PolicyE @5958 DATA
    _ZTTN9CosNaming19_impl_NamingContextE @5959 DATA
    _ZTTN9CosNaming21_impl_BindingIteratorE @5960 DATA
    _ZTTN9CosNaming21_objref_NamingContextE @5961 DATA
    _ZTTN9CosNaming22_impl_NamingContextExtE @5962 DATA
    _ZTTN9CosNaming23_objref_BindingIteratorE @5963 DATA
    _ZTTN9CosNaming24_objref_NamingContextExtE @5964 DATA
    _ZTV10omniObjRef @5965 DATA
    _ZTV10omniOrbORB @5966 DATA
    _ZTV11omniCurrent @5967 DATA
    _ZTV11omniServant @5968 DATA
    _ZTV12omniIdentity @5969 DATA
    _ZTV14omniNilCurrent @5970 DATA
    _ZTV15cdrMemoryStream @5971 DATA
    _ZTV15omniAsyncWorker @5972 DATA
    _ZTV16cdrStreamAdapter @5973 DATA
    _ZTV16omniAsyncInvoker @5974 DATA
    _ZTV16omniEtherealiser @5975 DATA
    _ZTV16traceFileHandler @5976 DATA
    _ZTV16traceTimeHandler @5977 DATA
    _ZTV17cdrCountingStream @5978 DATA
    _ZTV17omniLocalIdentity @5979 DATA
    _ZTV17omniObjTableEntry @5980 DATA
    _ZTV17omniOrbBoaServant @5981 DATA
    _ZTV17traceLevelHandler @5982 DATA
    _ZTV18omniCallDescriptor @5983 DATA
    _ZTV18omniRemoteIdentity @5984 DATA
    _ZTV19cdrValueChunkStream @5985 DATA
    _ZTV19omniAsyncWorkerInfo @5986 DATA
    _ZTV20omniShutdownIdentity @5987 DATA
    _ZTV20traceThreadIdHandler @5988 DATA
    _ZTV21omniInProcessIdentity @5989 DATA
    _ZTV21supportCurrentHandler @5990 DATA
    _ZTV22cdrEncapsulationStream @5991 DATA
    _ZTV22objectTableSizeHandler @5992 DATA
    _ZTV22traceExceptionsHandler @5993 DATA
    _ZTV23traceInvocationsHandler @5994 DATA
    _ZTV24nativeCharCodeSetHandler @5995 DATA
    _ZTV25nativeWCharCodeSetHandler @5996 DATA
    _ZTV27POA_CORBA_InitialReferences @5997 DATA
    _ZTV27abortOnInternalErrorHandler @5998 DATA
    _ZTV27omniLocalOnlyCallDescriptor @5999 DATA
    _ZTV28_pof_CORBA_InitialReferences @6000 DATA
    _ZTV29_impl_CORBA_InitialReferences @6001 DATA
    _ZTV29abortOnNativeExceptionHandler @6002 DATA
    _ZTV29traceInvocationReturnsHandler @6003 DATA
    _ZTV31_objref_CORBA_InitialReferences @6004 DATA
    _ZTV33_0RL_cd_3c165f58b5a16b59_00000000 @6005 DATA
    _ZTV33_0RL_cd_3c165f58b5a16b59_20000000 @6006 DATA
    _ZTV33_0RL_cd_3c165f58b5a16b59_40000000 @6007 DATA
    _ZTV33_0RL_cd_3c165f58b5a16b59_60000000 @6008 DATA
    _ZTV33_0RL_cd_3c165f58b5a16b59_80000000 @6009 DATA
    _ZTV33_0RL_cd_69CECA6A39F685B5_00000000 @6010 DATA
    _ZTV33_0RL_cd_69CECA6A39F685B5_01000000 @6011 DATA
    _ZTV33_0RL_cd_69CECA6A39F685B5_02000000 @6012 DATA
    _ZTV33_0RL_cd_69CECA6A39F685B5_20000000 @6013 DATA
    _ZTV33_0RL_cd_69CECA6A39F685B5_21000000 @6014 DATA
    _ZTV33_0RL_cd_69CECA6A39F685B5_40000000 @6015 DATA
    _ZTV33_0RL_cd_69CECA6A39F685B5_41000000 @6016 DATA
    _ZTV33_0RL_cd_69CECA6A39F685B5_60000000 @6017 DATA
    _ZTV33_0RL_cd_69CECA6A39F685B5_61000000 @6018 DATA
    _ZTV33_0RL_cd_69CECA6A39F685B5_80000000 @6019 DATA
    _ZTV33_0RL_cd_69CECA6A39F685B5_81000000 @6020 DATA
    _ZTV33_0RL_cd_69CECA6A39F685B5_a0000000 @6021 DATA
    _ZTV33_0RL_cd_69CECA6A39F685B5_a1000000 @6022 DATA
    _ZTV33_0RL_cd_69CECA6A39F685B5_c0000000 @6023 DATA
    _ZTV33_0RL_cd_69CECA6A39F685B5_c1000000 @6024 DATA
    _ZTV33_0RL_cd_69CECA6A39F685B5_e0000000 @6025 DATA
    _ZTV33_0RL_cd_69CECA6A39F685B5_e1000000 @6026 DATA
    _ZTV33_0RL_cd_96F078E2247AB9DA_00000000 @6027 DATA
    _ZTV33_0RL_cd_96F078E2247AB9DA_20000000 @6028 DATA
    _ZTV8omniTask @6029 DATA
    _ZTV9cdrStream @6030 DATA
    _ZTVN10omniPolicy19LocalShortcutPolicyE @6031 DATA
    _ZTVN11BiDirPolicy19BidirectionalPolicyE @6032 DATA
    _ZTVN11omni_thread7value_tE @6033 DATA
    _ZTVN13POA_CosNaming13NamingContextE @6034 DATA
    _ZTVN13POA_CosNaming15BindingIteratorE @6035 DATA
    _ZTVN13POA_CosNaming16NamingContextExtE @6036 DATA
    _ZTVN14PortableServer10POAManager15AdapterInactiveE @6037 DATA
    _ZTVN14PortableServer10POAManagerE @6038 DATA
    _ZTVN14PortableServer11ServantBaseE @6039 DATA
    _ZTVN14PortableServer12ThreadPolicyE @6040 DATA
    _ZTVN14PortableServer14ForwardRequestE @6041 DATA
    _ZTVN14PortableServer14LifespanPolicyE @6042 DATA
    _ZTVN14PortableServer14ServantLocatorE @6043 DATA
    _ZTVN14PortableServer14ServantManagerE @6044 DATA
    _ZTVN14PortableServer16AdapterActivatorE @6045 DATA
    _ZTVN14PortableServer16ServantActivatorE @6046 DATA
    _ZTVN14PortableServer18IdAssignmentPolicyE @6047 DATA
    _ZTVN14PortableServer18IdUniquenessPolicyE @6048 DATA
    _ZTVN14PortableServer19_pof_ServantLocatorE @6049 DATA
    _ZTVN14PortableServer19_pof_ServantManagerE @6050 DATA
    _ZTVN14PortableServer20_impl_ServantLocatorE @6051 DATA
    _ZTVN14PortableServer20_impl_ServantManagerE @6052 DATA
    _ZTVN14PortableServer21_pof_AdapterActivatorE @6053 DATA
    _ZTVN14PortableServer21_pof_ServantActivatorE @6054 DATA
    _ZTVN14PortableServer22ServantRetentionPolicyE @6055 DATA
    _ZTVN14PortableServer22_impl_AdapterActivatorE @6056 DATA
    _ZTVN14PortableServer22_impl_ServantActivatorE @6057 DATA
    _ZTVN14PortableServer22_objref_ServantLocatorE @6058 DATA
    _ZTVN14PortableServer22_objref_ServantManagerE @6059 DATA
    _ZTVN14PortableServer23RequestProcessingPolicyE @6060 DATA
    _ZTVN14PortableServer24ImplicitActivationPolicyE @6061 DATA
    _ZTVN14PortableServer24_objref_AdapterActivatorE @6062 DATA
    _ZTVN14PortableServer24_objref_ServantActivatorE @6063 DATA
    _ZTVN14PortableServer3POA11WrongPolicyE @6064 DATA
    _ZTVN14PortableServer3POA12WrongAdapterE @6065 DATA
    _ZTVN14PortableServer3POA13InvalidPolicyE @6066 DATA
    _ZTVN14PortableServer3POA15AdapterInactiveE @6067 DATA
    _ZTVN14PortableServer3POA15ObjectNotActiveE @6068 DATA
    _ZTVN14PortableServer3POA16ServantNotActiveE @6069 DATA
    _ZTVN14PortableServer3POA18AdapterNonExistentE @6070 DATA
    _ZTVN14PortableServer3POA19ObjectAlreadyActiveE @6071 DATA
    _ZTVN14PortableServer3POA20AdapterAlreadyExistsE @6072 DATA
    _ZTVN14PortableServer3POA20ServantAlreadyActiveE @6073 DATA
    _ZTVN14PortableServer3POA9NoServantE @6074 DATA
    _ZTVN14PortableServer3POAE @6075 DATA
    _ZTVN14PortableServer7Current9NoContextE @6076 DATA
    _ZTVN14PortableServer7CurrentE @6077 DATA
    _ZTVN14omniCallHandle14PostInvokeHookE @6078 DATA
    _ZTVN15omniStdCallDesc25_cCORBA_mObject_i_cstringE @6079 DATA
    _ZTVN18POA_PortableServer14ServantLocatorE @6080 DATA
    _ZTVN18POA_PortableServer14ServantManagerE @6081 DATA
    _ZTVN18POA_PortableServer16AdapterActivatorE @6082 DATA
    _ZTVN18POA_PortableServer16ServantActivatorE @6083 DATA
    _ZTVN4omni10giopServerE @6084 DATA
    _ZTVN4omni10giopStrandE @6085 DATA
    _ZTVN4omni10giopStreamE @6086 DATA
    _ZTVN4omni10giopWorkerE @6087 DATA
    _ZTVN4omni10omniOrbBOAE @6088 DATA
    _ZTVN4omni10omniOrbPOA16SLPostInvokeHookE @6089 DATA
    _ZTVN4omni10omniOrbPOAE @6090 DATA
    _ZTVN4omni10orbOptions7HandlerE @6091 DATA
    _ZTVN4omni10tcpAddressE @6092 DATA
    _ZTVN4omni11IP4AddrInfoE @6093 DATA
    _ZTVN4omni11LibcWrapper8AddrInfoE @6094 DATA
    _ZTVN4omni11NCS_C_UTF_8E @6095 DATA
    _ZTVN4omni11TCS_C_UTF_8E @6096 DATA
    _ZTVN4omni11giopAddressE @6097 DATA
    _ZTVN4omni11giopMonitorE @6098 DATA
    _ZTVN4omni11helpHandlerE @6099 DATA
    _ZTVN4omni11omniCodeSet10NCS_C_8bitE @6100 DATA
    _ZTVN4omni11omniCodeSet10TCS_C_8bitE @6101 DATA
    _ZTVN4omni11omniCodeSet11NCS_W_16bitE @6102 DATA
    _ZTVN4omni11omniCodeSet11TCS_W_16bitE @6103 DATA
    _ZTVN4omni11omniCodeSet4BaseE @6104 DATA
    _ZTVN4omni11omniCodeSet5NCS_CE @6105 DATA
    _ZTVN4omni11omniCodeSet5NCS_WE @6106 DATA
    _ZTVN4omni11omniCodeSet5TCS_CE @6107 DATA
    _ZTVN4omni11omniCodeSet5TCS_WE @6108 DATA
    _ZTVN4omni11tcpEndpointE @6109 DATA
    _ZTVN4omni12NCS_W_UTF_16E @6110 DATA
    _ZTVN4omni12SocketHolderE @6111 DATA
    _ZTVN4omni12TCS_W_UTF_16E @6112 DATA
    _ZTVN4omni12giopEndpointE @6113 DATA
    _ZTVN4omni13iorURIHandlerE @6114 DATA
    _ZTVN4omni13tcpConnectionE @6115 DATA
    _ZTVN4omni14InitRefHandlerE @6116 DATA
    _ZTVN4omni14giopConnectionE @6117 DATA
    _ZTVN4omni14giopWorkerInfoE @6118 DATA
    _ZTVN4omni14lcdModeHandlerE @6119 DATA
    _ZTVN4omni14omniAnonObjRefE @6120 DATA
    _ZTVN4omni14omniObjAdapterE @6121 DATA
    _ZTVN4omni14transportRules4RuleE @6122 DATA
    _ZTVN4omni14transportRules8RuleTypeE @6123 DATA
    _ZTVN4omni15BiDirClientRopeE @6124 DATA
    _ZTVN4omni15BiDirServerRopeE @6125 DATA
    _ZTVN4omni15ORBAsyncInvokerE @6126 DATA
    _ZTVN4omni15builtinIPv4RuleE @6127 DATA
    _ZTVN4omni15builtinRuleTypeE @6128 DATA
    _ZTVN4omni15endpointHandlerE @6129 DATA
    _ZTVN4omni15omniInitialiserE @6130 DATA
    _ZTVN4omni16SocketCollectionE @6131 DATA
    _ZTVN4omni16giopRendezvouserE @6132 DATA
    _ZTVN4omni16omniInterceptors14createThread_T6info_TE @6133 DATA
    _ZTVN4omni16omniInterceptors20assignUpcallThread_T6info_TE @6134 DATA
    _ZTVN4omni16principalHandlerE @6135 DATA
    _ZTVN4omni16tcpTransportImplE @6136 DATA
    _ZTVN4omni17configFileHandlerE @6137 DATA
    _ZTVN4omni17giopTransportImplE @6138 DATA
    _ZTVN4omni17omniOrbPOACurrentE @6139 DATA
    _ZTVN4omni17omniOrbPOAManagerE @6140 DATA
    _ZTVN4omni17strictIIOPHandlerE @6141 DATA
    _ZTVN4omni18corbalocURIHandler10RirObjAddrE @6142 DATA
    _ZTVN4omni18corbalocURIHandler11IiopObjAddrE @6143 DATA
    _ZTVN4omni18corbalocURIHandler11UiopObjAddrE @6144 DATA
    _ZTVN4omni18corbalocURIHandler13SsliopObjAddrE @6145 DATA
    _ZTVN4omni18corbalocURIHandler7ObjAddrE @6146 DATA
    _ZTVN4omni18corbalocURIHandlerE @6147 DATA
    _ZTVN4omni18omniAnonObjRef_pofE @6148 DATA
    _ZTVN4omni18omni_is_a_CallDescE @6149 DATA
    _ZTVN4omni18proxyObjectFactoryE @6150 DATA
    _ZTVN4omni19builtinMatchAllRuleE @6151 DATA
    _ZTVN4omni19corbanameURIHandlerE @6152 DATA
    _ZTVN4omni19tcpActiveCollectionE @6153 DATA
    _ZTVN4omni19tcpActiveConnectionE @6154 DATA
    _ZTVN4omni19validateUTF8HandlerE @6155 DATA
    _ZTVN4omni20builtinLocalHostRuleE @6156 DATA
    _ZTVN4omni20giopActiveCollectionE @6157 DATA
    _ZTVN4omni20giopActiveConnectionE @6158 DATA
    _ZTVN4omni20maxSocketRecvHandlerE @6159 DATA
    _ZTVN4omni20maxSocketSendHandlerE @6160 DATA
    _ZTVN4omni20omni_ior_initialiserE @6161 DATA
    _ZTVN4omni20omni_poa_initialiserE @6162 DATA
    _ZTVN4omni20omni_uri_initialiserE @6163 DATA
    _ZTVN4omni20poa_iiop_portHandlerE @6164 DATA
    _ZTVN4omni20tcAliasExpandHandlerE @6165 DATA
    _ZTVN4omni21DefaultInitRefHandlerE @6166 DATA
    _ZTVN4omni21giopMaxMsgSizeHandlerE @6167 DATA
    _ZTVN4omni21maxGIOPVersionHandlerE @6168 DATA
    _ZTVN4omni21saTaskQueueAssignInfoE @6169 DATA
    _ZTVN4omni21saTaskQueueCreateInfoE @6170 DATA
    _ZTVN4omni22endpointPublishHandlerE @6171 DATA
    _ZTVN4omni22inConScanPeriodHandlerE @6172 DATA
    _ZTVN4omni22scanGranularityHandlerE @6173 DATA
    _ZTVN4omni23ValueIndirectionTrackerE @6174 DATA
    _ZTVN4omni23endpointNoListenHandlerE @6175 DATA
    _ZTVN4omni23omni_ObjRef_initialiserE @6176 DATA
    _ZTVN4omni23omni_hooked_initialiserE @6177 DATA
    _ZTVN4omni23omni_interface_CallDescE @6178 DATA
    _ZTVN4omni23outConScanPeriodHandlerE @6179 DATA
    _ZTVN4omni23socketSendBufferHandlerE @6180 DATA
    _ZTVN4omni24dumpConfigurationHandlerE @6181 DATA
    _ZTVN4omni24endpointNoPublishHandlerE @6182 DATA
    _ZTVN4omni24idleThreadTimeoutHandlerE @6183 DATA
    _ZTVN4omni24omni_codeSet_initialiserE @6184 DATA
    _ZTVN4omni24omni_invoker_initialiserE @6185 DATA
    _ZTVN4omni24omni_objadpt_initialiserE @6186 DATA
    _ZTVN4omni24omni_omniIOR_initialiserE @6187 DATA
    _ZTVN4omni25CORBA_InitialReferences_iE @6188 DATA
    _ZTVN4omni25bootstrapAgentPortHandlerE @6189 DATA
    _ZTVN4omni25omni_corbaOrb_initialiserE @6190 DATA
    _ZTVN4omni25omni_giopRope_initialiserE @6191 DATA
    _ZTVN4omni25omni_initRefs_initialiserE @6192 DATA
    _ZTVN4omni25poa_iiop_name_portHandlerE @6193 DATA
    _ZTVN4omni26clientTransportRuleHandlerE @6194 DATA
    _ZTVN4omni26immediateRopeSwitchHandlerE @6195 DATA
    _ZTVN4omni26omni_cdrStream_initialiserE @6196 DATA
    _ZTVN4omni26omni_giopbidir_initialiserE @6197 DATA
    _ZTVN4omni26omni_non_existent_CallDescE @6198 DATA
    _ZTVN4omni26serverTransportRuleHandlerE @6199 DATA
    _ZTVN4omni27omni_dynamiclib_initialiserE @6200 DATA
    _ZTVN4omni27omni_giopImpl10_initialiserE @6201 DATA
    _ZTVN4omni27omni_giopImpl11_initialiserE @6202 DATA
    _ZTVN4omni27omni_giopImpl12_initialiserE @6203 DATA
    _ZTVN4omni27omni_giopStrand_initialiserE @6204 DATA
    _ZTVN4omni27omni_giopserver_initialiserE @6205 DATA
    _ZTVN4omni27omni_orbOptions_initialiserE @6206 DATA
    _ZTVN4omni27oneCallPerConnectionHandlerE @6207 DATA
    _ZTVN4omni28connectionWatchPeriodHandlerE @6208 DATA
    _ZTVN4omni28endpointPublishAllIFsHandlerE @6209 DATA
    _ZTVN4omni28giopTargetAddressModeHandlerE @6210 DATA
    _ZTVN4omni28omni_interceptor_initialiserE @6211 DATA
    _ZTVN4omni28omni_omniCurrent_initialiserE @6212 DATA
    _ZTVN4omni28poaHoldRequestTimeoutHandlerE @6213 DATA
    _ZTVN4omni28resetTimeOutOnRetriesHandlerE @6214 DATA
    _ZTVN4omni28supportBootstrapAgentHandlerE @6215 DATA
    _ZTVN4omni29bootstrapAgentHostnameHandlerE @6216 DATA
    _ZTVN4omni29copyValuesInLocalCallsHandlerE @6217 DATA
    _ZTVN4omni29diiThrowsSysExceptionsHandlerE @6218 DATA
    _ZTVN4omni29offerBiDirectionalGIOPHandlerE @6219 DATA
    _ZTVN4omni29omniServantActivatorTaskQueue4TaskE @6220 DATA
    _ZTVN4omni29omniServantActivatorTaskQueueE @6221 DATA
    _ZTVN4omni29omni_giopEndpoint_initialiserE @6222 DATA
    _ZTVN4omni29omni_omniInternal_initialiserE @6223 DATA
    _ZTVN4omni29unixTransportDirectoryHandlerE @6224 DATA
    _ZTVN4omni30acceptBiDirectionalGIOPHandlerE @6225 DATA
    _ZTVN4omni30clientCallTimeOutPeriodHandlerE @6226 DATA
    _ZTVN4omni30maxServerThreadPoolSizeHandlerE @6227 DATA
    _ZTVN4omni30omni_omniTransport_initialiserE @6228 DATA
    _ZTVN4omni30serverCallTimeOutPeriodHandlerE @6229 DATA
    _ZTVN4omni30supportPerThreadTimeOutHandlerE @6230 DATA
    _ZTVN4omni30unixTransportPermissionHandlerE @6231 DATA
    _ZTVN4omni30useTypeCodeIndirectionsHandlerE @6232 DATA
    _ZTVN4omni31connectionWatchImmediateHandlerE @6233 DATA
    _ZTVN4omni31omni_giopStreamImpl_initialiserE @6234 DATA
    _ZTVN4omni31omni_transportRules_initialiserE @6235 DATA
    _ZTVN4omni32threadPerConnectionPolicyHandlerE @6236 DATA
    _ZTVN4omni32threadPoolWatchConnectionHandlerE @6237 DATA
    _ZTVN4omni32verifyObjectExistsAndTypeHandlerE @6238 DATA
    _ZTVN4omni33clientConnectTimeOutPeriodHandlerE @6239 DATA
    _ZTVN4omni33maxGIOPConnectionPerServerHandlerE @6240 DATA
    _ZTVN4omni35maxServerThreadPerConnectionHandlerE @6241 DATA
    _ZTVN4omni35poaUniquePersistentSystemIdsHandlerE @6242 DATA
    _ZTVN4omni36threadPerConnectionLowerLimitHandlerE @6243 DATA
    _ZTVN4omni36threadPerConnectionUpperLimitHandlerE @6244 DATA
    _ZTVN4omni37acceptMisalignedTcIndirectionsHandlerE @6245 DATA
    _ZTVN4omni39maxInterleavedCallsPerConnectionHandlerE @6246 DATA
    _ZTVN4omni4RopeE @6247 DATA
    _ZTVN4omni5IOP_CE @6248 DATA
    _ZTVN4omni5IOP_SE @6249 DATA
    _ZTVN4omni6GIOP_CE @6250 DATA
    _ZTVN4omni6GIOP_SE @6251 DATA
    _ZTVN4omni6StrandE @6252 DATA
    _ZTVN4omni7omniURI10URIHandlerE @6253 DATA
    _ZTVN4omni8giopRopeE @6254 DATA
    _ZTVN4omni9BiDirInfoE @6255 DATA
    _ZTVN4omni9ScavengerE @6256 DATA
    _ZTVN4omni9idHandlerE @6257 DATA
    _ZTVN4omni9orbServerE @6258 DATA
    _ZTVN5CORBA10INITIALIZEE @6259 DATA
    _ZTVN5CORBA10INTF_REPOSE @6260 DATA
    _ZTVN5CORBA10INV_OBJREFE @6261 DATA
    _ZTVN5CORBA10INV_POLICYE @6262 DATA
    _ZTVN5CORBA11BAD_CONTEXTE @6263 DATA
    _ZTVN5CORBA11LocalObjectE @6264 DATA
    _ZTVN5CORBA11NO_RESPONSEE @6265 DATA
    _ZTVN5CORBA11OBJ_ADAPTERE @6266 DATA
    _ZTVN5CORBA12BAD_TYPECODEE @6267 DATA
    _ZTVN5CORBA12COMM_FAILUREE @6268 DATA
    _ZTVN5CORBA12NO_IMPLEMENTE @6269 DATA
    _ZTVN5CORBA12NO_RESOURCESE @6270 DATA
    _ZTVN5CORBA13BAD_INV_ORDERE @6271 DATA
    _ZTVN5CORBA13BAD_OPERATIONE @6272 DATA
    _ZTVN5CORBA13NO_PERMISSIONE @6273 DATA
    _ZTVN5CORBA13PERSIST_STOREE @6274 DATA
    _ZTVN5CORBA13UserExceptionE @6275 DATA
    _ZTVN5CORBA15DATA_CONVERSIONE @6276 DATA
    _ZTVN5CORBA15SystemExceptionE @6277 DATA
    _ZTVN5CORBA16OBJECT_NOT_EXISTE @6278 DATA
    _ZTVN5CORBA16TRANSACTION_MODEE @6279 DATA
    _ZTVN5CORBA19INVALID_TRANSACTIONE @6280 DATA
    _ZTVN5CORBA20CODESET_INCOMPATIBLEE @6281 DATA
    _ZTVN5CORBA20TRANSACTION_REQUIREDE @6282 DATA
    _ZTVN5CORBA22TRANSACTION_ROLLEDBACKE @6283 DATA
    _ZTVN5CORBA23TRANSACTION_UNAVAILABLEE @6284 DATA
    _ZTVN5CORBA3BOAE @6285 DATA
    _ZTVN5CORBA3ORB11InvalidNameE @6286 DATA
    _ZTVN5CORBA3ORBE @6287 DATA
    _ZTVN5CORBA6ObjectE @6288 DATA
    _ZTVN5CORBA6PolicyE @6289 DATA
    _ZTVN5CORBA6REBINDE @6290 DATA
    _ZTVN5CORBA7BAD_QOSE @6291 DATA
    _ZTVN5CORBA7CurrentE @6292 DATA
    _ZTVN5CORBA7MARSHALE @6293 DATA
    _ZTVN5CORBA7TIMEOUTE @6294 DATA
    _ZTVN5CORBA7UNKNOWNE @6295 DATA
    _ZTVN5CORBA8FREE_MEME @6296 DATA
    _ZTVN5CORBA8INTERNALE @6297 DATA
    _ZTVN5CORBA8INV_FLAGE @6298 DATA
    _ZTVN5CORBA9BAD_PARAME @6299 DATA
    _ZTVN5CORBA9ExceptionE @6300 DATA
    _ZTVN5CORBA9IMP_LIMITE @6301 DATA
    _ZTVN5CORBA9INV_IDENTE @6302 DATA
    _ZTVN5CORBA9NO_MEMORYE @6303 DATA
    _ZTVN5CORBA9TRANSIENTE @6304 DATA
    _ZTVN7omniIOR12IORExtraInfoE @6305 DATA
    _ZTVN9CosNaming13NamingContext11InvalidNameE @6306 DATA
    _ZTVN9CosNaming13NamingContext12AlreadyBoundE @6307 DATA
    _ZTVN9CosNaming13NamingContext13CannotProceedE @6308 DATA
    _ZTVN9CosNaming13NamingContext8NotEmptyE @6309 DATA
    _ZTVN9CosNaming13NamingContext8NotFoundE @6310 DATA
    _ZTVN9CosNaming16NamingContextExt14InvalidAddressE @6311 DATA
    _ZTVN9CosNaming18_pof_NamingContextE @6312 DATA
    _ZTVN9CosNaming19_impl_NamingContextE @6313 DATA
    _ZTVN9CosNaming20_pof_BindingIteratorE @6314 DATA
    _ZTVN9CosNaming21_impl_BindingIteratorE @6315 DATA
    _ZTVN9CosNaming21_objref_NamingContextE @6316 DATA
    _ZTVN9CosNaming21_pof_NamingContextExtE @6317 DATA
    _ZTVN9CosNaming22_impl_NamingContextExtE @6318 DATA
    _ZTVN9CosNaming23_objref_BindingIteratorE @6319 DATA
    _ZTVN9CosNaming24_objref_NamingContextExtE @6320 DATA
    _ZThn12_N4omni10omniOrbBOA11_ptrToClassEPi @6321
    _ZThn12_N4omni10omniOrbBOA12decrRefCountEv @6322
    _ZThn12_N4omni10omniOrbBOA12incrRefCountEv @6323
    _ZThn12_N4omni10omniOrbBOA12objectExistsEPKhi @6324
    _ZThn12_N4omni10omniOrbBOA26lastInvocationHasCompletedEP17omniLocalIdentity @6325
    _ZThn12_N4omni10omniOrbBOA8dispatchER14omniCallHandleP17omniLocalIdentity @6326
    _ZThn12_N4omni10omniOrbBOA8dispatchER14omniCallHandlePKhi @6327
    _ZThn12_N4omni10omniOrbBOA8dispatchER18omniCallDescriptorP17omniLocalIdentity @6328
    _ZThn12_N4omni10omniOrbBOAD0Ev @6329
    _ZThn12_N4omni10omniOrbBOAD1Ev @6330
    _ZThn12_N4omni10omniOrbPOA11_ptrToClassEPi @6331
    _ZThn12_N4omni10omniOrbPOA12decrRefCountEv @6332
    _ZThn12_N4omni10omniOrbPOA12incrRefCountEv @6333
    _ZThn12_N4omni10omniOrbPOA12objectExistsEPKhi @6334
    _ZThn12_N4omni10omniOrbPOA26lastInvocationHasCompletedEP17omniLocalIdentity @6335
    _ZThn12_N4omni10omniOrbPOA8dispatchER14omniCallHandleP17omniLocalIdentity @6336
    _ZThn12_N4omni10omniOrbPOA8dispatchER14omniCallHandlePKhi @6337
    _ZThn12_N4omni10omniOrbPOA8dispatchER18omniCallDescriptorP17omniLocalIdentity @6338
    _ZThn12_N4omni10omniOrbPOAD0Ev @6339
    _ZThn12_N4omni10omniOrbPOAD1Ev @6340
    _ZThn16496_N4omni11tcpEndpointD0Ev @6341
    _ZThn16496_N4omni11tcpEndpointD1Ev @6342
    _ZThn24_N4omni13tcpConnectionD0Ev @6343
    _ZThn24_N4omni13tcpConnectionD1Ev @6344
    _ZThn28_N4omni19tcpActiveConnectionD0Ev @6345
    _ZThn28_N4omni19tcpActiveConnectionD1Ev @6346
    _ZThn4_N4omni19tcpActiveCollection14notifyReadableEPNS_12SocketHolderE @6347
    _ZThn4_N4omni19tcpActiveCollectionD0Ev @6348
    _ZThn4_N4omni19tcpActiveCollectionD1Ev @6349
    _ZThn4_N4omni19tcpActiveConnectionD0Ev @6350
    _ZThn4_N4omni19tcpActiveConnectionD1Ev @6351
    _ZThn4_N4omni6GIOP_C10completionEv @6352
    _ZThn4_N4omni6GIOP_C10ptrToClassEPi @6353
    _ZThn4_N4omni6GIOP_C17notifyCommFailureEbRmRb @6354
    _ZThn4_N4omni6GIOP_CD0Ev @6355
    _ZThn4_N4omni6GIOP_CD1Ev @6356
    _ZThn4_N4omni6GIOP_S10completionEv @6357
    _ZThn4_N4omni6GIOP_S10ptrToClassEPi @6358
    _ZThn4_N4omni6GIOP_S17notifyCommFailureEbRmRb @6359
    _ZThn4_N4omni6GIOP_SD0Ev @6360
    _ZThn4_N4omni6GIOP_SD1Ev @6361
    _ZThn8_N4omni11tcpEndpoint14notifyReadableEPNS_12SocketHolderE @6362
    _ZThn8_N4omni11tcpEndpointD0Ev @6363
    _ZThn8_N4omni11tcpEndpointD1Ev @6364
    _ZTv0_n12_N10omniPolicy19LocalShortcutPolicyD0Ev @6365
    _ZTv0_n12_N10omniPolicy19LocalShortcutPolicyD1Ev @6366
    _ZTv0_n12_N11BiDirPolicy19BidirectionalPolicyD0Ev @6367
    _ZTv0_n12_N11BiDirPolicy19BidirectionalPolicyD1Ev @6368
    _ZTv0_n12_N13POA_CosNaming13NamingContextD0Ev @6369
    _ZTv0_n12_N13POA_CosNaming13NamingContextD1Ev @6370
    _ZTv0_n12_N13POA_CosNaming15BindingIteratorD0Ev @6371
    _ZTv0_n12_N13POA_CosNaming15BindingIteratorD1Ev @6372
    _ZTv0_n12_N13POA_CosNaming16NamingContextExtD0Ev @6373
    _ZTv0_n12_N13POA_CosNaming16NamingContextExtD1Ev @6374
    _ZTv0_n12_N14PortableServer11ServantBaseD0Ev @6375
    _ZTv0_n12_N14PortableServer11ServantBaseD1Ev @6376
    _ZTv0_n12_N14PortableServer12ThreadPolicyD0Ev @6377
    _ZTv0_n12_N14PortableServer12ThreadPolicyD1Ev @6378
    _ZTv0_n12_N14PortableServer14LifespanPolicyD0Ev @6379
    _ZTv0_n12_N14PortableServer14LifespanPolicyD1Ev @6380
    _ZTv0_n12_N14PortableServer14ServantLocatorD0Ev @6381
    _ZTv0_n12_N14PortableServer14ServantLocatorD1Ev @6382
    _ZTv0_n12_N14PortableServer14ServantManagerD0Ev @6383
    _ZTv0_n12_N14PortableServer14ServantManagerD1Ev @6384
    _ZTv0_n12_N14PortableServer16AdapterActivatorD0Ev @6385
    _ZTv0_n12_N14PortableServer16AdapterActivatorD1Ev @6386
    _ZTv0_n12_N14PortableServer16ServantActivatorD0Ev @6387
    _ZTv0_n12_N14PortableServer16ServantActivatorD1Ev @6388
    _ZTv0_n12_N14PortableServer18IdAssignmentPolicyD0Ev @6389
    _ZTv0_n12_N14PortableServer18IdAssignmentPolicyD1Ev @6390
    _ZTv0_n12_N14PortableServer18IdUniquenessPolicyD0Ev @6391
    _ZTv0_n12_N14PortableServer18IdUniquenessPolicyD1Ev @6392
    _ZTv0_n12_N14PortableServer20_impl_ServantLocatorD0Ev @6393
    _ZTv0_n12_N14PortableServer20_impl_ServantLocatorD1Ev @6394
    _ZTv0_n12_N14PortableServer20_impl_ServantManagerD0Ev @6395
    _ZTv0_n12_N14PortableServer20_impl_ServantManagerD1Ev @6396
    _ZTv0_n12_N14PortableServer22ServantRetentionPolicyD0Ev @6397
    _ZTv0_n12_N14PortableServer22ServantRetentionPolicyD1Ev @6398
    _ZTv0_n12_N14PortableServer22_impl_AdapterActivatorD0Ev @6399
    _ZTv0_n12_N14PortableServer22_impl_AdapterActivatorD1Ev @6400
    _ZTv0_n12_N14PortableServer22_impl_ServantActivatorD0Ev @6401
    _ZTv0_n12_N14PortableServer22_impl_ServantActivatorD1Ev @6402
    _ZTv0_n12_N14PortableServer22_objref_ServantLocator12_ptrToObjRefEPKc @6403
    _ZTv0_n12_N14PortableServer22_objref_ServantLocatorD0Ev @6404
    _ZTv0_n12_N14PortableServer22_objref_ServantLocatorD1Ev @6405
    _ZTv0_n12_N14PortableServer22_objref_ServantManager12_ptrToObjRefEPKc @6406
    _ZTv0_n12_N14PortableServer22_objref_ServantManagerD0Ev @6407
    _ZTv0_n12_N14PortableServer22_objref_ServantManagerD1Ev @6408
    _ZTv0_n12_N14PortableServer23RequestProcessingPolicyD0Ev @6409
    _ZTv0_n12_N14PortableServer23RequestProcessingPolicyD1Ev @6410
    _ZTv0_n12_N14PortableServer24ImplicitActivationPolicyD0Ev @6411
    _ZTv0_n12_N14PortableServer24ImplicitActivationPolicyD1Ev @6412
    _ZTv0_n12_N14PortableServer24_objref_AdapterActivator12_ptrToObjRefEPKc @6413
    _ZTv0_n12_N14PortableServer24_objref_AdapterActivatorD0Ev @6414
    _ZTv0_n12_N14PortableServer24_objref_AdapterActivatorD1Ev @6415
    _ZTv0_n12_N14PortableServer24_objref_ServantActivator12_ptrToObjRefEPKc @6416
    _ZTv0_n12_N14PortableServer24_objref_ServantActivatorD0Ev @6417
    _ZTv0_n12_N14PortableServer24_objref_ServantActivatorD1Ev @6418
    _ZTv0_n12_N17omniOrbBoaServantD0Ev @6419
    _ZTv0_n12_N17omniOrbBoaServantD1Ev @6420
    _ZTv0_n12_N18POA_PortableServer14ServantLocatorD0Ev @6421
    _ZTv0_n12_N18POA_PortableServer14ServantLocatorD1Ev @6422
    _ZTv0_n12_N18POA_PortableServer14ServantManagerD0Ev @6423
    _ZTv0_n12_N18POA_PortableServer14ServantManagerD1Ev @6424
    _ZTv0_n12_N18POA_PortableServer16AdapterActivatorD0Ev @6425
    _ZTv0_n12_N18POA_PortableServer16AdapterActivatorD1Ev @6426
    _ZTv0_n12_N18POA_PortableServer16ServantActivatorD0Ev @6427
    _ZTv0_n12_N18POA_PortableServer16ServantActivatorD1Ev @6428
    _ZTv0_n12_N27POA_CORBA_InitialReferencesD0Ev @6429
    _ZTv0_n12_N27POA_CORBA_InitialReferencesD1Ev @6430
    _ZTv0_n12_N29_impl_CORBA_InitialReferencesD0Ev @6431
    _ZTv0_n12_N29_impl_CORBA_InitialReferencesD1Ev @6432
    _ZTv0_n12_N31_objref_CORBA_InitialReferences12_ptrToObjRefEPKc @6433
    _ZTv0_n12_N31_objref_CORBA_InitialReferencesD0Ev @6434
    _ZTv0_n12_N31_objref_CORBA_InitialReferencesD1Ev @6435
    _ZTv0_n12_N4omni14omniAnonObjRef12_ptrToObjRefEPKc @6436
    _ZTv0_n12_N4omni14omniAnonObjRefD0Ev @6437
    _ZTv0_n12_N4omni14omniAnonObjRefD1Ev @6438
    _ZTv0_n12_N4omni25CORBA_InitialReferences_iD0Ev @6439
    _ZTv0_n12_N4omni25CORBA_InitialReferences_iD1Ev @6440
    _ZTv0_n12_N5CORBA11LocalObjectD0Ev @6441
    _ZTv0_n12_N5CORBA11LocalObjectD1Ev @6442
    _ZTv0_n12_N5CORBA6PolicyD0Ev @6443
    _ZTv0_n12_N5CORBA6PolicyD1Ev @6444
    _ZTv0_n12_N9CosNaming19_impl_NamingContextD0Ev @6445
    _ZTv0_n12_N9CosNaming19_impl_NamingContextD1Ev @6446
    _ZTv0_n12_N9CosNaming21_impl_BindingIteratorD0Ev @6447
    _ZTv0_n12_N9CosNaming21_impl_BindingIteratorD1Ev @6448
    _ZTv0_n12_N9CosNaming21_objref_NamingContext12_ptrToObjRefEPKc @6449
    _ZTv0_n12_N9CosNaming21_objref_NamingContextD0Ev @6450
    _ZTv0_n12_N9CosNaming21_objref_NamingContextD1Ev @6451
    _ZTv0_n12_N9CosNaming22_impl_NamingContextExtD0Ev @6452
    _ZTv0_n12_N9CosNaming22_impl_NamingContextExtD1Ev @6453
    _ZTv0_n12_N9CosNaming23_objref_BindingIterator12_ptrToObjRefEPKc @6454
    _ZTv0_n12_N9CosNaming23_objref_BindingIteratorD0Ev @6455
    _ZTv0_n12_N9CosNaming23_objref_BindingIteratorD1Ev @6456
    _ZTv0_n12_N9CosNaming24_objref_NamingContextExt12_ptrToObjRefEPKc @6457
    _ZTv0_n12_N9CosNaming24_objref_NamingContextExtD0Ev @6458
    _ZTv0_n12_N9CosNaming24_objref_NamingContextExtD1Ev @6459
    _ZTv0_n16_N13POA_CosNaming13NamingContextD0Ev @6460
    _ZTv0_n16_N13POA_CosNaming13NamingContextD1Ev @6461
    _ZTv0_n16_N13POA_CosNaming15BindingIteratorD0Ev @6462
    _ZTv0_n16_N13POA_CosNaming15BindingIteratorD1Ev @6463
    _ZTv0_n16_N13POA_CosNaming16NamingContextExtD0Ev @6464
    _ZTv0_n16_N13POA_CosNaming16NamingContextExtD1Ev @6465
    _ZTv0_n16_N14PortableServer20_impl_ServantLocator15_ptrToInterfaceEPKc @6466
    _ZTv0_n16_N14PortableServer20_impl_ServantLocatorD0Ev @6467
    _ZTv0_n16_N14PortableServer20_impl_ServantLocatorD1Ev @6468
    _ZTv0_n16_N14PortableServer20_impl_ServantManager15_ptrToInterfaceEPKc @6469
    _ZTv0_n16_N14PortableServer22_impl_AdapterActivator15_ptrToInterfaceEPKc @6470
    _ZTv0_n16_N14PortableServer22_impl_ServantActivator15_ptrToInterfaceEPKc @6471
    _ZTv0_n16_N14PortableServer22_impl_ServantActivatorD0Ev @6472
    _ZTv0_n16_N14PortableServer22_impl_ServantActivatorD1Ev @6473
    _ZTv0_n16_N18POA_PortableServer14ServantLocatorD0Ev @6474
    _ZTv0_n16_N18POA_PortableServer14ServantLocatorD1Ev @6475
    _ZTv0_n16_N18POA_PortableServer14ServantManagerD0Ev @6476
    _ZTv0_n16_N18POA_PortableServer14ServantManagerD1Ev @6477
    _ZTv0_n16_N18POA_PortableServer16AdapterActivatorD0Ev @6478
    _ZTv0_n16_N18POA_PortableServer16AdapterActivatorD1Ev @6479
    _ZTv0_n16_N18POA_PortableServer16ServantActivatorD0Ev @6480
    _ZTv0_n16_N18POA_PortableServer16ServantActivatorD1Ev @6481
    _ZTv0_n16_N27POA_CORBA_InitialReferencesD0Ev @6482
    _ZTv0_n16_N27POA_CORBA_InitialReferencesD1Ev @6483
    _ZTv0_n16_N29_impl_CORBA_InitialReferences15_ptrToInterfaceEPKc @6484
    _ZTv0_n16_N4omni25CORBA_InitialReferences_iD0Ev @6485
    _ZTv0_n16_N4omni25CORBA_InitialReferences_iD1Ev @6486
    _ZTv0_n16_N5CORBA11LocalObject13_non_existentEv @6487
    _ZTv0_n16_N9CosNaming19_impl_NamingContext15_ptrToInterfaceEPKc @6488
    _ZTv0_n16_N9CosNaming21_impl_BindingIterator15_ptrToInterfaceEPKc @6489
    _ZTv0_n16_N9CosNaming22_impl_NamingContextExt15_ptrToInterfaceEPKc @6490
    _ZTv0_n16_N9CosNaming22_impl_NamingContextExtD0Ev @6491
    _ZTv0_n16_N9CosNaming22_impl_NamingContextExtD1Ev @6492
    _ZTv0_n20_N14PortableServer11ServantBase9_downcastEv @6493
    _ZTv0_n20_N14PortableServer14ServantManager16_NP_incrRefCountEv @6494
    _ZTv0_n20_N14PortableServer16AdapterActivator16_NP_incrRefCountEv @6495
    _ZTv0_n20_N14PortableServer20_impl_ServantLocator9_dispatchER14omniCallHandle @6496
    _ZTv0_n20_N14PortableServer22_impl_ServantActivator9_dispatchER14omniCallHandle @6497
    _ZTv0_n20_N14PortableServer22_objref_ServantLocator15_enableShortcutEP11omniServantPKb @6498
    _ZTv0_n20_N14PortableServer24_objref_ServantActivator15_enableShortcutEP11omniServantPKb @6499
    _ZTv0_n20_N4omni25CORBA_InitialReferences_i3getEPKc @6500
    _ZTv0_n20_N5CORBA11LocalObject16_NP_incrRefCountEv @6501
    _ZTv0_n20_N5CORBA6Policy16_NP_incrRefCountEv @6502
    _ZTv0_n20_N9CosNaming24_objref_NamingContextExtD0Ev @6503
    _ZTv0_n20_N9CosNaming24_objref_NamingContextExtD1Ev @6504
    _ZTv0_n24_N14PortableServer14ServantManager16_NP_decrRefCountEv @6505
    _ZTv0_n24_N14PortableServer16AdapterActivator16_NP_decrRefCountEv @6506
    _ZTv0_n24_N14PortableServer20_impl_ServantLocator15_ptrToInterfaceEPKc @6507
    _ZTv0_n24_N14PortableServer20_impl_ServantLocator18_mostDerivedRepoIdEv @6508
    _ZTv0_n24_N14PortableServer20_impl_ServantManager18_mostDerivedRepoIdEv @6509
    _ZTv0_n24_N14PortableServer22_impl_AdapterActivator18_mostDerivedRepoIdEv @6510
    _ZTv0_n24_N14PortableServer22_impl_ServantActivator15_ptrToInterfaceEPKc @6511
    _ZTv0_n24_N14PortableServer22_impl_ServantActivator18_mostDerivedRepoIdEv @6512
    _ZTv0_n24_N14PortableServer22_objref_ServantLocatorD0Ev @6513
    _ZTv0_n24_N14PortableServer22_objref_ServantLocatorD1Ev @6514
    _ZTv0_n24_N14PortableServer22_objref_ServantManagerD0Ev @6515
    _ZTv0_n24_N14PortableServer22_objref_ServantManagerD1Ev @6516
    _ZTv0_n24_N14PortableServer24_objref_AdapterActivatorD0Ev @6517
    _ZTv0_n24_N14PortableServer24_objref_AdapterActivatorD1Ev @6518
    _ZTv0_n24_N14PortableServer24_objref_ServantActivatorD0Ev @6519
    _ZTv0_n24_N14PortableServer24_objref_ServantActivatorD1Ev @6520
    _ZTv0_n24_N29_impl_CORBA_InitialReferences18_mostDerivedRepoIdEv @6521
    _ZTv0_n24_N31_objref_CORBA_InitialReferencesD0Ev @6522
    _ZTv0_n24_N31_objref_CORBA_InitialReferencesD1Ev @6523
    _ZTv0_n24_N4omni14omniAnonObjRefD0Ev @6524
    _ZTv0_n24_N4omni14omniAnonObjRefD1Ev @6525
    _ZTv0_n24_N4omni25CORBA_InitialReferences_i4listEv @6526
    _ZTv0_n24_N5CORBA11LocalObject16_NP_decrRefCountEv @6527
    _ZTv0_n24_N5CORBA6Policy16_NP_decrRefCountEv @6528
    _ZTv0_n24_N9CosNaming19_impl_NamingContext18_mostDerivedRepoIdEv @6529
    _ZTv0_n24_N9CosNaming21_impl_BindingIterator18_mostDerivedRepoIdEv @6530
    _ZTv0_n24_N9CosNaming21_objref_NamingContextD0Ev @6531
    _ZTv0_n24_N9CosNaming21_objref_NamingContextD1Ev @6532
    _ZTv0_n24_N9CosNaming22_impl_NamingContextExt18_mostDerivedRepoIdEv @6533
    _ZTv0_n24_N9CosNaming23_objref_BindingIteratorD0Ev @6534
    _ZTv0_n24_N9CosNaming23_objref_BindingIteratorD1Ev @6535
    _ZTv0_n24_N9CosNaming24_objref_NamingContextExt12_ptrToObjRefEPKc @6536
    _ZTv0_n24_N9CosNaming24_objref_NamingContextExtD0Ev @6537
    _ZTv0_n24_N9CosNaming24_objref_NamingContextExtD1Ev @6538
    _ZTv0_n28_N10omniPolicy19LocalShortcutPolicy12_ptrToObjRefEPKc @6539
    _ZTv0_n28_N11BiDirPolicy19BidirectionalPolicy12_ptrToObjRefEPKc @6540
    _ZTv0_n28_N14PortableServer12ThreadPolicy12_ptrToObjRefEPKc @6541
    _ZTv0_n28_N14PortableServer14LifespanPolicy12_ptrToObjRefEPKc @6542
    _ZTv0_n28_N14PortableServer14ServantLocator12_ptrToObjRefEPKc @6543
    _ZTv0_n28_N14PortableServer14ServantLocatorD0Ev @6544
    _ZTv0_n28_N14PortableServer14ServantLocatorD1Ev @6545
    _ZTv0_n28_N14PortableServer14ServantManager12_ptrToObjRefEPKc @6546
    _ZTv0_n28_N14PortableServer14ServantManagerD0Ev @6547
    _ZTv0_n28_N14PortableServer14ServantManagerD1Ev @6548
    _ZTv0_n28_N14PortableServer16AdapterActivator12_ptrToObjRefEPKc @6549
    _ZTv0_n28_N14PortableServer16AdapterActivatorD0Ev @6550
    _ZTv0_n28_N14PortableServer16AdapterActivatorD1Ev @6551
    _ZTv0_n28_N14PortableServer16ServantActivator12_ptrToObjRefEPKc @6552
    _ZTv0_n28_N14PortableServer16ServantActivatorD0Ev @6553
    _ZTv0_n28_N14PortableServer16ServantActivatorD1Ev @6554
    _ZTv0_n28_N14PortableServer18IdAssignmentPolicy12_ptrToObjRefEPKc @6555
    _ZTv0_n28_N14PortableServer18IdUniquenessPolicy12_ptrToObjRefEPKc @6556
    _ZTv0_n28_N14PortableServer20_impl_ServantLocator18_mostDerivedRepoIdEv @6557
    _ZTv0_n28_N14PortableServer22ServantRetentionPolicy12_ptrToObjRefEPKc @6558
    _ZTv0_n28_N14PortableServer22_impl_ServantActivator18_mostDerivedRepoIdEv @6559
    _ZTv0_n28_N14PortableServer22_objref_ServantLocator12_ptrToObjRefEPKc @6560
    _ZTv0_n28_N14PortableServer22_objref_ServantLocatorD0Ev @6561
    _ZTv0_n28_N14PortableServer22_objref_ServantLocatorD1Ev @6562
    _ZTv0_n28_N14PortableServer22_objref_ServantManager12_ptrToObjRefEPKc @6563
    _ZTv0_n28_N14PortableServer22_objref_ServantManagerD0Ev @6564
    _ZTv0_n28_N14PortableServer22_objref_ServantManagerD1Ev @6565
    _ZTv0_n28_N14PortableServer23RequestProcessingPolicy12_ptrToObjRefEPKc @6566
    _ZTv0_n28_N14PortableServer24ImplicitActivationPolicy12_ptrToObjRefEPKc @6567
    _ZTv0_n28_N14PortableServer24_objref_AdapterActivator12_ptrToObjRefEPKc @6568
    _ZTv0_n28_N14PortableServer24_objref_AdapterActivatorD0Ev @6569
    _ZTv0_n28_N14PortableServer24_objref_AdapterActivatorD1Ev @6570
    _ZTv0_n28_N14PortableServer24_objref_ServantActivator12_ptrToObjRefEPKc @6571
    _ZTv0_n28_N14PortableServer24_objref_ServantActivatorD0Ev @6572
    _ZTv0_n28_N14PortableServer24_objref_ServantActivatorD1Ev @6573
    _ZTv0_n28_N31_objref_CORBA_InitialReferences12_ptrToObjRefEPKc @6574
    _ZTv0_n28_N4omni14omniAnonObjRef12_ptrToObjRefEPKc @6575
    _ZTv0_n28_N5CORBA11LocalObject12_ptrToObjRefEPKc @6576
    _ZTv0_n28_N5CORBA6Policy12_ptrToObjRefEPKc @6577
    _ZTv0_n28_N9CosNaming21_objref_NamingContext12_ptrToObjRefEPKc @6578
    _ZTv0_n28_N9CosNaming23_objref_BindingIterator12_ptrToObjRefEPKc @6579
    _ZTv0_n28_N9CosNaming24_objref_NamingContextExt12_ptrToObjRefEPKc @6580
    _ZTv0_n32_N14PortableServer14ServantManager16_NP_incrRefCountEv @6581
    _ZTv0_n32_N14PortableServer16AdapterActivator16_NP_incrRefCountEv @6582
    _ZTv0_n36_N14PortableServer11ServantBase17_do_get_interfaceEv @6583
    _ZTv0_n36_N14PortableServer14ServantManager16_NP_decrRefCountEv @6584
    _ZTv0_n36_N14PortableServer16AdapterActivator16_NP_decrRefCountEv @6585
    _ZTv0_n36_N17omniOrbBoaServant17_do_get_interfaceEv @6586
    _ZTv0_n40_N14PortableServer14ServantLocator12_ptrToObjRefEPKc @6587
    _ZTv0_n40_N14PortableServer14ServantManager12_ptrToObjRefEPKc @6588
    _ZTv0_n40_N14PortableServer16AdapterActivator12_ptrToObjRefEPKc @6589
    _ZTv0_n40_N14PortableServer16ServantActivator12_ptrToObjRefEPKc @6590
    _ZTv0_n40_N14PortableServer20_impl_ServantLocator9_dispatchER14omniCallHandle @6591
    _ZTv0_n40_N14PortableServer20_impl_ServantManager9_dispatchER14omniCallHandle @6592
    _ZTv0_n40_N14PortableServer22_impl_AdapterActivator9_dispatchER14omniCallHandle @6593
    _ZTv0_n40_N14PortableServer22_impl_ServantActivator9_dispatchER14omniCallHandle @6594
    _ZTv0_n40_N14PortableServer22_objref_ServantLocator12_ptrToObjRefEPKc @6595
    _ZTv0_n40_N14PortableServer22_objref_ServantManager12_ptrToObjRefEPKc @6596
    _ZTv0_n40_N14PortableServer24_objref_AdapterActivator12_ptrToObjRefEPKc @6597
    _ZTv0_n40_N14PortableServer24_objref_ServantActivator12_ptrToObjRefEPKc @6598
    _ZTv0_n40_N29_impl_CORBA_InitialReferences9_dispatchER14omniCallHandle @6599
    _ZTv0_n40_N9CosNaming19_impl_NamingContext9_dispatchER14omniCallHandle @6600
    _ZTv0_n40_N9CosNaming21_impl_BindingIterator9_dispatchER14omniCallHandle @6601
    _ZTv0_n40_N9CosNaming22_impl_NamingContextExt9_dispatchER14omniCallHandle @6602
    _ZTv0_n44_N14PortableServer11ServantBase8_add_refEv @6603
    _ZTv0_n48_N14PortableServer11ServantBase11_remove_refEv @6604
    _ZTv0_n48_N14PortableServer24_objref_AdapterActivator15unknown_adapterEPNS_3POAEPKc @6605
    _ZTv0_n52_N14PortableServer22_objref_ServantLocator9preinvokeERKNS_8ObjectIdEPNS_3POAEPKcRPv @6606
    _ZTv0_n52_N14PortableServer24_objref_ServantActivator9incarnateERKNS_8ObjectIdEPNS_3POAE @6607
    _ZTv0_n56_N14PortableServer22_objref_ServantLocator10postinvokeERKNS_8ObjectIdEPNS_3POAEPKcPvPNS_11ServantBaseE @6608
    _ZTv0_n56_N14PortableServer24_objref_ServantActivator11etherealizeERKNS_8ObjectIdEPNS_3POAEPNS_11ServantBaseEbb @6609
    _ZTv0_n60_N9CosNaming22_impl_NamingContextExt9_dispatchER14omniCallHandle @6610
    _ZTv0_n64_N9CosNaming22_impl_NamingContextExt15_ptrToInterfaceEPKc @6611
    _ZTv0_n68_N9CosNaming22_impl_NamingContextExt18_mostDerivedRepoIdEv @6612
    _ZZN4omni29omni_giopEndpoint_initialiser6attachEvE4once @6613 DATA
    _ZdvRKN5CORBA5FixedES2_ @6614
    _ZeqRKN5CORBA5FixedES2_ @6615
    _ZgeRKN5CORBA5FixedES2_ @6616
    _ZgtRKN5CORBA5FixedES2_ @6617
    _ZlSRN9CosNaming11BindingTypeER9cdrStream @6618
    _ZlSRN9CosNaming13NamingContext14NotFoundReasonER9cdrStream @6619
    _ZlSReR9cdrStream @6620
    _ZlSRlR9cdrStream @6621
    _ZlSRmR9cdrStream @6622
    _ZlSRsR9cdrStream @6623
    _ZlSRtR9cdrStream @6624
    _ZleRKN5CORBA5FixedES2_ @6625
    _ZltRKN5CORBA5FixedES2_ @6626
    _ZmiRKN5CORBA5FixedES2_ @6627
    _ZmlRKN5CORBA5FixedES2_ @6628
    _ZneRKN5CORBA5FixedES2_ @6629
    _ZplRKN5CORBA5FixedES2_ @6630
    _ZrSN9CosNaming11BindingTypeER9cdrStream @6631
    _ZrSN9CosNaming13NamingContext14NotFoundReasonER9cdrStream @6632
    _ZrSeR9cdrStream @6633
    _ZrSlR9cdrStream @6634
    _ZrSmR9cdrStream @6635
    _ZrSsR9cdrStream @6636
    _ZrStR9cdrStream @6637
    _omni_CS_8859_1_should_be_linked_but_is_not_ @6638 DATA
    _omni_CS_UTF_16_should_be_linked_but_is_not_ @6639 DATA
    _omni_CS_UTF_8_should_be_linked_but_is_not_ @6640 DATA
    _omni_tcpActive_should_be_linked_but_is_not_ @6641 DATA
    _omni_tcpAddress_should_be_linked_but_is_not_ @6642 DATA
    _omni_tcpConnection_should_be_linked_but_is_not_ @6643 DATA
    _omni_tcpEndpoint_should_be_linked_but_is_not_ @6644 DATA
    _omni_tcpTransportImpl_should_be_linked_but_is_not_ @6645 DATA
    strncasecmp @6646
