EXPORTS
    _CRT_MT @1 DATA
    _Z21_omni_set_NameServicePN5CORBA6ObjectE @2
    _Z24_CORBA_bad_param_freebufv @3
    _Z24_CORBA_bound_check_errorv @4
    _Z25_CORBA_invoked_nil_objrefv @5
    _Z29_CORBA_invoked_nil_pseudo_refv @6
    _Z31_CORBA_new_operator_return_nullv @7
    _Z32_CORBA_use_nil_ptr_as_nil_objrefv @8
    _Z32_omni_callSystemExceptionHandlerP10omniObjRefmRKN5CORBA15SystemExceptionE @9
    _Z35_omni_callTransientExceptionHandlerP10omniObjRefmRKN5CORBA9TRANSIENTE @10
    _Z37_omni_callCommFailureExceptionHandlerP10omniObjRefmRKN5CORBA12COMM_FAILUREE @11
    _Z39_CORBA_use_nil_ptr_as_nil_pseudo_objrefPKc @12
    _Z41_CORBA_marshal_sequence_range_check_errorR9cdrStream @13
    _ZN10omniObjKeyD1Ev @14
    _ZN10omniObjRef10_real_is_aEPKc @15
    _ZN10omniObjRef10_unMarshalEPKcR9cdrStream @16
    _ZN10omniObjRef11_fromStringEPKc @17
    _ZN10omniObjRef11_realNarrowEPKc @18
    _ZN10omniObjRef12_remote_is_aEPKc @19
    _ZN10omniObjRef12_setIdentityEP12omniIdentity @20
    _ZN10omniObjRef14_locateRequestEv @21
    _ZN10omniObjRef15__is_equivalentEPS_ @22
    _ZN10omniObjRef15_enableShortcutEP11omniServantPKb @23
    _ZN10omniObjRef16_uncheckedNarrowEPKc @24
    _ZN10omniObjRef19_localServantTargetEv @25
    _ZN10omniObjRef20_remote_non_existentEv @26
    _ZN10omniObjRef23_systemExceptionHandlerEPvS0_ @27
    _ZN10omniObjRef23_systemExceptionHandlerERPv @28
    _ZN10omniObjRef26_transientExceptionHandlerEPvS0_ @29
    _ZN10omniObjRef26_transientExceptionHandlerERPv @30
    _ZN10omniObjRef28_assertExistsAndTypeVerifiedEv @31
    _ZN10omniObjRef28_commFailureExceptionHandlerEPvS0_ @32
    _ZN10omniObjRef28_commFailureExceptionHandlerERPv @33
    _ZN10omniObjRef6__hashEm @34
    _ZN10omniObjRef7_getIOREv @35
    _ZN10omniObjRef7_invokeER18omniCallDescriptorb @36
    _ZN10omniObjRef8_disableEv @37
    _ZN10omniObjRef8_marshalEPS_R9cdrStream @38
    _ZN10omniObjRef9_shutdownEv @39
    _ZN10omniObjRef9_toStringEPS_ @40
    _ZN10omniObjRefC1EPKcP7omniIORP12omniIdentityb @41
    _ZN10omniObjRefC1Ev @42
    _ZN10omniObjRefC2EPKcP7omniIORP12omniIdentityb @43
    _ZN10omniObjRefC2Ev @44
    _ZN10omniObjRefD0Ev @45
    _ZN10omniObjRefD1Ev @46
    _ZN10omniObjRefD2Ev @47
    _ZN10omniOrbORB11do_shutdownEb @48
    _ZN10omniOrbORB11run_timeoutEmm @49
    _ZN10omniOrbORB12_ptrToObjRefEPKc @50
    _ZN10omniOrbORB12perform_workEv @51
    _ZN10omniOrbORB12work_pendingEv @52
    _ZN10omniOrbORB13_non_existentEv @53
    _ZN10omniOrbORB13all_destroyedEv @54
    _ZN10omniOrbORB15actual_shutdownEv @55
    _ZN10omniOrbORB16_NP_decrRefCountEv @56
    _ZN10omniOrbORB16_NP_incrRefCountEv @57
    _ZN10omniOrbORB16object_to_stringEPN5CORBA6ObjectE @58
    _ZN10omniOrbORB16string_to_objectEPKc @59
    _ZN10omniOrbORB21list_initial_servicesEv @60
    _ZN10omniOrbORB26register_initial_referenceEPKcPN5CORBA6ObjectE @61
    _ZN10omniOrbORB26resolve_initial_referencesEPKc @62
    _ZN10omniOrbORB2idEv @63
    _ZN10omniOrbORB3runEv @64
    _ZN10omniOrbORB7destroyEv @65
    _ZN10omniOrbORB8shutdownEb @66
    _ZN10omniOrbORBC1Ei @67
    _ZN10omniOrbORBC2Ei @68
    _ZN10omniOrbORBD0Ev @69
    _ZN10omniOrbORBD1Ev @70
    _ZN10omniOrbORBD2Ev @71
    _ZN10omniPolicy19LocalShortcutPolicy10_PD_repoIdE @72 DATA
    _ZN10omniPolicy19LocalShortcutPolicy10_duplicateEPS0_ @73
    _ZN10omniPolicy19LocalShortcutPolicy12_ptrToObjRefEPKc @74
    _ZN10omniPolicy19LocalShortcutPolicy4_nilEv @75
    _ZN10omniPolicy19LocalShortcutPolicy4copyEv @76
    _ZN10omniPolicy19LocalShortcutPolicy5valueEv @77
    _ZN10omniPolicy19LocalShortcutPolicy7_narrowEPN5CORBA6ObjectE @78
    _ZN10omniPolicy19LocalShortcutPolicyD0Ev @79
    _ZN10omniPolicy19LocalShortcutPolicyD1Ev @80
    _ZN10omniPolicy19LocalShortcutPolicyD2Ev @81
    _ZN10omnivectorIP10omniObjRefED1Ev @82
    _ZN10omnivectorIP17omniObjTableEntryED1Ev @83
    _ZN10omnivectorIPKcED1Ev @84
    _ZN10omnivectorIPN4omni10giopStrandEED1Ev @85
    _ZN10omnivectorIPN4omni11giopAddressEE9push_backERKS2_ @86
    _ZN10omnivectorIPN4omni11giopAddressEED1Ev @87
    _ZN10omnivectorIPN4omni12giopEndpointEED1Ev @88
    _ZN10omnivectorIPN4omni20giopActiveCollectionEED1Ev @89
    _ZN10omnivectorImED1Ev @90
    _ZN11BiDirPolicy19BidirectionalPolicy10_PD_repoIdE @91 DATA
    _ZN11BiDirPolicy19BidirectionalPolicy10_duplicateEPS0_ @92
    _ZN11BiDirPolicy19BidirectionalPolicy12_ptrToObjRefEPKc @93
    _ZN11BiDirPolicy19BidirectionalPolicy4_nilEv @94
    _ZN11BiDirPolicy19BidirectionalPolicy4copyEv @95
    _ZN11BiDirPolicy19BidirectionalPolicy5valueEv @96
    _ZN11BiDirPolicy19BidirectionalPolicy7_narrowEPN5CORBA6ObjectE @97
    _ZN11BiDirPolicy19BidirectionalPolicyD0Ev @98
    _ZN11BiDirPolicy19BidirectionalPolicyD1Ev @99
    _ZN11BiDirPolicy19BidirectionalPolicyD2Ev @100
    _ZN11omniCurrent10thread_keyE @101 DATA
    _ZN11omniCurrent4initEv @102
    _ZN11omniCurrentC1EP11omni_thread @103
    _ZN11omniCurrentC2EP11omni_thread @104
    _ZN11omniCurrentD0Ev @105
    _ZN11omniCurrentD1Ev @106
    _ZN11omniCurrentD2Ev @107
    _ZN11omniServant11_remove_refEv @108
    _ZN11omniServant13_non_existentEv @109
    _ZN11omniServant14_addActivationEP17omniObjTableEntry @110
    _ZN11omniServant15_ptrToInterfaceEPKc @111
    _ZN11omniServant17_removeActivationEP17omniObjTableEntry @112
    _ZN11omniServant18_mostDerivedRepoIdEv @113
    _ZN11omniServant5_is_aEPKc @114
    _ZN11omniServant8_add_refEv @115
    _ZN11omniServant9_dispatchER14omniCallHandle @116
    _ZN11omniServant9_downcastEv @117
    _ZN11omniServantD0Ev @118
    _ZN11omniServantD1Ev @119
    _ZN11omniServantD2Ev @120
    _ZN11omni_rmutex4lockEv @121
    _ZN11omni_rmutex6unlockEv @122
    _ZN11omni_rmutexC1Ev @123
    _ZN11omni_rmutexC2Ev @124
    _ZN11omni_rmutexD1Ev @125
    _ZN11omni_rmutexD2Ev @126
    _ZN11omni_thread14run_undetachedEPv @127
    _ZN11omni_thread3runEPv @128
    _ZN11omni_thread7value_tD0Ev @129
    _ZN11omni_thread7value_tD1Ev @130
    _ZN12omniIdentity10ptrToClassEPi @131
    _ZN12omniIdentity14identity_countE @132 DATA
    _ZN12omniIdentity19waitForLastIdentityEv @133
    _ZN12omniIdentity26lastIdentityHasBeenDeletedEv @134
    _ZN12omniIdentity8_classidE @135 DATA
    _ZN12omniIdentityD0Ev @136
    _ZN12omniIdentityD1Ev @137
    _ZN12omniIdentityD2Ev @138
    _ZN12omniObjTable12locateActiveEPKhimb @139
    _ZN12omniObjTable6locateEPKhimm @140
    _ZN12omniObjTable6resizeEv @141
    _ZN12omniObjTable8newEntryER10omniObjKey @142
    _ZN12omniObjTable8newEntryER10omniObjKeym @143
    _ZN12omniTaskLink3deqEv @144
    _ZN12omniTaskLink3enqERS_ @145
    _ZN12omniTaskLink8is_emptyERS_ @146
    _ZN13POA_CosNaming13NamingContextD0Ev @147
    _ZN13POA_CosNaming13NamingContextD1Ev @148
    _ZN13POA_CosNaming13NamingContextD2Ev @149
    _ZN13POA_CosNaming15BindingIteratorD0Ev @150
    _ZN13POA_CosNaming15BindingIteratorD1Ev @151
    _ZN13POA_CosNaming15BindingIteratorD2Ev @152
    _ZN13POA_CosNaming16NamingContextExtD0Ev @153
    _ZN13POA_CosNaming16NamingContextExtD1Ev @154
    _ZN13POA_CosNaming16NamingContextExtD2Ev @155
    _ZN14PortableServer10POAManager10_PD_repoIdE @156 DATA
    _ZN14PortableServer10POAManager10_duplicateEPS0_ @157
    _ZN14PortableServer10POAManager15AdapterInactive10_PD_repoIdE @158 DATA
    _ZN14PortableServer10POAManager15AdapterInactive13insertToAnyFnE @159 DATA
    _ZN14PortableServer10POAManager15AdapterInactive16insertToAnyFnNCPE @160 DATA
    _ZN14PortableServer10POAManager15AdapterInactive9_downcastEPKN5CORBA9ExceptionE @161
    _ZN14PortableServer10POAManager15AdapterInactive9_downcastEPN5CORBA9ExceptionE @162
    _ZN14PortableServer10POAManager15AdapterInactiveD0Ev @163
    _ZN14PortableServer10POAManager15AdapterInactiveD1Ev @164
    _ZN14PortableServer10POAManager15AdapterInactiveD2Ev @165
    _ZN14PortableServer10POAManager4_nilEv @166
    _ZN14PortableServer10POAManager7_narrowEPN5CORBA6ObjectE @167
    _ZN14PortableServer10POAManagerD0Ev @168
    _ZN14PortableServer10POAManagerD1Ev @169
    _ZN14PortableServer10POAManagerD2Ev @170
    _ZN14PortableServer10POA_Helper4_nilEv @171
    _ZN14PortableServer10POA_Helper6is_nilEPNS_3POAE @172
    _ZN14PortableServer10POA_Helper7releaseEPNS_3POAE @173
    _ZN14PortableServer10POA_Helper9duplicateEPNS_3POAE @174
    _ZN14PortableServer11ServantBase11_remove_refEv @175
    _ZN14PortableServer11ServantBase12_default_POAEv @176
    _ZN14PortableServer11ServantBase14_get_interfaceEv @177
    _ZN14PortableServer11ServantBase15_refcount_valueEv @178
    _ZN14PortableServer11ServantBase17_do_get_interfaceEv @179
    _ZN14PortableServer11ServantBase8_add_refEv @180
    _ZN14PortableServer11ServantBase8_do_thisEPKc @181
    _ZN14PortableServer11ServantBase9_downcastEv @182
    _ZN14PortableServer11ServantBaseD0Ev @183
    _ZN14PortableServer11ServantBaseD1Ev @184
    _ZN14PortableServer11ServantBaseD2Ev @185
    _ZN14PortableServer12ThreadPolicy10_PD_repoIdE @186 DATA
    _ZN14PortableServer12ThreadPolicy10_duplicateEPS0_ @187
    _ZN14PortableServer12ThreadPolicy12_ptrToObjRefEPKc @188
    _ZN14PortableServer12ThreadPolicy4_nilEv @189
    _ZN14PortableServer12ThreadPolicy4copyEv @190
    _ZN14PortableServer12ThreadPolicy5valueEv @191
    _ZN14PortableServer12ThreadPolicy7_narrowEPN5CORBA6ObjectE @192
    _ZN14PortableServer12ThreadPolicyD0Ev @193
    _ZN14PortableServer12ThreadPolicyD1Ev @194
    _ZN14PortableServer12ThreadPolicyD2Ev @195
    _ZN14PortableServer14ForwardRequest10_PD_repoIdE @196 DATA
    _ZN14PortableServer14ForwardRequest13insertToAnyFnE @197 DATA
    _ZN14PortableServer14ForwardRequest16insertToAnyFnNCPE @198 DATA
    _ZN14PortableServer14ForwardRequest9_downcastEPKN5CORBA9ExceptionE @199
    _ZN14PortableServer14ForwardRequest9_downcastEPN5CORBA9ExceptionE @200
    _ZN14PortableServer14ForwardRequestC1EPN5CORBA6ObjectE @201
    _ZN14PortableServer14ForwardRequestC1ERKS0_ @202
    _ZN14PortableServer14ForwardRequestC2EPN5CORBA6ObjectE @203
    _ZN14PortableServer14ForwardRequestC2ERKS0_ @204
    _ZN14PortableServer14ForwardRequestD0Ev @205
    _ZN14PortableServer14ForwardRequestD1Ev @206
    _ZN14PortableServer14ForwardRequestD2Ev @207
    _ZN14PortableServer14ForwardRequestaSERKS0_ @208
    _ZN14PortableServer14ForwardRequestlSER9cdrStream @209
    _ZN14PortableServer14LifespanPolicy10_PD_repoIdE @210 DATA
    _ZN14PortableServer14LifespanPolicy10_duplicateEPS0_ @211
    _ZN14PortableServer14LifespanPolicy12_ptrToObjRefEPKc @212
    _ZN14PortableServer14LifespanPolicy4_nilEv @213
    _ZN14PortableServer14LifespanPolicy4copyEv @214
    _ZN14PortableServer14LifespanPolicy5valueEv @215
    _ZN14PortableServer14LifespanPolicy7_narrowEPN5CORBA6ObjectE @216
    _ZN14PortableServer14LifespanPolicyD0Ev @217
    _ZN14PortableServer14LifespanPolicyD1Ev @218
    _ZN14PortableServer14LifespanPolicyD2Ev @219
    _ZN14PortableServer14ServantLocator10_PD_repoIdE @220 DATA
    _ZN14PortableServer14ServantLocator10_duplicateEPS0_ @221
    _ZN14PortableServer14ServantLocator12_ptrToObjRefEPKc @222
    _ZN14PortableServer14ServantLocator17_unchecked_narrowEPN5CORBA6ObjectE @223
    _ZN14PortableServer14ServantLocator4_nilEv @224
    _ZN14PortableServer14ServantLocator7_narrowEPN5CORBA6ObjectE @225
    _ZN14PortableServer14ServantLocatorC1Ev @226
    _ZN14PortableServer14ServantLocatorC2Ev @227
    _ZN14PortableServer14ServantLocatorD0Ev @228
    _ZN14PortableServer14ServantLocatorD1Ev @229
    _ZN14PortableServer14ServantLocatorD2Ev @230
    _ZN14PortableServer14ServantManager10_PD_repoIdE @231 DATA
    _ZN14PortableServer14ServantManager10_duplicateEPS0_ @232
    _ZN14PortableServer14ServantManager12_ptrToObjRefEPKc @233
    _ZN14PortableServer14ServantManager16_NP_decrRefCountEv @234
    _ZN14PortableServer14ServantManager16_NP_incrRefCountEv @235
    _ZN14PortableServer14ServantManager17_unchecked_narrowEPN5CORBA6ObjectE @236
    _ZN14PortableServer14ServantManager4_nilEv @237
    _ZN14PortableServer14ServantManager7_narrowEPN5CORBA6ObjectE @238
    _ZN14PortableServer14ServantManagerC1Ev @239
    _ZN14PortableServer14ServantManagerC2Ev @240
    _ZN14PortableServer14ServantManagerD0Ev @241
    _ZN14PortableServer14ServantManagerD1Ev @242
    _ZN14PortableServer14ServantManagerD2Ev @243
    _ZN14PortableServer16AdapterActivator10_PD_repoIdE @244 DATA
    _ZN14PortableServer16AdapterActivator10_duplicateEPS0_ @245
    _ZN14PortableServer16AdapterActivator12_ptrToObjRefEPKc @246
    _ZN14PortableServer16AdapterActivator16_NP_decrRefCountEv @247
    _ZN14PortableServer16AdapterActivator16_NP_incrRefCountEv @248
    _ZN14PortableServer16AdapterActivator17_unchecked_narrowEPN5CORBA6ObjectE @249
    _ZN14PortableServer16AdapterActivator4_nilEv @250
    _ZN14PortableServer16AdapterActivator7_narrowEPN5CORBA6ObjectE @251
    _ZN14PortableServer16AdapterActivatorC1Ev @252
    _ZN14PortableServer16AdapterActivatorC2Ev @253
    _ZN14PortableServer16AdapterActivatorD0Ev @254
    _ZN14PortableServer16AdapterActivatorD1Ev @255
    _ZN14PortableServer16AdapterActivatorD2Ev @256
    _ZN14PortableServer16ServantActivator10_PD_repoIdE @257 DATA
    _ZN14PortableServer16ServantActivator10_duplicateEPS0_ @258
    _ZN14PortableServer16ServantActivator12_ptrToObjRefEPKc @259
    _ZN14PortableServer16ServantActivator17_unchecked_narrowEPN5CORBA6ObjectE @260
    _ZN14PortableServer16ServantActivator4_nilEv @261
    _ZN14PortableServer16ServantActivator7_narrowEPN5CORBA6ObjectE @262
    _ZN14PortableServer16ServantActivatorC1Ev @263
    _ZN14PortableServer16ServantActivatorC2Ev @264
    _ZN14PortableServer16ServantActivatorD0Ev @265
    _ZN14PortableServer16ServantActivatorD1Ev @266
    _ZN14PortableServer16ServantActivatorD2Ev @267
    _ZN14PortableServer18IdAssignmentPolicy10_PD_repoIdE @268 DATA
    _ZN14PortableServer18IdAssignmentPolicy10_duplicateEPS0_ @269
    _ZN14PortableServer18IdAssignmentPolicy12_ptrToObjRefEPKc @270
    _ZN14PortableServer18IdAssignmentPolicy4_nilEv @271
    _ZN14PortableServer18IdAssignmentPolicy4copyEv @272
    _ZN14PortableServer18IdAssignmentPolicy5valueEv @273
    _ZN14PortableServer18IdAssignmentPolicy7_narrowEPN5CORBA6ObjectE @274
    _ZN14PortableServer18IdAssignmentPolicyD0Ev @275
    _ZN14PortableServer18IdAssignmentPolicyD1Ev @276
    _ZN14PortableServer18IdAssignmentPolicyD2Ev @277
    _ZN14PortableServer18IdUniquenessPolicy10_PD_repoIdE @278 DATA
    _ZN14PortableServer18IdUniquenessPolicy10_duplicateEPS0_ @279
    _ZN14PortableServer18IdUniquenessPolicy12_ptrToObjRefEPKc @280
    _ZN14PortableServer18IdUniquenessPolicy4_nilEv @281
    _ZN14PortableServer18IdUniquenessPolicy4copyEv @282
    _ZN14PortableServer18IdUniquenessPolicy5valueEv @283
    _ZN14PortableServer18IdUniquenessPolicy7_narrowEPN5CORBA6ObjectE @284
    _ZN14PortableServer18IdUniquenessPolicyD0Ev @285
    _ZN14PortableServer18IdUniquenessPolicyD1Ev @286
    _ZN14PortableServer18IdUniquenessPolicyD2Ev @287
    _ZN14PortableServer18ObjectId_to_stringERKNS_8ObjectIdE @288
    _ZN14PortableServer18string_to_ObjectIdEPKc @289
    _ZN14PortableServer19ObjectId_to_wstringERKNS_8ObjectIdE @290
    _ZN14PortableServer19_pof_ServantLocator9newObjRefEP7omniIORP12omniIdentity @291
    _ZN14PortableServer19_pof_ServantLocatorD0Ev @292
    _ZN14PortableServer19_pof_ServantLocatorD1Ev @293
    _ZN14PortableServer19_pof_ServantLocatorD2Ev @294
    _ZN14PortableServer19_pof_ServantManager9newObjRefEP7omniIORP12omniIdentity @295
    _ZN14PortableServer19_pof_ServantManagerD0Ev @296
    _ZN14PortableServer19_pof_ServantManagerD1Ev @297
    _ZN14PortableServer19_pof_ServantManagerD2Ev @298
    _ZN14PortableServer19wstring_to_ObjectIdEPKw @299
    _ZN14PortableServer20_impl_ServantLocator15_ptrToInterfaceEPKc @300
    _ZN14PortableServer20_impl_ServantLocator18_mostDerivedRepoIdEv @301
    _ZN14PortableServer20_impl_ServantLocator9_dispatchER14omniCallHandle @302
    _ZN14PortableServer20_impl_ServantLocatorD0Ev @303
    _ZN14PortableServer20_impl_ServantLocatorD1Ev @304
    _ZN14PortableServer20_impl_ServantLocatorD2Ev @305
    _ZN14PortableServer20_impl_ServantManager15_ptrToInterfaceEPKc @306
    _ZN14PortableServer20_impl_ServantManager18_mostDerivedRepoIdEv @307
    _ZN14PortableServer20_impl_ServantManager9_dispatchER14omniCallHandle @308
    _ZN14PortableServer20_impl_ServantManagerD0Ev @309
    _ZN14PortableServer20_impl_ServantManagerD1Ev @310
    _ZN14PortableServer20_impl_ServantManagerD2Ev @311
    _ZN14PortableServer21ServantLocator_Helper13marshalObjRefEPNS_14ServantLocatorER9cdrStream @312
    _ZN14PortableServer21ServantLocator_Helper15unmarshalObjRefER9cdrStream @313
    _ZN14PortableServer21ServantLocator_Helper4_nilEv @314
    _ZN14PortableServer21ServantLocator_Helper6is_nilEPNS_14ServantLocatorE @315
    _ZN14PortableServer21ServantLocator_Helper7releaseEPNS_14ServantLocatorE @316
    _ZN14PortableServer21ServantLocator_Helper9duplicateEPNS_14ServantLocatorE @317
    _ZN14PortableServer21ServantManager_Helper13marshalObjRefEPNS_14ServantManagerER9cdrStream @318
    _ZN14PortableServer21ServantManager_Helper15unmarshalObjRefER9cdrStream @319
    _ZN14PortableServer21ServantManager_Helper4_nilEv @320
    _ZN14PortableServer21ServantManager_Helper6is_nilEPNS_14ServantManagerE @321
    _ZN14PortableServer21ServantManager_Helper7releaseEPNS_14ServantManagerE @322
    _ZN14PortableServer21ServantManager_Helper9duplicateEPNS_14ServantManagerE @323
    _ZN14PortableServer21_pof_AdapterActivator9newObjRefEP7omniIORP12omniIdentity @324
    _ZN14PortableServer21_pof_AdapterActivatorD0Ev @325
    _ZN14PortableServer21_pof_AdapterActivatorD1Ev @326
    _ZN14PortableServer21_pof_AdapterActivatorD2Ev @327
    _ZN14PortableServer21_pof_ServantActivator9newObjRefEP7omniIORP12omniIdentity @328
    _ZN14PortableServer21_pof_ServantActivatorD0Ev @329
    _ZN14PortableServer21_pof_ServantActivatorD1Ev @330
    _ZN14PortableServer21_pof_ServantActivatorD2Ev @331
    _ZN14PortableServer22ServantRetentionPolicy10_PD_repoIdE @332 DATA
    _ZN14PortableServer22ServantRetentionPolicy10_duplicateEPS0_ @333
    _ZN14PortableServer22ServantRetentionPolicy12_ptrToObjRefEPKc @334
    _ZN14PortableServer22ServantRetentionPolicy4_nilEv @335
    _ZN14PortableServer22ServantRetentionPolicy4copyEv @336
    _ZN14PortableServer22ServantRetentionPolicy5valueEv @337
    _ZN14PortableServer22ServantRetentionPolicy7_narrowEPN5CORBA6ObjectE @338
    _ZN14PortableServer22ServantRetentionPolicyD0Ev @339
    _ZN14PortableServer22ServantRetentionPolicyD1Ev @340
    _ZN14PortableServer22ServantRetentionPolicyD2Ev @341
    _ZN14PortableServer22_impl_AdapterActivator15_ptrToInterfaceEPKc @342
    _ZN14PortableServer22_impl_AdapterActivator18_mostDerivedRepoIdEv @343
    _ZN14PortableServer22_impl_AdapterActivator9_dispatchER14omniCallHandle @344
    _ZN14PortableServer22_impl_AdapterActivatorD0Ev @345
    _ZN14PortableServer22_impl_AdapterActivatorD1Ev @346
    _ZN14PortableServer22_impl_AdapterActivatorD2Ev @347
    _ZN14PortableServer22_impl_ServantActivator15_ptrToInterfaceEPKc @348
    _ZN14PortableServer22_impl_ServantActivator18_mostDerivedRepoIdEv @349
    _ZN14PortableServer22_impl_ServantActivator9_dispatchER14omniCallHandle @350
    _ZN14PortableServer22_impl_ServantActivatorD0Ev @351
    _ZN14PortableServer22_impl_ServantActivatorD1Ev @352
    _ZN14PortableServer22_impl_ServantActivatorD2Ev @353
    _ZN14PortableServer22_objref_ServantLocator10postinvokeERKNS_8ObjectIdEPNS_3POAEPKcPvPNS_11ServantBaseE @354
    _ZN14PortableServer22_objref_ServantLocator12_ptrToObjRefEPKc @355
    _ZN14PortableServer22_objref_ServantLocator15_enableShortcutEP11omniServantPKb @356
    _ZN14PortableServer22_objref_ServantLocator9preinvokeERKNS_8ObjectIdEPNS_3POAEPKcRPv @357
    _ZN14PortableServer22_objref_ServantLocatorC1EP7omniIORP12omniIdentity @358
    _ZN14PortableServer22_objref_ServantLocatorC2EP7omniIORP12omniIdentity @359
    _ZN14PortableServer22_objref_ServantLocatorD0Ev @360
    _ZN14PortableServer22_objref_ServantLocatorD1Ev @361
    _ZN14PortableServer22_objref_ServantLocatorD2Ev @362
    _ZN14PortableServer22_objref_ServantManager12_ptrToObjRefEPKc @363
    _ZN14PortableServer22_objref_ServantManagerC1EP7omniIORP12omniIdentity @364
    _ZN14PortableServer22_objref_ServantManagerC2EP7omniIORP12omniIdentity @365
    _ZN14PortableServer22_objref_ServantManagerD0Ev @366
    _ZN14PortableServer22_objref_ServantManagerD1Ev @367
    _ZN14PortableServer22_objref_ServantManagerD2Ev @368
    _ZN14PortableServer23AdapterActivator_Helper13marshalObjRefEPNS_16AdapterActivatorER9cdrStream @369
    _ZN14PortableServer23AdapterActivator_Helper15unmarshalObjRefER9cdrStream @370
    _ZN14PortableServer23AdapterActivator_Helper4_nilEv @371
    _ZN14PortableServer23AdapterActivator_Helper6is_nilEPNS_16AdapterActivatorE @372
    _ZN14PortableServer23AdapterActivator_Helper7releaseEPNS_16AdapterActivatorE @373
    _ZN14PortableServer23AdapterActivator_Helper9duplicateEPNS_16AdapterActivatorE @374
    _ZN14PortableServer23RequestProcessingPolicy10_PD_repoIdE @375 DATA
    _ZN14PortableServer23RequestProcessingPolicy10_duplicateEPS0_ @376
    _ZN14PortableServer23RequestProcessingPolicy12_ptrToObjRefEPKc @377
    _ZN14PortableServer23RequestProcessingPolicy4_nilEv @378
    _ZN14PortableServer23RequestProcessingPolicy4copyEv @379
    _ZN14PortableServer23RequestProcessingPolicy5valueEv @380
    _ZN14PortableServer23RequestProcessingPolicy7_narrowEPN5CORBA6ObjectE @381
    _ZN14PortableServer23RequestProcessingPolicyD0Ev @382
    _ZN14PortableServer23RequestProcessingPolicyD1Ev @383
    _ZN14PortableServer23RequestProcessingPolicyD2Ev @384
    _ZN14PortableServer23ServantActivator_Helper13marshalObjRefEPNS_16ServantActivatorER9cdrStream @385
    _ZN14PortableServer23ServantActivator_Helper15unmarshalObjRefER9cdrStream @386
    _ZN14PortableServer23ServantActivator_Helper4_nilEv @387
    _ZN14PortableServer23ServantActivator_Helper6is_nilEPNS_16ServantActivatorE @388
    _ZN14PortableServer23ServantActivator_Helper7releaseEPNS_16ServantActivatorE @389
    _ZN14PortableServer23ServantActivator_Helper9duplicateEPNS_16ServantActivatorE @390
    _ZN14PortableServer24ImplicitActivationPolicy10_PD_repoIdE @391 DATA
    _ZN14PortableServer24ImplicitActivationPolicy10_duplicateEPS0_ @392
    _ZN14PortableServer24ImplicitActivationPolicy12_ptrToObjRefEPKc @393
    _ZN14PortableServer24ImplicitActivationPolicy4_nilEv @394
    _ZN14PortableServer24ImplicitActivationPolicy4copyEv @395
    _ZN14PortableServer24ImplicitActivationPolicy5valueEv @396
    _ZN14PortableServer24ImplicitActivationPolicy7_narrowEPN5CORBA6ObjectE @397
    _ZN14PortableServer24ImplicitActivationPolicyD0Ev @398
    _ZN14PortableServer24ImplicitActivationPolicyD1Ev @399
    _ZN14PortableServer24ImplicitActivationPolicyD2Ev @400
    _ZN14PortableServer24_objref_AdapterActivator12_ptrToObjRefEPKc @401
    _ZN14PortableServer24_objref_AdapterActivator15unknown_adapterEPNS_3POAEPKc @402
    _ZN14PortableServer24_objref_AdapterActivatorC1EP7omniIORP12omniIdentity @403
    _ZN14PortableServer24_objref_AdapterActivatorC2EP7omniIORP12omniIdentity @404
    _ZN14PortableServer24_objref_AdapterActivatorD0Ev @405
    _ZN14PortableServer24_objref_AdapterActivatorD1Ev @406
    _ZN14PortableServer24_objref_AdapterActivatorD2Ev @407
    _ZN14PortableServer24_objref_ServantActivator11etherealizeERKNS_8ObjectIdEPNS_3POAEPNS_11ServantBaseEbb @408
    _ZN14PortableServer24_objref_ServantActivator12_ptrToObjRefEPKc @409
    _ZN14PortableServer24_objref_ServantActivator15_enableShortcutEP11omniServantPKb @410
    _ZN14PortableServer24_objref_ServantActivator9incarnateERKNS_8ObjectIdEPNS_3POAE @411
    _ZN14PortableServer24_objref_ServantActivatorC1EP7omniIORP12omniIdentity @412
    _ZN14PortableServer24_objref_ServantActivatorC2EP7omniIORP12omniIdentity @413
    _ZN14PortableServer24_objref_ServantActivatorD0Ev @414
    _ZN14PortableServer24_objref_ServantActivatorD1Ev @415
    _ZN14PortableServer24_objref_ServantActivatorD2Ev @416
    _ZN14PortableServer3POA10_PD_repoIdE @417 DATA
    _ZN14PortableServer3POA10_duplicateEPS0_ @418
    _ZN14PortableServer3POA11WrongPolicy10_PD_repoIdE @419 DATA
    _ZN14PortableServer3POA11WrongPolicy13insertToAnyFnE @420 DATA
    _ZN14PortableServer3POA11WrongPolicy16insertToAnyFnNCPE @421 DATA
    _ZN14PortableServer3POA11WrongPolicy9_downcastEPKN5CORBA9ExceptionE @422
    _ZN14PortableServer3POA11WrongPolicy9_downcastEPN5CORBA9ExceptionE @423
    _ZN14PortableServer3POA11WrongPolicyD0Ev @424
    _ZN14PortableServer3POA11WrongPolicyD1Ev @425
    _ZN14PortableServer3POA11WrongPolicyD2Ev @426
    _ZN14PortableServer3POA12WrongAdapter10_PD_repoIdE @427 DATA
    _ZN14PortableServer3POA12WrongAdapter13insertToAnyFnE @428 DATA
    _ZN14PortableServer3POA12WrongAdapter16insertToAnyFnNCPE @429 DATA
    _ZN14PortableServer3POA12WrongAdapter9_downcastEPKN5CORBA9ExceptionE @430
    _ZN14PortableServer3POA12WrongAdapter9_downcastEPN5CORBA9ExceptionE @431
    _ZN14PortableServer3POA12WrongAdapterD0Ev @432
    _ZN14PortableServer3POA12WrongAdapterD1Ev @433
    _ZN14PortableServer3POA12WrongAdapterD2Ev @434
    _ZN14PortableServer3POA13InvalidPolicy10_PD_repoIdE @435 DATA
    _ZN14PortableServer3POA13InvalidPolicy13insertToAnyFnE @436 DATA
    _ZN14PortableServer3POA13InvalidPolicy16insertToAnyFnNCPE @437 DATA
    _ZN14PortableServer3POA13InvalidPolicy9_downcastEPKN5CORBA9ExceptionE @438
    _ZN14PortableServer3POA13InvalidPolicy9_downcastEPN5CORBA9ExceptionE @439
    _ZN14PortableServer3POA13InvalidPolicyC1ERKS1_ @440
    _ZN14PortableServer3POA13InvalidPolicyC1Et @441
    _ZN14PortableServer3POA13InvalidPolicyC2ERKS1_ @442
    _ZN14PortableServer3POA13InvalidPolicyC2Et @443
    _ZN14PortableServer3POA13InvalidPolicyD0Ev @444
    _ZN14PortableServer3POA13InvalidPolicyD1Ev @445
    _ZN14PortableServer3POA13InvalidPolicyD2Ev @446
    _ZN14PortableServer3POA13InvalidPolicyaSERKS1_ @447
    _ZN14PortableServer3POA13InvalidPolicylSER9cdrStream @448
    _ZN14PortableServer3POA13_the_root_poaEv @449
    _ZN14PortableServer3POA15AdapterInactive10_PD_repoIdE @450 DATA
    _ZN14PortableServer3POA15AdapterInactive13insertToAnyFnE @451 DATA
    _ZN14PortableServer3POA15AdapterInactive16insertToAnyFnNCPE @452 DATA
    _ZN14PortableServer3POA15AdapterInactive9_downcastEPKN5CORBA9ExceptionE @453
    _ZN14PortableServer3POA15AdapterInactive9_downcastEPN5CORBA9ExceptionE @454
    _ZN14PortableServer3POA15AdapterInactiveD0Ev @455
    _ZN14PortableServer3POA15AdapterInactiveD1Ev @456
    _ZN14PortableServer3POA15AdapterInactiveD2Ev @457
    _ZN14PortableServer3POA15ObjectNotActive10_PD_repoIdE @458 DATA
    _ZN14PortableServer3POA15ObjectNotActive13insertToAnyFnE @459 DATA
    _ZN14PortableServer3POA15ObjectNotActive16insertToAnyFnNCPE @460 DATA
    _ZN14PortableServer3POA15ObjectNotActive9_downcastEPKN5CORBA9ExceptionE @461
    _ZN14PortableServer3POA15ObjectNotActive9_downcastEPN5CORBA9ExceptionE @462
    _ZN14PortableServer3POA15ObjectNotActiveD0Ev @463
    _ZN14PortableServer3POA15ObjectNotActiveD1Ev @464
    _ZN14PortableServer3POA15ObjectNotActiveD2Ev @465
    _ZN14PortableServer3POA16ServantNotActive10_PD_repoIdE @466 DATA
    _ZN14PortableServer3POA16ServantNotActive13insertToAnyFnE @467 DATA
    _ZN14PortableServer3POA16ServantNotActive16insertToAnyFnNCPE @468 DATA
    _ZN14PortableServer3POA16ServantNotActive9_downcastEPKN5CORBA9ExceptionE @469
    _ZN14PortableServer3POA16ServantNotActive9_downcastEPN5CORBA9ExceptionE @470
    _ZN14PortableServer3POA16ServantNotActiveD0Ev @471
    _ZN14PortableServer3POA16ServantNotActiveD1Ev @472
    _ZN14PortableServer3POA16ServantNotActiveD2Ev @473
    _ZN14PortableServer3POA18AdapterNonExistent10_PD_repoIdE @474 DATA
    _ZN14PortableServer3POA18AdapterNonExistent13insertToAnyFnE @475 DATA
    _ZN14PortableServer3POA18AdapterNonExistent16insertToAnyFnNCPE @476 DATA
    _ZN14PortableServer3POA18AdapterNonExistent9_downcastEPKN5CORBA9ExceptionE @477
    _ZN14PortableServer3POA18AdapterNonExistent9_downcastEPN5CORBA9ExceptionE @478
    _ZN14PortableServer3POA18AdapterNonExistentD0Ev @479
    _ZN14PortableServer3POA18AdapterNonExistentD1Ev @480
    _ZN14PortableServer3POA18AdapterNonExistentD2Ev @481
    _ZN14PortableServer3POA19ObjectAlreadyActive10_PD_repoIdE @482 DATA
    _ZN14PortableServer3POA19ObjectAlreadyActive13insertToAnyFnE @483 DATA
    _ZN14PortableServer3POA19ObjectAlreadyActive16insertToAnyFnNCPE @484 DATA
    _ZN14PortableServer3POA19ObjectAlreadyActive9_downcastEPKN5CORBA9ExceptionE @485
    _ZN14PortableServer3POA19ObjectAlreadyActive9_downcastEPN5CORBA9ExceptionE @486
    _ZN14PortableServer3POA19ObjectAlreadyActiveD0Ev @487
    _ZN14PortableServer3POA19ObjectAlreadyActiveD1Ev @488
    _ZN14PortableServer3POA19ObjectAlreadyActiveD2Ev @489
    _ZN14PortableServer3POA20AdapterAlreadyExists10_PD_repoIdE @490 DATA
    _ZN14PortableServer3POA20AdapterAlreadyExists13insertToAnyFnE @491 DATA
    _ZN14PortableServer3POA20AdapterAlreadyExists16insertToAnyFnNCPE @492 DATA
    _ZN14PortableServer3POA20AdapterAlreadyExists9_downcastEPKN5CORBA9ExceptionE @493
    _ZN14PortableServer3POA20AdapterAlreadyExists9_downcastEPN5CORBA9ExceptionE @494
    _ZN14PortableServer3POA20AdapterAlreadyExistsD0Ev @495
    _ZN14PortableServer3POA20AdapterAlreadyExistsD1Ev @496
    _ZN14PortableServer3POA20AdapterAlreadyExistsD2Ev @497
    _ZN14PortableServer3POA20ServantAlreadyActive10_PD_repoIdE @498 DATA
    _ZN14PortableServer3POA20ServantAlreadyActive13insertToAnyFnE @499 DATA
    _ZN14PortableServer3POA20ServantAlreadyActive16insertToAnyFnNCPE @500 DATA
    _ZN14PortableServer3POA20ServantAlreadyActive9_downcastEPKN5CORBA9ExceptionE @501
    _ZN14PortableServer3POA20ServantAlreadyActive9_downcastEPN5CORBA9ExceptionE @502
    _ZN14PortableServer3POA20ServantAlreadyActiveD0Ev @503
    _ZN14PortableServer3POA20ServantAlreadyActiveD1Ev @504
    _ZN14PortableServer3POA20ServantAlreadyActiveD2Ev @505
    _ZN14PortableServer3POA20create_thread_policyENS_17ThreadPolicyValueE @506
    _ZN14PortableServer3POA22create_lifespan_policyENS_19LifespanPolicyValueE @507
    _ZN14PortableServer3POA27create_id_assignment_policyENS_23IdAssignmentPolicyValueE @508
    _ZN14PortableServer3POA27create_id_uniqueness_policyENS_23IdUniquenessPolicyValueE @509
    _ZN14PortableServer3POA31create_servant_retention_policyENS_27ServantRetentionPolicyValueE @510
    _ZN14PortableServer3POA32create_request_processing_policyENS_28RequestProcessingPolicyValueE @511
    _ZN14PortableServer3POA33create_implicit_activation_policyENS_29ImplicitActivationPolicyValueE @512
    _ZN14PortableServer3POA4_nilEv @513
    _ZN14PortableServer3POA7_narrowEPN5CORBA6ObjectE @514
    _ZN14PortableServer3POA9NoServant10_PD_repoIdE @515 DATA
    _ZN14PortableServer3POA9NoServant13insertToAnyFnE @516 DATA
    _ZN14PortableServer3POA9NoServant16insertToAnyFnNCPE @517 DATA
    _ZN14PortableServer3POA9NoServant9_downcastEPKN5CORBA9ExceptionE @518
    _ZN14PortableServer3POA9NoServant9_downcastEPN5CORBA9ExceptionE @519
    _ZN14PortableServer3POA9NoServantD0Ev @520
    _ZN14PortableServer3POA9NoServantD1Ev @521
    _ZN14PortableServer3POA9NoServantD2Ev @522
    _ZN14PortableServer3POAD0Ev @523
    _ZN14PortableServer3POAD1Ev @524
    _ZN14PortableServer3POAD2Ev @525
    _ZN14PortableServer7Current10_PD_repoIdE @526 DATA
    _ZN14PortableServer7Current10_duplicateEPS0_ @527
    _ZN14PortableServer7Current4_nilEv @528
    _ZN14PortableServer7Current7_narrowEPN5CORBA6ObjectE @529
    _ZN14PortableServer7Current9NoContext10_PD_repoIdE @530 DATA
    _ZN14PortableServer7Current9NoContext13insertToAnyFnE @531 DATA
    _ZN14PortableServer7Current9NoContext16insertToAnyFnNCPE @532 DATA
    _ZN14PortableServer7Current9NoContext9_downcastEPKN5CORBA9ExceptionE @533
    _ZN14PortableServer7Current9NoContext9_downcastEPN5CORBA9ExceptionE @534
    _ZN14PortableServer7Current9NoContextD0Ev @535
    _ZN14PortableServer7Current9NoContextD1Ev @536
    _ZN14PortableServer7Current9NoContextD2Ev @537
    _ZN14PortableServer7CurrentD0Ev @538
    _ZN14PortableServer7CurrentD1Ev @539
    _ZN14PortableServer7CurrentD2Ev @540
    _ZN14PortableServer8ObjectIdD1Ev @541
    _ZN14omniCallHandle14PostInvokeHookD0Ev @542
    _ZN14omniCallHandle14PostInvokeHookD1Ev @543
    _ZN14omniCallHandle14PostInvokeHookD2Ev @544
    _ZN14omniCallHandle15SkipRequestBodyEv @545
    _ZN14omniCallHandle6upcallEP11omniServantR18omniCallDescriptor @546
    _ZN14omniExHandlers5TableE @547 DATA
    _ZN14omniExHandlers9TableLockE @548 DATA
    _ZN14omniExHandlersC1Ev @549
    _ZN14omniExHandlersC2Ev @550
    _ZN14omniNilCurrentD0Ev @551
    _ZN14omniNilCurrentD1Ev @552
    _ZN15_CORBA_SequenceI31_CORBA_Unbounded_Sequence_OctetE6lengthEm @553
    _ZN15_CORBA_SequenceI31_CORBA_Unbounded_Sequence_OctetE7freebufEPS0_ @554
    _ZN15_CORBA_SequenceIN3IOP13TaggedProfileEE10copybufferEm @555
    _ZN15_CORBA_SequenceIN3IOP13TaggedProfileEE6lengthEm @556
    _ZN15_CORBA_SequenceIN3IOP14ServiceContextEE7freebufEPS1_ @557
    _ZN15_CORBA_SequenceIN3IOP15TaggedComponentEE6lengthEm @558
    _ZN15_CORBA_SequenceIN3IOP15TaggedComponentEE7freebufEPS1_ @559
    _ZN15_CORBA_SequenceIN4IIOP7AddressEE7freebufEPS1_ @560
    _ZN15_CORBA_SequenceIN9CosNaming13NameComponentEE6lengthEm @561
    _ZN15_CORBA_SequenceIN9CosNaming13NameComponentEE7freebufEPS1_ @562
    _ZN15_CORBA_SequenceIN9CosNaming7BindingEE7freebufEPS1_ @563
    _ZN15_CORBA_SequenceIhE10copybufferEm @564
    _ZN15cdrMemoryStream10ptrToClassEPi @565
    _ZN15cdrMemoryStream10rewindPtrsEv @566
    _ZN15cdrMemoryStream14fetchInputDataEN4omni11alignment_tEj @567
    _ZN15cdrMemoryStream14rewindInputPtrEv @568
    _ZN15cdrMemoryStream15get_octet_arrayEPhiN4omni11alignment_tE @569
    _ZN15cdrMemoryStream15put_octet_arrayEPKhiN4omni11alignment_tE @570
    _ZN15cdrMemoryStream15setByteSwapFlagEb @571
    _ZN15cdrMemoryStream17checkInputOverrunEmmN4omni11alignment_tE @572
    _ZN15cdrMemoryStream18checkOutputOverrunEmmN4omni11alignment_tE @573
    _ZN15cdrMemoryStream18reserveOutputSpaceEN4omni11alignment_tEj @574
    _ZN15cdrMemoryStream23maybeReserveOutputSpaceEN4omni11alignment_tEj @575
    _ZN15cdrMemoryStream34reserveOutputSpaceForPrimitiveTypeEN4omni11alignment_tEj @576
    _ZN15cdrMemoryStream7copy_toER9cdrStreamiN4omni11alignment_tE @577
    _ZN15cdrMemoryStream8_classidE @578 DATA
    _ZN15cdrMemoryStream9skipInputEm @579
    _ZN15cdrMemoryStreamC1EPv @580
    _ZN15cdrMemoryStreamC1EPvj @581
    _ZN15cdrMemoryStreamC1ERKS_b @582
    _ZN15cdrMemoryStreamC1Emb @583
    _ZN15cdrMemoryStreamC2EPv @584
    _ZN15cdrMemoryStreamC2EPvj @585
    _ZN15cdrMemoryStreamC2ERKS_b @586
    _ZN15cdrMemoryStreamC2Emb @587
    _ZN15cdrMemoryStreamD0Ev @588
    _ZN15cdrMemoryStreamD1Ev @589
    _ZN15cdrMemoryStreamD2Ev @590
    _ZN15cdrMemoryStreamaSERKS_ @591
    _ZN15omniAsyncWorker3runEPv @592
    _ZN15omniAsyncWorker8real_runEv @593
    _ZN15omniAsyncWorkerC1EP16omniAsyncInvokerP8omniTask @594
    _ZN15omniAsyncWorkerD0Ev @595
    _ZN15omniAsyncWorkerD1Ev @596
    _ZN15omniStdCallDesc25_cCORBA_mObject_i_cstring16marshalArgumentsER9cdrStream @597
    _ZN15omniStdCallDesc25_cCORBA_mObject_i_cstring18unmarshalArgumentsER9cdrStream @598
    _ZN15omniStdCallDesc25_cCORBA_mObject_i_cstring21marshalReturnedValuesER9cdrStream @599
    _ZN15omniStdCallDesc25_cCORBA_mObject_i_cstring23unmarshalReturnedValuesER9cdrStream @600
    _ZN15omniStdCallDesc25_cCORBA_mObject_i_cstringD0Ev @601
    _ZN15omniStdCallDesc25_cCORBA_mObject_i_cstringD1Ev @602
    _ZN16cdrStreamAdapter10completionEv @603
    _ZN16cdrStreamAdapter10ptrToClassEPi @604
    _ZN16cdrStreamAdapter14fetchInputDataEN4omni11alignment_tEj @605
    _ZN16cdrStreamAdapter15get_octet_arrayEPhiN4omni11alignment_tE @606
    _ZN16cdrStreamAdapter15put_octet_arrayEPKhiN4omni11alignment_tE @607
    _ZN16cdrStreamAdapter17checkInputOverrunEmmN4omni11alignment_tE @608
    _ZN16cdrStreamAdapter18checkOutputOverrunEmmN4omni11alignment_tE @609
    _ZN16cdrStreamAdapter23maybeReserveOutputSpaceEN4omni11alignment_tEj @610
    _ZN16cdrStreamAdapter34reserveOutputSpaceForPrimitiveTypeEN4omni11alignment_tEj @611
    _ZN16cdrStreamAdapter7copy_toER9cdrStreamiN4omni11alignment_tE @612
    _ZN16cdrStreamAdapter8_classidE @613 DATA
    _ZN16cdrStreamAdapter9skipInputEm @614
    _ZN16cdrStreamAdapterD0Ev @615
    _ZN16cdrStreamAdapterD1Ev @616
    _ZN16omniAsyncInvoker12idle_timeoutE @617 DATA
    _ZN16omniAsyncInvoker12work_pendingEv @618
    _ZN16omniAsyncInvoker16cancel_dedicatedEP8omniTask @619
    _ZN16omniAsyncInvoker16insert_dedicatedEP8omniTask @620
    _ZN16omniAsyncInvoker6cancelEP8omniTask @621
    _ZN16omniAsyncInvoker6insertEP8omniTask @622
    _ZN16omniAsyncInvoker7performEmm @623
    _ZN16omniAsyncInvokerC1Ej @624
    _ZN16omniAsyncInvokerC2Ej @625
    _ZN16omniAsyncInvokerD0Ev @626
    _ZN16omniAsyncInvokerD1Ev @627
    _ZN16omniAsyncInvokerD2Ev @628
    _ZN16omniEtherealiser4doitEv @629
    _ZN16omniEtherealiserD0Ev @630
    _ZN16omniEtherealiserD1Ev @631
    _ZN16traceFileHandler4dumpERN4omni10orbOptions14sequenceStringE @632
    _ZN16traceFileHandler5visitEPKcN4omni10orbOptions6SourceE @633
    _ZN16traceFileHandlerD0Ev @634
    _ZN16traceFileHandlerD1Ev @635
    _ZN16traceTimeHandler4dumpERN4omni10orbOptions14sequenceStringE @636
    _ZN16traceTimeHandler5visitEPKcN4omni10orbOptions6SourceE @637
    _ZN16traceTimeHandlerD0Ev @638
    _ZN16traceTimeHandlerD1Ev @639
    _ZN17_CORBA_String_varC1EPKc @640
    _ZN17_CORBA_String_varD1Ev @641
    _ZN17_CORBA_String_varaSEPKc @642
    _ZN17_omniFinalCleanupC1Ev @643
    _ZN17_omniFinalCleanupC2Ev @644
    _ZN17_omniFinalCleanupD1Ev @645
    _ZN17_omniFinalCleanupD2Ev @646
    _ZN17cdrCountingStream10ptrToClassEPi @647
    _ZN17cdrCountingStream14fetchInputDataEN4omni11alignment_tEj @648
    _ZN17cdrCountingStream15get_octet_arrayEPhiN4omni11alignment_tE @649
    _ZN17cdrCountingStream15put_octet_arrayEPKhiN4omni11alignment_tE @650
    _ZN17cdrCountingStream17checkInputOverrunEmmN4omni11alignment_tE @651
    _ZN17cdrCountingStream18checkOutputOverrunEmmN4omni11alignment_tE @652
    _ZN17cdrCountingStream23maybeReserveOutputSpaceEN4omni11alignment_tEj @653
    _ZN17cdrCountingStream34reserveOutputSpaceForPrimitiveTypeEN4omni11alignment_tEj @654
    _ZN17cdrCountingStream7copy_toER9cdrStreamiN4omni11alignment_tE @655
    _ZN17cdrCountingStream8_classidE @656 DATA
    _ZN17cdrCountingStream9skipInputEm @657
    _ZN17cdrCountingStreamD0Ev @658
    _ZN17cdrCountingStreamD1Ev @659
    _ZN17omniLocalIdentity10ptrToClassEPi @660
    _ZN17omniLocalIdentity13locateRequestER18omniCallDescriptor @661
    _ZN17omniLocalIdentity18inThisAddressSpaceEv @662
    _ZN17omniLocalIdentity18real_is_equivalentEPK12omniIdentityS2_ @663
    _ZN17omniLocalIdentity7gainRefEP10omniObjRef @664
    _ZN17omniLocalIdentity7loseRefEP10omniObjRef @665
    _ZN17omniLocalIdentity8_classidE @666 DATA
    _ZN17omniLocalIdentity8dispatchER14omniCallHandle @667
    _ZN17omniLocalIdentity8dispatchER18omniCallDescriptor @668
    _ZN17omniLocalIdentityD0Ev @669
    _ZN17omniLocalIdentityD1Ev @670
    _ZN17omniLocalIdentityD2Ev @671
    _ZN17omniObjTableEntry10ptrToClassEPi @672
    _ZN17omniObjTableEntry15setDeactivatingEv @673
    _ZN17omniObjTableEntry16setEtherealisingEv @674
    _ZN17omniObjTableEntry17setDeactivatingOAEv @675
    _ZN17omniObjTableEntry19insertIntoOAObjListEPPS_ @676
    _ZN17omniObjTableEntry4waitEm @677
    _ZN17omniObjTableEntry7gainRefEP10omniObjRef @678
    _ZN17omniObjTableEntry7loseRefEP10omniObjRef @679
    _ZN17omniObjTableEntry7setDeadEv @680
    _ZN17omniObjTableEntry8_classidE @681 DATA
    _ZN17omniObjTableEntry9setActiveEP11omniServantPN4omni14omniObjAdapterE @682
    _ZN17omniObjTableEntryD0Ev @683
    _ZN17omniObjTableEntryD1Ev @684
    _ZN17omniObjTableEntryD2Ev @685
    _ZN17omniOrbBoaServant13_obj_is_readyEv @686
    _ZN17omniOrbBoaServant17_do_get_interfaceEv @687
    _ZN17omniOrbBoaServant5_thisEPKc @688
    _ZN17omniOrbBoaServant8_disposeEv @689
    _ZN17omniOrbBoaServantC1Ev @690
    _ZN17omniOrbBoaServantC2Ev @691
    _ZN17omniOrbBoaServantD0Ev @692
    _ZN17omniOrbBoaServantD1Ev @693
    _ZN17omniOrbBoaServantD2Ev @694
    _ZN17traceLevelHandler4dumpERN4omni10orbOptions14sequenceStringE @695
    _ZN17traceLevelHandler5visitEPKcN4omni10orbOptions6SourceE @696
    _ZN17traceLevelHandlerD0Ev @697
    _ZN17traceLevelHandlerD1Ev @698
    _ZN18POA_PortableServer14ServantLocatorD0Ev @699
    _ZN18POA_PortableServer14ServantLocatorD1Ev @700
    _ZN18POA_PortableServer14ServantLocatorD2Ev @701
    _ZN18POA_PortableServer14ServantManagerD0Ev @702
    _ZN18POA_PortableServer14ServantManagerD1Ev @703
    _ZN18POA_PortableServer14ServantManagerD2Ev @704
    _ZN18POA_PortableServer16AdapterActivatorD0Ev @705
    _ZN18POA_PortableServer16AdapterActivatorD1Ev @706
    _ZN18POA_PortableServer16AdapterActivatorD2Ev @707
    _ZN18POA_PortableServer16ServantActivatorD0Ev @708
    _ZN18POA_PortableServer16ServantActivatorD1Ev @709
    _ZN18POA_PortableServer16ServantActivatorD2Ev @710
    _ZN18omniCallDescriptor13userExceptionER9cdrStreamPN4omni5IOP_CEPKc @711
    _ZN18omniCallDescriptor14initialiseCallER9cdrStream @712
    _ZN18omniCallDescriptor16marshalArgumentsER9cdrStream @713
    _ZN18omniCallDescriptor18unmarshalArgumentsER9cdrStream @714
    _ZN18omniCallDescriptor21marshalReturnedValuesER9cdrStream @715
    _ZN18omniCallDescriptor21validateUserExceptionERKN5CORBA13UserExceptionE @716
    _ZN18omniCallDescriptor23unmarshalReturnedValuesER9cdrStream @717
    _ZN18omniCallDescriptorD0Ev @718
    _ZN18omniCallDescriptorD1Ev @719
    _ZN18omniRemoteIdentity10ptrToClassEPi @720
    _ZN18omniRemoteIdentity13locateRequestER18omniCallDescriptor @721
    _ZN18omniRemoteIdentity18inThisAddressSpaceEv @722
    _ZN18omniRemoteIdentity18real_is_equivalentEPK12omniIdentityS2_ @723
    _ZN18omniRemoteIdentity7gainRefEP10omniObjRef @724
    _ZN18omniRemoteIdentity7loseRefEP10omniObjRef @725
    _ZN18omniRemoteIdentity8_classidE @726 DATA
    _ZN18omniRemoteIdentity8dispatchER18omniCallDescriptor @727
    _ZN18omniRemoteIdentityD0Ev @728
    _ZN18omniRemoteIdentityD1Ev @729
    _ZN18omniRemoteIdentityD2Ev @730
    _ZN18omni_optional_lockD1Ev @731
    _ZN19cdrValueChunkStream10completionEv @732
    _ZN19cdrValueChunkStream10ptrToClassEPi @733
    _ZN19cdrValueChunkStream12peekChunkTagEv @734
    _ZN19cdrValueChunkStream13endInputValueEv @735
    _ZN19cdrValueChunkStream14endOutputChunkEv @736
    _ZN19cdrValueChunkStream14endOutputValueEv @737
    _ZN19cdrValueChunkStream14fetchInputDataEN4omni11alignment_tEj @738
    _ZN19cdrValueChunkStream15get_octet_arrayEPhiN4omni11alignment_tE @739
    _ZN19cdrValueChunkStream15initialiseInputEv @740
    _ZN19cdrValueChunkStream15put_octet_arrayEPKhiN4omni11alignment_tE @741
    _ZN19cdrValueChunkStream15startInputChunkEv @742
    _ZN19cdrValueChunkStream16startOutputChunkEv @743
    _ZN19cdrValueChunkStream17checkInputOverrunEmmN4omni11alignment_tE @744
    _ZN19cdrValueChunkStream17skipToNestedValueEl @745
    _ZN19cdrValueChunkStream18checkOutputOverrunEmmN4omni11alignment_tE @746
    _ZN19cdrValueChunkStream18declareArrayLengthEN4omni11alignment_tEj @747
    _ZN19cdrValueChunkStream18maybeStartNewChunkEN4omni11alignment_tEj @748
    _ZN19cdrValueChunkStream19startInputValueBodyEv @749
    _ZN19cdrValueChunkStream20startOutputValueBodyEv @750
    _ZN19cdrValueChunkStream22startOutputValueHeaderEl @751
    _ZN19cdrValueChunkStream23maybeReserveOutputSpaceEN4omni11alignment_tEj @752
    _ZN19cdrValueChunkStream34reserveOutputSpaceForPrimitiveTypeEN4omni11alignment_tEj @753
    _ZN19cdrValueChunkStream8_classidE @754 DATA
    _ZN19cdrValueChunkStream9skipInputEm @755
    _ZN19cdrValueChunkStreamD0Ev @756
    _ZN19cdrValueChunkStreamD1Ev @757
    _ZN19cdrValueChunkStreamD2Ev @758
    _ZN19omniAsyncWorkerInfo3runEv @759
    _ZN20_CORBA_String_helper12empty_stringE @760 DATA
    _ZN20_CORBA_String_helper3dupEPKc @761
    _ZN20_CORBA_String_helper4freeEPc @762
    _ZN20_CORBA_String_memberD1Ev @763
    _ZN20_CORBA_String_memberlSER9cdrStream @764
    _ZN20omniShutdownIdentity10ptrToClassEPi @765
    _ZN20omniShutdownIdentity13locateRequestER18omniCallDescriptor @766
    _ZN20omniShutdownIdentity18inThisAddressSpaceEv @767
    _ZN20omniShutdownIdentity18real_is_equivalentEPK12omniIdentityS2_ @768
    _ZN20omniShutdownIdentity7gainRefEP10omniObjRef @769
    _ZN20omniShutdownIdentity7loseRefEP10omniObjRef @770
    _ZN20omniShutdownIdentity8_classidE @771 DATA
    _ZN20omniShutdownIdentity8dispatchER18omniCallDescriptor @772
    _ZN20omniShutdownIdentity9singletonEv @773
    _ZN20omniShutdownIdentityD0Ev @774
    _ZN20omniShutdownIdentityD1Ev @775
    _ZN20traceThreadIdHandler4dumpERN4omni10orbOptions14sequenceStringE @776
    _ZN20traceThreadIdHandler5visitEPKcN4omni10orbOptions6SourceE @777
    _ZN20traceThreadIdHandlerD0Ev @778
    _ZN20traceThreadIdHandlerD1Ev @779
    _ZN21_CORBA_Sequence_OctetlSER9cdrStream @780
    _ZN21_CORBA_WString_helper13empty_wstringE @781 DATA
    _ZN21_CORBA_WString_memberlSER9cdrStream @782
    _ZN21omniInProcessIdentity10ptrToClassEPi @783
    _ZN21omniInProcessIdentity13locateRequestER18omniCallDescriptor @784
    _ZN21omniInProcessIdentity18inThisAddressSpaceEv @785
    _ZN21omniInProcessIdentity7gainRefEP10omniObjRef @786
    _ZN21omniInProcessIdentity7loseRefEP10omniObjRef @787
    _ZN21omniInProcessIdentity8_classidE @788 DATA
    _ZN21omniInProcessIdentity8dispatchER18omniCallDescriptor @789
    _ZN21omniInProcessIdentityD0Ev @790
    _ZN21omniInProcessIdentityD1Ev @791
    _ZN21supportCurrentHandler4dumpERN4omni10orbOptions14sequenceStringE @792
    _ZN21supportCurrentHandler5visitEPKcN4omni10orbOptions6SourceE @793
    _ZN21supportCurrentHandlerD0Ev @794
    _ZN21supportCurrentHandlerD1Ev @795
    _ZN22_CORBA_Sequence_String10copybufferEm @796
    _ZN22_CORBA_Sequence_String6lengthEm @797
    _ZN22_CORBA_Sequence_String7freebufEPPc @798
    _ZN22_CORBA_Sequence_StringixEm @799
    _ZN22_CORBA_Sequence_StringlSER9cdrStream @800
    _ZN22cdrEncapsulationStream10ptrToClassEPi @801
    _ZN22cdrEncapsulationStream14getOctetStreamERPhRmS2_ @802
    _ZN22cdrEncapsulationStream8_classidE @803 DATA
    _ZN22cdrEncapsulationStreamC1EPKhmb @804
    _ZN22cdrEncapsulationStreamC1ER9cdrStreamm @805
    _ZN22cdrEncapsulationStreamC1Emb @806
    _ZN22cdrEncapsulationStreamC2EPKhmb @807
    _ZN22cdrEncapsulationStreamC2ER9cdrStreamm @808
    _ZN22cdrEncapsulationStreamC2Emb @809
    _ZN22cdrEncapsulationStreamD0Ev @810
    _ZN22cdrEncapsulationStreamD1Ev @811
    _ZN22objectTableSizeHandler4dumpERN4omni10orbOptions14sequenceStringE @812
    _ZN22objectTableSizeHandler5visitEPKcN4omni10orbOptions6SourceE @813
    _ZN22objectTableSizeHandlerD0Ev @814
    _ZN22objectTableSizeHandlerD1Ev @815
    _ZN22traceExceptionsHandler4dumpERN4omni10orbOptions14sequenceStringE @816
    _ZN22traceExceptionsHandler5visitEPKcN4omni10orbOptions6SourceE @817
    _ZN22traceExceptionsHandlerD0Ev @818
    _ZN22traceExceptionsHandlerD1Ev @819
    _ZN23CORBA_InitialReferences10_PD_repoIdE @820 DATA
    _ZN23CORBA_InitialReferences10_duplicateEP31_objref_CORBA_InitialReferences @821
    _ZN23CORBA_InitialReferences17_unchecked_narrowEPN5CORBA6ObjectE @822
    _ZN23CORBA_InitialReferences4_nilEv @823
    _ZN23CORBA_InitialReferences7_narrowEPN5CORBA6ObjectE @824
    _ZN23_CORBA_PseudoObj_MemberIN5CORBA6PolicyE20_CORBA_PseudoObj_VarIS1_EED1Ev @825
    _ZN23_CORBA_Sequence_WStringlSER9cdrStream @826
    _ZN23omniExHandlers_iterator14find_or_createEP10omniObjRef @827
    _ZN23omniExHandlers_iterator4findEP10omniObjRef @828
    _ZN23omniExHandlers_iterator6removeEP10omniObjRef @829
    _ZN23omniExHandlers_iteratorC1Ev @830
    _ZN23omniExHandlers_iteratorC2Ev @831
    _ZN23omniExHandlers_iteratorD1Ev @832
    _ZN23omniExHandlers_iteratorD2Ev @833
    _ZN23traceInvocationsHandler4dumpERN4omni10orbOptions14sequenceStringE @834
    _ZN23traceInvocationsHandler5visitEPKcN4omni10orbOptions6SourceE @835
    _ZN23traceInvocationsHandlerD0Ev @836
    _ZN23traceInvocationsHandlerD1Ev @837
    _ZN24nativeCharCodeSetHandler4dumpERN4omni10orbOptions14sequenceStringE @838
    _ZN24nativeCharCodeSetHandler5visitEPKcN4omni10orbOptions6SourceE @839
    _ZN24nativeCharCodeSetHandlerD0Ev @840
    _ZN24nativeCharCodeSetHandlerD1Ev @841
    _ZN25_CORBA_Unbounded_SequenceI31_CORBA_Unbounded_Sequence_OctetED1Ev @842
    _ZN25_CORBA_Unbounded_SequenceIN3IOP15TaggedComponentEED1Ev @843
    _ZN25_CORBA_Unbounded_SequenceIN4IIOP7AddressEED1Ev @844
    _ZN25_CORBA_Unbounded_SequenceIN9CosNaming13NameComponentEElSER9cdrStream @845
    _ZN25_CORBA_Unbounded_SequenceIN9CosNaming7BindingEElSER9cdrStream @846
    _ZN25nativeWCharCodeSetHandler4dumpERN4omni10orbOptions14sequenceStringE @847
    _ZN25nativeWCharCodeSetHandler5visitEPKcN4omni10orbOptions6SourceE @848
    _ZN25nativeWCharCodeSetHandlerD0Ev @849
    _ZN25nativeWCharCodeSetHandlerD1Ev @850
    _ZN27POA_CORBA_InitialReferencesD0Ev @851
    _ZN27POA_CORBA_InitialReferencesD1Ev @852
    _ZN27POA_CORBA_InitialReferencesD2Ev @853
    _ZN27_CORBA_PseudoValue_SequenceIN4omni13serviceRecordEE6lengthEm @854
    _ZN27_CORBA_PseudoValue_SequenceIN4omni13serviceRecordEEixEm @855
    _ZN27_CORBA_PseudoValue_SequenceIPN4omni10omniOrbPOAEED1Ev @856
    _ZN27_CORBA_PseudoValue_SequenceIPN7omniIOR12IORExtraInfoEE6lengthEm @857
    _ZN27abortOnInternalErrorHandler4dumpERN4omni10orbOptions14sequenceStringE @858
    _ZN27abortOnInternalErrorHandler5visitEPKcN4omni10orbOptions6SourceE @859
    _ZN27abortOnInternalErrorHandlerD0Ev @860
    _ZN27abortOnInternalErrorHandlerD1Ev @861
    _ZN27omniLocalOnlyCallDescriptor16marshalArgumentsER9cdrStream @862
    _ZN27omniLocalOnlyCallDescriptorD0Ev @863
    _ZN27omniLocalOnlyCallDescriptorD1Ev @864
    _ZN28_pof_CORBA_InitialReferences9newObjRefEP7omniIORP12omniIdentity @865
    _ZN28_pof_CORBA_InitialReferencesD0Ev @866
    _ZN28_pof_CORBA_InitialReferencesD1Ev @867
    _ZN28_pof_CORBA_InitialReferencesD2Ev @868
    _ZN29_impl_CORBA_InitialReferences15_ptrToInterfaceEPKc @869
    _ZN29_impl_CORBA_InitialReferences18_mostDerivedRepoIdEv @870
    _ZN29_impl_CORBA_InitialReferences9_dispatchER14omniCallHandle @871
    _ZN29_impl_CORBA_InitialReferencesD0Ev @872
    _ZN29_impl_CORBA_InitialReferencesD1Ev @873
    _ZN29_impl_CORBA_InitialReferencesD2Ev @874
    _ZN29abortOnNativeExceptionHandler4dumpERN4omni10orbOptions14sequenceStringE @875
    _ZN29abortOnNativeExceptionHandler5visitEPKcN4omni10orbOptions6SourceE @876
    _ZN29abortOnNativeExceptionHandlerD0Ev @877
    _ZN29abortOnNativeExceptionHandlerD1Ev @878
    _ZN29traceInvocationReturnsHandler4dumpERN4omni10orbOptions14sequenceStringE @879
    _ZN29traceInvocationReturnsHandler5visitEPKcN4omni10orbOptions6SourceE @880
    _ZN29traceInvocationReturnsHandlerD0Ev @881
    _ZN29traceInvocationReturnsHandlerD1Ev @882
    _ZN30CORBA_InitialReferences_Helper13marshalObjRefEP31_objref_CORBA_InitialReferencesR9cdrStream @883
    _ZN30CORBA_InitialReferences_Helper15unmarshalObjRefER9cdrStream @884
    _ZN30CORBA_InitialReferences_Helper4_nilEv @885
    _ZN30CORBA_InitialReferences_Helper6is_nilEP31_objref_CORBA_InitialReferences @886
    _ZN30CORBA_InitialReferences_Helper7releaseEP31_objref_CORBA_InitialReferences @887
    _ZN30CORBA_InitialReferences_Helper9duplicateEP31_objref_CORBA_InitialReferences @888
    _ZN31_CORBA_Unbounded_Sequence_Octet7replaceEmmPhb @889
    _ZN31_CORBA_Unbounded_Sequence_OctetD1Ev @890
    _ZN31_objref_CORBA_InitialReferences12_ptrToObjRefEPKc @891
    _ZN31_objref_CORBA_InitialReferences3getEPKc @892
    _ZN31_objref_CORBA_InitialReferences4listEv @893
    _ZN31_objref_CORBA_InitialReferencesC1EP7omniIORP12omniIdentity @894
    _ZN31_objref_CORBA_InitialReferencesC2EP7omniIORP12omniIdentity @895
    _ZN31_objref_CORBA_InitialReferencesD0Ev @896
    _ZN31_objref_CORBA_InitialReferencesD1Ev @897
    _ZN31_objref_CORBA_InitialReferencesD2Ev @898
    _ZN32_CORBA_Pseudo_Unbounded_SequenceIN5CORBA6PolicyE23_CORBA_PseudoObj_MemberIS1_20_CORBA_PseudoObj_VarIS1_EEED1Ev @899
    _ZN32_CORBA_Unbounded_Sequence_StringD1Ev @900
    _ZN33_0RL_cd_3c165f58b5a16b59_00000000D0Ev @901
    _ZN33_0RL_cd_3c165f58b5a16b59_00000000D1Ev @902
    _ZN33_0RL_cd_3c165f58b5a16b59_20000000D0Ev @903
    _ZN33_0RL_cd_3c165f58b5a16b59_20000000D1Ev @904
    _ZN33_0RL_cd_3c165f58b5a16b59_40000000D0Ev @905
    _ZN33_0RL_cd_3c165f58b5a16b59_40000000D1Ev @906
    _ZN33_0RL_cd_3c165f58b5a16b59_60000000D0Ev @907
    _ZN33_0RL_cd_3c165f58b5a16b59_60000000D1Ev @908
    _ZN33_0RL_cd_3c165f58b5a16b59_80000000D0Ev @909
    _ZN33_0RL_cd_3c165f58b5a16b59_80000000D1Ev @910
    _ZN33_0RL_cd_69CECA6A39F685B5_0000000010_user_exnsE @911 DATA
    _ZN33_0RL_cd_69CECA6A39F685B5_0000000013userExceptionER9cdrStreamPN4omni5IOP_CEPKc @912
    _ZN33_0RL_cd_69CECA6A39F685B5_0000000016marshalArgumentsER9cdrStream @913
    _ZN33_0RL_cd_69CECA6A39F685B5_0000000018unmarshalArgumentsER9cdrStream @914
    _ZN33_0RL_cd_69CECA6A39F685B5_00000000D0Ev @915
    _ZN33_0RL_cd_69CECA6A39F685B5_00000000D1Ev @916
    _ZN33_0RL_cd_69CECA6A39F685B5_0100000010_user_exnsE @917 DATA
    _ZN33_0RL_cd_69CECA6A39F685B5_0100000013userExceptionER9cdrStreamPN4omni5IOP_CEPKc @918
    _ZN33_0RL_cd_69CECA6A39F685B5_01000000D0Ev @919
    _ZN33_0RL_cd_69CECA6A39F685B5_01000000D1Ev @920
    _ZN33_0RL_cd_69CECA6A39F685B5_0200000010_user_exnsE @921 DATA
    _ZN33_0RL_cd_69CECA6A39F685B5_0200000013userExceptionER9cdrStreamPN4omni5IOP_CEPKc @922
    _ZN33_0RL_cd_69CECA6A39F685B5_0200000016marshalArgumentsER9cdrStream @923
    _ZN33_0RL_cd_69CECA6A39F685B5_0200000018unmarshalArgumentsER9cdrStream @924
    _ZN33_0RL_cd_69CECA6A39F685B5_0200000021marshalReturnedValuesER9cdrStream @925
    _ZN33_0RL_cd_69CECA6A39F685B5_0200000023unmarshalReturnedValuesER9cdrStream @926
    _ZN33_0RL_cd_69CECA6A39F685B5_02000000D0Ev @927
    _ZN33_0RL_cd_69CECA6A39F685B5_02000000D1Ev @928
    _ZN33_0RL_cd_69CECA6A39F685B5_2000000010_user_exnsE @929 DATA
    _ZN33_0RL_cd_69CECA6A39F685B5_2000000013userExceptionER9cdrStreamPN4omni5IOP_CEPKc @930
    _ZN33_0RL_cd_69CECA6A39F685B5_2000000016marshalArgumentsER9cdrStream @931
    _ZN33_0RL_cd_69CECA6A39F685B5_2000000018unmarshalArgumentsER9cdrStream @932
    _ZN33_0RL_cd_69CECA6A39F685B5_20000000D0Ev @933
    _ZN33_0RL_cd_69CECA6A39F685B5_20000000D1Ev @934
    _ZN33_0RL_cd_69CECA6A39F685B5_2100000010_user_exnsE @935 DATA
    _ZN33_0RL_cd_69CECA6A39F685B5_2100000016marshalArgumentsER9cdrStream @936
    _ZN33_0RL_cd_69CECA6A39F685B5_2100000018unmarshalArgumentsER9cdrStream @937
    _ZN33_0RL_cd_69CECA6A39F685B5_2100000021marshalReturnedValuesER9cdrStream @938
    _ZN33_0RL_cd_69CECA6A39F685B5_2100000023unmarshalReturnedValuesER9cdrStream @939
    _ZN33_0RL_cd_69CECA6A39F685B5_21000000D0Ev @940
    _ZN33_0RL_cd_69CECA6A39F685B5_21000000D1Ev @941
    _ZN33_0RL_cd_69CECA6A39F685B5_4000000010_user_exnsE @942 DATA
    _ZN33_0RL_cd_69CECA6A39F685B5_4000000013userExceptionER9cdrStreamPN4omni5IOP_CEPKc @943
    _ZN33_0RL_cd_69CECA6A39F685B5_4000000016marshalArgumentsER9cdrStream @944
    _ZN33_0RL_cd_69CECA6A39F685B5_4000000018unmarshalArgumentsER9cdrStream @945
    _ZN33_0RL_cd_69CECA6A39F685B5_40000000D0Ev @946
    _ZN33_0RL_cd_69CECA6A39F685B5_40000000D1Ev @947
    _ZN33_0RL_cd_69CECA6A39F685B5_4100000010_user_exnsE @948 DATA
    _ZN33_0RL_cd_69CECA6A39F685B5_4100000021marshalReturnedValuesER9cdrStream @949
    _ZN33_0RL_cd_69CECA6A39F685B5_4100000023unmarshalReturnedValuesER9cdrStream @950
    _ZN33_0RL_cd_69CECA6A39F685B5_41000000D0Ev @951
    _ZN33_0RL_cd_69CECA6A39F685B5_41000000D1Ev @952
    _ZN33_0RL_cd_69CECA6A39F685B5_6000000010_user_exnsE @953 DATA
    _ZN33_0RL_cd_69CECA6A39F685B5_6000000013userExceptionER9cdrStreamPN4omni5IOP_CEPKc @954
    _ZN33_0RL_cd_69CECA6A39F685B5_6000000016marshalArgumentsER9cdrStream @955
    _ZN33_0RL_cd_69CECA6A39F685B5_6000000018unmarshalArgumentsER9cdrStream @956
    _ZN33_0RL_cd_69CECA6A39F685B5_60000000D0Ev @957
    _ZN33_0RL_cd_69CECA6A39F685B5_60000000D1Ev @958
    _ZN33_0RL_cd_69CECA6A39F685B5_6100000010_user_exnsE @959 DATA
    _ZN33_0RL_cd_69CECA6A39F685B5_6100000016marshalArgumentsER9cdrStream @960
    _ZN33_0RL_cd_69CECA6A39F685B5_6100000018unmarshalArgumentsER9cdrStream @961
    _ZN33_0RL_cd_69CECA6A39F685B5_6100000021marshalReturnedValuesER9cdrStream @962
    _ZN33_0RL_cd_69CECA6A39F685B5_6100000023unmarshalReturnedValuesER9cdrStream @963
    _ZN33_0RL_cd_69CECA6A39F685B5_61000000D0Ev @964
    _ZN33_0RL_cd_69CECA6A39F685B5_61000000D1Ev @965
    _ZN33_0RL_cd_69CECA6A39F685B5_8000000010_user_exnsE @966 DATA
    _ZN33_0RL_cd_69CECA6A39F685B5_8000000013userExceptionER9cdrStreamPN4omni5IOP_CEPKc @967
    _ZN33_0RL_cd_69CECA6A39F685B5_8000000016marshalArgumentsER9cdrStream @968
    _ZN33_0RL_cd_69CECA6A39F685B5_8000000018unmarshalArgumentsER9cdrStream @969
    _ZN33_0RL_cd_69CECA6A39F685B5_8000000021marshalReturnedValuesER9cdrStream @970
    _ZN33_0RL_cd_69CECA6A39F685B5_8000000023unmarshalReturnedValuesER9cdrStream @971
    _ZN33_0RL_cd_69CECA6A39F685B5_80000000D0Ev @972
    _ZN33_0RL_cd_69CECA6A39F685B5_80000000D1Ev @973
    _ZN33_0RL_cd_69CECA6A39F685B5_8100000010_user_exnsE @974 DATA
    _ZN33_0RL_cd_69CECA6A39F685B5_81000000D0Ev @975
    _ZN33_0RL_cd_69CECA6A39F685B5_81000000D1Ev @976
    _ZN33_0RL_cd_69CECA6A39F685B5_a000000010_user_exnsE @977 DATA
    _ZN33_0RL_cd_69CECA6A39F685B5_a000000013userExceptionER9cdrStreamPN4omni5IOP_CEPKc @978
    _ZN33_0RL_cd_69CECA6A39F685B5_a000000016marshalArgumentsER9cdrStream @979
    _ZN33_0RL_cd_69CECA6A39F685B5_a000000018unmarshalArgumentsER9cdrStream @980
    _ZN33_0RL_cd_69CECA6A39F685B5_a0000000D0Ev @981
    _ZN33_0RL_cd_69CECA6A39F685B5_a0000000D1Ev @982
    _ZN33_0RL_cd_69CECA6A39F685B5_a100000010_user_exnsE @983 DATA
    _ZN33_0RL_cd_69CECA6A39F685B5_a100000013userExceptionER9cdrStreamPN4omni5IOP_CEPKc @984
    _ZN33_0RL_cd_69CECA6A39F685B5_a100000016marshalArgumentsER9cdrStream @985
    _ZN33_0RL_cd_69CECA6A39F685B5_a100000018unmarshalArgumentsER9cdrStream @986
    _ZN33_0RL_cd_69CECA6A39F685B5_a100000021marshalReturnedValuesER9cdrStream @987
    _ZN33_0RL_cd_69CECA6A39F685B5_a100000023unmarshalReturnedValuesER9cdrStream @988
    _ZN33_0RL_cd_69CECA6A39F685B5_a1000000D0Ev @989
    _ZN33_0RL_cd_69CECA6A39F685B5_a1000000D1Ev @990
    _ZN33_0RL_cd_69CECA6A39F685B5_c000000010_user_exnsE @991 DATA
    _ZN33_0RL_cd_69CECA6A39F685B5_c000000021marshalReturnedValuesER9cdrStream @992
    _ZN33_0RL_cd_69CECA6A39F685B5_c000000023unmarshalReturnedValuesER9cdrStream @993
    _ZN33_0RL_cd_69CECA6A39F685B5_c0000000D0Ev @994
    _ZN33_0RL_cd_69CECA6A39F685B5_c0000000D1Ev @995
    _ZN33_0RL_cd_69CECA6A39F685B5_c100000010_user_exnsE @996 DATA
    _ZN33_0RL_cd_69CECA6A39F685B5_c100000013userExceptionER9cdrStreamPN4omni5IOP_CEPKc @997
    _ZN33_0RL_cd_69CECA6A39F685B5_c100000016marshalArgumentsER9cdrStream @998
    _ZN33_0RL_cd_69CECA6A39F685B5_c100000018unmarshalArgumentsER9cdrStream @999
    _ZN33_0RL_cd_69CECA6A39F685B5_c100000021marshalReturnedValuesER9cdrStream @1000
    _ZN33_0RL_cd_69CECA6A39F685B5_c100000023unmarshalReturnedValuesER9cdrStream @1001
    _ZN33_0RL_cd_69CECA6A39F685B5_c1000000D0Ev @1002
    _ZN33_0RL_cd_69CECA6A39F685B5_c1000000D1Ev @1003
    _ZN33_0RL_cd_69CECA6A39F685B5_e000000010_user_exnsE @1004 DATA
    _ZN33_0RL_cd_69CECA6A39F685B5_e000000013userExceptionER9cdrStreamPN4omni5IOP_CEPKc @1005
    _ZN33_0RL_cd_69CECA6A39F685B5_e000000016marshalArgumentsER9cdrStream @1006
    _ZN33_0RL_cd_69CECA6A39F685B5_e000000018unmarshalArgumentsER9cdrStream @1007
    _ZN33_0RL_cd_69CECA6A39F685B5_e000000021marshalReturnedValuesER9cdrStream @1008
    _ZN33_0RL_cd_69CECA6A39F685B5_e000000023unmarshalReturnedValuesER9cdrStream @1009
    _ZN33_0RL_cd_69CECA6A39F685B5_e0000000D0Ev @1010
    _ZN33_0RL_cd_69CECA6A39F685B5_e0000000D1Ev @1011
    _ZN33_0RL_cd_69CECA6A39F685B5_e100000010_user_exnsE @1012 DATA
    _ZN33_0RL_cd_69CECA6A39F685B5_e100000013userExceptionER9cdrStreamPN4omni5IOP_CEPKc @1013
    _ZN33_0RL_cd_69CECA6A39F685B5_e100000016marshalArgumentsER9cdrStream @1014
    _ZN33_0RL_cd_69CECA6A39F685B5_e100000018unmarshalArgumentsER9cdrStream @1015
    _ZN33_0RL_cd_69CECA6A39F685B5_e100000021marshalReturnedValuesER9cdrStream @1016
    _ZN33_0RL_cd_69CECA6A39F685B5_e100000023unmarshalReturnedValuesER9cdrStream @1017
    _ZN33_0RL_cd_69CECA6A39F685B5_e1000000D0Ev @1018
    _ZN33_0RL_cd_69CECA6A39F685B5_e1000000D1Ev @1019
    _ZN33_0RL_cd_96F078E2247AB9DA_0000000010_user_exnsE @1020 DATA
    _ZN33_0RL_cd_96F078E2247AB9DA_0000000016marshalArgumentsER9cdrStream @1021
    _ZN33_0RL_cd_96F078E2247AB9DA_0000000018unmarshalArgumentsER9cdrStream @1022
    _ZN33_0RL_cd_96F078E2247AB9DA_0000000021marshalReturnedValuesER9cdrStream @1023
    _ZN33_0RL_cd_96F078E2247AB9DA_0000000023unmarshalReturnedValuesER9cdrStream @1024
    _ZN33_0RL_cd_96F078E2247AB9DA_00000000D0Ev @1025
    _ZN33_0RL_cd_96F078E2247AB9DA_00000000D1Ev @1026
    _ZN33_0RL_cd_96F078E2247AB9DA_2000000010_user_exnsE @1027 DATA
    _ZN33_0RL_cd_96F078E2247AB9DA_2000000021marshalReturnedValuesER9cdrStream @1028
    _ZN33_0RL_cd_96F078E2247AB9DA_2000000023unmarshalReturnedValuesER9cdrStream @1029
    _ZN33_0RL_cd_96F078E2247AB9DA_20000000D0Ev @1030
    _ZN33_0RL_cd_96F078E2247AB9DA_20000000D1Ev @1031
    _ZN3IOP11BI_DIR_IIOPE @1032 DATA
    _ZN3IOP11TAG_PRIMARYE @1033 DATA
    _ZN3IOP12TAG_NULL_TAGE @1034 DATA
    _ZN3IOP12TAG_ORB_TYPEE @1035 DATA
    _ZN3IOP12TAG_POLICIESE @1036 DATA
    _ZN3IOP12TAG_SCCP_IOPE @1037 DATA
    _ZN3IOP12TAG_SEC_NAMEE @1038 DATA
    _ZN3IOP13GROUP_VERSIONE @1039 DATA
    _ZN3IOP13TAG_CODE_SETSE @1040 DATA
    _ZN3IOP13TaggedProfilelSER9cdrStream @1041
    _ZN3IOP13dumpComponentERKNS_15TaggedComponentE @1042
    _ZN3IOP14ServiceContextlSER9cdrStream @1043
    _ZN3IOP15ChainBypassInfoE @1044 DATA
    _ZN3IOP15LogicalThreadIdE @1045 DATA
    _ZN3IOP15RTCorbaPriorityE @1046 DATA
    _ZN3IOP15ServiceIDtoNameEm @1047
    _ZN3IOP15TaggedComponentlSER9cdrStream @1048
    _ZN3IOP16ChainBypassCheckE @1049 DATA
    _ZN3IOP16TAG_DCE_NO_PIPESE @1050 DATA
    _ZN3IOP16TAG_DCE_SEC_MECHE @1051 DATA
    _ZN3IOP16TAG_INTERNET_IOPE @1052 DATA
    _ZN3IOP17ComponentIDtoNameEm @1053
    _ZN3IOP17TAG_JAVA_CODEBASEE @1054 DATA
    _ZN3IOP17TAG_OMNIORB_BIDIRE @1055 DATA
    _ZN3IOP17TAG_SSL_SEC_TRANSE @1056 DATA
    _ZN3IOP17TAG_TLS_SEC_TRANSE @1057 DATA
    _ZN3IOP18FORWARDED_IDENTITYE @1058 DATA
    _ZN3IOP18TAG_FIREWALL_TRANSE @1059 DATA
    _ZN3IOP18TAG_INET_SEC_TRANSE @1060 DATA
    _ZN3IOP18TransactionServiceE @1061 DATA
    _ZN3IOP19INVOCATION_POLICIESE @1062 DATA
    _ZN3IOP19TAG_LOCATION_POLICYE @1063 DATA
    _ZN3IOP19TAG_SPKM_1_SEC_MECHE @1064 DATA
    _ZN3IOP19TAG_SPKM_2_SEC_MECHE @1065 DATA
    _ZN3IOP20RTCorbaPriorityRangeE @1066 DATA
    _ZN3IOP20TAG_DCE_BINDING_NAMEE @1067 DATA
    _ZN3IOP20TAG_GENERIC_SEC_MECHE @1068 DATA
    _ZN3IOP20UnknownExceptionInfoE @1069 DATA
    _ZN3IOP21SendingContextRunTimeE @1070 DATA
    _ZN3IOP21TAG_CSI_SEC_MECH_LISTE @1071 DATA
    _ZN3IOP21TAG_HEARTBEAT_ENABLEDE @1072 DATA
    _ZN3IOP21TAG_SCCP_CONTACT_INFOE @1073 DATA
    _ZN3IOP21TaggedProfileList_varD1Ev @1074
    _ZN3IOP22TAG_DCE_STRING_BINDINGE @1075 DATA
    _ZN3IOP22TAG_OMNIORB_UNIX_TRANSE @1076 DATA
    _ZN3IOP23TAG_ASSOCIATION_OPTIONSE @1077 DATA
    _ZN3IOP23TAG_COMPLETE_OBJECT_KEYE @1078 DATA
    _ZN3IOP23TAG_KERBEROSV5_SEC_MECHE @1079 DATA
    _ZN3IOP23TAG_MULTIPLE_COMPONENTSE @1080 DATA
    _ZN3IOP24TAG_ENDPOINT_ID_POSITIONE @1081 DATA
    _ZN3IOP25TAG_OMNIORB_PERSISTENT_IDE @1082 DATA
    _ZN3IOP26TAG_ALTERNATE_IIOP_ADDRESSE @1083 DATA
    _ZN3IOP28TAG_CSI_ECMA_HYBRID_SEC_MECHE @1084 DATA
    _ZN3IOP28TAG_CSI_ECMA_PUBLIC_SEC_MECHE @1085 DATA
    _ZN3IOP28TAG_CSI_ECMA_SECRET_SEC_MECHE @1086 DATA
    _ZN3IOP29OMNIORB_RESTRICTED_CONNECTIONE @1087 DATA
    _ZN3IOP33TAG_OMNIORB_RESTRICTED_CONNECTIONE @1088 DATA
    _ZN3IOP3IOR16unmarshaltype_idER9cdrStream @1089
    _ZN3IOP3IORlSER9cdrStream @1090
    _ZN3IOP3IORrSER9cdrStream @1091
    _ZN3IOP7REQUESTE @1092 DATA
    _ZN3IOP8CodeSetsE @1093 DATA
    _ZN3IOP9TAG_GROUPE @1094 DATA
    _ZN4GIOP11ProfileAddrE @1095 DATA
    _ZN4GIOP13ReferenceAddrE @1096 DATA
    _ZN4GIOP17IORAddressingInfoD1Ev @1097
    _ZN4GIOP7KeyAddrE @1098 DATA
    _ZN4IIOP11ProfileBodyD1Ev @1099
    _ZN4IIOP13encodeProfileERKNS_11ProfileBodyERN3IOP13TaggedProfileE @1100
    _ZN4IIOP16unmarshalProfileERKN3IOP13TaggedProfileERNS_11ProfileBodyE @1101
    _ZN4IIOP18unmarshalObjectKeyERKN3IOP13TaggedProfileER31_CORBA_Unbounded_Sequence_Octet @1102
    _ZN4IIOP21DEFAULT_CORBALOC_PORTE @1103 DATA
    _ZN4IIOP27encodeMultiComponentProfileERK25_CORBA_Unbounded_SequenceIN3IOP15TaggedComponentEERNS1_13TaggedProfileE @1104
    _ZN4IIOP30unmarshalMultiComponentProfileERKN3IOP13TaggedProfileER25_CORBA_Unbounded_SequenceINS0_15TaggedComponentEE @1105
    _ZN4IIOP7AddresslSER9cdrStream @1106
    _ZN4omni10CONV_FRAME16CodeSetComponentD1Ev @1107
    _ZN4omni10CONV_FRAME16CodeSetComponentlSER9cdrStream @1108
    _ZN4omni10CONV_FRAME20CodeSetComponentInfoD1Ev @1109
    _ZN4omni10CONV_FRAME20CodeSetComponentInfolSER9cdrStream @1110
    _ZN4omni10StrandList6insertERS0_ @1111
    _ZN4omni10StrandList6removeEv @1112
    _ZN4omni10StrandList8is_emptyERS0_ @1113
    _ZN4omni10assertFailEPKciS1_ @1114
    _ZN4omni10giopImpl1011outputFlushEPNS_10giopStreamE @1115
    _ZN4omni10giopImpl1012getInputDataEPNS_10giopStreamENS_11alignment_tEj @1116
    _ZN4omni10giopImpl1013copyInputDataEPNS_10giopStreamEPvjNS_11alignment_tE @1117
    _ZN4omni10giopImpl1013skipInputDataEPNS_10giopStreamEj @1118
    _ZN4omni10giopImpl1014copyOutputDataEPNS_10giopStreamEPvjNS_11alignment_tE @1119
    _ZN4omni10giopImpl1014inputRemainingEPNS_10giopStreamE @1120
    _ZN4omni10giopImpl1015currentInputPtrEPKNS_10giopStreamE @1121
    _ZN4omni10giopImpl1015getReserveSpaceEPNS_10giopStreamENS_11alignment_tEj @1122
    _ZN4omni10giopImpl1015inputMessageEndEPNS_10giopStreamEb @1123
    _ZN4omni10giopImpl1015inputReplyBeginEPNS_10giopStreamEPFvS2_E @1124
    _ZN4omni10giopImpl1015outputRemainingEPKNS_10giopStreamE @1125
    _ZN4omni10giopImpl1015sendLocateReplyEPNS_10giopStreamEN4GIOP16LocateStatusTypeEPN5CORBA6ObjectEPNS5_15SystemExceptionE @1126
    _ZN4omni10giopImpl1016currentOutputPtrEPKNS_10giopStreamE @1127
    _ZN4omni10giopImpl1016outputMessageEndEPNS_10giopStreamE @1128
    _ZN4omni10giopImpl1016outputNewMessageEPNS_10giopStreamE @1129
    _ZN4omni10giopImpl1017inputMessageBeginEPNS_10giopStreamEPFvS2_E @1130
    _ZN4omni10giopImpl1017sendLocateRequestEPNS_10giopStreamE @1131
    _ZN4omni10giopImpl1017sendUserExceptionEPNS_10giopStreamERKN5CORBA13UserExceptionE @1132
    _ZN4omni10giopImpl1018marshalReplyHeaderEPNS_10giopStreamE @1133
    _ZN4omni10giopImpl1018outputMessageBeginEPNS_10giopStreamEPFvS2_E @1134
    _ZN4omni10giopImpl1019sendMsgErrorMessageEPNS_10giopStreamEPKN5CORBA15SystemExceptionE @1135
    _ZN4omni10giopImpl1019sendSystemExceptionEPNS_10giopStreamERKN5CORBA15SystemExceptionE @1136
    _ZN4omni10giopImpl1020marshalRequestHeaderEPNS_10giopStreamE @1137
    _ZN4omni10giopImpl1020outputSetMessageSizeEPNS_10giopStreamEm @1138
    _ZN4omni10giopImpl1020unmarshalLocateReplyEPNS_10giopStreamE @1139
    _ZN4omni10giopImpl1020unmarshalReplyHeaderEPNS_10giopStreamE @1140
    _ZN4omni10giopImpl1021inputRaiseCommFailureEPNS_10giopStreamEPKc @1141
    _ZN4omni10giopImpl1022unmarshalLocateRequestEPNS_10giopStreamE @1142
    _ZN4omni10giopImpl1022unmarshalRequestHeaderEPNS_10giopStreamE @1143
    _ZN4omni10giopImpl1024sendLocationForwardReplyEPNS_10giopStreamEPN5CORBA6ObjectEb @1144
    _ZN4omni10giopImpl1026inputTerminalProtocolErrorEPNS_10giopStreamEPKciS4_ @1145
    _ZN4omni10giopImpl1030unmarshalWildCardRequestHeaderEPNS_10giopStreamE @1146
    _ZN4omni10giopImpl1111outputFlushEPNS_10giopStreamEb @1147
    _ZN4omni10giopImpl1112getInputDataEPNS_10giopStreamENS_11alignment_tEj @1148
    _ZN4omni10giopImpl1113copyInputDataEPNS_10giopStreamEPvjNS_11alignment_tE @1149
    _ZN4omni10giopImpl1113skipInputDataEPNS_10giopStreamEj @1150
    _ZN4omni10giopImpl1114copyOutputDataEPNS_10giopStreamEPvjNS_11alignment_tE @1151
    _ZN4omni10giopImpl1114inputRemainingEPNS_10giopStreamE @1152
    _ZN4omni10giopImpl1115currentInputPtrEPKNS_10giopStreamE @1153
    _ZN4omni10giopImpl1115getReserveSpaceEPNS_10giopStreamENS_11alignment_tEj @1154
    _ZN4omni10giopImpl1115inputMessageEndEPNS_10giopStreamEb @1155
    _ZN4omni10giopImpl1115inputReplyBeginEPNS_10giopStreamEPFvS2_E @1156
    _ZN4omni10giopImpl1115outputRemainingEPKNS_10giopStreamE @1157
    _ZN4omni10giopImpl1115sendLocateReplyEPNS_10giopStreamEN4GIOP16LocateStatusTypeEPN5CORBA6ObjectEPNS5_15SystemExceptionE @1158
    _ZN4omni10giopImpl1116currentOutputPtrEPKNS_10giopStreamE @1159
    _ZN4omni10giopImpl1116inputNewFragmentEPNS_10giopStreamE @1160
    _ZN4omni10giopImpl1116outputMessageEndEPNS_10giopStreamE @1161
    _ZN4omni10giopImpl1116outputNewMessageEPNS_10giopStreamE @1162
    _ZN4omni10giopImpl1117inputMessageBeginEPNS_10giopStreamEPFvS2_E @1163
    _ZN4omni10giopImpl1117sendLocateRequestEPNS_10giopStreamE @1164
    _ZN4omni10giopImpl1117sendUserExceptionEPNS_10giopStreamERKN5CORBA13UserExceptionE @1165
    _ZN4omni10giopImpl1118marshalReplyHeaderEPNS_10giopStreamE @1166
    _ZN4omni10giopImpl1118outputMessageBeginEPNS_10giopStreamEPFvS2_E @1167
    _ZN4omni10giopImpl1119sendMsgErrorMessageEPNS_10giopStreamEPKN5CORBA15SystemExceptionE @1168
    _ZN4omni10giopImpl1119sendSystemExceptionEPNS_10giopStreamERKN5CORBA15SystemExceptionE @1169
    _ZN4omni10giopImpl1120marshalRequestHeaderEPNS_10giopStreamE @1170
    _ZN4omni10giopImpl1120unmarshalLocateReplyEPNS_10giopStreamE @1171
    _ZN4omni10giopImpl1120unmarshalReplyHeaderEPNS_10giopStreamE @1172
    _ZN4omni10giopImpl1121inputRaiseCommFailureEPNS_10giopStreamEPKc @1173
    _ZN4omni10giopImpl1121inputSkipWholeMessageEPNS_10giopStreamE @1174
    _ZN4omni10giopImpl1121outputHasReachedLimitEPNS_10giopStreamE @1175
    _ZN4omni10giopImpl1121outputSetFragmentSizeEPNS_10giopStreamEm @1176
    _ZN4omni10giopImpl1122unmarshalLocateRequestEPNS_10giopStreamE @1177
    _ZN4omni10giopImpl1122unmarshalRequestHeaderEPNS_10giopStreamE @1178
    _ZN4omni10giopImpl1124sendLocationForwardReplyEPNS_10giopStreamEPN5CORBA6ObjectEb @1179
    _ZN4omni10giopImpl1126inputTerminalProtocolErrorEPNS_10giopStreamEPKciS4_ @1180
    _ZN4omni10giopImpl1130unmarshalWildCardRequestHeaderEPNS_10giopStreamE @1181
    _ZN4omni10giopImpl1211outputFlushEPNS_10giopStreamEb @1182
    _ZN4omni10giopImpl1212getInputDataEPNS_10giopStreamENS_11alignment_tEj @1183
    _ZN4omni10giopImpl1213copyInputDataEPNS_10giopStreamEPvjNS_11alignment_tE @1184
    _ZN4omni10giopImpl1213skipInputDataEPNS_10giopStreamEj @1185
    _ZN4omni10giopImpl1214copyOutputDataEPNS_10giopStreamEPvjNS_11alignment_tE @1186
    _ZN4omni10giopImpl1214inputRemainingEPNS_10giopStreamE @1187
    _ZN4omni10giopImpl1215currentInputPtrEPKNS_10giopStreamE @1188
    _ZN4omni10giopImpl1215getReserveSpaceEPNS_10giopStreamENS_11alignment_tEj @1189
    _ZN4omni10giopImpl1215inputMessageEndEPNS_10giopStreamEb @1190
    _ZN4omni10giopImpl1215inputReplyBeginEPNS_10giopStreamEPFvS2_E @1191
    _ZN4omni10giopImpl1215outputRemainingEPKNS_10giopStreamE @1192
    _ZN4omni10giopImpl1215sendLocateReplyEPNS_10giopStreamEN4GIOP16LocateStatusTypeEPN5CORBA6ObjectEPNS5_15SystemExceptionE @1193
    _ZN4omni10giopImpl1216currentOutputPtrEPKNS_10giopStreamE @1194
    _ZN4omni10giopImpl1216inputNewFragmentEPNS_10giopStreamE @1195
    _ZN4omni10giopImpl1216outputMessageEndEPNS_10giopStreamE @1196
    _ZN4omni10giopImpl1216outputNewMessageEPNS_10giopStreamE @1197
    _ZN4omni10giopImpl1217inputMessageBeginEPNS_10giopStreamEPFvS2_E @1198
    _ZN4omni10giopImpl1217inputQueueMessageEPNS_10giopStreamEPNS_17giopStream_BufferE @1199
    _ZN4omni10giopImpl1217sendLocateRequestEPNS_10giopStreamE @1200
    _ZN4omni10giopImpl1217sendUserExceptionEPNS_10giopStreamERKN5CORBA13UserExceptionE @1201
    _ZN4omni10giopImpl1218marshalReplyHeaderEPNS_10giopStreamE @1202
    _ZN4omni10giopImpl1218outputMessageBeginEPNS_10giopStreamEPFvS2_E @1203
    _ZN4omni10giopImpl1219sendMsgErrorMessageEPNS_10giopStreamEPKN5CORBA15SystemExceptionE @1204
    _ZN4omni10giopImpl1219sendSystemExceptionEPNS_10giopStreamERKN5CORBA15SystemExceptionE @1205
    _ZN4omni10giopImpl1220marshalRequestHeaderEPNS_10giopStreamE @1206
    _ZN4omni10giopImpl1220unmarshalLocateReplyEPNS_10giopStreamE @1207
    _ZN4omni10giopImpl1220unmarshalReplyHeaderEPNS_10giopStreamE @1208
    _ZN4omni10giopImpl1221inputNewServerMessageEPNS_10giopStreamE @1209
    _ZN4omni10giopImpl1221inputRaiseCommFailureEPNS_10giopStreamEPKc @1210
    _ZN4omni10giopImpl1221inputSkipWholeMessageEPNS_10giopStreamE @1211
    _ZN4omni10giopImpl1221outputHasReachedLimitEPNS_10giopStreamE @1212
    _ZN4omni10giopImpl1221outputSetFragmentSizeEPNS_10giopStreamEm @1213
    _ZN4omni10giopImpl1222unmarshalLocateRequestEPNS_10giopStreamE @1214
    _ZN4omni10giopImpl1222unmarshalRequestHeaderEPNS_10giopStreamE @1215
    _ZN4omni10giopImpl1224sendLocationForwardReplyEPNS_10giopStreamEPN5CORBA6ObjectEb @1216
    _ZN4omni10giopImpl1226inputTerminalProtocolErrorEPNS_10giopStreamEPKciS4_ @1217
    _ZN4omni10giopImpl1230unmarshalWildCardRequestHeaderEPNS_10giopStreamE @1218
    _ZN4omni10giopServer10deactivateEv @1219
    _ZN4omni10giopServer11instantiateEPKcbR32_CORBA_Unbounded_Sequence_String @1220
    _ZN4omni10giopServer12notifyMrDoneEPNS_11giopMonitorEb @1221
    _ZN4omni10giopServer12notifyRzDoneEPNS_16giopRendezvouserEb @1222
    _ZN4omni10giopServer12notifyWkDoneEPNS_10giopWorkerEb @1223
    _ZN4omni10giopServer12peekCallBackEPvPNS_14giopConnectionE @1224
    _ZN4omni10giopServer14addBiDirStrandEPNS_10giopStrandEPNS_20giopActiveCollectionE @1225
    _ZN4omni10giopServer15connectionState8hashsizeE @1226 DATA
    _ZN4omni10giopServer15connectionStateC1EPNS_14giopConnectionEPNS_10giopStrandE @1227
    _ZN4omni10giopServer15connectionStateC2EPNS_14giopConnectionEPNS_10giopStrandE @1228
    _ZN4omni10giopServer15connectionStateD1Ev @1229
    _ZN4omni10giopServer15connectionStateD2Ev @1230
    _ZN4omni10giopServer15ensureNotInFluxEv @1231
    _ZN4omni10giopServer16notifyRzReadableEPNS_14giopConnectionEb @1232
    _ZN4omni10giopServer17notifyWkPreUpCallEPNS_10giopWorkerEb @1233
    _ZN4omni10giopServer21notifyRzNewConnectionEPNS_16giopRendezvouserEPNS_14giopConnectionE @1234
    _ZN4omni10giopServer23notifyCallFullyBufferedEPNS_14giopConnectionE @1235
    _ZN4omni10giopServer25removeConnectionAndWorkerEPNS_10giopWorkerE @1236
    _ZN4omni10giopServer27notifySwitchToBiDirectionalEPNS_14giopConnectionE @1237
    _ZN4omni10giopServer4Link6insertERS1_ @1238
    _ZN4omni10giopServer4Link6removeEv @1239
    _ZN4omni10giopServer4Link8is_emptyERS1_ @1240
    _ZN4omni10giopServer4stopEv @1241
    _ZN4omni10giopServer5startEv @1242
    _ZN4omni10giopServer6removeEv @1243
    _ZN4omni10giopServer7publishERK32_CORBA_Unbounded_Sequence_StringbbRS1_ @1244
    _ZN4omni10giopServer8activateEv @1245
    _ZN4omni10giopServer8csInsertEPNS_10giopStrandE @1246
    _ZN4omni10giopServer8csInsertEPNS_14giopConnectionE @1247
    _ZN4omni10giopServer8csLocateEPNS_14giopConnectionE @1248
    _ZN4omni10giopServer8csRemoveEPNS_14giopConnectionE @1249
    _ZN4omni10giopServer9singletonEv @1250
    _ZN4omni10giopServerC1Ev @1251
    _ZN4omni10giopServerC2Ev @1252
    _ZN4omni10giopServerD0Ev @1253
    _ZN4omni10giopServerD1Ev @1254
    _ZN4omni10giopServerD2Ev @1255
    _ZN4omni10giopStrand10safeDeleteEb @1256
    _ZN4omni10giopStrand12newSeqNumberEv @1257
    _ZN4omni10giopStrand13acquireServerEPNS_10giopWorkerE @1258
    _ZN4omni10giopStrand13deletePendingEv @1259
    _ZN4omni10giopStrand13releaseServerEPNS_5IOP_SE @1260
    _ZN4omni10giopStrand15active_timedoutE @1261 DATA
    _ZN4omni10giopStrand15stopIdleCounterEv @1262
    _ZN4omni10giopStrand16startIdleCounterEv @1263
    _ZN4omni10giopStrand17idleIncomingBeatsE @1264 DATA
    _ZN4omni10giopStrand17idleOutgoingBeatsE @1265 DATA
    _ZN4omni10giopStrand25deleteStrandAndConnectionEb @1266
    _ZN4omni10giopStrand6activeE @1267 DATA
    _ZN4omni10giopStrand7passiveE @1268 DATA
    _ZN4omni10giopStrandC1EPKNS_11giopAddressE @1269
    _ZN4omni10giopStrandC1EPNS_14giopConnectionEPNS_10giopServerE @1270
    _ZN4omni10giopStrandC2EPKNS_11giopAddressE @1271
    _ZN4omni10giopStrandC2EPNS_14giopConnectionEPNS_10giopServerE @1272
    _ZN4omni10giopStrandD0Ev @1273
    _ZN4omni10giopStrandD1Ev @1274
    _ZN4omni10giopStrandD2Ev @1275
    _ZN4omni10giopStream10bufferSizeE @1276 DATA
    _ZN4omni10giopStream10inputChunkEm @1277
    _ZN4omni10giopStream10markRdLockEv @1278
    _ZN4omni10giopStream10ptrToClassEPi @1279
    _ZN4omni10giopStream11CommFailure6_raiseEmN5CORBA16CompletionStatusEbPKcmS5_PNS_10giopStrandE @1280
    _ZN4omni10giopStream11CommFailureD1Ev @1281
    _ZN4omni10giopStream11errorOnSendEiPKcmbS2_ @1282
    _ZN4omni10giopStream12RdLockIsHeldEPNS_10giopStrandE @1283
    _ZN4omni10giopStream12inputMessageEv @1284
    _ZN4omni10giopStream12wakeUpRdLockEPNS_10giopStrandE @1285
    _ZN4omni10giopStream13noLockWaitingEPNS_10giopStrandE @1286
    _ZN4omni10giopStream13sendCopyChunkEPvm @1287
    _ZN4omni10giopStream13sleepOnRdLockEPNS_10giopStrandE @1288
    _ZN4omni10giopStream13sleepOnRdLockEv @1289
    _ZN4omni10giopStream14errorOnReceiveEiPKcmPNS_17giopStream_BufferEbS2_ @1290
    _ZN4omni10giopStream14fetchInputDataENS_11alignment_tEj @1291
    _ZN4omni10giopStream14inputCopyChunkEPvm @1292
    _ZN4omni10giopStream15get_octet_arrayEPhiNS_11alignment_tE @1293
    _ZN4omni10giopStream15put_octet_arrayEPKhiNS_11alignment_tE @1294
    _ZN4omni10giopStream16directSendCutOffE @1295 DATA
    _ZN4omni10giopStream16ensureSaneHeaderEPKcmPNS_17giopStream_BufferEm @1296
    _ZN4omni10giopStream17checkInputOverrunEmmNS_11alignment_tE @1297
    _ZN4omni10giopStream17notifyCommFailureEbRmRb @1298
    _ZN4omni10giopStream17rdLockNonBlockingEPNS_10giopStrandE @1299
    _ZN4omni10giopStream17rdLockNonBlockingEv @1300
    _ZN4omni10giopStream18checkOutputOverrunEmmNS_11alignment_tE @1301
    _ZN4omni10giopStream18releaseInputBufferEPNS_17giopStream_BufferE @1302
    _ZN4omni10giopStream19directReceiveCutOffE @1303 DATA
    _ZN4omni10giopStream19sleepOnRdLockAlwaysEv @1304
    _ZN4omni10giopStream23maybeReserveOutputSpaceENS_11alignment_tEj @1305
    _ZN4omni10giopStream34reserveOutputSpaceForPrimitiveTypeENS_11alignment_tEj @1306
    _ZN4omni10giopStream5resetEv @1307
    _ZN4omni10giopStream6rdLockEv @1308
    _ZN4omni10giopStream6wrLockEv @1309
    _ZN4omni10giopStream7dumpbufEPhj @1310
    _ZN4omni10giopStream7versionEv @1311
    _ZN4omni10giopStream8_classidE @1312 DATA
    _ZN4omni10giopStream8rdUnLockEv @1313
    _ZN4omni10giopStream8wrUnLockEv @1314
    _ZN4omni10giopStream9sendChunkEPNS_17giopStream_BufferE @1315
    _ZN4omni10giopStream9skipInputEm @1316
    _ZN4omni10giopStreamC1EPNS_10giopStrandE @1317
    _ZN4omni10giopStreamC2EPNS_10giopStrandE @1318
    _ZN4omni10giopStreamD0Ev @1319
    _ZN4omni10giopStreamD1Ev @1320
    _ZN4omni10giopStreamD2Ev @1321
    _ZN4omni10giopWorker12real_executeEv @1322
    _ZN4omni10giopWorker7executeEv @1323
    _ZN4omni10giopWorker9terminateEv @1324
    _ZN4omni10giopWorkerC1EPNS_10giopStrandEPNS_10giopServerEb @1325
    _ZN4omni10giopWorkerC2EPNS_10giopStrandEPNS_10giopServerEb @1326
    _ZN4omni10giopWorkerD0Ev @1327
    _ZN4omni10giopWorkerD1Ev @1328
    _ZN4omni10nilRefLockEv @1329
    _ZN4omni10omniOrbBOA11_ptrToClassEPi @1330
    _ZN4omni10omniOrbBOA12_ptrToObjRefEPKc @1331
    _ZN4omni10omniOrbBOA12decrRefCountEv @1332
    _ZN4omni10omniOrbBOA12incrRefCountEv @1333
    _ZN4omni10omniOrbBOA12obj_is_readyEP17omniOrbBoaServantPN5CORBA17ImplementationDefE @1334
    _ZN4omni10omniOrbBOA12obj_is_readyEPN5CORBA6ObjectEPNS1_17ImplementationDefE @1335
    _ZN4omni10omniOrbBOA12objectExistsEPKhi @1336
    _ZN4omni10omniOrbBOA13_non_existentEv @1337
    _ZN4omni10omniOrbBOA13get_principalEPN5CORBA6ObjectEPNS1_11EnvironmentE @1338
    _ZN4omni10omniOrbBOA13impl_is_readyEPN5CORBA17ImplementationDefEb @1339
    _ZN4omni10omniOrbBOA13impl_shutdownEv @1340
    _ZN4omni10omniOrbBOA14deactivate_objEPN5CORBA6ObjectE @1341
    _ZN4omni10omniOrbBOA15deactivate_implEPN5CORBA17ImplementationDefE @1342
    _ZN4omni10omniOrbBOA16_NP_decrRefCountEv @1343
    _ZN4omni10omniOrbBOA16_NP_incrRefCountEv @1344
    _ZN4omni10omniOrbBOA19synchronise_requestEv @1345
    _ZN4omni10omniOrbBOA21change_implementationEPN5CORBA6ObjectEPNS1_17ImplementationDefE @1346
    _ZN4omni10omniOrbBOA26lastInvocationHasCompletedEP17omniLocalIdentity @1347
    _ZN4omni10omniOrbBOA6createERKN5CORBA13ReferenceDataEPNS1_20_objref_InterfaceDefEPNS1_17ImplementationDefE @1348
    _ZN4omni10omniOrbBOA6get_idEPN5CORBA6ObjectE @1349
    _ZN4omni10omniOrbBOA6theBOAEv @1350
    _ZN4omni10omniOrbBOA7destroyEv @1351
    _ZN4omni10omniOrbBOA7disposeEP12omniIdentity @1352
    _ZN4omni10omniOrbBOA7disposeEPN5CORBA6ObjectE @1353
    _ZN4omni10omniOrbBOA8_classidE @1354 DATA
    _ZN4omni10omniOrbBOA8dispatchER14omniCallHandleP17omniLocalIdentity @1355
    _ZN4omni10omniOrbBOA8dispatchER14omniCallHandlePKhi @1356
    _ZN4omni10omniOrbBOA8dispatchER18omniCallDescriptorP17omniLocalIdentity @1357
    _ZN4omni10omniOrbBOAC1Ei @1358
    _ZN4omni10omniOrbBOAC2Ei @1359
    _ZN4omni10omniOrbBOAD0Ev @1360
    _ZN4omni10omniOrbBOAD1Ev @1361
    _ZN4omni10omniOrbBOAD2Ev @1362
    _ZN4omni10omniOrbPOA10create_POAEPKcPN14PortableServer10POAManagerERK32_CORBA_Pseudo_Unbounded_SequenceIN5CORBA6PolicyE23_CORBA_PseudoObj_MemberIS8_20_CORBA_PseudoObj_VarIS8_EEE @1363
    _ZN4omni10omniOrbPOA10create_keyER10omniObjKeyPKhi @1364
    _ZN4omni10omniOrbPOA10do_destroyEb @1365
    _ZN4omni10omniOrbPOA10find_childEPKc @1366
    _ZN4omni10omniOrbPOA10find_childEPKcS2_ @1367
    _ZN4omni10omniOrbPOA10getAdapterEPKhi @1368
    _ZN4omni10omniOrbPOA10lose_childEPS0_ @1369
    _ZN4omni10omniOrbPOA10omniINSPOAEv @1370
    _ZN4omni10omniOrbPOA10the_parentEv @1371
    _ZN4omni10omniOrbPOA11_ptrToClassEPi @1372
    _ZN4omni10omniOrbPOA11get_servantEv @1373
    _ZN4omni10omniOrbPOA11set_servantEPN14PortableServer11ServantBaseE @1374
    _ZN4omni10omniOrbPOA12_ptrToObjRefEPKc @1375
    _ZN4omni10omniOrbPOA12decrRefCountEv @1376
    _ZN4omni10omniOrbPOA12incrRefCountEv @1377
    _ZN4omni10omniOrbPOA12insert_childEPS0_ @1378
    _ZN4omni10omniOrbPOA12objectExistsEPKhi @1379
    _ZN4omni10omniOrbPOA12the_childrenEv @1380
    _ZN4omni10omniOrbPOA13_non_existentEv @1381
    _ZN4omni10omniOrbPOA13id_to_servantERKN14PortableServer8ObjectIdE @1382
    _ZN4omni10omniOrbPOA13pm_deactivateEb @1383
    _ZN4omni10omniOrbPOA13servant__thisEPN14PortableServer11ServantBaseEPKc @1384
    _ZN4omni10omniOrbPOA13servant_to_idEPN14PortableServer11ServantBaseE @1385
    _ZN4omni10omniOrbPOA13the_activatorEPN14PortableServer16AdapterActivatorE @1386
    _ZN4omni10omniOrbPOA13the_activatorEv @1387
    _ZN4omni10omniOrbPOA14create_new_keyER10omniObjKeyPPKhPi @1388
    _ZN4omni10omniOrbPOA14dispatch_to_dsER14omniCallHandlePKhi @1389
    _ZN4omni10omniOrbPOA14dispatch_to_saER14omniCallHandlePKhi @1390
    _ZN4omni10omniOrbPOA14dispatch_to_slER14omniCallHandlePKhi @1391
    _ZN4omni10omniOrbPOA14the_POAManagerEv @1392
    _ZN4omni10omniOrbPOA15activate_objectEPN14PortableServer11ServantBaseE @1393
    _ZN4omni10omniOrbPOA15id_to_referenceERKN14PortableServer8ObjectIdE @1394
    _ZN4omni10omniOrbPOA15pm_change_stateEN14PortableServer10POAManager5StateE @1395
    _ZN4omni10omniOrbPOA15reference_to_idEPN5CORBA6ObjectE @1396
    _ZN4omni10omniOrbPOA16SLPostInvokeHook10postinvokeEv @1397
    _ZN4omni10omniOrbPOA16SLPostInvokeHookD0Ev @1398
    _ZN4omni10omniOrbPOA16SLPostInvokeHookD1Ev @1399
    _ZN4omni10omniOrbPOA16SLPostInvokeHookD2Ev @1400
    _ZN4omni10omniOrbPOA16_NP_decrRefCountEv @1401
    _ZN4omni10omniOrbPOA16_NP_incrRefCountEv @1402
    _ZN4omni10omniOrbPOA16create_referenceEPKc @1403
    _ZN4omni10omniOrbPOA17deactivate_objectERKN14PortableServer8ObjectIdE @1404
    _ZN4omni10omniOrbPOA18deactivate_objectsEP17omniObjTableEntry @1405
    _ZN4omni10omniOrbPOA19etherealise_objectsEP17omniObjTableEntrybPN14PortableServer16ServantActivatorE @1406
    _ZN4omni10omniOrbPOA19get_servant_managerEv @1407
    _ZN4omni10omniOrbPOA19localId_to_ObjectIdEP12omniIdentity @1408
    _ZN4omni10omniOrbPOA19localId_to_ObjectIdEP12omniIdentityRN14PortableServer8ObjectIdE @1409
    _ZN4omni10omniOrbPOA19set_servant_managerEPN14PortableServer14ServantManagerE @1410
    _ZN4omni10omniOrbPOA19synchronise_requestEP17omniLocalIdentity @1411
    _ZN4omni10omniOrbPOA20reference_to_servantEPN5CORBA6ObjectE @1412
    _ZN4omni10omniOrbPOA20servant_to_referenceEPN14PortableServer11ServantBaseE @1413
    _ZN4omni10omniOrbPOA21adapter_name_is_validEPKc @1414
    _ZN4omni10omniOrbPOA23activate_object_with_idERKN14PortableServer8ObjectIdEPNS1_11ServantBaseE @1415
    _ZN4omni10omniOrbPOA24create_reference_with_idERKN14PortableServer8ObjectIdEPKc @1416
    _ZN4omni10omniOrbPOA26is_adapteractivating_childEPKc @1417
    _ZN4omni10omniOrbPOA26lastInvocationHasCompletedEP17omniLocalIdentity @1418
    _ZN4omni10omniOrbPOA27attempt_to_activate_adapterEPKc @1419
    _ZN4omni10omniOrbPOA28complete_object_deactivationEP17omniObjTableEntry @1420
    _ZN4omni10omniOrbPOA29pm_waitForReqCmpltnOrSttChngeEN14PortableServer10POAManager5StateE @1421
    _ZN4omni10omniOrbPOA2idEv @1422
    _ZN4omni10omniOrbPOA30finish_adapteractivating_childEPKc @1423
    _ZN4omni10omniOrbPOA35add_object_to_etherealisation_queueEP17omniObjTableEntryPN14PortableServer16ServantActivatorEii @1424
    _ZN4omni10omniOrbPOA38start_adapteractivating_child_or_blockEPKc @1425
    _ZN4omni10omniOrbPOA7destroyEbb @1426
    _ZN4omni10omniOrbPOA7rootPOAEi @1427
    _ZN4omni10omniOrbPOA8_classidE @1428 DATA
    _ZN4omni10omniOrbPOA8dispatchER14omniCallHandleP17omniLocalIdentity @1429
    _ZN4omni10omniOrbPOA8dispatchER14omniCallHandlePKhi @1430
    _ZN4omni10omniOrbPOA8dispatchER18omniCallDescriptorP17omniLocalIdentity @1431
    _ZN4omni10omniOrbPOA8find_POAEPKcb @1432
    _ZN4omni10omniOrbPOA8shutdownEv @1433
    _ZN4omni10omniOrbPOA8the_nameEv @1434
    _ZN4omni10omniOrbPOAC1EPKcPNS_17omniOrbPOAManagerERKNS0_8PoliciesERK32_CORBA_Pseudo_Unbounded_SequenceIN5CORBA6PolicyE23_CORBA_PseudoObj_MemberISA_20_CORBA_PseudoObj_VarISA_EEEPS0_ @1435
    _ZN4omni10omniOrbPOAC1Ev @1436
    _ZN4omni10omniOrbPOAC2EPKcPNS_17omniOrbPOAManagerERKNS0_8PoliciesERK32_CORBA_Pseudo_Unbounded_SequenceIN5CORBA6PolicyE23_CORBA_PseudoObj_MemberISA_20_CORBA_PseudoObj_VarISA_EEEPS0_ @1437
    _ZN4omni10omniOrbPOAC2Ev @1438
    _ZN4omni10omniOrbPOAD0Ev @1439
    _ZN4omni10omniOrbPOAD1Ev @1440
    _ZN4omni10omniOrbPOAD2Ev @1441
    _ZN4omni10orbOptions10addKVULongEPKcmRNS0_14sequenceStringE @1442
    _ZN4omni10orbOptions10addOptionsEPA2_PKc @1443
    _ZN4omni10orbOptions10getBooleanEPKcRb @1444
    _ZN4omni10orbOptions11addKVStringEPKcS2_RNS0_14sequenceStringE @1445
    _ZN4omni10orbOptions11findHandlerEPKc @1446
    _ZN4omni10orbOptions12addKVBooleanEPKcbRNS0_14sequenceStringE @1447
    _ZN4omni10orbOptions12sortHandlersEv @1448
    _ZN4omni10orbOptions13getTraceLevelEiPPc @1449
    _ZN4omni10orbOptions13importFromEnvEv @1450
    _ZN4omni10orbOptions14importFromFileEPKc @1451
    _ZN4omni10orbOptions15registerHandlerERNS0_7HandlerE @1452
    _ZN4omni10orbOptions16expect_ulong_msgE @1453 DATA
    _ZN4omni10orbOptions17getConfigFileNameEiPPcPKc @1454
    _ZN4omni10orbOptions18expect_boolean_msgE @1455 DATA
    _ZN4omni10orbOptions18extractInitOptionsERiPPc @1456
    _ZN4omni10orbOptions18importFromRegistryEv @1457
    _ZN4omni10orbOptions18sequenceString_varD1Ev @1458
    _ZN4omni10orbOptions34expect_greater_than_zero_ulong_msgE @1459 DATA
    _ZN4omni10orbOptions5resetEv @1460
    _ZN4omni10orbOptions5visitEv @1461
    _ZN4omni10orbOptions7HandlerD0Ev @1462
    _ZN4omni10orbOptions7HandlerD1Ev @1463
    _ZN4omni10orbOptions7UnknownC1EPKcS3_ @1464
    _ZN4omni10orbOptions7UnknownD1Ev @1465
    _ZN4omni10orbOptions7getLongEPKcRl @1466
    _ZN4omni10orbOptions8BadParamC1EPKcS3_S3_ @1467
    _ZN4omni10orbOptions8BadParamD1Ev @1468
    _ZN4omni10orbOptions8getULongEPKcRm @1469
    _ZN4omni10orbOptions9addKVLongEPKclRNS0_14sequenceStringE @1470
    _ZN4omni10orbOptions9addOptionEPKcS2_NS0_6SourceE @1471
    _ZN4omni10orbOptions9move_argsERiPPcii @1472
    _ZN4omni10orbOptions9singletonEv @1473
    _ZN4omni10orbOptionsC1Ev @1474
    _ZN4omni10orbOptionsC2Ev @1475
    _ZN4omni10orbOptionsD1Ev @1476
    _ZN4omni10orbOptionsD2Ev @1477
    _ZN4omni10tcpAddressC1ERKN4IIOP7AddressE @1478
    _ZN4omni10tcpAddressC2ERKN4IIOP7AddressE @1479
    _ZN4omni10tcpAddressD0Ev @1480
    _ZN4omni10tcpAddressD1Ev @1481
    _ZN4omni10ucheckFailEPKciS1_ @1482
    _ZN4omni11IP4AddrInfo10addrFamilyEv @1483
    _ZN4omni11IP4AddrInfo4addrEv @1484
    _ZN4omni11IP4AddrInfo4nameEv @1485
    _ZN4omni11IP4AddrInfo4nextEv @1486
    _ZN4omni11IP4AddrInfo8addrSizeEv @1487
    _ZN4omni11IP4AddrInfo8asStringEv @1488
    _ZN4omni11IP4AddrInfoC1EPKcmt @1489
    _ZN4omni11IP4AddrInfoC2EPKcmt @1490
    _ZN4omni11IP4AddrInfoD0Ev @1491
    _ZN4omni11IP4AddrInfoD1Ev @1492
    _ZN4omni11IP4AddrInfoD2Ev @1493
    _ZN4omni11LibcWrapper11getAddrInfoEPKct @1494
    _ZN4omni11LibcWrapper12AddrInfo_varD1Ev @1495
    _ZN4omni11LibcWrapper12freeAddrInfoEPNS0_8AddrInfoE @1496
    _ZN4omni11LibcWrapper8AddrInfoD0Ev @1497
    _ZN4omni11LibcWrapper8AddrInfoD1Ev @1498
    _ZN4omni11LibcWrapper8AddrInfoD2Ev @1499
    _ZN4omni11LibcWrapper8isipaddrEPKc @1500
    _ZN4omni11LibcWrapper9isip4addrEPKc @1501
    _ZN4omni11LibcWrapper9isip6addrEPKc @1502
    _ZN4omni11NCS_C_UTF_811marshalCharER9cdrStreamPNS_11omniCodeSet5TCS_CEh @1503
    _ZN4omni11NCS_C_UTF_813marshalStringER9cdrStreamPNS_11omniCodeSet5TCS_CEmmPKc @1504
    _ZN4omni11NCS_C_UTF_813unmarshalCharER9cdrStreamPNS_11omniCodeSet5TCS_CE @1505
    _ZN4omni11NCS_C_UTF_815unmarshalStringER9cdrStreamPNS_11omniCodeSet5TCS_CEmRPc @1506
    _ZN4omni11NCS_C_UTF_8D0Ev @1507
    _ZN4omni11NCS_C_UTF_8D1Ev @1508
    _ZN4omni11TCS_C_UTF_811marshalCharER9cdrStreamw @1509
    _ZN4omni11TCS_C_UTF_813marshalStringER9cdrStreammmPKw @1510
    _ZN4omni11TCS_C_UTF_813unmarshalCharER9cdrStream @1511
    _ZN4omni11TCS_C_UTF_814validateStringEPKcN5CORBA16CompletionStatusE @1512
    _ZN4omni11TCS_C_UTF_815fastMarshalCharER9cdrStreamPNS_11omniCodeSet5NCS_CEh @1513
    _ZN4omni11TCS_C_UTF_815unmarshalStringER9cdrStreammRPw @1514
    _ZN4omni11TCS_C_UTF_817fastMarshalStringER9cdrStreamPNS_11omniCodeSet5NCS_CEmmPKc @1515
    _ZN4omni11TCS_C_UTF_817fastUnmarshalCharER9cdrStreamPNS_11omniCodeSet5NCS_CERh @1516
    _ZN4omni11TCS_C_UTF_819fastUnmarshalStringER9cdrStreamPNS_11omniCodeSet5NCS_CEmRmRPc @1517
    _ZN4omni11TCS_C_UTF_8D0Ev @1518
    _ZN4omni11TCS_C_UTF_8D1Ev @1519
    _ZN4omni11giopAddress11str2AddressEPKc @1520
    _ZN4omni11giopAddress14fromSslAddressERKN4IIOP7AddressE @1521
    _ZN4omni11giopAddress14fromTcpAddressERKN4IIOP7AddressE @1522
    _ZN4omni11giopAddressD0Ev @1523
    _ZN4omni11giopAddressD1Ev @1524
    _ZN4omni11giopMonitor14notifyReadableEPvPNS_14giopConnectionE @1525
    _ZN4omni11giopMonitor7executeEv @1526
    _ZN4omni11giopMonitorD0Ev @1527
    _ZN4omni11giopMonitorD1Ev @1528
    _ZN4omni11helpHandler4dumpERNS_10orbOptions14sequenceStringE @1529
    _ZN4omni11helpHandler5visitEPKcNS_10orbOptions6SourceE @1530
    _ZN4omni11helpHandlerD0Ev @1531
    _ZN4omni11helpHandlerD1Ev @1532
    _ZN4omni11myByteOrderE @1533 DATA
    _ZN4omni11omniCodeSet10ID_8859_10E @1534 DATA
    _ZN4omni11omniCodeSet10ID_8859_11E @1535 DATA
    _ZN4omni11omniCodeSet10ID_8859_13E @1536 DATA
    _ZN4omni11omniCodeSet10ID_8859_14E @1537 DATA
    _ZN4omni11omniCodeSet10ID_8859_15E @1538 DATA
    _ZN4omni11omniCodeSet10ID_8859_16E @1539 DATA
    _ZN4omni11omniCodeSet10NCS_C_8bit11marshalCharER9cdrStreamPNS0_5TCS_CEh @1540
    _ZN4omni11omniCodeSet10NCS_C_8bit13marshalStringER9cdrStreamPNS0_5TCS_CEmmPKc @1541
    _ZN4omni11omniCodeSet10NCS_C_8bit13unmarshalCharER9cdrStreamPNS0_5TCS_CE @1542
    _ZN4omni11omniCodeSet10NCS_C_8bit15unmarshalStringER9cdrStreamPNS0_5TCS_CEmRPc @1543
    _ZN4omni11omniCodeSet10NCS_C_8bitD0Ev @1544
    _ZN4omni11omniCodeSet10NCS_C_8bitD1Ev @1545
    _ZN4omni11omniCodeSet10TCS_C_8bit11marshalCharER9cdrStreamw @1546
    _ZN4omni11omniCodeSet10TCS_C_8bit13marshalStringER9cdrStreammmPKw @1547
    _ZN4omni11omniCodeSet10TCS_C_8bit13unmarshalCharER9cdrStream @1548
    _ZN4omni11omniCodeSet10TCS_C_8bit15fastMarshalCharER9cdrStreamPNS0_5NCS_CEh @1549
    _ZN4omni11omniCodeSet10TCS_C_8bit15unmarshalStringER9cdrStreammRPw @1550
    _ZN4omni11omniCodeSet10TCS_C_8bit17fastMarshalStringER9cdrStreamPNS0_5NCS_CEmmPKc @1551
    _ZN4omni11omniCodeSet10TCS_C_8bit17fastUnmarshalCharER9cdrStreamPNS0_5NCS_CERh @1552
    _ZN4omni11omniCodeSet10TCS_C_8bit19fastUnmarshalStringER9cdrStreamPNS0_5NCS_CEmRmRPc @1553
    _ZN4omni11omniCodeSet10TCS_C_8bitD0Ev @1554
    _ZN4omni11omniCodeSet10TCS_C_8bitD1Ev @1555
    _ZN4omni11omniCodeSet11NCS_W_16bit12marshalWCharER9cdrStreamPNS0_5TCS_WEw @1556
    _ZN4omni11omniCodeSet11NCS_W_16bit14marshalWStringER9cdrStreamPNS0_5TCS_WEmmPKw @1557
    _ZN4omni11omniCodeSet11NCS_W_16bit14unmarshalWCharER9cdrStreamPNS0_5TCS_WE @1558
    _ZN4omni11omniCodeSet11NCS_W_16bit16unmarshalWStringER9cdrStreamPNS0_5TCS_WEmRPw @1559
    _ZN4omni11omniCodeSet11NCS_W_16bitD0Ev @1560
    _ZN4omni11omniCodeSet11NCS_W_16bitD1Ev @1561
    _ZN4omni11omniCodeSet11TCS_W_16bit12marshalWCharER9cdrStreamw @1562
    _ZN4omni11omniCodeSet11TCS_W_16bit14marshalWStringER9cdrStreammmPKw @1563
    _ZN4omni11omniCodeSet11TCS_W_16bit14unmarshalWCharER9cdrStream @1564
    _ZN4omni11omniCodeSet11TCS_W_16bit16fastMarshalWCharER9cdrStreamPNS0_5NCS_WEw @1565
    _ZN4omni11omniCodeSet11TCS_W_16bit16unmarshalWStringER9cdrStreammRPw @1566
    _ZN4omni11omniCodeSet11TCS_W_16bit18fastMarshalWStringER9cdrStreamPNS0_5NCS_WEmmPKw @1567
    _ZN4omni11omniCodeSet11TCS_W_16bit18fastUnmarshalWCharER9cdrStreamPNS0_5NCS_WERw @1568
    _ZN4omni11omniCodeSet11TCS_W_16bit20fastUnmarshalWStringER9cdrStreamPNS0_5NCS_WEmRmRPw @1569
    _ZN4omni11omniCodeSet11TCS_W_16bitD0Ev @1570
    _ZN4omni11omniCodeSet11TCS_W_16bitD1Ev @1571
    _ZN4omni11omniCodeSet11logCodeSetsEv @1572
    _ZN4omni11omniCodeSet13registerNCS_CEPNS0_5NCS_CE @1573
    _ZN4omni11omniCodeSet13registerNCS_WEPNS0_5NCS_WE @1574
    _ZN4omni11omniCodeSet13registerTCS_CEPNS0_5TCS_CE @1575
    _ZN4omni11omniCodeSet13registerTCS_WEPNS0_5TCS_WE @1576
    _ZN4omni11omniCodeSet14empty8BitTableE @1577 DATA
    _ZN4omni11omniCodeSet15empty16BitTableE @1578 DATA
    _ZN4omni11omniCodeSet4BaseD0Ev @1579
    _ZN4omni11omniCodeSet4BaseD1Ev @1580
    _ZN4omni11omniCodeSet5NCS_CC1EmPKcNS0_4KindE @1581
    _ZN4omni11omniCodeSet5NCS_CC2EmPKcNS0_4KindE @1582
    _ZN4omni11omniCodeSet5NCS_CD0Ev @1583
    _ZN4omni11omniCodeSet5NCS_CD1Ev @1584
    _ZN4omni11omniCodeSet5NCS_WC1EmPKcNS0_4KindE @1585
    _ZN4omni11omniCodeSet5NCS_WC2EmPKcNS0_4KindE @1586
    _ZN4omni11omniCodeSet5NCS_WD0Ev @1587
    _ZN4omni11omniCodeSet5NCS_WD1Ev @1588
    _ZN4omni11omniCodeSet5TCS_C15fastMarshalCharER9cdrStreamPNS0_5NCS_CEh @1589
    _ZN4omni11omniCodeSet5TCS_C17fastMarshalStringER9cdrStreamPNS0_5NCS_CEmmPKc @1590
    _ZN4omni11omniCodeSet5TCS_C17fastUnmarshalCharER9cdrStreamPNS0_5NCS_CERh @1591
    _ZN4omni11omniCodeSet5TCS_C19fastUnmarshalStringER9cdrStreamPNS0_5NCS_CEmRmRPc @1592
    _ZN4omni11omniCodeSet5TCS_CC1EmPKcNS0_4KindEN4GIOP7VersionE @1593
    _ZN4omni11omniCodeSet5TCS_CC2EmPKcNS0_4KindEN4GIOP7VersionE @1594
    _ZN4omni11omniCodeSet5TCS_CD0Ev @1595
    _ZN4omni11omniCodeSet5TCS_CD1Ev @1596
    _ZN4omni11omniCodeSet5TCS_W16fastMarshalWCharER9cdrStreamPNS0_5NCS_WEw @1597
    _ZN4omni11omniCodeSet5TCS_W18fastMarshalWStringER9cdrStreamPNS0_5NCS_WEmmPKw @1598
    _ZN4omni11omniCodeSet5TCS_W18fastUnmarshalWCharER9cdrStreamPNS0_5NCS_WERw @1599
    _ZN4omni11omniCodeSet5TCS_W20fastUnmarshalWStringER9cdrStreamPNS0_5NCS_WEmRmRPw @1600
    _ZN4omni11omniCodeSet5TCS_WC1EmPKcNS0_4KindEN4GIOP7VersionE @1601
    _ZN4omni11omniCodeSet5TCS_WC2EmPKcNS0_4KindEN4GIOP7VersionE @1602
    _ZN4omni11omniCodeSet5TCS_WD0Ev @1603
    _ZN4omni11omniCodeSet5TCS_WD1Ev @1604
    _ZN4omni11omniCodeSet6ID_037E @1605 DATA
    _ZN4omni11omniCodeSet6ID_500E @1606 DATA
    _ZN4omni11omniCodeSet8ID_EDF_4E @1607 DATA
    _ZN4omni11omniCodeSet8ID_UCS_2E @1608 DATA
    _ZN4omni11omniCodeSet8ID_UCS_4E @1609 DATA
    _ZN4omni11omniCodeSet8ID_UTF_8E @1610 DATA
    _ZN4omni11omniCodeSet8getNCS_CEPKc @1611
    _ZN4omni11omniCodeSet8getNCS_CEm @1612
    _ZN4omni11omniCodeSet8getNCS_WEPKc @1613
    _ZN4omni11omniCodeSet8getNCS_WEm @1614
    _ZN4omni11omniCodeSet8getTCS_CEPKcN4GIOP7VersionE @1615
    _ZN4omni11omniCodeSet8getTCS_CEmN4GIOP7VersionE @1616
    _ZN4omni11omniCodeSet8getTCS_WEPKcN4GIOP7VersionE @1617
    _ZN4omni11omniCodeSet8getTCS_WEmN4GIOP7VersionE @1618
    _ZN4omni11omniCodeSet9ID_8859_1E @1619 DATA
    _ZN4omni11omniCodeSet9ID_8859_2E @1620 DATA
    _ZN4omni11omniCodeSet9ID_8859_3E @1621 DATA
    _ZN4omni11omniCodeSet9ID_8859_4E @1622 DATA
    _ZN4omni11omniCodeSet9ID_8859_5E @1623 DATA
    _ZN4omni11omniCodeSet9ID_8859_6E @1624 DATA
    _ZN4omni11omniCodeSet9ID_8859_7E @1625 DATA
    _ZN4omni11omniCodeSet9ID_8859_8E @1626 DATA
    _ZN4omni11omniCodeSet9ID_8859_9E @1627 DATA
    _ZN4omni11omniCodeSet9ID_CP1250E @1628 DATA
    _ZN4omni11omniCodeSet9ID_CP1251E @1629 DATA
    _ZN4omni11omniCodeSet9ID_CP1252E @1630 DATA
    _ZN4omni11omniCodeSet9ID_CP1253E @1631 DATA
    _ZN4omni11omniCodeSet9ID_CP1254E @1632 DATA
    _ZN4omni11omniCodeSet9ID_CP1255E @1633 DATA
    _ZN4omni11omniCodeSet9ID_CP1256E @1634 DATA
    _ZN4omni11omniCodeSet9ID_CP1257E @1635 DATA
    _ZN4omni11omniCodeSet9ID_CP1258E @1636 DATA
    _ZN4omni11omniCodeSet9ID_UTF_16E @1637 DATA
    _ZN4omni11omniORB_4_1E @1638 DATA
    _ZN4omni11tcpEndpoint14notifyReadableEPNS_12SocketHolderE @1639
    _ZN4omni11tcpEndpoint16AcceptAndMonitorEPFvPvPNS_14giopConnectionEES1_ @1640
    _ZN4omni11tcpEndpoint4BindEv @1641
    _ZN4omni11tcpEndpoint4PokeEv @1642
    _ZN4omni11tcpEndpoint7publishERK32_CORBA_Unbounded_Sequence_StringbbRS1_ @1643
    _ZN4omni11tcpEndpoint8ShutdownEv @1644
    _ZN4omni11tcpEndpointC1ERKN4IIOP7AddressE @1645
    _ZN4omni11tcpEndpointC2ERKN4IIOP7AddressE @1646
    _ZN4omni11tcpEndpointD0Ev @1647
    _ZN4omni11tcpEndpointD1Ev @1648
    _ZN4omni11tcpEndpointD2Ev @1649
    _ZN4omni12IOP_C_HolderC1EPK7omniIORPKhmPNS_4RopeEP18omniCallDescriptor @1650
    _ZN4omni12IOP_C_HolderC2EPK7omniIORPKhmPNS_4RopeEP18omniCallDescriptor @1651
    _ZN4omni12IOP_C_HolderD1Ev @1652
    _ZN4omni12IOP_C_HolderD2Ev @1653
    _ZN4omni12NCS_W_UTF_1612marshalWCharER9cdrStreamPNS_11omniCodeSet5TCS_WEw @1654
    _ZN4omni12NCS_W_UTF_1614marshalWStringER9cdrStreamPNS_11omniCodeSet5TCS_WEmmPKw @1655
    _ZN4omni12NCS_W_UTF_1614unmarshalWCharER9cdrStreamPNS_11omniCodeSet5TCS_WE @1656
    _ZN4omni12NCS_W_UTF_1616unmarshalWStringER9cdrStreamPNS_11omniCodeSet5TCS_WEmRPw @1657
    _ZN4omni12NCS_W_UTF_16D0Ev @1658
    _ZN4omni12NCS_W_UTF_16D1Ev @1659
    _ZN4omni12SocketHolder13setSelectableEibb @1660
    _ZN4omni12SocketHolder15clearSelectableEv @1661
    _ZN4omni12SocketHolder4PeekEv @1662
    _ZN4omni12SocketHolderD0Ev @1663
    _ZN4omni12SocketHolderD1Ev @1664
    _ZN4omni12SocketHolderD2Ev @1665
    _ZN4omni12TCS_W_UTF_1612marshalWCharER9cdrStreamw @1666
    _ZN4omni12TCS_W_UTF_1614marshalWStringER9cdrStreammmPKw @1667
    _ZN4omni12TCS_W_UTF_1614unmarshalWCharER9cdrStream @1668
    _ZN4omni12TCS_W_UTF_1616fastMarshalWCharER9cdrStreamPNS_11omniCodeSet5NCS_WEw @1669
    _ZN4omni12TCS_W_UTF_1616unmarshalWStringER9cdrStreammRPw @1670
    _ZN4omni12TCS_W_UTF_1618fastMarshalWStringER9cdrStreamPNS_11omniCodeSet5NCS_WEmmPKw @1671
    _ZN4omni12TCS_W_UTF_1618fastUnmarshalWCharER9cdrStreamPNS_11omniCodeSet5NCS_WERw @1672
    _ZN4omni12TCS_W_UTF_1620fastUnmarshalWStringER9cdrStreamPNS_11omniCodeSet5NCS_WEmRmRPw @1673
    _ZN4omni12TCS_W_UTF_16D0Ev @1674
    _ZN4omni12TCS_W_UTF_16D1Ev @1675
    _ZN4omni12createObjRefEPKcP7omniIORbP12omniIdentity @1676
    _ZN4omni12giopEndpoint12str2EndpointEPKc @1677
    _ZN4omni12giopEndpoint18strIsValidEndpointEPKc @1678
    _ZN4omni12giopEndpoint8addToIOREPKc @1679
    _ZN4omni12giopEndpointD0Ev @1680
    _ZN4omni12giopEndpointD1Ev @1681
    _ZN4omni12internalLockE @1682 DATA
    _ZN4omni12mainThreadIdE @1683 DATA
    _ZN4omni12omniExHelper10INITIALIZEEPKcimN5CORBA16CompletionStatusE @1684
    _ZN4omni12omniExHelper10INTF_REPOSEPKcimN5CORBA16CompletionStatusE @1685
    _ZN4omni12omniExHelper10INV_OBJREFEPKcimN5CORBA16CompletionStatusE @1686
    _ZN4omni12omniExHelper10INV_POLICYEPKcimN5CORBA16CompletionStatusE @1687
    _ZN4omni12omniExHelper11BAD_CONTEXTEPKcimN5CORBA16CompletionStatusE @1688
    _ZN4omni12omniExHelper11NO_RESPONSEEPKcimN5CORBA16CompletionStatusE @1689
    _ZN4omni12omniExHelper11OBJ_ADAPTEREPKcimN5CORBA16CompletionStatusE @1690
    _ZN4omni12omniExHelper12BAD_TYPECODEEPKcimN5CORBA16CompletionStatusE @1691
    _ZN4omni12omniExHelper12COMM_FAILUREEPKcimN5CORBA16CompletionStatusE @1692
    _ZN4omni12omniExHelper12NO_IMPLEMENTEPKcimN5CORBA16CompletionStatusE @1693
    _ZN4omni12omniExHelper12NO_RESOURCESEPKcimN5CORBA16CompletionStatusE @1694
    _ZN4omni12omniExHelper13BAD_INV_ORDEREPKcimN5CORBA16CompletionStatusE @1695
    _ZN4omni12omniExHelper13BAD_OPERATIONEPKcimN5CORBA16CompletionStatusE @1696
    _ZN4omni12omniExHelper13NO_PERMISSIONEPKcimN5CORBA16CompletionStatusE @1697
    _ZN4omni12omniExHelper13PERSIST_STOREEPKcimN5CORBA16CompletionStatusE @1698
    _ZN4omni12omniExHelper15DATA_CONVERSIONEPKcimN5CORBA16CompletionStatusE @1699
    _ZN4omni12omniExHelper16OBJECT_NOT_EXISTEPKcimN5CORBA16CompletionStatusE @1700
    _ZN4omni12omniExHelper16TRANSACTION_MODEEPKcimN5CORBA16CompletionStatusE @1701
    _ZN4omni12omniExHelper19INVALID_TRANSACTIONEPKcimN5CORBA16CompletionStatusE @1702
    _ZN4omni12omniExHelper20CODESET_INCOMPATIBLEEPKcimN5CORBA16CompletionStatusE @1703
    _ZN4omni12omniExHelper20TRANSACTION_REQUIREDEPKcimN5CORBA16CompletionStatusE @1704
    _ZN4omni12omniExHelper22TRANSACTION_ROLLEDBACKEPKcimN5CORBA16CompletionStatusE @1705
    _ZN4omni12omniExHelper23TRANSACTION_UNAVAILABLEEPKcimN5CORBA16CompletionStatusE @1706
    _ZN4omni12omniExHelper5stripEPKc @1707
    _ZN4omni12omniExHelper6REBINDEPKcimN5CORBA16CompletionStatusE @1708
    _ZN4omni12omniExHelper7BAD_QOSEPKcimN5CORBA16CompletionStatusE @1709
    _ZN4omni12omniExHelper7MARSHALEPKcimN5CORBA16CompletionStatusE @1710
    _ZN4omni12omniExHelper7TIMEOUTEPKcimN5CORBA16CompletionStatusE @1711
    _ZN4omni12omniExHelper7UNKNOWNEPKcimN5CORBA16CompletionStatusE @1712
    _ZN4omni12omniExHelper8FREE_MEMEPKcimN5CORBA16CompletionStatusE @1713
    _ZN4omni12omniExHelper8INTERNALEPKcimN5CORBA16CompletionStatusE @1714
    _ZN4omni12omniExHelper8INV_FLAGEPKcimN5CORBA16CompletionStatusE @1715
    _ZN4omni12omniExHelper9BAD_PARAMEPKcimN5CORBA16CompletionStatusE @1716
    _ZN4omni12omniExHelper9IMP_LIMITEPKcimN5CORBA16CompletionStatusE @1717
    _ZN4omni12omniExHelper9INV_IDENTEPKcimN5CORBA16CompletionStatusE @1718
    _ZN4omni12omniExHelper9NO_MEMORYEPKcimN5CORBA16CompletionStatusE @1719
    _ZN4omni12omniExHelper9TRANSIENTEPKcimN5CORBA16CompletionStatusE @1720
    _ZN4omni13GIOP_S_HolderC1EPNS_10giopStrandEPNS_10giopWorkerE @1721
    _ZN4omni13GIOP_S_HolderC2EPNS_10giopStrandEPNS_10giopWorkerE @1722
    _ZN4omni13GIOP_S_HolderD1Ev @1723
    _ZN4omni13GIOP_S_HolderD2Ev @1724
    _ZN4omni13iorURIHandler13syntaxIsValidEPKc @1725
    _ZN4omni13iorURIHandler8supportsEPKc @1726
    _ZN4omni13iorURIHandler8toObjectEPKcj @1727
    _ZN4omni13iorURIHandlerD0Ev @1728
    _ZN4omni13iorURIHandlerD1Ev @1729
    _ZN4omni13max_alignmentE @1730 DATA
    _ZN4omni13myPrincipalIDE @1731 DATA
    _ZN4omni13orbParameters10strictIIOPE @1732 DATA
    _ZN4omni13orbParameters12persistentIdE @1733 DATA
    _ZN4omni13orbParameters13maxSocketRecvE @1734 DATA
    _ZN4omni13orbParameters13maxSocketSendE @1735 DATA
    _ZN4omni13orbParameters13tcAliasExpandE @1736 DATA
    _ZN4omni13orbParameters14anyCharCodeSetE @1737 DATA
    _ZN4omni13orbParameters14giopMaxMsgSizeE @1738 DATA
    _ZN4omni13orbParameters14maxGIOPVersionE @1739 DATA
    _ZN4omni13orbParameters14supportCurrentE @1740 DATA
    _ZN4omni13orbParameters15anyWCharCodeSetE @1741 DATA
    _ZN4omni13orbParameters15inConScanPeriodE @1742 DATA
    _ZN4omni13orbParameters15objectTableSizeE @1743 DATA
    _ZN4omni13orbParameters15scanGranularityE @1744 DATA
    _ZN4omni13orbParameters16outConScanPeriodE @1745 DATA
    _ZN4omni13orbParameters16socketSendBufferE @1746 DATA
    _ZN4omni13orbParameters17dumpConfigurationE @1747 DATA
    _ZN4omni13orbParameters17nativeCharCodeSetE @1748 DATA
    _ZN4omni13orbParameters18bootstrapAgentPortE @1749 DATA
    _ZN4omni13orbParameters18nativeWCharCodeSetE @1750 DATA
    _ZN4omni13orbParameters19immediateRopeSwitchE @1751 DATA
    _ZN4omni13orbParameters20abortOnInternalErrorE @1752 DATA
    _ZN4omni13orbParameters20oneCallPerConnectionE @1753 DATA
    _ZN4omni13orbParameters21giopTargetAddressModeE @1754 DATA
    _ZN4omni13orbParameters21poaHoldRequestTimeoutE @1755 DATA
    _ZN4omni13orbParameters21resetTimeOutOnRetriesE @1756 DATA
    _ZN4omni13orbParameters21supportBootstrapAgentE @1757 DATA
    _ZN4omni13orbParameters22bootstrapAgentHostnameE @1758 DATA
    _ZN4omni13orbParameters22copyValuesInLocalCallsE @1759 DATA
    _ZN4omni13orbParameters22diiThrowsSysExceptionsE @1760 DATA
    _ZN4omni13orbParameters22offerBiDirectionalGIOPE @1761 DATA
    _ZN4omni13orbParameters22unixTransportDirectoryE @1762 DATA
    _ZN4omni13orbParameters23acceptBiDirectionalGIOPE @1763 DATA
    _ZN4omni13orbParameters23clientCallTimeOutPeriodE @1764 DATA
    _ZN4omni13orbParameters23maxServerThreadPoolSizeE @1765 DATA
    _ZN4omni13orbParameters23serverCallTimeOutPeriodE @1766 DATA
    _ZN4omni13orbParameters23supportPerThreadTimeOutE @1767 DATA
    _ZN4omni13orbParameters23unixTransportPermissionE @1768 DATA
    _ZN4omni13orbParameters23useTypeCodeIndirectionsE @1769 DATA
    _ZN4omni13orbParameters24connectionWatchImmediateE @1770 DATA
    _ZN4omni13orbParameters25threadPerConnectionPolicyE @1771 DATA
    _ZN4omni13orbParameters25threadPoolWatchConnectionE @1772 DATA
    _ZN4omni13orbParameters25verifyObjectExistsAndTypeE @1773 DATA
    _ZN4omni13orbParameters26clientConnectTimeOutPeriodE @1774 DATA
    _ZN4omni13orbParameters26maxGIOPConnectionPerServerE @1775 DATA
    _ZN4omni13orbParameters28maxServerThreadPerConnectionE @1776 DATA
    _ZN4omni13orbParameters29threadPerConnectionLowerLimitE @1777 DATA
    _ZN4omni13orbParameters29threadPerConnectionUpperLimitE @1778 DATA
    _ZN4omni13orbParameters30acceptMisalignedTcIndirectionsE @1779 DATA
    _ZN4omni13orbParameters32maxInterleavedCallsPerConnectionE @1780 DATA
    _ZN4omni13orbParameters7lcdModeE @1781 DATA
    _ZN4omni13releaseObjRefEP10omniObjRef @1782
    _ZN4omni13tcpConnection10addrToPortEP8sockaddr @1783
    _ZN4omni13tcpConnection11peeraddressEv @1784
    _ZN4omni13tcpConnection12addrToStringEP8sockaddr @1785
    _ZN4omni13tcpConnection12isSelectableEv @1786
    _ZN4omni13tcpConnection13setSelectableEib @1787
    _ZN4omni13tcpConnection15clearSelectableEv @1788
    _ZN4omni13tcpConnection4PeekEv @1789
    _ZN4omni13tcpConnection4RecvEPvjmm @1790
    _ZN4omni13tcpConnection4SendEPvjmm @1791
    _ZN4omni13tcpConnection8ShutdownEv @1792
    _ZN4omni13tcpConnection9addrToURIEP8sockaddrPKc @1793
    _ZN4omni13tcpConnection9myaddressEv @1794
    _ZN4omni13tcpConnectionC1EjPNS_16SocketCollectionE @1795
    _ZN4omni13tcpConnectionC2EjPNS_16SocketCollectionE @1796
    _ZN4omni13tcpConnectionD0Ev @1797
    _ZN4omni13tcpConnectionD1Ev @1798
    _ZN4omni13tcpConnectionD2Ev @1799
    _ZN4omni14InitRefHandler4dumpERNS_10orbOptions14sequenceStringE @1800
    _ZN4omni14InitRefHandler5visitEPKcNS_10orbOptions6SourceE @1801
    _ZN4omni14InitRefHandlerD0Ev @1802
    _ZN4omni14InitRefHandlerD1Ev @1803
    _ZN4omni14createIdentityEP7omniIORPKcb @1804
    _ZN4omni14giopConnection12decrRefCountEb @1805
    _ZN4omni14giopConnection12incrRefCountEv @1806
    _ZN4omni14giopConnection12peeridentityEv @1807
    _ZN4omni14giopConnectionD0Ev @1808
    _ZN4omni14giopConnectionD1Ev @1809
    _ZN4omni14giopStreamImpl10maxVersionEv @1810
    _ZN4omni14giopStreamImpl12matchVersionERKN4GIOP7VersionE @1811
    _ZN4omni14giopStreamImpl12registerImplEPS0_ @1812
    _ZN4omni14giopStreamImplC1ERKN4GIOP7VersionE @1813
    _ZN4omni14giopStreamImplC2ERKN4GIOP7VersionE @1814
    _ZN4omni14giopStreamImplD1Ev @1815
    _ZN4omni14giopStreamImplD2Ev @1816
    _ZN4omni14giopWorkerInfo3runEv @1817
    _ZN4omni14lcdModeHandler4dumpERNS_10orbOptions14sequenceStringE @1818
    _ZN4omni14lcdModeHandler5visitEPKcNS_10orbOptions6SourceE @1819
    _ZN4omni14lcdModeHandlerD0Ev @1820
    _ZN4omni14lcdModeHandlerD1Ev @1821
    _ZN4omni14objref_rc_lockE @1822 DATA
    _ZN4omni14omniAnonObjRef12_ptrToObjRefEPKc @1823
    _ZN4omni14omniAnonObjRefD0Ev @1824
    _ZN4omni14omniAnonObjRefD1Ev @1825
    _ZN4omni14omniAnonObjRefD2Ev @1826
    _ZN4omni14omniDynamicLib3opsE @1827 DATA
    _ZN4omni14omniDynamicLib4hookE @1828 DATA
    _ZN4omni14omniObjAdapter10getAdapterEPKhi @1829
    _ZN4omni14omniObjAdapter10initialiseEv @1830
    _ZN4omni14omniObjAdapter11_ptrToClassEPi @1831
    _ZN4omni14omniObjAdapter11exitAdapterEii @1832
    _ZN4omni14omniObjAdapter13adapterActiveEv @1833
    _ZN4omni14omniObjAdapter13isInitialisedEv @1834
    _ZN4omni14omniObjAdapter14endpointInListEPKcRK32_CORBA_Unbounded_Sequence_String @1835
    _ZN4omni14omniObjAdapter14isDeactivatingEv @1836
    _ZN4omni14omniObjAdapter15adapterInactiveEv @1837
    _ZN4omni14omniObjAdapter15listMyEndpointsEv @1838
    _ZN4omni14omniObjAdapter16adapterDestroyedEv @1839
    _ZN4omni14omniObjAdapter16matchMyEndpointsEPKc @1840
    _ZN4omni14omniObjAdapter19met_detached_objectEv @1841
    _ZN4omni14omniObjAdapter21sd_detachedObjectLockE @1842 DATA
    _ZN4omni14omniObjAdapter23sd_detachedObjectSignalE @1843 DATA
    _ZN4omni14omniObjAdapter25wait_for_detached_objectsEv @1844
    _ZN4omni14omniObjAdapter28waitForAllRequestsToCompleteEi @1845
    _ZN4omni14omniObjAdapter31waitForActiveRequestsToCompleteEi @1846
    _ZN4omni14omniObjAdapter7OptionsD1Ev @1847
    _ZN4omni14omniObjAdapter7OptionsD2Ev @1848
    _ZN4omni14omniObjAdapter7optionsE @1849 DATA
    _ZN4omni14omniObjAdapter8_classidE @1850 DATA
    _ZN4omni14omniObjAdapter8shutdownEv @1851
    _ZN4omni14omniObjAdapterC1Ei @1852
    _ZN4omni14omniObjAdapterC2Ei @1853
    _ZN4omni14omniObjAdapterD0Ev @1854
    _ZN4omni14omniObjAdapterD1Ev @1855
    _ZN4omni14omniObjAdapterD2Ev @1856
    _ZN4omni14transportRules11addRuleTypeEPNS0_8RuleTypeE @1857
    _ZN4omni14transportRules11clientRulesEv @1858
    _ZN4omni14transportRules11serverRulesEv @1859
    _ZN4omni14transportRules14sequenceStringD1Ev @1860
    _ZN4omni14transportRules4RuleD0Ev @1861
    _ZN4omni14transportRules4RuleD1Ev @1862
    _ZN4omni14transportRules5matchEPKcRNS0_14sequenceStringERm @1863
    _ZN4omni14transportRules5resetEv @1864
    _ZN4omni14transportRules8RuleTypeD0Ev @1865
    _ZN4omni14transportRules8RuleTypeD1Ev @1866
    _ZN4omni14transportRules8dumpRuleEm @1867
    _ZN4omni14transportRulesC1Ev @1868
    _ZN4omni14transportRulesC2Ev @1869
    _ZN4omni14transportRulesD1Ev @1870
    _ZN4omni14transportRulesD2Ev @1871
    _ZN4omni15BiDirClientRope13acquireClientEPK7omniIORPKhmP18omniCallDescriptor @1872
    _ZN4omni15BiDirClientRopeC1ERK10omnivectorIPNS_11giopAddressEERKS1_ImE @1873
    _ZN4omni15BiDirClientRopeC2ERK10omnivectorIPNS_11giopAddressEERKS1_ImE @1874
    _ZN4omni15BiDirClientRopeD0Ev @1875
    _ZN4omni15BiDirClientRopeD1Ev @1876
    _ZN4omni15BiDirServerRope10selectRopeERK10omnivectorIPNS_11giopAddressEEPN7omniIOR7IORInfoERPNS_4RopeE @1877
    _ZN4omni15BiDirServerRope12decrRefCountEv @1878
    _ZN4omni15BiDirServerRope13acquireClientEPK7omniIORPKhmP18omniCallDescriptor @1879
    _ZN4omni15BiDirServerRope16realIncrRefCountEv @1880
    _ZN4omni15BiDirServerRope5ropesE @1881 DATA
    _ZN4omni15BiDirServerRope7addRopeEPNS_10giopStrandERK10omnivectorIPNS_11giopAddressEE @1882
    _ZN4omni15BiDirServerRopeC1EPNS_10giopStrandEPNS_11giopAddressE @1883
    _ZN4omni15BiDirServerRopeC2EPNS_10giopStrandEPNS_11giopAddressE @1884
    _ZN4omni15BiDirServerRopeD0Ev @1885
    _ZN4omni15BiDirServerRopeD1Ev @1886
    _ZN4omni15BiDirServerRopeD2Ev @1887
    _ZN4omni15ORBAsyncInvoker12work_pendingEv @1888
    _ZN4omni15ORBAsyncInvoker16cancel_dedicatedEP8omniTask @1889
    _ZN4omni15ORBAsyncInvoker16insert_dedicatedEP8omniTask @1890
    _ZN4omni15ORBAsyncInvoker7performEmm @1891
    _ZN4omni15ORBAsyncInvokerD0Ev @1892
    _ZN4omni15ORBAsyncInvokerD1Ev @1893
    _ZN4omni15ORBAsyncInvokerD2Ev @1894
    _ZN4omni15builtinIPv4Rule5matchEPKc @1895
    _ZN4omni15builtinIPv4RuleD0Ev @1896
    _ZN4omni15builtinIPv4RuleD1Ev @1897
    _ZN4omni15builtinRuleType10createRuleEPKc @1898
    _ZN4omni15builtinRuleTypeD0Ev @1899
    _ZN4omni15builtinRuleTypeD1Ev @1900
    _ZN4omni15duplicateObjRefEP10omniObjRef @1901
    _ZN4omni15endpointHandler4dumpERNS_10orbOptions14sequenceStringE @1902
    _ZN4omni15endpointHandler5visitEPKcNS_10orbOptions6SourceE @1903
    _ZN4omni15endpointHandlerD0Ev @1904
    _ZN4omni15endpointHandlerD1Ev @1905
    _ZN4omni15locationForwardEP10omniObjRefS1_b @1906
    _ZN4omni15omniCodeSetUtil5freeUEPw @1907
    _ZN4omni15omniCodeSetUtil6GIOP10E @1908 DATA
    _ZN4omni15omniCodeSetUtil6GIOP11E @1909 DATA
    _ZN4omni15omniCodeSetUtil6GIOP12E @1910 DATA
    _ZN4omni15omniCodeSetUtil6allocCEm @1911
    _ZN4omni15omniCodeSetUtil7BufferCD1Ev @1912
    _ZN4omni15omniCodeSetUtil7HolderUD1Ev @1913
    _ZN4omni15omniInitialiser7installEPS0_ @1914
    _ZN4omni15orbAsyncInvokerE @1915 DATA
    _ZN4omni16SocketCollection10idle_scansE @1916 DATA
    _ZN4omni16SocketCollection12decrRefCountEv @1917
    _ZN4omni16SocketCollection12incrRefCountEv @1918
    _ZN4omni16SocketCollection12isSelectableEj @1919
    _ZN4omni16SocketCollection12removeSocketEPNS_12SocketHolderE @1920
    _ZN4omni16SocketCollection17scan_interval_secE @1921 DATA
    _ZN4omni16SocketCollection18scan_interval_nsecE @1922 DATA
    _ZN4omni16SocketCollection6SelectEv @1923
    _ZN4omni16SocketCollection6wakeUpEv @1924
    _ZN4omni16SocketCollection9addSocketEPNS_12SocketHolderE @1925
    _ZN4omni16SocketCollectionC1Ev @1926
    _ZN4omni16SocketCollectionC2Ev @1927
    _ZN4omni16SocketCollectionD0Ev @1928
    _ZN4omni16SocketCollectionD1Ev @1929
    _ZN4omni16SocketCollectionD2Ev @1930
    _ZN4omni16SocketSetTimeOutEmmR7timeval @1931
    _ZN4omni16giopRendezvouser14notifyReadableEPvPNS_14giopConnectionE @1932
    _ZN4omni16giopRendezvouser7executeEv @1933
    _ZN4omni16giopRendezvouser9terminateEv @1934
    _ZN4omni16giopRendezvouserD0Ev @1935
    _ZN4omni16giopRendezvouserD1Ev @1936
    _ZN4omni16minorCode2StringEPKNS_15minorCodeLookupEm @1937
    _ZN4omni16omniInterceptorP12createPolicyE @1938 DATA
    _ZN4omni16omniInterceptorP12createThreadE @1939 DATA
    _ZN4omni16omniInterceptorP14createIdentityE @1940 DATA
    _ZN4omni16omniInterceptorP15createORBServerE @1941 DATA
    _ZN4omni16omniInterceptorP15serverSendReplyE @1942 DATA
    _ZN4omni16omniInterceptorP17clientSendRequestE @1943 DATA
    _ZN4omni16omniInterceptorP18assignUpcallThreadE @1944 DATA
    _ZN4omni16omniInterceptorP18clientReceiveReplyE @1945 DATA
    _ZN4omni16omniInterceptorP19serverSendExceptionE @1946 DATA
    _ZN4omni16omniInterceptorP20serverReceiveRequestE @1947 DATA
    _ZN4omni16omniInterceptorP9decodeIORE @1948 DATA
    _ZN4omni16omniInterceptorP9encodeIORE @1949 DATA
    _ZN4omni16omniInterceptors11decodeIOR_T3addEPFbRNS1_6info_TEE @1950
    _ZN4omni16omniInterceptors11decodeIOR_T6removeEPFbRNS1_6info_TEE @1951
    _ZN4omni16omniInterceptors11encodeIOR_T3addEPFbRNS1_6info_TEE @1952
    _ZN4omni16omniInterceptors11encodeIOR_T6removeEPFbRNS1_6info_TEE @1953
    _ZN4omni16omniInterceptors14createPolicy_T3addEPFbRNS1_6info_TEE @1954
    _ZN4omni16omniInterceptors14createPolicy_T6removeEPFbRNS1_6info_TEE @1955
    _ZN4omni16omniInterceptors14createThread_T3addEPFvRNS1_6info_TEE @1956
    _ZN4omni16omniInterceptors14createThread_T6removeEPFvRNS1_6info_TEE @1957
    _ZN4omni16omniInterceptors16createIdentity_T3addEPFbRNS1_6info_TEE @1958
    _ZN4omni16omniInterceptors16createIdentity_T6removeEPFbRNS1_6info_TEE @1959
    _ZN4omni16omniInterceptors17createORBServer_T3addEPFbRNS1_6info_TEE @1960
    _ZN4omni16omniInterceptors17createORBServer_T6removeEPFbRNS1_6info_TEE @1961
    _ZN4omni16omniInterceptors17serverSendReply_T3addEPFbRNS1_6info_TEE @1962
    _ZN4omni16omniInterceptors17serverSendReply_T6removeEPFbRNS1_6info_TEE @1963
    _ZN4omni16omniInterceptors19clientSendRequest_T3addEPFbRNS1_6info_TEE @1964
    _ZN4omni16omniInterceptors19clientSendRequest_T6removeEPFbRNS1_6info_TEE @1965
    _ZN4omni16omniInterceptors20assignUpcallThread_T3addEPFvRNS1_6info_TEE @1966
    _ZN4omni16omniInterceptors20assignUpcallThread_T6removeEPFvRNS1_6info_TEE @1967
    _ZN4omni16omniInterceptors20clientReceiveReply_T3addEPFbRNS1_6info_TEE @1968
    _ZN4omni16omniInterceptors20clientReceiveReply_T6removeEPFbRNS1_6info_TEE @1969
    _ZN4omni16omniInterceptors21serverSendException_T3addEPFbRNS1_6info_TEE @1970
    _ZN4omni16omniInterceptors21serverSendException_T6removeEPFbRNS1_6info_TEE @1971
    _ZN4omni16omniInterceptors22serverReceiveRequest_T3addEPFbRNS1_6info_TEE @1972
    _ZN4omni16omniInterceptors22serverReceiveRequest_T6removeEPFbRNS1_6info_TEE @1973
    _ZN4omni16omniInterceptorsC1Ev @1974
    _ZN4omni16omniInterceptorsC2Ev @1975
    _ZN4omni16omniInterceptorsD1Ev @1976
    _ZN4omni16omniInterceptorsD2Ev @1977
    _ZN4omni16principalHandler4dumpERNS_10orbOptions14sequenceStringE @1978
    _ZN4omni16principalHandler5visitEPKcNS_10orbOptions6SourceE @1979
    _ZN4omni16principalHandlerD0Ev @1980
    _ZN4omni16principalHandlerD1Ev @1981
    _ZN4omni16tcpTransportImpl10initialiseEv @1982
    _ZN4omni16tcpTransportImpl10toEndpointEPKc @1983
    _ZN4omni16tcpTransportImpl12parseAddressEPKcRN4IIOP7AddressE @1984
    _ZN4omni16tcpTransportImpl19getInterfaceAddressEv @1985
    _ZN4omni16tcpTransportImpl7isValidEPKc @1986
    _ZN4omni16tcpTransportImpl8addToIOREPKc @1987
    _ZN4omni16tcpTransportImpl9toAddressEPKc @1988
    _ZN4omni16tcpTransportImplC1Ev @1989
    _ZN4omni16tcpTransportImplC2Ev @1990
    _ZN4omni16tcpTransportImplD0Ev @1991
    _ZN4omni16tcpTransportImplD1Ev @1992
    _ZN4omni16tcpTransportImplD2Ev @1993
    _ZN4omni17SocketSetblockingEj @1994
    _ZN4omni17configFileHandler4dumpERNS_10orbOptions14sequenceStringE @1995
    _ZN4omni17configFileHandler5visitEPKcNS_10orbOptions6SourceE @1996
    _ZN4omni17configFileHandlerD0Ev @1997
    _ZN4omni17configFileHandlerD1Ev @1998
    _ZN4omni17createLocalObjRefEPKcS1_P17omniObjTableEntryRK12omniIORHints @1999
    _ZN4omni17createLocalObjRefEPKcS1_PKhiRK12omniIORHints @2000
    _ZN4omni17giopStream_Buffer10alignStartENS_11alignment_tE @2001
    _ZN4omni17giopStream_Buffer12deleteBufferEPS0_ @2002
    _ZN4omni17giopStream_Buffer9newBufferEm @2003
    _ZN4omni17giopTransportImpl10initialiseEv @2004
    _ZN4omni17giopTransportImpl13str2TransportEPKc @2005
    _ZN4omni17giopTransportImpl19getInterfaceAddressEPKc @2006
    _ZN4omni17giopTransportImplC1EPKc @2007
    _ZN4omni17giopTransportImplC2EPKc @2008
    _ZN4omni17giopTransportImplD0Ev @2009
    _ZN4omni17giopTransportImplD1Ev @2010
    _ZN4omni17giopTransportImplD2Ev @2011
    _ZN4omni17omniOrbPOACurrent10theCurrentEv @2012
    _ZN4omni17omniOrbPOACurrent11get_servantEv @2013
    _ZN4omni17omniOrbPOACurrent12_ptrToObjRefEPKc @2014
    _ZN4omni17omniOrbPOACurrent13get_object_idEv @2015
    _ZN4omni17omniOrbPOACurrent13get_referenceEv @2016
    _ZN4omni17omniOrbPOACurrent16_NP_decrRefCountEv @2017
    _ZN4omni17omniOrbPOACurrent16_NP_incrRefCountEv @2018
    _ZN4omni17omniOrbPOACurrent16real_get_servantEP18omniCallDescriptor @2019
    _ZN4omni17omniOrbPOACurrent18real_get_referenceEP18omniCallDescriptor @2020
    _ZN4omni17omniOrbPOACurrent7get_POAEv @2021
    _ZN4omni17omniOrbPOACurrentD0Ev @2022
    _ZN4omni17omniOrbPOACurrentD1Ev @2023
    _ZN4omni17omniOrbPOACurrentD2Ev @2024
    _ZN4omni17omniOrbPOAManager10deactivateEbb @2025
    _ZN4omni17omniOrbPOAManager12_ptrToObjRefEPKc @2026
    _ZN4omni17omniOrbPOAManager13hold_requestsEb @2027
    _ZN4omni17omniOrbPOAManager16_NP_decrRefCountEv @2028
    _ZN4omni17omniOrbPOAManager16_NP_incrRefCountEv @2029
    _ZN4omni17omniOrbPOAManager16discard_requestsEb @2030
    _ZN4omni17omniOrbPOAManager8activateEv @2031
    _ZN4omni17omniOrbPOAManager8gain_poaEPNS_10omniOrbPOAE @2032
    _ZN4omni17omniOrbPOAManager8lose_poaEPNS_10omniOrbPOAE @2033
    _ZN4omni17omniOrbPOAManager9get_stateEv @2034
    _ZN4omni17omniOrbPOAManagerD0Ev @2035
    _ZN4omni17omniOrbPOAManagerD1Ev @2036
    _ZN4omni17omniOrbPOAManagerD2Ev @2037
    _ZN4omni17omniTransportLockE @2038 DATA
    _ZN4omni17strictIIOPHandler4dumpERNS_10orbOptions14sequenceStringE @2039
    _ZN4omni17strictIIOPHandler5visitEPKcNS_10orbOptions6SourceE @2040
    _ZN4omni17strictIIOPHandlerD0Ev @2041
    _ZN4omni17strictIIOPHandlerD1Ev @2042
    _ZN4omni18REBIND_LookupTableE @2043 DATA
    _ZN4omni18corbalocURIHandler10RirObjAddr4kindEv @2044
    _ZN4omni18corbalocURIHandler10RirObjAddrD0Ev @2045
    _ZN4omni18corbalocURIHandler10RirObjAddrD1Ev @2046
    _ZN4omni18corbalocURIHandler11IiopObjAddr4kindEv @2047
    _ZN4omni18corbalocURIHandler11IiopObjAddrC1ERPKc @2048
    _ZN4omni18corbalocURIHandler11IiopObjAddrC2ERPKc @2049
    _ZN4omni18corbalocURIHandler11IiopObjAddrD0Ev @2050
    _ZN4omni18corbalocURIHandler11IiopObjAddrD1Ev @2051
    _ZN4omni18corbalocURIHandler11UiopObjAddr4kindEv @2052
    _ZN4omni18corbalocURIHandler11UiopObjAddrC1ERPKc @2053
    _ZN4omni18corbalocURIHandler11UiopObjAddrC2ERPKc @2054
    _ZN4omni18corbalocURIHandler11UiopObjAddrD0Ev @2055
    _ZN4omni18corbalocURIHandler11UiopObjAddrD1Ev @2056
    _ZN4omni18corbalocURIHandler11locToObjectERPKcjS2_ @2057
    _ZN4omni18corbalocURIHandler13SsliopObjAddr4kindEv @2058
    _ZN4omni18corbalocURIHandler13SsliopObjAddrD0Ev @2059
    _ZN4omni18corbalocURIHandler13SsliopObjAddrD1Ev @2060
    _ZN4omni18corbalocURIHandler13syntaxIsValidEPKc @2061
    _ZN4omni18corbalocURIHandler6ParsedC1ERPKcS3_ @2062
    _ZN4omni18corbalocURIHandler6ParsedC2ERPKcS3_ @2063
    _ZN4omni18corbalocURIHandler6ParsedD1Ev @2064
    _ZN4omni18corbalocURIHandler7ObjAddr5parseERPKc @2065
    _ZN4omni18corbalocURIHandler7ObjAddrD0Ev @2066
    _ZN4omni18corbalocURIHandler7ObjAddrD1Ev @2067
    _ZN4omni18corbalocURIHandler8supportsEPKc @2068
    _ZN4omni18corbalocURIHandler8toObjectEPKcj @2069
    _ZN4omni18corbalocURIHandlerD0Ev @2070
    _ZN4omni18corbalocURIHandlerD1Ev @2071
    _ZN4omni18omniAnonObjRef_pof9newObjRefEP7omniIORP12omniIdentity @2072
    _ZN4omni18omniAnonObjRef_pofD0Ev @2073
    _ZN4omni18omniAnonObjRef_pofD1Ev @2074
    _ZN4omni18omniAnonObjRef_pofD2Ev @2075
    _ZN4omni18omniObjAdapter_varD1Ev @2076
    _ZN4omni18omni_is_a_CallDesc16marshalArgumentsER9cdrStream @2077
    _ZN4omni18omni_is_a_CallDesc18unmarshalArgumentsER9cdrStream @2078
    _ZN4omni18omni_is_a_CallDesc21marshalReturnedValuesER9cdrStream @2079
    _ZN4omni18omni_is_a_CallDesc23unmarshalReturnedValuesER9cdrStream @2080
    _ZN4omni18omni_is_a_CallDesc4lcfnEP18omniCallDescriptorP11omniServant @2081
    _ZN4omni18omni_is_a_CallDescD0Ev @2082
    _ZN4omni18omni_is_a_CallDescD1Ev @2083
    _ZN4omni18proxyObjectFactory6lookupEPKc @2084
    _ZN4omni18proxyObjectFactory8shutdownEv @2085
    _ZN4omni18proxyObjectFactoryC1EPKc @2086
    _ZN4omni18proxyObjectFactoryC2EPKc @2087
    _ZN4omni18proxyObjectFactoryD0Ev @2088
    _ZN4omni18proxyObjectFactoryD1Ev @2089
    _ZN4omni18proxyObjectFactoryD2Ev @2090
    _ZN4omni19BAD_QOS_LookupTableE @2091 DATA
    _ZN4omni19MARSHAL_LookupTableE @2092 DATA
    _ZN4omni19TIMEOUT_LookupTableE @2093 DATA
    _ZN4omni19UNKNOWN_LookupTableE @2094 DATA
    _ZN4omni19builtinMatchAllRule5matchEPKc @2095
    _ZN4omni19builtinMatchAllRuleD0Ev @2096
    _ZN4omni19builtinMatchAllRuleD1Ev @2097
    _ZN4omni19corbanameURIHandler13syntaxIsValidEPKc @2098
    _ZN4omni19corbanameURIHandler8supportsEPKc @2099
    _ZN4omni19corbanameURIHandler8toObjectEPKcj @2100
    _ZN4omni19corbanameURIHandlerD0Ev @2101
    _ZN4omni19corbanameURIHandlerD1Ev @2102
    _ZN4omni19tcpActiveCollection10addMonitorEj @2103
    _ZN4omni19tcpActiveCollection10deactivateEv @2104
    _ZN4omni19tcpActiveCollection13removeMonitorEj @2105
    _ZN4omni19tcpActiveCollection14notifyReadableEPNS_12SocketHolderE @2106
    _ZN4omni19tcpActiveCollection7MonitorEPFvPvPNS_14giopConnectionEES1_ @2107
    _ZN4omni19tcpActiveCollectionC1Ev @2108
    _ZN4omni19tcpActiveCollectionC2Ev @2109
    _ZN4omni19tcpActiveCollectionD0Ev @2110
    _ZN4omni19tcpActiveCollectionD1Ev @2111
    _ZN4omni19tcpActiveCollectionD2Ev @2112
    _ZN4omni19tcpActiveConnection13getConnectionEv @2113
    _ZN4omni19tcpActiveConnection15registerMonitorEv @2114
    _ZN4omni19tcpActiveConnectionC1Ej @2115
    _ZN4omni19tcpActiveConnectionC2Ej @2116
    _ZN4omni19tcpActiveConnectionD0Ev @2117
    _ZN4omni19tcpActiveConnectionD1Ev @2118
    _ZN4omni19tcpActiveConnectionD2Ev @2119
    _ZN4omni19validateUTF8Handler4dumpERNS_10orbOptions14sequenceStringE @2120
    _ZN4omni19validateUTF8Handler5visitEPKcNS_10orbOptions6SourceE @2121
    _ZN4omni19validateUTF8HandlerD0Ev @2122
    _ZN4omni19validateUTF8HandlerD1Ev @2123
    _ZN4omni20FREE_MEM_LookupTableE @2124 DATA
    _ZN4omni20INTERNAL_LookupTableE @2125 DATA
    _ZN4omni20INV_FLAG_LookupTableE @2126 DATA
    _ZN4omni20SocketSetCloseOnExecEj @2127
    _ZN4omni20SocketSetnonblockingEj @2128
    _ZN4omni20builtinLocalHostRule5matchEPKc @2129
    _ZN4omni20builtinLocalHostRuleD0Ev @2130
    _ZN4omni20builtinLocalHostRuleD1Ev @2131
    _ZN4omni20giopActiveCollectionD0Ev @2132
    _ZN4omni20giopActiveCollectionD1Ev @2133
    _ZN4omni20giopActiveConnectionD0Ev @2134
    _ZN4omni20giopActiveConnectionD1Ev @2135
    _ZN4omni20localInvocationCountE @2136 DATA
    _ZN4omni20maxSocketRecvHandler4dumpERNS_10orbOptions14sequenceStringE @2137
    _ZN4omni20maxSocketRecvHandler5visitEPKcNS_10orbOptions6SourceE @2138
    _ZN4omni20maxSocketRecvHandlerD0Ev @2139
    _ZN4omni20maxSocketRecvHandlerD1Ev @2140
    _ZN4omni20maxSocketSendHandler4dumpERNS_10orbOptions14sequenceStringE @2141
    _ZN4omni20maxSocketSendHandler5visitEPKcNS_10orbOptions6SourceE @2142
    _ZN4omni20maxSocketSendHandlerD0Ev @2143
    _ZN4omni20maxSocketSendHandlerD1Ev @2144
    _ZN4omni20omniORB_TAG_ORB_TYPEE @2145 DATA
    _ZN4omni20omni_ior_initialiser6attachEv @2146
    _ZN4omni20omni_ior_initialiser6detachEv @2147
    _ZN4omni20omni_poa_initialiser6attachEv @2148
    _ZN4omni20omni_poa_initialiser6detachEv @2149
    _ZN4omni20omni_uri_initialiser6attachEv @2150
    _ZN4omni20omni_uri_initialiser6detachEv @2151
    _ZN4omni20poa_iiop_portHandler4dumpERNS_10orbOptions14sequenceStringE @2152
    _ZN4omni20poa_iiop_portHandler5visitEPKcNS_10orbOptions6SourceE @2153
    _ZN4omni20poa_iiop_portHandlerD0Ev @2154
    _ZN4omni20poa_iiop_portHandlerD1Ev @2155
    _ZN4omni20tcAliasExpandHandler4dumpERNS_10orbOptions14sequenceStringE @2156
    _ZN4omni20tcAliasExpandHandler5visitEPKcNS_10orbOptions6SourceE @2157
    _ZN4omni20tcAliasExpandHandlerD0Ev @2158
    _ZN4omni20tcAliasExpandHandlerD1Ev @2159
    _ZN4omni21BAD_PARAM_LookupTableE @2160 DATA
    _ZN4omni21DefaultInitRefHandler4dumpERNS_10orbOptions14sequenceStringE @2161
    _ZN4omni21DefaultInitRefHandler5visitEPKcNS_10orbOptions6SourceE @2162
    _ZN4omni21DefaultInitRefHandlerD0Ev @2163
    _ZN4omni21DefaultInitRefHandlerD1Ev @2164
    _ZN4omni21IMP_LIMIT_LookupTableE @2165 DATA
    _ZN4omni21INV_IDENT_LookupTableE @2166 DATA
    _ZN4omni21NO_MEMORY_LookupTableE @2167 DATA
    _ZN4omni21TRANSIENT_LookupTableE @2168 DATA
    _ZN4omni21giopMaxMsgSizeHandler4dumpERNS_10orbOptions14sequenceStringE @2169
    _ZN4omni21giopMaxMsgSizeHandler5visitEPKcNS_10orbOptions6SourceE @2170
    _ZN4omni21giopMaxMsgSizeHandlerD0Ev @2171
    _ZN4omni21giopMaxMsgSizeHandlerD1Ev @2172
    _ZN4omni21maxGIOPVersionHandler4dumpERNS_10orbOptions14sequenceStringE @2173
    _ZN4omni21maxGIOPVersionHandler5visitEPKcNS_10orbOptions6SourceE @2174
    _ZN4omni21maxGIOPVersionHandlerD0Ev @2175
    _ZN4omni21maxGIOPVersionHandlerD1Ev @2176
    _ZN4omni21omniInitialReferences10setFromORBEPKcPN5CORBA6ObjectE @2177
    _ZN4omni21omniInitialReferences11remFromArgsEPKc @2178
    _ZN4omni21omniInitialReferences11remFromFileEPKc @2179
    _ZN4omni21omniInitialReferences11setFromArgsEPKcS2_ @2180
    _ZN4omni21omniInitialReferences11setFromFileEPKcS2_ @2181
    _ZN4omni21omniInitialReferences19registerPseudoObjFnEPKcPFPN5CORBA6ObjectEvE @2182
    _ZN4omni21omniInitialReferences25setDefaultInitRefFromArgsEPKc @2183
    _ZN4omni21omniInitialReferences25setDefaultInitRefFromFileEPKc @2184
    _ZN4omni21omniInitialReferences26initialise_bootstrap_agentEPKct @2185
    _ZN4omni21omniInitialReferences26invoke_bootstrap_agentImplER14omniCallHandle @2186
    _ZN4omni21omniInitialReferences30initialise_bootstrap_agentImplEv @2187
    _ZN4omni21omniInitialReferences34is_bootstrap_agentImpl_initialisedEv @2188
    _ZN4omni21omniInitialReferences4listEv @2189
    _ZN4omni21omniInitialReferences7resolveEPKcj @2190
    _ZN4omni21omni_ior_initialiser_E @2191 DATA
    _ZN4omni21omni_poa_initialiser_E @2192 DATA
    _ZN4omni21omni_uri_initialiser_E @2193 DATA
    _ZN4omni21registerTrackedObjectEPNS_17omniTrackedObjectE @2194
    _ZN4omni21remoteInvocationCountE @2195 DATA
    _ZN4omni21saTaskQueueAssignInfo3runEv @2196
    _ZN4omni21saTaskQueueCreateInfo3runEv @2197
    _ZN4omni22INITIALIZE_LookupTableE @2198 DATA
    _ZN4omni22INTF_REPOS_LookupTableE @2199 DATA
    _ZN4omni22INV_OBJREF_LookupTableE @2200 DATA
    _ZN4omni22INV_POLICY_LookupTableE @2201 DATA
    _ZN4omni22endpointPublishHandler4dumpERNS_10orbOptions14sequenceStringE @2202
    _ZN4omni22endpointPublishHandler5visitEPKcNS_10orbOptions6SourceE @2203
    _ZN4omni22endpointPublishHandlerD0Ev @2204
    _ZN4omni22endpointPublishHandlerD1Ev @2205
    _ZN4omni22inConScanPeriodHandler4dumpERNS_10orbOptions14sequenceStringE @2206
    _ZN4omni22inConScanPeriodHandler5visitEPKcNS_10orbOptions6SourceE @2207
    _ZN4omni22inConScanPeriodHandlerD0Ev @2208
    _ZN4omni22inConScanPeriodHandlerD1Ev @2209
    _ZN4omni22registerNilCorbaObjectEPN5CORBA6ObjectE @2210
    _ZN4omni22scanGranularityHandler4dumpERNS_10orbOptions14sequenceStringE @2211
    _ZN4omni22scanGranularityHandler5visitEPKcNS_10orbOptions6SourceE @2212
    _ZN4omni22scanGranularityHandlerD0Ev @2213
    _ZN4omni22scanGranularityHandlerD1Ev @2214
    _ZN4omni23BAD_CONTEXT_LookupTableE @2215 DATA
    _ZN4omni23NO_RESPONSE_LookupTableE @2216 DATA
    _ZN4omni23OBJ_ADAPTER_LookupTableE @2217 DATA
    _ZN4omni23ValueIndirectionTrackerD0Ev @2218
    _ZN4omni23ValueIndirectionTrackerD1Ev @2219
    _ZN4omni23ValueIndirectionTrackerD2Ev @2220
    _ZN4omni23createInProcessIdentityEPKhi @2221
    _ZN4omni23endpointNoListenHandler4dumpERNS_10orbOptions14sequenceStringE @2222
    _ZN4omni23endpointNoListenHandler5visitEPKcNS_10orbOptions6SourceE @2223
    _ZN4omni23endpointNoListenHandlerD0Ev @2224
    _ZN4omni23endpointNoListenHandlerD1Ev @2225
    _ZN4omni23omni_ObjRef_initialiser6attachEv @2226
    _ZN4omni23omni_ObjRef_initialiser6detachEv @2227
    _ZN4omni23omni_hooked_initialiser6attachEv @2228
    _ZN4omni23omni_hooked_initialiser6detachEv @2229
    _ZN4omni23omni_hooked_initialiserD0Ev @2230
    _ZN4omni23omni_hooked_initialiserD1Ev @2231
    _ZN4omni23omni_interface_CallDesc21marshalReturnedValuesER9cdrStream @2232
    _ZN4omni23omni_interface_CallDesc23unmarshalReturnedValuesER9cdrStream @2233
    _ZN4omni23omni_interface_CallDesc4lcfnEP18omniCallDescriptorP11omniServant @2234
    _ZN4omni23omni_interface_CallDescD0Ev @2235
    _ZN4omni23omni_interface_CallDescD1Ev @2236
    _ZN4omni23outConScanPeriodHandler4dumpERNS_10orbOptions14sequenceStringE @2237
    _ZN4omni23outConScanPeriodHandler5visitEPKcNS_10orbOptions6SourceE @2238
    _ZN4omni23outConScanPeriodHandlerD0Ev @2239
    _ZN4omni23outConScanPeriodHandlerD1Ev @2240
    _ZN4omni23revertToOriginalProfileEP10omniObjRef @2241
    _ZN4omni23socketSendBufferHandler4dumpERNS_10orbOptions14sequenceStringE @2242
    _ZN4omni23socketSendBufferHandler5visitEPKcNS_10orbOptions6SourceE @2243
    _ZN4omni23socketSendBufferHandlerD0Ev @2244
    _ZN4omni23socketSendBufferHandlerD1Ev @2245
    _ZN4omni24BAD_TYPECODE_LookupTableE @2246 DATA
    _ZN4omni24COMM_FAILURE_LookupTableE @2247 DATA
    _ZN4omni24NO_IMPLEMENT_LookupTableE @2248 DATA
    _ZN4omni24NO_RESOURCES_LookupTableE @2249 DATA
    _ZN4omni24dumpConfigurationHandler4dumpERNS_10orbOptions14sequenceStringE @2250
    _ZN4omni24dumpConfigurationHandler5visitEPKcNS_10orbOptions6SourceE @2251
    _ZN4omni24dumpConfigurationHandlerD0Ev @2252
    _ZN4omni24dumpConfigurationHandlerD1Ev @2253
    _ZN4omni24endpointNoPublishHandler4dumpERNS_10orbOptions14sequenceStringE @2254
    _ZN4omni24endpointNoPublishHandler5visitEPKcNS_10orbOptions6SourceE @2255
    _ZN4omni24endpointNoPublishHandlerD0Ev @2256
    _ZN4omni24endpointNoPublishHandlerD1Ev @2257
    _ZN4omni24idleThreadTimeoutHandler4dumpERNS_10orbOptions14sequenceStringE @2258
    _ZN4omni24idleThreadTimeoutHandler5visitEPKcNS_10orbOptions6SourceE @2259
    _ZN4omni24idleThreadTimeoutHandlerD0Ev @2260
    _ZN4omni24idleThreadTimeoutHandlerD1Ev @2261
    _ZN4omni24omni_ObjRef_initialiser_E @2262 DATA
    _ZN4omni24omni_codeSet_initialiser6attachEv @2263
    _ZN4omni24omni_codeSet_initialiser6detachEv @2264
    _ZN4omni24omni_hooked_initialiser_E @2265 DATA
    _ZN4omni24omni_invoker_initialiser6attachEv @2266
    _ZN4omni24omni_invoker_initialiser6detachEv @2267
    _ZN4omni24omni_objadpt_initialiser6attachEv @2268
    _ZN4omni24omni_objadpt_initialiser6detachEv @2269
    _ZN4omni24omni_omniIOR_initialiser6attachEv @2270
    _ZN4omni24omni_omniIOR_initialiser6detachEv @2271
    _ZN4omni25BAD_INV_ORDER_LookupTableE @2272 DATA
    _ZN4omni25BAD_OPERATION_LookupTableE @2273 DATA
    _ZN4omni25CORBA_InitialReferences_i3getEPKc @2274
    _ZN4omni25CORBA_InitialReferences_i4listEv @2275
    _ZN4omni25CORBA_InitialReferences_iD0Ev @2276
    _ZN4omni25CORBA_InitialReferences_iD1Ev @2277
    _ZN4omni25NO_PERMISSION_LookupTableE @2278 DATA
    _ZN4omni25PERSIST_STORE_LookupTableE @2279 DATA
    _ZN4omni25bootstrapAgentPortHandler4dumpERNS_10orbOptions14sequenceStringE @2280
    _ZN4omni25bootstrapAgentPortHandler5visitEPKcNS_10orbOptions6SourceE @2281
    _ZN4omni25bootstrapAgentPortHandlerD0Ev @2282
    _ZN4omni25bootstrapAgentPortHandlerD1Ev @2283
    _ZN4omni25omni_codeSet_initialiser_E @2284 DATA
    _ZN4omni25omni_corbaOrb_initialiser6attachEv @2285
    _ZN4omni25omni_corbaOrb_initialiser6detachEv @2286
    _ZN4omni25omni_giopRope_initialiser6attachEv @2287
    _ZN4omni25omni_giopRope_initialiser6detachEv @2288
    _ZN4omni25omni_initRefs_initialiser6attachEv @2289
    _ZN4omni25omni_initRefs_initialiser6detachEv @2290
    _ZN4omni25omni_initRefs_initialiserD0Ev @2291
    _ZN4omni25omni_initRefs_initialiserD1Ev @2292
    _ZN4omni25omni_invoker_initialiser_E @2293 DATA
    _ZN4omni25omni_objadpt_initialiser_E @2294 DATA
    _ZN4omni25omni_omniIOR_initialiser_E @2295 DATA
    _ZN4omni25poa_iiop_name_portHandler4dumpERNS_10orbOptions14sequenceStringE @2296
    _ZN4omni25poa_iiop_name_portHandler5visitEPKcNS_10orbOptions6SourceE @2297
    _ZN4omni25poa_iiop_name_portHandlerD0Ev @2298
    _ZN4omni25poa_iiop_name_portHandlerD1Ev @2299
    _ZN4omni26clientTransportRuleHandler4dumpERNS_10orbOptions14sequenceStringE @2300
    _ZN4omni26clientTransportRuleHandler5visitEPKcNS_10orbOptions6SourceE @2301
    _ZN4omni26clientTransportRuleHandlerD0Ev @2302
    _ZN4omni26clientTransportRuleHandlerD1Ev @2303
    _ZN4omni26immediateRopeSwitchHandler4dumpERNS_10orbOptions14sequenceStringE @2304
    _ZN4omni26immediateRopeSwitchHandler5visitEPKcNS_10orbOptions6SourceE @2305
    _ZN4omni26immediateRopeSwitchHandlerD0Ev @2306
    _ZN4omni26immediateRopeSwitchHandlerD1Ev @2307
    _ZN4omni26omni_cdrStream_initialiser6attachEv @2308
    _ZN4omni26omni_cdrStream_initialiser6detachEv @2309
    _ZN4omni26omni_corbaOrb_initialiser_E @2310 DATA
    _ZN4omni26omni_giopRope_initialiser_E @2311 DATA
    _ZN4omni26omni_giopbidir_initialiser6attachEv @2312
    _ZN4omni26omni_giopbidir_initialiser6detachEv @2313
    _ZN4omni26omni_initRefs_initialiser_E @2314 DATA
    _ZN4omni26omni_non_existent_CallDesc21marshalReturnedValuesER9cdrStream @2315
    _ZN4omni26omni_non_existent_CallDesc23unmarshalReturnedValuesER9cdrStream @2316
    _ZN4omni26omni_non_existent_CallDesc4lcfnEP18omniCallDescriptorP11omniServant @2317
    _ZN4omni26omni_non_existent_CallDescD0Ev @2318
    _ZN4omni26omni_non_existent_CallDescD1Ev @2319
    _ZN4omni26serverTransportRuleHandler4dumpERNS_10orbOptions14sequenceStringE @2320
    _ZN4omni26serverTransportRuleHandler5visitEPKcNS_10orbOptions6SourceE @2321
    _ZN4omni26serverTransportRuleHandlerD0Ev @2322
    _ZN4omni26serverTransportRuleHandlerD1Ev @2323
    _ZN4omni27DATA_CONVERSION_LookupTableE @2324 DATA
    _ZN4omni27omniLocalIdentity_RefHolderD1Ev @2325
    _ZN4omni27omni_cdrStream_initialiser_E @2326 DATA
    _ZN4omni27omni_dynamiclib_initialiser6attachEv @2327
    _ZN4omni27omni_dynamiclib_initialiser6detachEv @2328
    _ZN4omni27omni_giopImpl10_initialiser6attachEv @2329
    _ZN4omni27omni_giopImpl10_initialiser6detachEv @2330
    _ZN4omni27omni_giopImpl11_initialiser6attachEv @2331
    _ZN4omni27omni_giopImpl11_initialiser6detachEv @2332
    _ZN4omni27omni_giopImpl12_initialiser6attachEv @2333
    _ZN4omni27omni_giopImpl12_initialiser6detachEv @2334
    _ZN4omni27omni_giopStrand_initialiser6attachEv @2335
    _ZN4omni27omni_giopStrand_initialiser6detachEv @2336
    _ZN4omni27omni_giopbidir_initialiser_E @2337 DATA
    _ZN4omni27omni_giopserver_initialiser6attachEv @2338
    _ZN4omni27omni_giopserver_initialiser6detachEv @2339
    _ZN4omni27omni_orbOptions_initialiser6attachEv @2340
    _ZN4omni27omni_orbOptions_initialiser6detachEv @2341
    _ZN4omni27omni_orbOptions_initialiserD0Ev @2342
    _ZN4omni27omni_orbOptions_initialiserD1Ev @2343
    _ZN4omni27oneCallPerConnectionHandler4dumpERNS_10orbOptions14sequenceStringE @2344
    _ZN4omni27oneCallPerConnectionHandler5visitEPKcNS_10orbOptions6SourceE @2345
    _ZN4omni27oneCallPerConnectionHandlerD0Ev @2346
    _ZN4omni27oneCallPerConnectionHandlerD1Ev @2347
    _ZN4omni28OBJECT_NOT_EXIST_LookupTableE @2348 DATA
    _ZN4omni28TRANSACTION_MODE_LookupTableE @2349 DATA
    _ZN4omni28connectionWatchPeriodHandler4dumpERNS_10orbOptions14sequenceStringE @2350
    _ZN4omni28connectionWatchPeriodHandler5visitEPKcNS_10orbOptions6SourceE @2351
    _ZN4omni28connectionWatchPeriodHandlerD0Ev @2352
    _ZN4omni28connectionWatchPeriodHandlerD1Ev @2353
    _ZN4omni28endpointPublishAllIFsHandler4dumpERNS_10orbOptions14sequenceStringE @2354
    _ZN4omni28endpointPublishAllIFsHandler5visitEPKcNS_10orbOptions6SourceE @2355
    _ZN4omni28endpointPublishAllIFsHandlerD0Ev @2356
    _ZN4omni28endpointPublishAllIFsHandlerD1Ev @2357
    _ZN4omni28giopTargetAddressModeHandler4dumpERNS_10orbOptions14sequenceStringE @2358
    _ZN4omni28giopTargetAddressModeHandler5visitEPKcNS_10orbOptions6SourceE @2359
    _ZN4omni28giopTargetAddressModeHandlerD0Ev @2360
    _ZN4omni28giopTargetAddressModeHandlerD1Ev @2361
    _ZN4omni28omniRemoteIdentity_RefHolderD1Ev @2362
    _ZN4omni28omni_dynamiclib_initialiser_E @2363 DATA
    _ZN4omni28omni_giopImpl10_initialiser_E @2364 DATA
    _ZN4omni28omni_giopImpl11_initialiser_E @2365 DATA
    _ZN4omni28omni_giopImpl12_initialiser_E @2366 DATA
    _ZN4omni28omni_giopStrand_initialiser_E @2367 DATA
    _ZN4omni28omni_giopserver_initialiser_E @2368 DATA
    _ZN4omni28omni_interceptor_initialiser6attachEv @2369
    _ZN4omni28omni_interceptor_initialiser6detachEv @2370
    _ZN4omni28omni_omniCurrent_initialiser6attachEv @2371
    _ZN4omni28omni_omniCurrent_initialiser6detachEv @2372
    _ZN4omni28omni_orbOptions_initialiser_E @2373 DATA
    _ZN4omni28poaHoldRequestTimeoutHandler4dumpERNS_10orbOptions14sequenceStringE @2374
    _ZN4omni28poaHoldRequestTimeoutHandler5visitEPKcNS_10orbOptions6SourceE @2375
    _ZN4omni28poaHoldRequestTimeoutHandlerD0Ev @2376
    _ZN4omni28poaHoldRequestTimeoutHandlerD1Ev @2377
    _ZN4omni28resetTimeOutOnRetriesHandler4dumpERNS_10orbOptions14sequenceStringE @2378
    _ZN4omni28resetTimeOutOnRetriesHandler5visitEPKcNS_10orbOptions6SourceE @2379
    _ZN4omni28resetTimeOutOnRetriesHandlerD0Ev @2380
    _ZN4omni28resetTimeOutOnRetriesHandlerD1Ev @2381
    _ZN4omni28supportBootstrapAgentHandler4dumpERNS_10orbOptions14sequenceStringE @2382
    _ZN4omni28supportBootstrapAgentHandler5visitEPKcNS_10orbOptions6SourceE @2383
    _ZN4omni28supportBootstrapAgentHandlerD0Ev @2384
    _ZN4omni28supportBootstrapAgentHandlerD1Ev @2385
    _ZN4omni29bootstrapAgentHostnameHandler4dumpERNS_10orbOptions14sequenceStringE @2386
    _ZN4omni29bootstrapAgentHostnameHandler5visitEPKcNS_10orbOptions6SourceE @2387
    _ZN4omni29bootstrapAgentHostnameHandlerD0Ev @2388
    _ZN4omni29bootstrapAgentHostnameHandlerD1Ev @2389
    _ZN4omni29copyValuesInLocalCallsHandler4dumpERNS_10orbOptions14sequenceStringE @2390
    _ZN4omni29copyValuesInLocalCallsHandler5visitEPKcNS_10orbOptions6SourceE @2391
    _ZN4omni29copyValuesInLocalCallsHandlerD0Ev @2392
    _ZN4omni29copyValuesInLocalCallsHandlerD1Ev @2393
    _ZN4omni29diiThrowsSysExceptionsHandler4dumpERNS_10orbOptions14sequenceStringE @2394
    _ZN4omni29diiThrowsSysExceptionsHandler5visitEPKcNS_10orbOptions6SourceE @2395
    _ZN4omni29diiThrowsSysExceptionsHandlerD0Ev @2396
    _ZN4omni29diiThrowsSysExceptionsHandlerD1Ev @2397
    _ZN4omni29offerBiDirectionalGIOPHandler4dumpERNS_10orbOptions14sequenceStringE @2398
    _ZN4omni29offerBiDirectionalGIOPHandler5visitEPKcNS_10orbOptions6SourceE @2399
    _ZN4omni29offerBiDirectionalGIOPHandlerD0Ev @2400
    _ZN4omni29offerBiDirectionalGIOPHandlerD1Ev @2401
    _ZN4omni29omniServantActivatorTaskQueue14run_undetachedEPv @2402
    _ZN4omni29omniServantActivatorTaskQueue3dieEv @2403
    _ZN4omni29omniServantActivatorTaskQueue4TaskD0Ev @2404
    _ZN4omni29omniServantActivatorTaskQueue4TaskD1Ev @2405
    _ZN4omni29omniServantActivatorTaskQueue4TaskD2Ev @2406
    _ZN4omni29omniServantActivatorTaskQueue6insertEPNS0_4TaskE @2407
    _ZN4omni29omniServantActivatorTaskQueue7mid_runEv @2408
    _ZN4omni29omniServantActivatorTaskQueue8real_runEv @2409
    _ZN4omni29omniServantActivatorTaskQueueC1Ev @2410
    _ZN4omni29omniServantActivatorTaskQueueC2Ev @2411
    _ZN4omni29omniServantActivatorTaskQueueD0Ev @2412
    _ZN4omni29omniServantActivatorTaskQueueD1Ev @2413
    _ZN4omni29omniServantActivatorTaskQueueD2Ev @2414
    _ZN4omni29omni_giopEndpoint_initialiser6attachEv @2415
    _ZN4omni29omni_giopEndpoint_initialiser6detachEv @2416
    _ZN4omni29omni_interceptor_initialiser_E @2417 DATA
    _ZN4omni29omni_omniCurrent_initialiser_E @2418 DATA
    _ZN4omni29omni_omniInternal_initialiser6attachEv @2419
    _ZN4omni29omni_omniInternal_initialiser6detachEv @2420
    _ZN4omni29unixTransportDirectoryHandler4dumpERNS_10orbOptions14sequenceStringE @2421
    _ZN4omni29unixTransportDirectoryHandler5visitEPKcNS_10orbOptions6SourceE @2422
    _ZN4omni29unixTransportDirectoryHandlerD0Ev @2423
    _ZN4omni29unixTransportDirectoryHandlerD1Ev @2424
    _ZN4omni30acceptBiDirectionalGIOPHandler4dumpERNS_10orbOptions14sequenceStringE @2425
    _ZN4omni30acceptBiDirectionalGIOPHandler5visitEPKcNS_10orbOptions6SourceE @2426
    _ZN4omni30acceptBiDirectionalGIOPHandlerD0Ev @2427
    _ZN4omni30acceptBiDirectionalGIOPHandlerD1Ev @2428
    _ZN4omni30clientCallTimeOutPeriodHandler4dumpERNS_10orbOptions14sequenceStringE @2429
    _ZN4omni30clientCallTimeOutPeriodHandler5visitEPKcNS_10orbOptions6SourceE @2430
    _ZN4omni30clientCallTimeOutPeriodHandlerD0Ev @2431
    _ZN4omni30clientCallTimeOutPeriodHandlerD1Ev @2432
    _ZN4omni30maxServerThreadPoolSizeHandler4dumpERNS_10orbOptions14sequenceStringE @2433
    _ZN4omni30maxServerThreadPoolSizeHandler5visitEPKcNS_10orbOptions6SourceE @2434
    _ZN4omni30maxServerThreadPoolSizeHandlerD0Ev @2435
    _ZN4omni30maxServerThreadPoolSizeHandlerD1Ev @2436
    _ZN4omni30omni_giopEndpoint_initialiser_E @2437 DATA
    _ZN4omni30omni_omniInternal_initialiser_E @2438 DATA
    _ZN4omni30omni_omniTransport_initialiser6attachEv @2439
    _ZN4omni30omni_omniTransport_initialiser6detachEv @2440
    _ZN4omni30serverCallTimeOutPeriodHandler4dumpERNS_10orbOptions14sequenceStringE @2441
    _ZN4omni30serverCallTimeOutPeriodHandler5visitEPKcNS_10orbOptions6SourceE @2442
    _ZN4omni30serverCallTimeOutPeriodHandlerD0Ev @2443
    _ZN4omni30serverCallTimeOutPeriodHandlerD1Ev @2444
    _ZN4omni30supportPerThreadTimeOutHandler4dumpERNS_10orbOptions14sequenceStringE @2445
    _ZN4omni30supportPerThreadTimeOutHandler5visitEPKcNS_10orbOptions6SourceE @2446
    _ZN4omni30supportPerThreadTimeOutHandlerD0Ev @2447
    _ZN4omni30supportPerThreadTimeOutHandlerD1Ev @2448
    _ZN4omni30unixTransportPermissionHandler4dumpERNS_10orbOptions14sequenceStringE @2449
    _ZN4omni30unixTransportPermissionHandler5visitEPKcNS_10orbOptions6SourceE @2450
    _ZN4omni30unixTransportPermissionHandlerD0Ev @2451
    _ZN4omni30unixTransportPermissionHandlerD1Ev @2452
    _ZN4omni30useTypeCodeIndirectionsHandler4dumpERNS_10orbOptions14sequenceStringE @2453
    _ZN4omni30useTypeCodeIndirectionsHandler5visitEPKcNS_10orbOptions6SourceE @2454
    _ZN4omni30useTypeCodeIndirectionsHandlerD0Ev @2455
    _ZN4omni30useTypeCodeIndirectionsHandlerD1Ev @2456
    _ZN4omni31INVALID_TRANSACTION_LookupTableE @2457 DATA
    _ZN4omni31connectionWatchImmediateHandler4dumpERNS_10orbOptions14sequenceStringE @2458
    _ZN4omni31connectionWatchImmediateHandler5visitEPKcNS_10orbOptions6SourceE @2459
    _ZN4omni31connectionWatchImmediateHandlerD0Ev @2460
    _ZN4omni31connectionWatchImmediateHandlerD1Ev @2461
    _ZN4omni31omniInProcessIdentity_RefHolderD1Ev @2462
    _ZN4omni31omni_giopStreamImpl_initialiser6attachEv @2463
    _ZN4omni31omni_giopStreamImpl_initialiser6detachEv @2464
    _ZN4omni31omni_omniTransport_initialiser_E @2465 DATA
    _ZN4omni31omni_transportRules_initialiser6attachEv @2466
    _ZN4omni31omni_transportRules_initialiser6detachEv @2467
    _ZN4omni31omni_transportRules_initialiserD0Ev @2468
    _ZN4omni31omni_transportRules_initialiserD1Ev @2469
    _ZN4omni32CODESET_INCOMPATIBLE_LookupTableE @2470 DATA
    _ZN4omni32TRANSACTION_REQUIRED_LookupTableE @2471 DATA
    _ZN4omni32omni_giopStreamImpl_initialiser_E @2472 DATA
    _ZN4omni32omni_transportRules_initialiser_E @2473 DATA
    _ZN4omni32threadPerConnectionPolicyHandler4dumpERNS_10orbOptions14sequenceStringE @2474
    _ZN4omni32threadPerConnectionPolicyHandler5visitEPKcNS_10orbOptions6SourceE @2475
    _ZN4omni32threadPerConnectionPolicyHandlerD0Ev @2476
    _ZN4omni32threadPerConnectionPolicyHandlerD1Ev @2477
    _ZN4omni32threadPoolWatchConnectionHandler4dumpERNS_10orbOptions14sequenceStringE @2478
    _ZN4omni32threadPoolWatchConnectionHandler5visitEPKcNS_10orbOptions6SourceE @2479
    _ZN4omni32threadPoolWatchConnectionHandlerD0Ev @2480
    _ZN4omni32threadPoolWatchConnectionHandlerD1Ev @2481
    _ZN4omni32verifyObjectExistsAndTypeHandler4dumpERNS_10orbOptions14sequenceStringE @2482
    _ZN4omni32verifyObjectExistsAndTypeHandler5visitEPKcNS_10orbOptions6SourceE @2483
    _ZN4omni32verifyObjectExistsAndTypeHandlerD0Ev @2484
    _ZN4omni32verifyObjectExistsAndTypeHandlerD1Ev @2485
    _ZN4omni33clientConnectTimeOutPeriodHandler4dumpERNS_10orbOptions14sequenceStringE @2486
    _ZN4omni33clientConnectTimeOutPeriodHandler5visitEPKcNS_10orbOptions6SourceE @2487
    _ZN4omni33clientConnectTimeOutPeriodHandlerD0Ev @2488
    _ZN4omni33clientConnectTimeOutPeriodHandlerD1Ev @2489
    _ZN4omni33maxGIOPConnectionPerServerHandler4dumpERNS_10orbOptions14sequenceStringE @2490
    _ZN4omni33maxGIOPConnectionPerServerHandler5visitEPKcNS_10orbOptions6SourceE @2491
    _ZN4omni33maxGIOPConnectionPerServerHandlerD0Ev @2492
    _ZN4omni33maxGIOPConnectionPerServerHandlerD1Ev @2493
    _ZN4omni34TRANSACTION_ROLLEDBACK_LookupTableE @2494 DATA
    _ZN4omni35TRANSACTION_UNAVAILABLE_LookupTableE @2495 DATA
    _ZN4omni35maxServerThreadPerConnectionHandler4dumpERNS_10orbOptions14sequenceStringE @2496
    _ZN4omni35maxServerThreadPerConnectionHandler5visitEPKcNS_10orbOptions6SourceE @2497
    _ZN4omni35maxServerThreadPerConnectionHandlerD0Ev @2498
    _ZN4omni35maxServerThreadPerConnectionHandlerD1Ev @2499
    _ZN4omni35poaUniquePersistentSystemIdsHandler4dumpERNS_10orbOptions14sequenceStringE @2500
    _ZN4omni35poaUniquePersistentSystemIdsHandler5visitEPKcNS_10orbOptions6SourceE @2501
    _ZN4omni35poaUniquePersistentSystemIdsHandlerD0Ev @2502
    _ZN4omni35poaUniquePersistentSystemIdsHandlerD1Ev @2503
    _ZN4omni36threadPerConnectionLowerLimitHandler4dumpERNS_10orbOptions14sequenceStringE @2504
    _ZN4omni36threadPerConnectionLowerLimitHandler5visitEPKcNS_10orbOptions6SourceE @2505
    _ZN4omni36threadPerConnectionLowerLimitHandlerD0Ev @2506
    _ZN4omni36threadPerConnectionLowerLimitHandlerD1Ev @2507
    _ZN4omni36threadPerConnectionUpperLimitHandler4dumpERNS_10orbOptions14sequenceStringE @2508
    _ZN4omni36threadPerConnectionUpperLimitHandler5visitEPKcNS_10orbOptions6SourceE @2509
    _ZN4omni36threadPerConnectionUpperLimitHandlerD0Ev @2510
    _ZN4omni36threadPerConnectionUpperLimitHandlerD1Ev @2511
    _ZN4omni37acceptMisalignedTcIndirectionsHandler4dumpERNS_10orbOptions14sequenceStringE @2512
    _ZN4omni37acceptMisalignedTcIndirectionsHandler5visitEPKcNS_10orbOptions6SourceE @2513
    _ZN4omni37acceptMisalignedTcIndirectionsHandlerD0Ev @2514
    _ZN4omni37acceptMisalignedTcIndirectionsHandlerD1Ev @2515
    _ZN4omni39maxInterleavedCallsPerConnectionHandler4dumpERNS_10orbOptions14sequenceStringE @2516
    _ZN4omni39maxInterleavedCallsPerConnectionHandler5visitEPKcNS_10orbOptions6SourceE @2517
    _ZN4omni39maxInterleavedCallsPerConnectionHandlerD0Ev @2518
    _ZN4omni39maxInterleavedCallsPerConnectionHandlerD1Ev @2519
    _ZN4omni4RopeD0Ev @2520
    _ZN4omni4RopeD1Ev @2521
    _ZN4omni5IOP_CD0Ev @2522
    _ZN4omni5IOP_CD1Ev @2523
    _ZN4omni5IOP_SD0Ev @2524
    _ZN4omni5IOP_SD1Ev @2525
    _ZN4omni6GIOP_C10completionEv @2526
    _ZN4omni6GIOP_C10initialiseEPK7omniIORPKhiP18omniCallDescriptor @2527
    _ZN4omni6GIOP_C10ptrToClassEPi @2528
    _ZN4omni6GIOP_C12ReceiveReplyEv @2529
    _ZN4omni6GIOP_C16RequestCompletedEb @2530
    _ZN4omni6GIOP_C17InitialiseRequestEv @2531
    _ZN4omni6GIOP_C17notifyCommFailureEbRmRb @2532
    _ZN4omni6GIOP_C18IssueLocateRequestEv @2533
    _ZN4omni6GIOP_C25UnMarshallSystemExceptionEv @2534
    _ZN4omni6GIOP_C7cleanupEv @2535
    _ZN4omni6GIOP_C8_classidE @2536 DATA
    _ZN4omni6GIOP_C9getStreamEv @2537
    _ZN4omni6GIOP_CC1EPNS_8giopRopeEPNS_10giopStrandE @2538
    _ZN4omni6GIOP_CC2EPNS_8giopRopeEPNS_10giopStrandE @2539
    _ZN4omni6GIOP_CD0Ev @2540
    _ZN4omni6GIOP_CD1Ev @2541
    _ZN4omni6GIOP_CD2Ev @2542
    _ZN4omni6GIOP_S10completionEv @2543
    _ZN4omni6GIOP_S10dispatcherEv @2544
    _ZN4omni6GIOP_S10ptrToClassEPi @2545
    _ZN4omni6GIOP_S13SendExceptionEPN5CORBA9ExceptionE @2546
    _ZN4omni6GIOP_S13handleRequestEv @2547
    _ZN4omni6GIOP_S14ReceiveRequestER18omniCallDescriptor @2548
    _ZN4omni6GIOP_S15SkipRequestBodyEv @2549
    _ZN4omni6GIOP_S17notifyCommFailureEbRmRb @2550
    _ZN4omni6GIOP_S19handleCancelRequestEv @2551
    _ZN4omni6GIOP_S19handleLocateRequestEv @2552
    _ZN4omni6GIOP_S19terminateProcessingD1Ev @2553
    _ZN4omni6GIOP_S26unmarshalIORAddressingInfoEv @2554
    _ZN4omni6GIOP_S8_classidE @2555 DATA
    _ZN4omni6GIOP_S9SendReplyEv @2556
    _ZN4omni6GIOP_S9getStreamEv @2557
    _ZN4omni6GIOP_SC1EPNS_10giopStrandE @2558
    _ZN4omni6GIOP_SC1ERKS0_ @2559
    _ZN4omni6GIOP_SC2EPNS_10giopStrandE @2560
    _ZN4omni6GIOP_SC2ERKS0_ @2561
    _ZN4omni6GIOP_SD0Ev @2562
    _ZN4omni6GIOP_SD1Ev @2563
    _ZN4omni6GIOP_SD2Ev @2564
    _ZN4omni6StrandD0Ev @2565
    _ZN4omni6StrandD1Ev @2566
    _ZN4omni7omniURI10URIHandlerD0Ev @2567
    _ZN4omni7omniURI10URIHandlerD1Ev @2568
    _ZN4omni7omniURI10URIHandlerD2Ev @2569
    _ZN4omni7omniURI12nameToStringERKN9CosNaming4NameE @2570
    _ZN4omni7omniURI12stringToNameEPKc @2571
    _ZN4omni7omniURI13validHostPortEPKc @2572
    _ZN4omni7omniURI14objectToStringEPN5CORBA6ObjectE @2573
    _ZN4omni7omniURI14stringToObjectEPKcj @2574
    _ZN4omni7omniURI15extractHostPortEPKcRtPS2_ @2575
    _ZN4omni7omniURI16addrAndNameToURIEPKcS2_ @2576
    _ZN4omni7omniURI16uriSyntaxIsValidEPKc @2577
    _ZN4omni7omniURI8buildURIEPKcS2_t @2578
    _ZN4omni8RopeLink6insertERS0_ @2579
    _ZN4omni8RopeLink6removeEv @2580
    _ZN4omni8RopeLink8is_emptyERS0_ @2581
    _ZN4omni8giopRope10hasAddressEPKNS_11giopAddressE @2582
    _ZN4omni8giopRope10selectRopeERK10omnivectorIPNS_11giopAddressEEPN7omniIOR7IORInfoERPNS_4RopeERb @2583
    _ZN4omni8giopRope12decrRefCountEv @2584
    _ZN4omni8giopRope12incrRefCountEv @2585
    _ZN4omni8giopRope13acquireClientEPK7omniIORPKhmP18omniCallDescriptor @2586
    _ZN4omni8giopRope13releaseClientEPNS_5IOP_CE @2587
    _ZN4omni8giopRope16realIncrRefCountEv @2588
    _ZN4omni8giopRope17notifyCommFailureEPKNS_11giopAddressEb @2589
    _ZN4omni8giopRope24filterAndSortAddressListERK10omnivectorIPNS_11giopAddressEERS1_ImERb @2590
    _ZN4omni8giopRope5ropesE @2591 DATA
    _ZN4omni8giopRopeC1EPNS_11giopAddressEi @2592
    _ZN4omni8giopRopeC1ERK10omnivectorIPNS_11giopAddressEERKS1_ImE @2593
    _ZN4omni8giopRopeC2EPNS_11giopAddressEi @2594
    _ZN4omni8giopRopeC2ERK10omnivectorIPNS_11giopAddressEERKS1_ImE @2595
    _ZN4omni8giopRopeD0Ev @2596
    _ZN4omni8giopRopeD1Ev @2597
    _ZN4omni8giopRopeD2Ev @2598
    _ZN4omni8poRcLockE @2599 DATA
    _ZN4omni9BiDirInfoD0Ev @2600
    _ZN4omni9BiDirInfoD1Ev @2601
    _ZN4omni9Scavenger10initialiseEv @2602
    _ZN4omni9Scavenger10removeIdleERNS_10StrandListES2_b @2603
    _ZN4omni9Scavenger4condE @2604 DATA
    _ZN4omni9Scavenger5mutexE @2605 DATA
    _ZN4omni9Scavenger6notifyEv @2606
    _ZN4omni9Scavenger7executeEv @2607
    _ZN4omni9Scavenger7theTaskE @2608 DATA
    _ZN4omni9Scavenger8shutdownE @2609 DATA
    _ZN4omni9Scavenger9terminateEv @2610
    _ZN4omni9ScavengerD0Ev @2611
    _ZN4omni9ScavengerD1Ev @2612
    _ZN4omni9idHandler4dumpERNS_10orbOptions14sequenceStringE @2613
    _ZN4omni9idHandler5visitEPKcNS_10orbOptions6SourceE @2614
    _ZN4omni9idHandlerD0Ev @2615
    _ZN4omni9idHandlerD1Ev @2616
    _ZN4omni9orbServerD0Ev @2617
    _ZN4omni9orbServerD1Ev @2618
    _ZN5CORBA10INITIALIZE13insertToAnyFnE @2619 DATA
    _ZN5CORBA10INITIALIZE16insertToAnyFnNCPE @2620 DATA
    _ZN5CORBA10INITIALIZE9_downcastEPKNS_9ExceptionE @2621
    _ZN5CORBA10INITIALIZE9_downcastEPNS_9ExceptionE @2622
    _ZN5CORBA10INITIALIZED0Ev @2623
    _ZN5CORBA10INITIALIZED1Ev @2624
    _ZN5CORBA10INITIALIZED2Ev @2625
    _ZN5CORBA10INTF_REPOS13insertToAnyFnE @2626 DATA
    _ZN5CORBA10INTF_REPOS16insertToAnyFnNCPE @2627 DATA
    _ZN5CORBA10INTF_REPOS9_downcastEPKNS_9ExceptionE @2628
    _ZN5CORBA10INTF_REPOS9_downcastEPNS_9ExceptionE @2629
    _ZN5CORBA10INTF_REPOSD0Ev @2630
    _ZN5CORBA10INTF_REPOSD1Ev @2631
    _ZN5CORBA10INTF_REPOSD2Ev @2632
    _ZN5CORBA10INV_OBJREF13insertToAnyFnE @2633 DATA
    _ZN5CORBA10INV_OBJREF16insertToAnyFnNCPE @2634 DATA
    _ZN5CORBA10INV_OBJREF9_downcastEPKNS_9ExceptionE @2635
    _ZN5CORBA10INV_OBJREF9_downcastEPNS_9ExceptionE @2636
    _ZN5CORBA10INV_OBJREFD0Ev @2637
    _ZN5CORBA10INV_OBJREFD1Ev @2638
    _ZN5CORBA10INV_OBJREFD2Ev @2639
    _ZN5CORBA10INV_POLICY13insertToAnyFnE @2640 DATA
    _ZN5CORBA10INV_POLICY16insertToAnyFnNCPE @2641 DATA
    _ZN5CORBA10INV_POLICY9_downcastEPKNS_9ExceptionE @2642
    _ZN5CORBA10INV_POLICY9_downcastEPNS_9ExceptionE @2643
    _ZN5CORBA10INV_POLICYD0Ev @2644
    _ZN5CORBA10INV_POLICYD1Ev @2645
    _ZN5CORBA10INV_POLICYD2Ev @2646
    _ZN5CORBA10Object_varD1Ev @2647
    _ZN5CORBA10string_dupEPKc @2648
    _ZN5CORBA11BAD_CONTEXT13insertToAnyFnE @2649 DATA
    _ZN5CORBA11BAD_CONTEXT16insertToAnyFnNCPE @2650 DATA
    _ZN5CORBA11BAD_CONTEXT9_downcastEPKNS_9ExceptionE @2651
    _ZN5CORBA11BAD_CONTEXT9_downcastEPNS_9ExceptionE @2652
    _ZN5CORBA11BAD_CONTEXTD0Ev @2653
    _ZN5CORBA11BAD_CONTEXTD1Ev @2654
    _ZN5CORBA11BAD_CONTEXTD2Ev @2655
    _ZN5CORBA11LocalObject10_PD_repoIdE @2656 DATA
    _ZN5CORBA11LocalObject10_duplicateEPS0_ @2657
    _ZN5CORBA11LocalObject11_remove_refEv @2658
    _ZN5CORBA11LocalObject12_ptrToObjRefEPKc @2659
    _ZN5CORBA11LocalObject13_non_existentEv @2660
    _ZN5CORBA11LocalObject14_marshalObjRefEPS0_R9cdrStream @2661
    _ZN5CORBA11LocalObject16_NP_decrRefCountEv @2662
    _ZN5CORBA11LocalObject16_NP_incrRefCountEv @2663
    _ZN5CORBA11LocalObject16_unmarshalObjRefER9cdrStream @2664
    _ZN5CORBA11LocalObject17_unchecked_narrowEPNS_6ObjectE @2665
    _ZN5CORBA11LocalObject4_nilEv @2666
    _ZN5CORBA11LocalObject7_narrowEPNS_6ObjectE @2667
    _ZN5CORBA11LocalObject8_add_refEv @2668
    _ZN5CORBA11LocalObjectD0Ev @2669
    _ZN5CORBA11LocalObjectD1Ev @2670
    _ZN5CORBA11LocalObjectD2Ev @2671
    _ZN5CORBA11NO_RESPONSE13insertToAnyFnE @2672 DATA
    _ZN5CORBA11NO_RESPONSE16insertToAnyFnNCPE @2673 DATA
    _ZN5CORBA11NO_RESPONSE9_downcastEPKNS_9ExceptionE @2674
    _ZN5CORBA11NO_RESPONSE9_downcastEPNS_9ExceptionE @2675
    _ZN5CORBA11NO_RESPONSED0Ev @2676
    _ZN5CORBA11NO_RESPONSED1Ev @2677
    _ZN5CORBA11NO_RESPONSED2Ev @2678
    _ZN5CORBA11OBJ_ADAPTER13insertToAnyFnE @2679 DATA
    _ZN5CORBA11OBJ_ADAPTER16insertToAnyFnNCPE @2680 DATA
    _ZN5CORBA11OBJ_ADAPTER9_downcastEPKNS_9ExceptionE @2681
    _ZN5CORBA11OBJ_ADAPTER9_downcastEPNS_9ExceptionE @2682
    _ZN5CORBA11OBJ_ADAPTERD0Ev @2683
    _ZN5CORBA11OBJ_ADAPTERD1Ev @2684
    _ZN5CORBA11OBJ_ADAPTERD2Ev @2685
    _ZN5CORBA11string_freeEPc @2686
    _ZN5CORBA11wstring_dupEPKw @2687
    _ZN5CORBA12BAD_TYPECODE13insertToAnyFnE @2688 DATA
    _ZN5CORBA12BAD_TYPECODE16insertToAnyFnNCPE @2689 DATA
    _ZN5CORBA12BAD_TYPECODE9_downcastEPKNS_9ExceptionE @2690
    _ZN5CORBA12BAD_TYPECODE9_downcastEPNS_9ExceptionE @2691
    _ZN5CORBA12BAD_TYPECODED0Ev @2692
    _ZN5CORBA12BAD_TYPECODED1Ev @2693
    _ZN5CORBA12BAD_TYPECODED2Ev @2694
    _ZN5CORBA12COMM_FAILURE13insertToAnyFnE @2695 DATA
    _ZN5CORBA12COMM_FAILURE16insertToAnyFnNCPE @2696 DATA
    _ZN5CORBA12COMM_FAILURE9_downcastEPKNS_9ExceptionE @2697
    _ZN5CORBA12COMM_FAILURE9_downcastEPNS_9ExceptionE @2698
    _ZN5CORBA12COMM_FAILURED0Ev @2699
    _ZN5CORBA12COMM_FAILURED1Ev @2700
    _ZN5CORBA12COMM_FAILURED2Ev @2701
    _ZN5CORBA12NO_IMPLEMENT13insertToAnyFnE @2702 DATA
    _ZN5CORBA12NO_IMPLEMENT16insertToAnyFnNCPE @2703 DATA
    _ZN5CORBA12NO_IMPLEMENT9_downcastEPKNS_9ExceptionE @2704
    _ZN5CORBA12NO_IMPLEMENT9_downcastEPNS_9ExceptionE @2705
    _ZN5CORBA12NO_IMPLEMENTD0Ev @2706
    _ZN5CORBA12NO_IMPLEMENTD1Ev @2707
    _ZN5CORBA12NO_IMPLEMENTD2Ev @2708
    _ZN5CORBA12NO_RESOURCES13insertToAnyFnE @2709 DATA
    _ZN5CORBA12NO_RESOURCES16insertToAnyFnNCPE @2710 DATA
    _ZN5CORBA12NO_RESOURCES9_downcastEPKNS_9ExceptionE @2711
    _ZN5CORBA12NO_RESOURCES9_downcastEPNS_9ExceptionE @2712
    _ZN5CORBA12NO_RESOURCESD0Ev @2713
    _ZN5CORBA12NO_RESOURCESD1Ev @2714
    _ZN5CORBA12NO_RESOURCESD2Ev @2715
    _ZN5CORBA12string_allocEm @2716
    _ZN5CORBA12wstring_freeEPw @2717
    _ZN5CORBA13BAD_INV_ORDER13insertToAnyFnE @2718 DATA
    _ZN5CORBA13BAD_INV_ORDER16insertToAnyFnNCPE @2719 DATA
    _ZN5CORBA13BAD_INV_ORDER9_downcastEPKNS_9ExceptionE @2720
    _ZN5CORBA13BAD_INV_ORDER9_downcastEPNS_9ExceptionE @2721
    _ZN5CORBA13BAD_INV_ORDERD0Ev @2722
    _ZN5CORBA13BAD_INV_ORDERD1Ev @2723
    _ZN5CORBA13BAD_INV_ORDERD2Ev @2724
    _ZN5CORBA13BAD_OPERATION13insertToAnyFnE @2725 DATA
    _ZN5CORBA13BAD_OPERATION16insertToAnyFnNCPE @2726 DATA
    _ZN5CORBA13BAD_OPERATION9_downcastEPKNS_9ExceptionE @2727
    _ZN5CORBA13BAD_OPERATION9_downcastEPNS_9ExceptionE @2728
    _ZN5CORBA13BAD_OPERATIOND0Ev @2729
    _ZN5CORBA13BAD_OPERATIOND1Ev @2730
    _ZN5CORBA13BAD_OPERATIOND2Ev @2731
    _ZN5CORBA13NO_PERMISSION13insertToAnyFnE @2732 DATA
    _ZN5CORBA13NO_PERMISSION16insertToAnyFnNCPE @2733 DATA
    _ZN5CORBA13NO_PERMISSION9_downcastEPKNS_9ExceptionE @2734
    _ZN5CORBA13NO_PERMISSION9_downcastEPNS_9ExceptionE @2735
    _ZN5CORBA13NO_PERMISSIOND0Ev @2736
    _ZN5CORBA13NO_PERMISSIOND1Ev @2737
    _ZN5CORBA13NO_PERMISSIOND2Ev @2738
    _ZN5CORBA13Object_Helper13marshalObjRefEPNS_6ObjectER9cdrStream @2739
    _ZN5CORBA13Object_Helper15unmarshalObjRefER9cdrStream @2740
    _ZN5CORBA13Object_Helper4_nilEv @2741
    _ZN5CORBA13Object_Helper6is_nilEPNS_6ObjectE @2742
    _ZN5CORBA13Object_Helper7releaseEPNS_6ObjectE @2743
    _ZN5CORBA13Object_Helper9duplicateEPNS_6ObjectE @2744
    _ZN5CORBA13PERSIST_STORE13insertToAnyFnE @2745 DATA
    _ZN5CORBA13PERSIST_STORE16insertToAnyFnNCPE @2746 DATA
    _ZN5CORBA13PERSIST_STORE9_downcastEPKNS_9ExceptionE @2747
    _ZN5CORBA13PERSIST_STORE9_downcastEPNS_9ExceptionE @2748
    _ZN5CORBA13PERSIST_STORED0Ev @2749
    _ZN5CORBA13PERSIST_STORED1Ev @2750
    _ZN5CORBA13PERSIST_STORED2Ev @2751
    _ZN5CORBA13UserException9_downcastEPKNS_9ExceptionE @2752
    _ZN5CORBA13UserException9_downcastEPNS_9ExceptionE @2753
    _ZN5CORBA13UserExceptionD0Ev @2754
    _ZN5CORBA13UserExceptionD1Ev @2755
    _ZN5CORBA13UserExceptionD2Ev @2756
    _ZN5CORBA13wstring_allocEm @2757
    _ZN5CORBA14IDLType_Helper6is_nilEPNS_15_objref_IDLTypeE @2758
    _ZN5CORBA14IDLType_Helper7releaseEPNS_15_objref_IDLTypeE @2759
    _ZN5CORBA15DATA_CONVERSION13insertToAnyFnE @2760 DATA
    _ZN5CORBA15DATA_CONVERSION16insertToAnyFnNCPE @2761 DATA
    _ZN5CORBA15DATA_CONVERSION9_downcastEPKNS_9ExceptionE @2762
    _ZN5CORBA15DATA_CONVERSION9_downcastEPNS_9ExceptionE @2763
    _ZN5CORBA15DATA_CONVERSIOND0Ev @2764
    _ZN5CORBA15DATA_CONVERSIOND1Ev @2765
    _ZN5CORBA15DATA_CONVERSIOND2Ev @2766
    _ZN5CORBA15SystemException9_downcastEPKNS_9ExceptionE @2767
    _ZN5CORBA15SystemException9_downcastEPNS_9ExceptionE @2768
    _ZN5CORBA15SystemExceptionD0Ev @2769
    _ZN5CORBA15SystemExceptionD1Ev @2770
    _ZN5CORBA15SystemExceptionD2Ev @2771
    _ZN5CORBA15TypeCode_memberD1Ev @2772
    _ZN5CORBA15TypeCode_memberD2Ev @2773
    _ZN5CORBA16Contained_Helper6is_nilEPNS_17_objref_ContainedE @2774
    _ZN5CORBA16Contained_Helper7releaseEPNS_17_objref_ContainedE @2775
    _ZN5CORBA16OBJECT_NOT_EXIST13insertToAnyFnE @2776 DATA
    _ZN5CORBA16OBJECT_NOT_EXIST16insertToAnyFnNCPE @2777 DATA
    _ZN5CORBA16OBJECT_NOT_EXIST9_downcastEPKNS_9ExceptionE @2778
    _ZN5CORBA16OBJECT_NOT_EXIST9_downcastEPNS_9ExceptionE @2779
    _ZN5CORBA16OBJECT_NOT_EXISTD0Ev @2780
    _ZN5CORBA16OBJECT_NOT_EXISTD1Ev @2781
    _ZN5CORBA16OBJECT_NOT_EXISTD2Ev @2782
    _ZN5CORBA16TRANSACTION_MODE13insertToAnyFnE @2783 DATA
    _ZN5CORBA16TRANSACTION_MODE16insertToAnyFnNCPE @2784 DATA
    _ZN5CORBA16TRANSACTION_MODE9_downcastEPKNS_9ExceptionE @2785
    _ZN5CORBA16TRANSACTION_MODE9_downcastEPNS_9ExceptionE @2786
    _ZN5CORBA16TRANSACTION_MODED0Ev @2787
    _ZN5CORBA16TRANSACTION_MODED1Ev @2788
    _ZN5CORBA16TRANSACTION_MODED2Ev @2789
    _ZN5CORBA18LocalObject_Helper13marshalObjRefEPNS_11LocalObjectER9cdrStream @2790
    _ZN5CORBA18LocalObject_Helper15unmarshalObjRefER9cdrStream @2791
    _ZN5CORBA18LocalObject_Helper4_nilEv @2792
    _ZN5CORBA18LocalObject_Helper6is_nilEPNS_11LocalObjectE @2793
    _ZN5CORBA18LocalObject_Helper7releaseEPNS_11LocalObjectE @2794
    _ZN5CORBA18LocalObject_Helper9duplicateEPNS_11LocalObjectE @2795
    _ZN5CORBA19ExceptionDef_Helper6is_nilEPNS_20_objref_ExceptionDefE @2796
    _ZN5CORBA19ExceptionDef_Helper7releaseEPNS_20_objref_ExceptionDefE @2797
    _ZN5CORBA19INVALID_TRANSACTION13insertToAnyFnE @2798 DATA
    _ZN5CORBA19INVALID_TRANSACTION16insertToAnyFnNCPE @2799 DATA
    _ZN5CORBA19INVALID_TRANSACTION9_downcastEPKNS_9ExceptionE @2800
    _ZN5CORBA19INVALID_TRANSACTION9_downcastEPNS_9ExceptionE @2801
    _ZN5CORBA19INVALID_TRANSACTIOND0Ev @2802
    _ZN5CORBA19INVALID_TRANSACTIOND1Ev @2803
    _ZN5CORBA19INVALID_TRANSACTIOND2Ev @2804
    _ZN5CORBA19InterfaceDef_Helper6is_nilEPNS_20_objref_InterfaceDefE @2805
    _ZN5CORBA19InterfaceDef_Helper7releaseEPNS_20_objref_InterfaceDefE @2806
    _ZN5CORBA20CODESET_INCOMPATIBLE13insertToAnyFnE @2807 DATA
    _ZN5CORBA20CODESET_INCOMPATIBLE16insertToAnyFnNCPE @2808 DATA
    _ZN5CORBA20CODESET_INCOMPATIBLE9_downcastEPKNS_9ExceptionE @2809
    _ZN5CORBA20CODESET_INCOMPATIBLE9_downcastEPNS_9ExceptionE @2810
    _ZN5CORBA20CODESET_INCOMPATIBLED0Ev @2811
    _ZN5CORBA20CODESET_INCOMPATIBLED1Ev @2812
    _ZN5CORBA20CODESET_INCOMPATIBLED2Ev @2813
    _ZN5CORBA20TRANSACTION_REQUIRED13insertToAnyFnE @2814 DATA
    _ZN5CORBA20TRANSACTION_REQUIRED16insertToAnyFnNCPE @2815 DATA
    _ZN5CORBA20TRANSACTION_REQUIRED9_downcastEPKNS_9ExceptionE @2816
    _ZN5CORBA20TRANSACTION_REQUIRED9_downcastEPNS_9ExceptionE @2817
    _ZN5CORBA20TRANSACTION_REQUIREDD0Ev @2818
    _ZN5CORBA20TRANSACTION_REQUIREDD1Ev @2819
    _ZN5CORBA20TRANSACTION_REQUIREDD2Ev @2820
    _ZN5CORBA22TRANSACTION_ROLLEDBACK13insertToAnyFnE @2821 DATA
    _ZN5CORBA22TRANSACTION_ROLLEDBACK16insertToAnyFnNCPE @2822 DATA
    _ZN5CORBA22TRANSACTION_ROLLEDBACK9_downcastEPKNS_9ExceptionE @2823
    _ZN5CORBA22TRANSACTION_ROLLEDBACK9_downcastEPNS_9ExceptionE @2824
    _ZN5CORBA22TRANSACTION_ROLLEDBACKD0Ev @2825
    _ZN5CORBA22TRANSACTION_ROLLEDBACKD1Ev @2826
    _ZN5CORBA22TRANSACTION_ROLLEDBACKD2Ev @2827
    _ZN5CORBA23TRANSACTION_UNAVAILABLE13insertToAnyFnE @2828 DATA
    _ZN5CORBA23TRANSACTION_UNAVAILABLE16insertToAnyFnNCPE @2829 DATA
    _ZN5CORBA23TRANSACTION_UNAVAILABLE9_downcastEPKNS_9ExceptionE @2830
    _ZN5CORBA23TRANSACTION_UNAVAILABLE9_downcastEPNS_9ExceptionE @2831
    _ZN5CORBA23TRANSACTION_UNAVAILABLED0Ev @2832
    _ZN5CORBA23TRANSACTION_UNAVAILABLED1Ev @2833
    _ZN5CORBA23TRANSACTION_UNAVAILABLED2Ev @2834
    _ZN5CORBA3AnyD1Ev @2835
    _ZN5CORBA3AnyD2Ev @2836
    _ZN5CORBA3BOA10_PD_repoIdE @2837 DATA
    _ZN5CORBA3BOA10_duplicateEPS0_ @2838
    _ZN5CORBA3BOA4_nilEv @2839
    _ZN5CORBA3BOA6getBOAEv @2840
    _ZN5CORBA3BOA7_narrowEPNS_6ObjectE @2841
    _ZN5CORBA3BOAD0Ev @2842
    _ZN5CORBA3BOAD1Ev @2843
    _ZN5CORBA3BOAD2Ev @2844
    _ZN5CORBA3ORB10_PD_repoIdE @2845 DATA
    _ZN5CORBA3ORB10_duplicateEPS0_ @2846
    _ZN5CORBA3ORB11InvalidName10_PD_repoIdE @2847 DATA
    _ZN5CORBA3ORB11InvalidName13insertToAnyFnE @2848 DATA
    _ZN5CORBA3ORB11InvalidName16insertToAnyFnNCPE @2849 DATA
    _ZN5CORBA3ORB11InvalidName9_downcastEPKNS_9ExceptionE @2850
    _ZN5CORBA3ORB11InvalidName9_downcastEPNS_9ExceptionE @2851
    _ZN5CORBA3ORB11InvalidNameD0Ev @2852
    _ZN5CORBA3ORB11InvalidNameD1Ev @2853
    _ZN5CORBA3ORB11InvalidNameD2Ev @2854
    _ZN5CORBA3ORB4_nilEv @2855
    _ZN5CORBA3ORB7_narrowEPNS_6ObjectE @2856
    _ZN5CORBA3ORB8BOA_initERiPPcPKc @2857
    _ZN5CORBA3ORBD0Ev @2858
    _ZN5CORBA3ORBD1Ev @2859
    _ZN5CORBA3ORBD2Ev @2860
    _ZN5CORBA5Fixed12PR_setLimitsEtt @2861
    _ZN5CORBA5Fixed13NP_fromStringEPKcb @2862
    _ZN5CORBA5Fixed14PR_changeScaleEt @2863
    _ZN5CORBA5Fixed14PR_checkLimitsEv @2864
    _ZN5CORBA5Fixed6NP_cmpERKS0_S2_ @2865
    _ZN5CORBA5FixedC1EPKc @2866
    _ZN5CORBA5FixedC1EPKhttb @2867
    _ZN5CORBA5FixedC1ERKS0_ @2868
    _ZN5CORBA5FixedC1Ed @2869
    _ZN5CORBA5FixedC1Ee @2870
    _ZN5CORBA5FixedC1Ei @2871
    _ZN5CORBA5FixedC1Ej @2872
    _ZN5CORBA5FixedC1El @2873
    _ZN5CORBA5FixedC1Em @2874
    _ZN5CORBA5FixedC1Ex @2875
    _ZN5CORBA5FixedC1Ey @2876
    _ZN5CORBA5FixedC2EPKc @2877
    _ZN5CORBA5FixedC2EPKhttb @2878
    _ZN5CORBA5FixedC2ERKS0_ @2879
    _ZN5CORBA5FixedC2Ed @2880
    _ZN5CORBA5FixedC2Ee @2881
    _ZN5CORBA5FixedC2Ei @2882
    _ZN5CORBA5FixedC2Ej @2883
    _ZN5CORBA5FixedC2El @2884
    _ZN5CORBA5FixedC2Em @2885
    _ZN5CORBA5FixedC2Ex @2886
    _ZN5CORBA5FixedC2Ey @2887
    _ZN5CORBA5FixedD1Ev @2888
    _ZN5CORBA5FixedD2Ev @2889
    _ZN5CORBA5FixedaSERKS0_ @2890
    _ZN5CORBA5FixeddVERKS0_ @2891
    _ZN5CORBA5FixedlSER9cdrStream @2892
    _ZN5CORBA5FixedmIERKS0_ @2893
    _ZN5CORBA5FixedmLERKS0_ @2894
    _ZN5CORBA5FixedmmEi @2895
    _ZN5CORBA5FixedmmEv @2896
    _ZN5CORBA5FixedpLERKS0_ @2897
    _ZN5CORBA5FixedppEi @2898
    _ZN5CORBA5FixedppEv @2899
    _ZN5CORBA6Object10_PD_repoIdE @2900 DATA
    _ZN5CORBA6Object10_duplicateEPS0_ @2901
    _ZN5CORBA6Object12_ptrToObjRefEPKc @2902
    _ZN5CORBA6Object13_non_existentEv @2903
    _ZN5CORBA6Object14_is_equivalentEPS0_ @2904
    _ZN5CORBA6Object14_marshalObjRefEPS0_R9cdrStream @2905
    _ZN5CORBA6Object16_NP_decrRefCountEv @2906
    _ZN5CORBA6Object16_NP_incrRefCountEv @2907
    _ZN5CORBA6Object16_unmarshalObjRefER9cdrStream @2908
    _ZN5CORBA6Object4_nilEv @2909
    _ZN5CORBA6Object5_hashEm @2910
    _ZN5CORBA6Object5_is_aEPKc @2911
    _ZN5CORBA6Object9_PR_magicE @2912 DATA
    _ZN5CORBA6ObjectD0Ev @2913
    _ZN5CORBA6ObjectD1Ev @2914
    _ZN5CORBA6ObjectD2Ev @2915
    _ZN5CORBA6Policy10_PD_repoIdE @2916 DATA
    _ZN5CORBA6Policy10_duplicateEPS0_ @2917
    _ZN5CORBA6Policy11policy_typeEv @2918
    _ZN5CORBA6Policy12_ptrToObjRefEPKc @2919
    _ZN5CORBA6Policy16_NP_decrRefCountEv @2920
    _ZN5CORBA6Policy16_NP_incrRefCountEv @2921
    _ZN5CORBA6Policy4_nilEv @2922
    _ZN5CORBA6Policy4copyEv @2923
    _ZN5CORBA6Policy7_narrowEPNS_6ObjectE @2924
    _ZN5CORBA6Policy7destroyEv @2925
    _ZN5CORBA6PolicyC1Em @2926
    _ZN5CORBA6PolicyC1Ev @2927
    _ZN5CORBA6PolicyC2Em @2928
    _ZN5CORBA6PolicyC2Ev @2929
    _ZN5CORBA6PolicyD0Ev @2930
    _ZN5CORBA6PolicyD1Ev @2931
    _ZN5CORBA6PolicyD2Ev @2932
    _ZN5CORBA6REBIND13insertToAnyFnE @2933 DATA
    _ZN5CORBA6REBIND16insertToAnyFnNCPE @2934 DATA
    _ZN5CORBA6REBIND9_downcastEPKNS_9ExceptionE @2935
    _ZN5CORBA6REBIND9_downcastEPNS_9ExceptionE @2936
    _ZN5CORBA6REBINDD0Ev @2937
    _ZN5CORBA6REBINDD1Ev @2938
    _ZN5CORBA6REBINDD2Ev @2939
    _ZN5CORBA7BAD_QOS13insertToAnyFnE @2940 DATA
    _ZN5CORBA7BAD_QOS16insertToAnyFnNCPE @2941 DATA
    _ZN5CORBA7BAD_QOS9_downcastEPKNS_9ExceptionE @2942
    _ZN5CORBA7BAD_QOS9_downcastEPNS_9ExceptionE @2943
    _ZN5CORBA7BAD_QOSD0Ev @2944
    _ZN5CORBA7BAD_QOSD1Ev @2945
    _ZN5CORBA7BAD_QOSD2Ev @2946
    _ZN5CORBA7Current10_PD_repoIdE @2947 DATA
    _ZN5CORBA7Current10_duplicateEPS0_ @2948
    _ZN5CORBA7Current4_nilEv @2949
    _ZN5CORBA7Current7_narrowEPNS_6ObjectE @2950
    _ZN5CORBA7CurrentC1Ei @2951
    _ZN5CORBA7CurrentC2Ei @2952
    _ZN5CORBA7CurrentD0Ev @2953
    _ZN5CORBA7CurrentD1Ev @2954
    _ZN5CORBA7CurrentD2Ev @2955
    _ZN5CORBA7MARSHAL13insertToAnyFnE @2956 DATA
    _ZN5CORBA7MARSHAL16insertToAnyFnNCPE @2957 DATA
    _ZN5CORBA7MARSHAL9_downcastEPKNS_9ExceptionE @2958
    _ZN5CORBA7MARSHAL9_downcastEPNS_9ExceptionE @2959
    _ZN5CORBA7MARSHALD0Ev @2960
    _ZN5CORBA7MARSHALD1Ev @2961
    _ZN5CORBA7MARSHALD2Ev @2962
    _ZN5CORBA7TIMEOUT13insertToAnyFnE @2963 DATA
    _ZN5CORBA7TIMEOUT16insertToAnyFnNCPE @2964 DATA
    _ZN5CORBA7TIMEOUT9_downcastEPKNS_9ExceptionE @2965
    _ZN5CORBA7TIMEOUT9_downcastEPNS_9ExceptionE @2966
    _ZN5CORBA7TIMEOUTD0Ev @2967
    _ZN5CORBA7TIMEOUTD1Ev @2968
    _ZN5CORBA7TIMEOUTD2Ev @2969
    _ZN5CORBA7UNKNOWN13insertToAnyFnE @2970 DATA
    _ZN5CORBA7UNKNOWN16insertToAnyFnNCPE @2971 DATA
    _ZN5CORBA7UNKNOWN9_downcastEPKNS_9ExceptionE @2972
    _ZN5CORBA7UNKNOWN9_downcastEPNS_9ExceptionE @2973
    _ZN5CORBA7UNKNOWND0Ev @2974
    _ZN5CORBA7UNKNOWND1Ev @2975
    _ZN5CORBA7UNKNOWND2Ev @2976
    _ZN5CORBA7releaseEPNS_6ObjectE @2977
    _ZN5CORBA8FREE_MEM13insertToAnyFnE @2978 DATA
    _ZN5CORBA8FREE_MEM16insertToAnyFnNCPE @2979 DATA
    _ZN5CORBA8FREE_MEM9_downcastEPKNS_9ExceptionE @2980
    _ZN5CORBA8FREE_MEM9_downcastEPNS_9ExceptionE @2981
    _ZN5CORBA8FREE_MEMD0Ev @2982
    _ZN5CORBA8FREE_MEMD1Ev @2983
    _ZN5CORBA8FREE_MEMD2Ev @2984
    _ZN5CORBA8INTERNAL13insertToAnyFnE @2985 DATA
    _ZN5CORBA8INTERNAL16insertToAnyFnNCPE @2986 DATA
    _ZN5CORBA8INTERNAL9_downcastEPKNS_9ExceptionE @2987
    _ZN5CORBA8INTERNAL9_downcastEPNS_9ExceptionE @2988
    _ZN5CORBA8INTERNALD0Ev @2989
    _ZN5CORBA8INTERNALD1Ev @2990
    _ZN5CORBA8INTERNALD2Ev @2991
    _ZN5CORBA8INV_FLAG13insertToAnyFnE @2992 DATA
    _ZN5CORBA8INV_FLAG16insertToAnyFnNCPE @2993 DATA
    _ZN5CORBA8INV_FLAG9_downcastEPKNS_9ExceptionE @2994
    _ZN5CORBA8INV_FLAG9_downcastEPNS_9ExceptionE @2995
    _ZN5CORBA8INV_FLAGD0Ev @2996
    _ZN5CORBA8INV_FLAGD1Ev @2997
    _ZN5CORBA8INV_FLAGD2Ev @2998
    _ZN5CORBA8ORB_initERiPPcPKcPA2_S4_ @2999
    _ZN5CORBA9BAD_PARAM13insertToAnyFnE @3000 DATA
    _ZN5CORBA9BAD_PARAM16insertToAnyFnNCPE @3001 DATA
    _ZN5CORBA9BAD_PARAM9_downcastEPKNS_9ExceptionE @3002
    _ZN5CORBA9BAD_PARAM9_downcastEPNS_9ExceptionE @3003
    _ZN5CORBA9BAD_PARAMD0Ev @3004
    _ZN5CORBA9BAD_PARAMD1Ev @3005
    _ZN5CORBA9BAD_PARAMD2Ev @3006
    _ZN5CORBA9Exception10_duplicateEPS0_ @3007
    _ZN5CORBA9Exception8PR_magicE @3008 DATA
    _ZN5CORBA9Exception8_NP_is_aEPKS0_PKc @3009
    _ZN5CORBA9ExceptionD0Ev @3010
    _ZN5CORBA9ExceptionD1Ev @3011
    _ZN5CORBA9ExceptionD2Ev @3012
    _ZN5CORBA9IMP_LIMIT13insertToAnyFnE @3013 DATA
    _ZN5CORBA9IMP_LIMIT16insertToAnyFnNCPE @3014 DATA
    _ZN5CORBA9IMP_LIMIT9_downcastEPKNS_9ExceptionE @3015
    _ZN5CORBA9IMP_LIMIT9_downcastEPNS_9ExceptionE @3016
    _ZN5CORBA9IMP_LIMITD0Ev @3017
    _ZN5CORBA9IMP_LIMITD1Ev @3018
    _ZN5CORBA9IMP_LIMITD2Ev @3019
    _ZN5CORBA9INV_IDENT13insertToAnyFnE @3020 DATA
    _ZN5CORBA9INV_IDENT16insertToAnyFnNCPE @3021 DATA
    _ZN5CORBA9INV_IDENT9_downcastEPKNS_9ExceptionE @3022
    _ZN5CORBA9INV_IDENT9_downcastEPNS_9ExceptionE @3023
    _ZN5CORBA9INV_IDENTD0Ev @3024
    _ZN5CORBA9INV_IDENTD1Ev @3025
    _ZN5CORBA9INV_IDENTD2Ev @3026
    _ZN5CORBA9NO_MEMORY13insertToAnyFnE @3027 DATA
    _ZN5CORBA9NO_MEMORY16insertToAnyFnNCPE @3028 DATA
    _ZN5CORBA9NO_MEMORY9_downcastEPKNS_9ExceptionE @3029
    _ZN5CORBA9NO_MEMORY9_downcastEPNS_9ExceptionE @3030
    _ZN5CORBA9NO_MEMORYD0Ev @3031
    _ZN5CORBA9NO_MEMORYD1Ev @3032
    _ZN5CORBA9NO_MEMORYD2Ev @3033
    _ZN5CORBA9TRANSIENT13insertToAnyFnE @3034 DATA
    _ZN5CORBA9TRANSIENT16insertToAnyFnNCPE @3035 DATA
    _ZN5CORBA9TRANSIENT9_downcastEPKNS_9ExceptionE @3036
    _ZN5CORBA9TRANSIENT9_downcastEPNS_9ExceptionE @3037
    _ZN5CORBA9TRANSIENTD0Ev @3038
    _ZN5CORBA9TRANSIENTD1Ev @3039
    _ZN5CORBA9TRANSIENTD2Ev @3040
    _ZN7omniIOR12IORExtraInfoD0Ev @3041
    _ZN7omniIOR12IORExtraInfoD1Ev @3042
    _ZN7omniIOR13releaseNoLockEv @3043
    _ZN7omniIOR14dump_TAG_GROUPERKN3IOP15TaggedComponentE @3044
    _ZN7omniIOR15duplicateNoLockEv @3045
    _ZN7omniIOR16add_IIOP_ADDRESSERKN4IIOP7AddressE @3046
    _ZN7omniIOR16decodeIOPprofileERKN4IIOP11ProfileBodyE @3047
    _ZN7omniIOR17add_TAG_CODE_SETSERKN4omni10CONV_FRAME20CodeSetComponentInfoE @3048
    _ZN7omniIOR17dump_TAG_ORB_TYPEERKN3IOP15TaggedComponentE @3049
    _ZN7omniIOR18dump_TAG_CODE_SETSERKN3IOP15TaggedComponentE @3050
    _ZN7omniIOR19unmarshal_TAG_GROUPERKN3IOP15TaggedComponentERS_ @3051
    _ZN7omniIOR21add_TAG_OMNIORB_BIDIREPKcRS_ @3052
    _ZN7omniIOR21add_TAG_SSL_SEC_TRANSERKN4IIOP7AddressEtt @3053
    _ZN7omniIOR22dump_TAG_OMNIORB_BIDIRERKN3IOP15TaggedComponentE @3054
    _ZN7omniIOR22dump_TAG_SSL_SEC_TRANSERKN3IOP15TaggedComponentE @3055
    _ZN7omniIOR22newIIOPtaggedComponentER25_CORBA_Unbounded_SequenceIN3IOP15TaggedComponentEE @3056
    _ZN7omniIOR22unmarshal_TAG_ORB_TYPEERKN3IOP15TaggedComponentERS_ @3057
    _ZN7omniIOR23unmarshal_TAG_CODE_SETSERKN3IOP15TaggedComponentERS_ @3058
    _ZN7omniIOR26add_TAG_OMNIORB_UNIX_TRANSEPKc @3059
    _ZN7omniIOR26dump_TAG_CSI_SEC_MECH_LISTERKN3IOP15TaggedComponentE @3060
    _ZN7omniIOR27dump_TAG_OMNIORB_UNIX_TRANSERKN3IOP15TaggedComponentE @3061
    _ZN7omniIOR27unmarshal_TAG_OMNIORB_BIDIRERKN3IOP15TaggedComponentERS_ @3062
    _ZN7omniIOR27unmarshal_TAG_SSL_SEC_TRANSERKN3IOP15TaggedComponentERS_ @3063
    _ZN7omniIOR30add_TAG_ALTERNATE_IIOP_ADDRESSERKN4IIOP7AddressE @3064
    _ZN7omniIOR30dump_TAG_OMNIORB_PERSISTENT_IDERKN3IOP15TaggedComponentE @3065
    _ZN7omniIOR31dump_TAG_ALTERNATE_IIOP_ADDRESSERKN3IOP15TaggedComponentE @3066
    _ZN7omniIOR31unmarshal_TAG_CSI_SEC_MECH_LISTERKN3IOP15TaggedComponentERS_ @3067
    _ZN7omniIOR32unmarshal_TAG_OMNIORB_UNIX_TRANSERKN3IOP15TaggedComponentERS_ @3068
    _ZN7omniIOR35unmarshal_TAG_OMNIORB_PERSISTENT_IDERKN3IOP15TaggedComponentERS_ @3069
    _ZN7omniIOR36unmarshal_TAG_ALTERNATE_IIOP_ADDRESSERKN3IOP15TaggedComponentERS_ @3070
    _ZN7omniIOR4lockE @3071 DATA
    _ZN7omniIOR7IORInfoC1Ev @3072
    _ZN7omniIOR7IORInfoC2Ev @3073
    _ZN7omniIOR7IORInfoD1Ev @3074
    _ZN7omniIOR7IORInfoD2Ev @3075
    _ZN7omniIOR7releaseEv @3076
    _ZN7omniIOR9duplicateEv @3077
    _ZN7omniIORC1EPKcPKhiRK12omniIORHints @3078
    _ZN7omniIORC1EPKcRK31_CORBA_Unbounded_Sequence_OctetPKN4IIOP7AddressEmN4GIOP7VersionENS_17interceptorOptionEPK25_CORBA_Unbounded_SequenceIN3IOP15TaggedComponentEE @3079
    _ZN7omniIORC1EPcP25_CORBA_Unbounded_SequenceIN3IOP13TaggedProfileEE @3080
    _ZN7omniIORC1EPcPN3IOP13TaggedProfileEmm @3081
    _ZN7omniIORC2EPKcPKhiRK12omniIORHints @3082
    _ZN7omniIORC2EPKcRK31_CORBA_Unbounded_Sequence_OctetPKN4IIOP7AddressEmN4GIOP7VersionENS_17interceptorOptionEPK25_CORBA_Unbounded_SequenceIN3IOP15TaggedComponentEE @3083
    _ZN7omniIORC2EPcP25_CORBA_Unbounded_SequenceIN3IOP13TaggedProfileEE @3084
    _ZN7omniIORC2EPcPN3IOP13TaggedProfileEmm @3085
    _ZN7omniIORD1Ev @3086
    _ZN7omniIORD2Ev @3087
    _ZN7omniORB10traceLevelE @3088 DATA
    _ZN7omniORB10versionHexEv @3089
    _ZN7omniORB13setMainThreadEv @3090
    _ZN7omniORB13traceThreadIdE @3091 DATA
    _ZN7omniORB13versionStringEv @3092
    _ZN7omniORB14fatalExceptionC1EPKciS2_ @3093
    _ZN7omniORB14fatalExceptionC2EPKciS2_ @3094
    _ZN7omniORB14fatalExceptionD1Ev @3095
    _ZN7omniORB14generateNewKeyER13omniOrbBoaKey @3096
    _ZN7omniORB14getLogFilenameEv @3097
    _ZN7omniORB14giopMaxMsgSizeEv @3098
    _ZN7omniORB14setLogFilenameEPKc @3099
    _ZN7omniORB14setLogFunctionEPFvPKcE @3100
    _ZN7omniORB15getInterceptorsEv @3101
    _ZN7omniORB15traceExceptionsE @3102 DATA
    _ZN7omniORB16traceInvocationsE @3103 DATA
    _ZN7omniORB18keyToOctetSequenceERK13omniOrbBoaKey @3104
    _ZN7omniORB18octetSequenceToKeyERK31_CORBA_Unbounded_Sequence_Octet @3105
    _ZN7omniORB20setClientCallTimeoutEPN5CORBA6ObjectEm @3106
    _ZN7omniORB20setClientCallTimeoutEm @3107
    _ZN7omniORB22traceInvocationReturnsE @3108 DATA
    _ZN7omniORB23setClientConnectTimeoutEm @3109
    _ZN7omniORB26setClientThreadCallTimeoutEm @3110
    _ZN7omniORB27setClientThreadCallDeadlineEmm @3111
    _ZN7omniORB29installSystemExceptionHandlerEPN5CORBA6ObjectEPvPFbS3_mRKNS0_15SystemExceptionEE @3112
    _ZN7omniORB29installSystemExceptionHandlerEPvPFbS0_mRKN5CORBA15SystemExceptionEE @3113
    _ZN7omniORB29setPersistentServerIdentifierERK31_CORBA_Unbounded_Sequence_Octet @3114
    _ZN7omniORB32installTransientExceptionHandlerEPN5CORBA6ObjectEPvPFbS3_mRKNS0_9TRANSIENTEE @3115
    _ZN7omniORB32installTransientExceptionHandlerEPvPFbS0_mRKN5CORBA9TRANSIENTEE @3116
    _ZN7omniORB34installCommFailureExceptionHandlerEPN5CORBA6ObjectEPvPFbS3_mRKNS0_12COMM_FAILUREEE @3117
    _ZN7omniORB34installCommFailureExceptionHandlerEPvPFbS0_mRKN5CORBA12COMM_FAILUREEE @3118
    _ZN7omniORB6loader3setEPFPN5CORBA6ObjectERK13omniOrbBoaKeyE @3119
    _ZN7omniORB6logger4moreEi @3120
    _ZN7omniORB6logger5flushEv @3121
    _ZN7omniORB6loggerC1EPKc @3122
    _ZN7omniORB6loggerC2EPKc @3123
    _ZN7omniORB6loggerD1Ev @3124
    _ZN7omniORB6loggerD2Ev @3125
    _ZN7omniORB6loggerlsEPK12omniIdentity @3126
    _ZN7omniORB6loggerlsEPK17omniLocalIdentity @3127
    _ZN7omniORB6loggerlsEPKc @3128
    _ZN7omniORB6loggerlsEPKv @3129
    _ZN7omniORB6loggerlsER10omniObjKey @3130
    _ZN7omniORB6loggerlsERKN5CORBA15SystemExceptionE @3131
    _ZN7omniORB6loggerlsERKNS0_15exceptionStatusE @3132
    _ZN7omniORB6loggerlsEc @3133
    _ZN7omniORB6loggerlsEd @3134
    _ZN7omniORB6loggerlsEi @3135
    _ZN7omniORB6loggerlsEj @3136
    _ZN7omniORB6loggerlsEl @3137
    _ZN7omniORB6loggerlsEm @3138
    _ZN7omniORB7do_logsEPKc @3139
    _ZN7omniORB7nullkeyEv @3140
    _ZN7omniORB9traceTimeE @3141 DATA
    _ZN7omniORBeqERK13omniOrbBoaKeyS2_ @3142
    _ZN7omniORBneERK13omniOrbBoaKeyS2_ @3143
    _ZN8omniTaskD0Ev @3144
    _ZN8omniTaskD1Ev @3145
    _ZN9CosNaming13NameComponentlSER9cdrStream @3146
    _ZN9CosNaming13NamingContext10_PD_repoIdE @3147 DATA
    _ZN9CosNaming13NamingContext10_duplicateEPNS_21_objref_NamingContextE @3148
    _ZN9CosNaming13NamingContext11InvalidName10_PD_repoIdE @3149 DATA
    _ZN9CosNaming13NamingContext11InvalidName10_PD_typeIdE @3150 DATA
    _ZN9CosNaming13NamingContext11InvalidName13insertToAnyFnE @3151 DATA
    _ZN9CosNaming13NamingContext11InvalidName16insertToAnyFnNCPE @3152 DATA
    _ZN9CosNaming13NamingContext11InvalidName9_downcastEPKN5CORBA9ExceptionE @3153
    _ZN9CosNaming13NamingContext11InvalidName9_downcastEPN5CORBA9ExceptionE @3154
    _ZN9CosNaming13NamingContext11InvalidNameC1ERKS1_ @3155
    _ZN9CosNaming13NamingContext11InvalidNameC2ERKS1_ @3156
    _ZN9CosNaming13NamingContext11InvalidNameD0Ev @3157
    _ZN9CosNaming13NamingContext11InvalidNameD1Ev @3158
    _ZN9CosNaming13NamingContext11InvalidNameD2Ev @3159
    _ZN9CosNaming13NamingContext11InvalidNameaSERKS1_ @3160
    _ZN9CosNaming13NamingContext12AlreadyBound10_PD_repoIdE @3161 DATA
    _ZN9CosNaming13NamingContext12AlreadyBound10_PD_typeIdE @3162 DATA
    _ZN9CosNaming13NamingContext12AlreadyBound13insertToAnyFnE @3163 DATA
    _ZN9CosNaming13NamingContext12AlreadyBound16insertToAnyFnNCPE @3164 DATA
    _ZN9CosNaming13NamingContext12AlreadyBound9_downcastEPKN5CORBA9ExceptionE @3165
    _ZN9CosNaming13NamingContext12AlreadyBound9_downcastEPN5CORBA9ExceptionE @3166
    _ZN9CosNaming13NamingContext12AlreadyBoundC1ERKS1_ @3167
    _ZN9CosNaming13NamingContext12AlreadyBoundC2ERKS1_ @3168
    _ZN9CosNaming13NamingContext12AlreadyBoundD0Ev @3169
    _ZN9CosNaming13NamingContext12AlreadyBoundD1Ev @3170
    _ZN9CosNaming13NamingContext12AlreadyBoundD2Ev @3171
    _ZN9CosNaming13NamingContext12AlreadyBoundaSERKS1_ @3172
    _ZN9CosNaming13NamingContext13CannotProceed10_PD_repoIdE @3173 DATA
    _ZN9CosNaming13NamingContext13CannotProceed10_PD_typeIdE @3174 DATA
    _ZN9CosNaming13NamingContext13CannotProceed13insertToAnyFnE @3175 DATA
    _ZN9CosNaming13NamingContext13CannotProceed16insertToAnyFnNCPE @3176 DATA
    _ZN9CosNaming13NamingContext13CannotProceed9_downcastEPKN5CORBA9ExceptionE @3177
    _ZN9CosNaming13NamingContext13CannotProceed9_downcastEPN5CORBA9ExceptionE @3178
    _ZN9CosNaming13NamingContext13CannotProceedC1EPNS_21_objref_NamingContextENS_4NameE @3179
    _ZN9CosNaming13NamingContext13CannotProceedC1ERKS1_ @3180
    _ZN9CosNaming13NamingContext13CannotProceedC1Ev @3181
    _ZN9CosNaming13NamingContext13CannotProceedC2EPNS_21_objref_NamingContextENS_4NameE @3182
    _ZN9CosNaming13NamingContext13CannotProceedC2ERKS1_ @3183
    _ZN9CosNaming13NamingContext13CannotProceedD0Ev @3184
    _ZN9CosNaming13NamingContext13CannotProceedD1Ev @3185
    _ZN9CosNaming13NamingContext13CannotProceedD2Ev @3186
    _ZN9CosNaming13NamingContext13CannotProceedaSERKS1_ @3187
    _ZN9CosNaming13NamingContext13CannotProceedlSER9cdrStream @3188
    _ZN9CosNaming13NamingContext17_unchecked_narrowEPN5CORBA6ObjectE @3189
    _ZN9CosNaming13NamingContext4_nilEv @3190
    _ZN9CosNaming13NamingContext7_narrowEPN5CORBA6ObjectE @3191
    _ZN9CosNaming13NamingContext8NotEmpty10_PD_repoIdE @3192 DATA
    _ZN9CosNaming13NamingContext8NotEmpty10_PD_typeIdE @3193 DATA
    _ZN9CosNaming13NamingContext8NotEmpty13insertToAnyFnE @3194 DATA
    _ZN9CosNaming13NamingContext8NotEmpty16insertToAnyFnNCPE @3195 DATA
    _ZN9CosNaming13NamingContext8NotEmpty9_downcastEPKN5CORBA9ExceptionE @3196
    _ZN9CosNaming13NamingContext8NotEmpty9_downcastEPN5CORBA9ExceptionE @3197
    _ZN9CosNaming13NamingContext8NotEmptyC1ERKS1_ @3198
    _ZN9CosNaming13NamingContext8NotEmptyC2ERKS1_ @3199
    _ZN9CosNaming13NamingContext8NotEmptyD0Ev @3200
    _ZN9CosNaming13NamingContext8NotEmptyD1Ev @3201
    _ZN9CosNaming13NamingContext8NotEmptyD2Ev @3202
    _ZN9CosNaming13NamingContext8NotEmptyaSERKS1_ @3203
    _ZN9CosNaming13NamingContext8NotFound10_PD_repoIdE @3204 DATA
    _ZN9CosNaming13NamingContext8NotFound10_PD_typeIdE @3205 DATA
    _ZN9CosNaming13NamingContext8NotFound13insertToAnyFnE @3206 DATA
    _ZN9CosNaming13NamingContext8NotFound16insertToAnyFnNCPE @3207 DATA
    _ZN9CosNaming13NamingContext8NotFound9_downcastEPKN5CORBA9ExceptionE @3208
    _ZN9CosNaming13NamingContext8NotFound9_downcastEPN5CORBA9ExceptionE @3209
    _ZN9CosNaming13NamingContext8NotFoundC1ENS0_14NotFoundReasonENS_4NameE @3210
    _ZN9CosNaming13NamingContext8NotFoundC1ERKS1_ @3211
    _ZN9CosNaming13NamingContext8NotFoundC2ENS0_14NotFoundReasonENS_4NameE @3212
    _ZN9CosNaming13NamingContext8NotFoundC2ERKS1_ @3213
    _ZN9CosNaming13NamingContext8NotFoundD0Ev @3214
    _ZN9CosNaming13NamingContext8NotFoundD1Ev @3215
    _ZN9CosNaming13NamingContext8NotFoundD2Ev @3216
    _ZN9CosNaming13NamingContext8NotFoundaSERKS1_ @3217
    _ZN9CosNaming13NamingContext8NotFoundlSER9cdrStream @3218
    _ZN9CosNaming15BindingIterator10_PD_repoIdE @3219 DATA
    _ZN9CosNaming15BindingIterator10_duplicateEPNS_23_objref_BindingIteratorE @3220
    _ZN9CosNaming15BindingIterator17_unchecked_narrowEPN5CORBA6ObjectE @3221
    _ZN9CosNaming15BindingIterator4_nilEv @3222
    _ZN9CosNaming15BindingIterator7_narrowEPN5CORBA6ObjectE @3223
    _ZN9CosNaming15BindingList_varD1Ev @3224
    _ZN9CosNaming16NamingContextExt10_PD_repoIdE @3225 DATA
    _ZN9CosNaming16NamingContextExt10_duplicateEPNS_24_objref_NamingContextExtE @3226
    _ZN9CosNaming16NamingContextExt14InvalidAddress10_PD_repoIdE @3227 DATA
    _ZN9CosNaming16NamingContextExt14InvalidAddress10_PD_typeIdE @3228 DATA
    _ZN9CosNaming16NamingContextExt14InvalidAddress13insertToAnyFnE @3229 DATA
    _ZN9CosNaming16NamingContextExt14InvalidAddress16insertToAnyFnNCPE @3230 DATA
    _ZN9CosNaming16NamingContextExt14InvalidAddress9_downcastEPKN5CORBA9ExceptionE @3231
    _ZN9CosNaming16NamingContextExt14InvalidAddress9_downcastEPN5CORBA9ExceptionE @3232
    _ZN9CosNaming16NamingContextExt14InvalidAddressC1ERKS1_ @3233
    _ZN9CosNaming16NamingContextExt14InvalidAddressC2ERKS1_ @3234
    _ZN9CosNaming16NamingContextExt14InvalidAddressD0Ev @3235
    _ZN9CosNaming16NamingContextExt14InvalidAddressD1Ev @3236
    _ZN9CosNaming16NamingContextExt14InvalidAddressD2Ev @3237
    _ZN9CosNaming16NamingContextExt14InvalidAddressaSERKS1_ @3238
    _ZN9CosNaming16NamingContextExt17_unchecked_narrowEPN5CORBA6ObjectE @3239
    _ZN9CosNaming16NamingContextExt4_nilEv @3240
    _ZN9CosNaming16NamingContextExt7_narrowEPN5CORBA6ObjectE @3241
    _ZN9CosNaming18_pof_NamingContext9newObjRefEP7omniIORP12omniIdentity @3242
    _ZN9CosNaming18_pof_NamingContextD0Ev @3243
    _ZN9CosNaming18_pof_NamingContextD1Ev @3244
    _ZN9CosNaming18_pof_NamingContextD2Ev @3245
    _ZN9CosNaming19_impl_NamingContext15_ptrToInterfaceEPKc @3246
    _ZN9CosNaming19_impl_NamingContext18_mostDerivedRepoIdEv @3247
    _ZN9CosNaming19_impl_NamingContext9_dispatchER14omniCallHandle @3248
    _ZN9CosNaming19_impl_NamingContextD0Ev @3249
    _ZN9CosNaming19_impl_NamingContextD1Ev @3250
    _ZN9CosNaming19_impl_NamingContextD2Ev @3251
    _ZN9CosNaming20NamingContext_Helper13marshalObjRefEPNS_21_objref_NamingContextER9cdrStream @3252
    _ZN9CosNaming20NamingContext_Helper15unmarshalObjRefER9cdrStream @3253
    _ZN9CosNaming20NamingContext_Helper4_nilEv @3254
    _ZN9CosNaming20NamingContext_Helper6is_nilEPNS_21_objref_NamingContextE @3255
    _ZN9CosNaming20NamingContext_Helper7releaseEPNS_21_objref_NamingContextE @3256
    _ZN9CosNaming20NamingContext_Helper9duplicateEPNS_21_objref_NamingContextE @3257
    _ZN9CosNaming20_pof_BindingIterator9newObjRefEP7omniIORP12omniIdentity @3258
    _ZN9CosNaming20_pof_BindingIteratorD0Ev @3259
    _ZN9CosNaming20_pof_BindingIteratorD1Ev @3260
    _ZN9CosNaming20_pof_BindingIteratorD2Ev @3261
    _ZN9CosNaming21_impl_BindingIterator15_ptrToInterfaceEPKc @3262
    _ZN9CosNaming21_impl_BindingIterator18_mostDerivedRepoIdEv @3263
    _ZN9CosNaming21_impl_BindingIterator9_dispatchER14omniCallHandle @3264
    _ZN9CosNaming21_impl_BindingIteratorD0Ev @3265
    _ZN9CosNaming21_impl_BindingIteratorD1Ev @3266
    _ZN9CosNaming21_impl_BindingIteratorD2Ev @3267
    _ZN9CosNaming21_objref_NamingContext11new_contextEv @3268
    _ZN9CosNaming21_objref_NamingContext12_ptrToObjRefEPKc @3269
    _ZN9CosNaming21_objref_NamingContext12bind_contextERKNS_4NameEPS0_ @3270
    _ZN9CosNaming21_objref_NamingContext14rebind_contextERKNS_4NameEPS0_ @3271
    _ZN9CosNaming21_objref_NamingContext16bind_new_contextERKNS_4NameE @3272
    _ZN9CosNaming21_objref_NamingContext4bindERKNS_4NameEPN5CORBA6ObjectE @3273
    _ZN9CosNaming21_objref_NamingContext4listEmNS_15BindingList_outE21_CORBA_ObjRef_OUT_argINS_23_objref_BindingIteratorENS_22BindingIterator_HelperEE @3274
    _ZN9CosNaming21_objref_NamingContext6rebindERKNS_4NameEPN5CORBA6ObjectE @3275
    _ZN9CosNaming21_objref_NamingContext6unbindERKNS_4NameE @3276
    _ZN9CosNaming21_objref_NamingContext7destroyEv @3277
    _ZN9CosNaming21_objref_NamingContext7resolveERKNS_4NameE @3278
    _ZN9CosNaming21_objref_NamingContextC1EP7omniIORP12omniIdentity @3279
    _ZN9CosNaming21_objref_NamingContextC2EP7omniIORP12omniIdentity @3280
    _ZN9CosNaming21_objref_NamingContextD0Ev @3281
    _ZN9CosNaming21_objref_NamingContextD1Ev @3282
    _ZN9CosNaming21_objref_NamingContextD2Ev @3283
    _ZN9CosNaming21_pof_NamingContextExt9newObjRefEP7omniIORP12omniIdentity @3284
    _ZN9CosNaming21_pof_NamingContextExtD0Ev @3285
    _ZN9CosNaming21_pof_NamingContextExtD1Ev @3286
    _ZN9CosNaming21_pof_NamingContextExtD2Ev @3287
    _ZN9CosNaming22BindingIterator_Helper13marshalObjRefEPNS_23_objref_BindingIteratorER9cdrStream @3288
    _ZN9CosNaming22BindingIterator_Helper15unmarshalObjRefER9cdrStream @3289
    _ZN9CosNaming22BindingIterator_Helper4_nilEv @3290
    _ZN9CosNaming22BindingIterator_Helper6is_nilEPNS_23_objref_BindingIteratorE @3291
    _ZN9CosNaming22BindingIterator_Helper7releaseEPNS_23_objref_BindingIteratorE @3292
    _ZN9CosNaming22BindingIterator_Helper9duplicateEPNS_23_objref_BindingIteratorE @3293
    _ZN9CosNaming22_impl_NamingContextExt15_ptrToInterfaceEPKc @3294
    _ZN9CosNaming22_impl_NamingContextExt18_mostDerivedRepoIdEv @3295
    _ZN9CosNaming22_impl_NamingContextExt9_dispatchER14omniCallHandle @3296
    _ZN9CosNaming22_impl_NamingContextExtD0Ev @3297
    _ZN9CosNaming22_impl_NamingContextExtD1Ev @3298
    _ZN9CosNaming22_impl_NamingContextExtD2Ev @3299
    _ZN9CosNaming23NamingContextExt_Helper13marshalObjRefEPNS_24_objref_NamingContextExtER9cdrStream @3300
    _ZN9CosNaming23NamingContextExt_Helper15unmarshalObjRefER9cdrStream @3301
    _ZN9CosNaming23NamingContextExt_Helper4_nilEv @3302
    _ZN9CosNaming23NamingContextExt_Helper6is_nilEPNS_24_objref_NamingContextExtE @3303
    _ZN9CosNaming23NamingContextExt_Helper7releaseEPNS_24_objref_NamingContextExtE @3304
    _ZN9CosNaming23NamingContextExt_Helper9duplicateEPNS_24_objref_NamingContextExtE @3305
    _ZN9CosNaming23_objref_BindingIterator12_ptrToObjRefEPKc @3306
    _ZN9CosNaming23_objref_BindingIterator6next_nEmNS_15BindingList_outE @3307
    _ZN9CosNaming23_objref_BindingIterator7destroyEv @3308
    _ZN9CosNaming23_objref_BindingIterator8next_oneE34_CORBA_ConstrType_Variable_OUT_argINS_7BindingE30_CORBA_ConstrType_Variable_VarIS2_EE @3309
    _ZN9CosNaming23_objref_BindingIteratorC1EP7omniIORP12omniIdentity @3310
    _ZN9CosNaming23_objref_BindingIteratorC2EP7omniIORP12omniIdentity @3311
    _ZN9CosNaming23_objref_BindingIteratorD0Ev @3312
    _ZN9CosNaming23_objref_BindingIteratorD1Ev @3313
    _ZN9CosNaming23_objref_BindingIteratorD2Ev @3314
    _ZN9CosNaming24_objref_NamingContextExt11resolve_strEPKc @3315
    _ZN9CosNaming24_objref_NamingContextExt12_ptrToObjRefEPKc @3316
    _ZN9CosNaming24_objref_NamingContextExt6to_urlEPKcS2_ @3317
    _ZN9CosNaming24_objref_NamingContextExt7to_nameEPKc @3318
    _ZN9CosNaming24_objref_NamingContextExt9to_stringERKNS_4NameE @3319
    _ZN9CosNaming24_objref_NamingContextExtC1EP7omniIORP12omniIdentity @3320
    _ZN9CosNaming24_objref_NamingContextExtC2EP7omniIORP12omniIdentity @3321
    _ZN9CosNaming24_objref_NamingContextExtD0Ev @3322
    _ZN9CosNaming24_objref_NamingContextExtD1Ev @3323
    _ZN9CosNaming24_objref_NamingContextExtD2Ev @3324
    _ZN9CosNaming4NameD1Ev @3325
    _ZN9CosNaming4NameaSERKS0_ @3326
    _ZN9CosNaming7BindinglSER9cdrStream @3327
    _ZN9CosNaming8Name_varD1Ev @3328
    _ZN9cdrStream10completionEv @3329
    _ZN9cdrStream10ptrToClassEPi @3330
    _ZN9cdrStream14unmarshalOctetEv @3331
    _ZN9cdrStream16marshalRawStringEPKc @3332
    _ZN9cdrStream18declareArrayLengthEN4omni11alignment_tEj @3333
    _ZN9cdrStream18unmarshalRawStringEv @3334
    _ZN9cdrStream21put_small_octet_arrayEPKhi @3335
    _ZN9cdrStream7copy_toERS_iN4omni11alignment_tE @3336
    _ZN9cdrStream8_classidE @3337 DATA
    _ZN9cdrStreamC1Ev @3338
    _ZN9cdrStreamC2Ev @3339
    _ZN9cdrStreamD0Ev @3340
    _ZN9cdrStreamD1Ev @3341
    _ZN9cdrStreamD2Ev @3342
    _ZNK14PortableServer10POAManager15AdapterInactive10_NP_repoIdEPi @3343
    _ZNK14PortableServer10POAManager15AdapterInactive10_NP_typeIdEv @3344
    _ZNK14PortableServer10POAManager15AdapterInactive11_NP_marshalER9cdrStream @3345
    _ZNK14PortableServer10POAManager15AdapterInactive13_NP_duplicateEv @3346
    _ZNK14PortableServer10POAManager15AdapterInactive6_raiseEv @3347
    _ZNK14PortableServer14ForwardRequest10_NP_repoIdEPi @3348
    _ZNK14PortableServer14ForwardRequest10_NP_typeIdEv @3349
    _ZNK14PortableServer14ForwardRequest11_NP_marshalER9cdrStream @3350
    _ZNK14PortableServer14ForwardRequest13_NP_duplicateEv @3351
    _ZNK14PortableServer14ForwardRequest6_raiseEv @3352
    _ZNK14PortableServer14ForwardRequestrSER9cdrStream @3353
    _ZNK14PortableServer19_pof_ServantLocator4is_aEPKc @3354
    _ZNK14PortableServer19_pof_ServantManager4is_aEPKc @3355
    _ZNK14PortableServer21_pof_AdapterActivator4is_aEPKc @3356
    _ZNK14PortableServer21_pof_ServantActivator4is_aEPKc @3357
    _ZNK14PortableServer3POA11WrongPolicy10_NP_repoIdEPi @3358
    _ZNK14PortableServer3POA11WrongPolicy10_NP_typeIdEv @3359
    _ZNK14PortableServer3POA11WrongPolicy11_NP_marshalER9cdrStream @3360
    _ZNK14PortableServer3POA11WrongPolicy13_NP_duplicateEv @3361
    _ZNK14PortableServer3POA11WrongPolicy6_raiseEv @3362
    _ZNK14PortableServer3POA12WrongAdapter10_NP_repoIdEPi @3363
    _ZNK14PortableServer3POA12WrongAdapter10_NP_typeIdEv @3364
    _ZNK14PortableServer3POA12WrongAdapter11_NP_marshalER9cdrStream @3365
    _ZNK14PortableServer3POA12WrongAdapter13_NP_duplicateEv @3366
    _ZNK14PortableServer3POA12WrongAdapter6_raiseEv @3367
    _ZNK14PortableServer3POA13InvalidPolicy10_NP_repoIdEPi @3368
    _ZNK14PortableServer3POA13InvalidPolicy10_NP_typeIdEv @3369
    _ZNK14PortableServer3POA13InvalidPolicy11_NP_marshalER9cdrStream @3370
    _ZNK14PortableServer3POA13InvalidPolicy13_NP_duplicateEv @3371
    _ZNK14PortableServer3POA13InvalidPolicy6_raiseEv @3372
    _ZNK14PortableServer3POA13InvalidPolicyrSER9cdrStream @3373
    _ZNK14PortableServer3POA15AdapterInactive10_NP_repoIdEPi @3374
    _ZNK14PortableServer3POA15AdapterInactive10_NP_typeIdEv @3375
    _ZNK14PortableServer3POA15AdapterInactive11_NP_marshalER9cdrStream @3376
    _ZNK14PortableServer3POA15AdapterInactive13_NP_duplicateEv @3377
    _ZNK14PortableServer3POA15AdapterInactive6_raiseEv @3378
    _ZNK14PortableServer3POA15ObjectNotActive10_NP_repoIdEPi @3379
    _ZNK14PortableServer3POA15ObjectNotActive10_NP_typeIdEv @3380
    _ZNK14PortableServer3POA15ObjectNotActive11_NP_marshalER9cdrStream @3381
    _ZNK14PortableServer3POA15ObjectNotActive13_NP_duplicateEv @3382
    _ZNK14PortableServer3POA15ObjectNotActive6_raiseEv @3383
    _ZNK14PortableServer3POA16ServantNotActive10_NP_repoIdEPi @3384
    _ZNK14PortableServer3POA16ServantNotActive10_NP_typeIdEv @3385
    _ZNK14PortableServer3POA16ServantNotActive11_NP_marshalER9cdrStream @3386
    _ZNK14PortableServer3POA16ServantNotActive13_NP_duplicateEv @3387
    _ZNK14PortableServer3POA16ServantNotActive6_raiseEv @3388
    _ZNK14PortableServer3POA18AdapterNonExistent10_NP_repoIdEPi @3389
    _ZNK14PortableServer3POA18AdapterNonExistent10_NP_typeIdEv @3390
    _ZNK14PortableServer3POA18AdapterNonExistent11_NP_marshalER9cdrStream @3391
    _ZNK14PortableServer3POA18AdapterNonExistent13_NP_duplicateEv @3392
    _ZNK14PortableServer3POA18AdapterNonExistent6_raiseEv @3393
    _ZNK14PortableServer3POA19ObjectAlreadyActive10_NP_repoIdEPi @3394
    _ZNK14PortableServer3POA19ObjectAlreadyActive10_NP_typeIdEv @3395
    _ZNK14PortableServer3POA19ObjectAlreadyActive11_NP_marshalER9cdrStream @3396
    _ZNK14PortableServer3POA19ObjectAlreadyActive13_NP_duplicateEv @3397
    _ZNK14PortableServer3POA19ObjectAlreadyActive6_raiseEv @3398
    _ZNK14PortableServer3POA20AdapterAlreadyExists10_NP_repoIdEPi @3399
    _ZNK14PortableServer3POA20AdapterAlreadyExists10_NP_typeIdEv @3400
    _ZNK14PortableServer3POA20AdapterAlreadyExists11_NP_marshalER9cdrStream @3401
    _ZNK14PortableServer3POA20AdapterAlreadyExists13_NP_duplicateEv @3402
    _ZNK14PortableServer3POA20AdapterAlreadyExists6_raiseEv @3403
    _ZNK14PortableServer3POA20ServantAlreadyActive10_NP_repoIdEPi @3404
    _ZNK14PortableServer3POA20ServantAlreadyActive10_NP_typeIdEv @3405
    _ZNK14PortableServer3POA20ServantAlreadyActive11_NP_marshalER9cdrStream @3406
    _ZNK14PortableServer3POA20ServantAlreadyActive13_NP_duplicateEv @3407
    _ZNK14PortableServer3POA20ServantAlreadyActive6_raiseEv @3408
    _ZNK14PortableServer3POA9NoServant10_NP_repoIdEPi @3409
    _ZNK14PortableServer3POA9NoServant10_NP_typeIdEv @3410
    _ZNK14PortableServer3POA9NoServant11_NP_marshalER9cdrStream @3411
    _ZNK14PortableServer3POA9NoServant13_NP_duplicateEv @3412
    _ZNK14PortableServer3POA9NoServant6_raiseEv @3413
    _ZNK14PortableServer7Current9NoContext10_NP_repoIdEPi @3414
    _ZNK14PortableServer7Current9NoContext10_NP_typeIdEv @3415
    _ZNK14PortableServer7Current9NoContext11_NP_marshalER9cdrStream @3416
    _ZNK14PortableServer7Current9NoContext13_NP_duplicateEv @3417
    _ZNK14PortableServer7Current9NoContext6_raiseEv @3418
    _ZNK15cdrMemoryStream15currentInputPtrEv @3419
    _ZNK15cdrMemoryStream16currentOutputPtrEv @3420
    _ZNK15cdrMemoryStream6bufPtrEv @3421
    _ZNK15cdrMemoryStream7bufSizeEv @3422
    _ZNK16cdrStreamAdapter15currentInputPtrEv @3423
    _ZNK16cdrStreamAdapter16currentOutputPtrEv @3424
    _ZNK17cdrCountingStream15currentInputPtrEv @3425
    _ZNK17cdrCountingStream16currentOutputPtrEv @3426
    _ZNK17omniLocalIdentity22get_real_is_equivalentEv @3427
    _ZNK18omniRemoteIdentity22get_real_is_equivalentEv @3428
    _ZNK19cdrValueChunkStream15currentInputPtrEv @3429
    _ZNK19cdrValueChunkStream16currentOutputPtrEv @3430
    _ZNK20_CORBA_String_memberrSER9cdrStream @3431
    _ZNK20omniShutdownIdentity22get_real_is_equivalentEv @3432
    _ZNK21_CORBA_WString_memberrSER9cdrStream @3433
    _ZNK21omniInProcessIdentity22get_real_is_equivalentEv @3434
    _ZNK22_CORBA_Sequence_StringrSER9cdrStream @3435
    _ZNK23_CORBA_Sequence_WStringrSER9cdrStream @3436
    _ZNK28_pof_CORBA_InitialReferences4is_aEPKc @3437
    _ZNK3IOP13TaggedProfilerSER9cdrStream @3438
    _ZNK3IOP14ServiceContextrSER9cdrStream @3439
    _ZNK3IOP15TaggedComponentrSER9cdrStream @3440
    _ZNK4IIOP7AddressrSER9cdrStream @3441
    _ZNK4omni10CONV_FRAME16CodeSetComponentrSER9cdrStream @3442
    _ZNK4omni10CONV_FRAME20CodeSetComponentInforSER9cdrStream @3443
    _ZNK4omni10giopStream15currentInputPtrEv @3444
    _ZNK4omni10giopStream16currentOutputPtrEv @3445
    _ZNK4omni10orbOptions13dumpSpecifiedEv @3446
    _ZNK4omni10orbOptions14dumpCurrentSetEv @3447
    _ZNK4omni10orbOptions5usageEv @3448
    _ZNK4omni10orbOptions9usageArgvEv @3449
    _ZNK4omni10tcpAddress4PokeEv @3450
    _ZNK4omni10tcpAddress4typeEv @3451
    _ZNK4omni10tcpAddress7ConnectEmmm @3452
    _ZNK4omni10tcpAddress7addressEv @3453
    _ZNK4omni10tcpAddress9duplicateEv @3454
    _ZNK4omni11tcpEndpoint4typeEv @3455
    _ZNK4omni11tcpEndpoint7addressEv @3456
    _ZNK4omni11tcpEndpoint9addressesEv @3457
    _ZNK4omni15BiDirServerRope5matchEPKcRK10omnivectorIPNS_11giopAddressEE @3458
    _ZNK4omni18omniAnonObjRef_pof4is_aEPKc @3459
    _ZNK4omni19tcpActiveCollection4typeEv @3460
    _ZNK4omni19tcpActiveCollection7isEmptyEv @3461
    _ZNK4omni6GIOP_S14operation_nameEv @3462
    _ZNK4omni8giopRope5matchERK10omnivectorIPNS_11giopAddressEE @3463
    _ZNK5CORBA10INITIALIZE10_NP_repoIdEPi @3464
    _ZNK5CORBA10INITIALIZE10_NP_typeIdEv @3465
    _ZNK5CORBA10INITIALIZE13_NP_duplicateEv @3466
    _ZNK5CORBA10INITIALIZE14NP_minorStringEv @3467
    _ZNK5CORBA10INITIALIZE6_raiseEv @3468
    _ZNK5CORBA10INTF_REPOS10_NP_repoIdEPi @3469
    _ZNK5CORBA10INTF_REPOS10_NP_typeIdEv @3470
    _ZNK5CORBA10INTF_REPOS13_NP_duplicateEv @3471
    _ZNK5CORBA10INTF_REPOS14NP_minorStringEv @3472
    _ZNK5CORBA10INTF_REPOS6_raiseEv @3473
    _ZNK5CORBA10INV_OBJREF10_NP_repoIdEPi @3474
    _ZNK5CORBA10INV_OBJREF10_NP_typeIdEv @3475
    _ZNK5CORBA10INV_OBJREF13_NP_duplicateEv @3476
    _ZNK5CORBA10INV_OBJREF14NP_minorStringEv @3477
    _ZNK5CORBA10INV_OBJREF6_raiseEv @3478
    _ZNK5CORBA10INV_POLICY10_NP_repoIdEPi @3479
    _ZNK5CORBA10INV_POLICY10_NP_typeIdEv @3480
    _ZNK5CORBA10INV_POLICY13_NP_duplicateEv @3481
    _ZNK5CORBA10INV_POLICY14NP_minorStringEv @3482
    _ZNK5CORBA10INV_POLICY6_raiseEv @3483
    _ZNK5CORBA11BAD_CONTEXT10_NP_repoIdEPi @3484
    _ZNK5CORBA11BAD_CONTEXT10_NP_typeIdEv @3485
    _ZNK5CORBA11BAD_CONTEXT13_NP_duplicateEv @3486
    _ZNK5CORBA11BAD_CONTEXT14NP_minorStringEv @3487
    _ZNK5CORBA11BAD_CONTEXT6_raiseEv @3488
    _ZNK5CORBA11NO_RESPONSE10_NP_repoIdEPi @3489
    _ZNK5CORBA11NO_RESPONSE10_NP_typeIdEv @3490
    _ZNK5CORBA11NO_RESPONSE13_NP_duplicateEv @3491
    _ZNK5CORBA11NO_RESPONSE14NP_minorStringEv @3492
    _ZNK5CORBA11NO_RESPONSE6_raiseEv @3493
    _ZNK5CORBA11OBJ_ADAPTER10_NP_repoIdEPi @3494
    _ZNK5CORBA11OBJ_ADAPTER10_NP_typeIdEv @3495
    _ZNK5CORBA11OBJ_ADAPTER13_NP_duplicateEv @3496
    _ZNK5CORBA11OBJ_ADAPTER14NP_minorStringEv @3497
    _ZNK5CORBA11OBJ_ADAPTER6_raiseEv @3498
    _ZNK5CORBA12BAD_TYPECODE10_NP_repoIdEPi @3499
    _ZNK5CORBA12BAD_TYPECODE10_NP_typeIdEv @3500
    _ZNK5CORBA12BAD_TYPECODE13_NP_duplicateEv @3501
    _ZNK5CORBA12BAD_TYPECODE14NP_minorStringEv @3502
    _ZNK5CORBA12BAD_TYPECODE6_raiseEv @3503
    _ZNK5CORBA12COMM_FAILURE10_NP_repoIdEPi @3504
    _ZNK5CORBA12COMM_FAILURE10_NP_typeIdEv @3505
    _ZNK5CORBA12COMM_FAILURE13_NP_duplicateEv @3506
    _ZNK5CORBA12COMM_FAILURE14NP_minorStringEv @3507
    _ZNK5CORBA12COMM_FAILURE6_raiseEv @3508
    _ZNK5CORBA12NO_IMPLEMENT10_NP_repoIdEPi @3509
    _ZNK5CORBA12NO_IMPLEMENT10_NP_typeIdEv @3510
    _ZNK5CORBA12NO_IMPLEMENT13_NP_duplicateEv @3511
    _ZNK5CORBA12NO_IMPLEMENT14NP_minorStringEv @3512
    _ZNK5CORBA12NO_IMPLEMENT6_raiseEv @3513
    _ZNK5CORBA12NO_RESOURCES10_NP_repoIdEPi @3514
    _ZNK5CORBA12NO_RESOURCES10_NP_typeIdEv @3515
    _ZNK5CORBA12NO_RESOURCES13_NP_duplicateEv @3516
    _ZNK5CORBA12NO_RESOURCES14NP_minorStringEv @3517
    _ZNK5CORBA12NO_RESOURCES6_raiseEv @3518
    _ZNK5CORBA13BAD_INV_ORDER10_NP_repoIdEPi @3519
    _ZNK5CORBA13BAD_INV_ORDER10_NP_typeIdEv @3520
    _ZNK5CORBA13BAD_INV_ORDER13_NP_duplicateEv @3521
    _ZNK5CORBA13BAD_INV_ORDER14NP_minorStringEv @3522
    _ZNK5CORBA13BAD_INV_ORDER6_raiseEv @3523
    _ZNK5CORBA13BAD_OPERATION10_NP_repoIdEPi @3524
    _ZNK5CORBA13BAD_OPERATION10_NP_typeIdEv @3525
    _ZNK5CORBA13BAD_OPERATION13_NP_duplicateEv @3526
    _ZNK5CORBA13BAD_OPERATION14NP_minorStringEv @3527
    _ZNK5CORBA13BAD_OPERATION6_raiseEv @3528
    _ZNK5CORBA13NO_PERMISSION10_NP_repoIdEPi @3529
    _ZNK5CORBA13NO_PERMISSION10_NP_typeIdEv @3530
    _ZNK5CORBA13NO_PERMISSION13_NP_duplicateEv @3531
    _ZNK5CORBA13NO_PERMISSION14NP_minorStringEv @3532
    _ZNK5CORBA13NO_PERMISSION6_raiseEv @3533
    _ZNK5CORBA13PERSIST_STORE10_NP_repoIdEPi @3534
    _ZNK5CORBA13PERSIST_STORE10_NP_typeIdEv @3535
    _ZNK5CORBA13PERSIST_STORE13_NP_duplicateEv @3536
    _ZNK5CORBA13PERSIST_STORE14NP_minorStringEv @3537
    _ZNK5CORBA13PERSIST_STORE6_raiseEv @3538
    _ZNK5CORBA15DATA_CONVERSION10_NP_repoIdEPi @3539
    _ZNK5CORBA15DATA_CONVERSION10_NP_typeIdEv @3540
    _ZNK5CORBA15DATA_CONVERSION13_NP_duplicateEv @3541
    _ZNK5CORBA15DATA_CONVERSION14NP_minorStringEv @3542
    _ZNK5CORBA15DATA_CONVERSION6_raiseEv @3543
    _ZNK5CORBA15SystemException11_NP_marshalER9cdrStream @3544
    _ZNK5CORBA16OBJECT_NOT_EXIST10_NP_repoIdEPi @3545
    _ZNK5CORBA16OBJECT_NOT_EXIST10_NP_typeIdEv @3546
    _ZNK5CORBA16OBJECT_NOT_EXIST13_NP_duplicateEv @3547
    _ZNK5CORBA16OBJECT_NOT_EXIST14NP_minorStringEv @3548
    _ZNK5CORBA16OBJECT_NOT_EXIST6_raiseEv @3549
    _ZNK5CORBA16TRANSACTION_MODE10_NP_repoIdEPi @3550
    _ZNK5CORBA16TRANSACTION_MODE10_NP_typeIdEv @3551
    _ZNK5CORBA16TRANSACTION_MODE13_NP_duplicateEv @3552
    _ZNK5CORBA16TRANSACTION_MODE14NP_minorStringEv @3553
    _ZNK5CORBA16TRANSACTION_MODE6_raiseEv @3554
    _ZNK5CORBA19INVALID_TRANSACTION10_NP_repoIdEPi @3555
    _ZNK5CORBA19INVALID_TRANSACTION10_NP_typeIdEv @3556
    _ZNK5CORBA19INVALID_TRANSACTION13_NP_duplicateEv @3557
    _ZNK5CORBA19INVALID_TRANSACTION14NP_minorStringEv @3558
    _ZNK5CORBA19INVALID_TRANSACTION6_raiseEv @3559
    _ZNK5CORBA20CODESET_INCOMPATIBLE10_NP_repoIdEPi @3560
    _ZNK5CORBA20CODESET_INCOMPATIBLE10_NP_typeIdEv @3561
    _ZNK5CORBA20CODESET_INCOMPATIBLE13_NP_duplicateEv @3562
    _ZNK5CORBA20CODESET_INCOMPATIBLE14NP_minorStringEv @3563
    _ZNK5CORBA20CODESET_INCOMPATIBLE6_raiseEv @3564
    _ZNK5CORBA20TRANSACTION_REQUIRED10_NP_repoIdEPi @3565
    _ZNK5CORBA20TRANSACTION_REQUIRED10_NP_typeIdEv @3566
    _ZNK5CORBA20TRANSACTION_REQUIRED13_NP_duplicateEv @3567
    _ZNK5CORBA20TRANSACTION_REQUIRED14NP_minorStringEv @3568
    _ZNK5CORBA20TRANSACTION_REQUIRED6_raiseEv @3569
    _ZNK5CORBA22TRANSACTION_ROLLEDBACK10_NP_repoIdEPi @3570
    _ZNK5CORBA22TRANSACTION_ROLLEDBACK10_NP_typeIdEv @3571
    _ZNK5CORBA22TRANSACTION_ROLLEDBACK13_NP_duplicateEv @3572
    _ZNK5CORBA22TRANSACTION_ROLLEDBACK14NP_minorStringEv @3573
    _ZNK5CORBA22TRANSACTION_ROLLEDBACK6_raiseEv @3574
    _ZNK5CORBA23TRANSACTION_UNAVAILABLE10_NP_repoIdEPi @3575
    _ZNK5CORBA23TRANSACTION_UNAVAILABLE10_NP_typeIdEv @3576
    _ZNK5CORBA23TRANSACTION_UNAVAILABLE13_NP_duplicateEv @3577
    _ZNK5CORBA23TRANSACTION_UNAVAILABLE14NP_minorStringEv @3578
    _ZNK5CORBA23TRANSACTION_UNAVAILABLE6_raiseEv @3579
    _ZNK5CORBA3ORB11InvalidName10_NP_repoIdEPi @3580
    _ZNK5CORBA3ORB11InvalidName10_NP_typeIdEv @3581
    _ZNK5CORBA3ORB11InvalidName11_NP_marshalER9cdrStream @3582
    _ZNK5CORBA3ORB11InvalidName13_NP_duplicateEv @3583
    _ZNK5CORBA3ORB11InvalidName6_raiseEv @3584
    _ZNK5CORBA5Fixed11NP_asStringEv @3585
    _ZNK5CORBA5Fixed5roundEt @3586
    _ZNK5CORBA5Fixed8truncateEt @3587
    _ZNK5CORBA5Fixed9to_stringEv @3588
    _ZNK5CORBA5FixedcveEv @3589
    _ZNK5CORBA5FixedcvxEv @3590
    _ZNK5CORBA5FixedngEv @3591
    _ZNK5CORBA5FixedntEv @3592
    _ZNK5CORBA5FixedpsEv @3593
    _ZNK5CORBA5FixedrSER9cdrStream @3594
    _ZNK5CORBA6REBIND10_NP_repoIdEPi @3595
    _ZNK5CORBA6REBIND10_NP_typeIdEv @3596
    _ZNK5CORBA6REBIND13_NP_duplicateEv @3597
    _ZNK5CORBA6REBIND14NP_minorStringEv @3598
    _ZNK5CORBA6REBIND6_raiseEv @3599
    _ZNK5CORBA7BAD_QOS10_NP_repoIdEPi @3600
    _ZNK5CORBA7BAD_QOS10_NP_typeIdEv @3601
    _ZNK5CORBA7BAD_QOS13_NP_duplicateEv @3602
    _ZNK5CORBA7BAD_QOS14NP_minorStringEv @3603
    _ZNK5CORBA7BAD_QOS6_raiseEv @3604
    _ZNK5CORBA7MARSHAL10_NP_repoIdEPi @3605
    _ZNK5CORBA7MARSHAL10_NP_typeIdEv @3606
    _ZNK5CORBA7MARSHAL13_NP_duplicateEv @3607
    _ZNK5CORBA7MARSHAL14NP_minorStringEv @3608
    _ZNK5CORBA7MARSHAL6_raiseEv @3609
    _ZNK5CORBA7TIMEOUT10_NP_repoIdEPi @3610
    _ZNK5CORBA7TIMEOUT10_NP_typeIdEv @3611
    _ZNK5CORBA7TIMEOUT13_NP_duplicateEv @3612
    _ZNK5CORBA7TIMEOUT14NP_minorStringEv @3613
    _ZNK5CORBA7TIMEOUT6_raiseEv @3614
    _ZNK5CORBA7UNKNOWN10_NP_repoIdEPi @3615
    _ZNK5CORBA7UNKNOWN10_NP_typeIdEv @3616
    _ZNK5CORBA7UNKNOWN13_NP_duplicateEv @3617
    _ZNK5CORBA7UNKNOWN14NP_minorStringEv @3618
    _ZNK5CORBA7UNKNOWN6_raiseEv @3619
    _ZNK5CORBA8FREE_MEM10_NP_repoIdEPi @3620
    _ZNK5CORBA8FREE_MEM10_NP_typeIdEv @3621
    _ZNK5CORBA8FREE_MEM13_NP_duplicateEv @3622
    _ZNK5CORBA8FREE_MEM14NP_minorStringEv @3623
    _ZNK5CORBA8FREE_MEM6_raiseEv @3624
    _ZNK5CORBA8INTERNAL10_NP_repoIdEPi @3625
    _ZNK5CORBA8INTERNAL10_NP_typeIdEv @3626
    _ZNK5CORBA8INTERNAL13_NP_duplicateEv @3627
    _ZNK5CORBA8INTERNAL14NP_minorStringEv @3628
    _ZNK5CORBA8INTERNAL6_raiseEv @3629
    _ZNK5CORBA8INV_FLAG10_NP_repoIdEPi @3630
    _ZNK5CORBA8INV_FLAG10_NP_typeIdEv @3631
    _ZNK5CORBA8INV_FLAG13_NP_duplicateEv @3632
    _ZNK5CORBA8INV_FLAG14NP_minorStringEv @3633
    _ZNK5CORBA8INV_FLAG6_raiseEv @3634
    _ZNK5CORBA9BAD_PARAM10_NP_repoIdEPi @3635
    _ZNK5CORBA9BAD_PARAM10_NP_typeIdEv @3636
    _ZNK5CORBA9BAD_PARAM13_NP_duplicateEv @3637
    _ZNK5CORBA9BAD_PARAM14NP_minorStringEv @3638
    _ZNK5CORBA9BAD_PARAM6_raiseEv @3639
    _ZNK5CORBA9Exception5_nameEv @3640
    _ZNK5CORBA9Exception7_rep_idEv @3641
    _ZNK5CORBA9IMP_LIMIT10_NP_repoIdEPi @3642
    _ZNK5CORBA9IMP_LIMIT10_NP_typeIdEv @3643
    _ZNK5CORBA9IMP_LIMIT13_NP_duplicateEv @3644
    _ZNK5CORBA9IMP_LIMIT14NP_minorStringEv @3645
    _ZNK5CORBA9IMP_LIMIT6_raiseEv @3646
    _ZNK5CORBA9INV_IDENT10_NP_repoIdEPi @3647
    _ZNK5CORBA9INV_IDENT10_NP_typeIdEv @3648
    _ZNK5CORBA9INV_IDENT13_NP_duplicateEv @3649
    _ZNK5CORBA9INV_IDENT14NP_minorStringEv @3650
    _ZNK5CORBA9INV_IDENT6_raiseEv @3651
    _ZNK5CORBA9NO_MEMORY10_NP_repoIdEPi @3652
    _ZNK5CORBA9NO_MEMORY10_NP_typeIdEv @3653
    _ZNK5CORBA9NO_MEMORY13_NP_duplicateEv @3654
    _ZNK5CORBA9NO_MEMORY14NP_minorStringEv @3655
    _ZNK5CORBA9NO_MEMORY6_raiseEv @3656
    _ZNK5CORBA9TRANSIENT10_NP_repoIdEPi @3657
    _ZNK5CORBA9TRANSIENT10_NP_typeIdEv @3658
    _ZNK5CORBA9TRANSIENT13_NP_duplicateEv @3659
    _ZNK5CORBA9TRANSIENT14NP_minorStringEv @3660
    _ZNK5CORBA9TRANSIENT6_raiseEv @3661
    _ZNK7omniIOR10getIORInfoEv @3662
    _ZNK7omniIOR24marshalIORAddressingInfoER9cdrStream @3663
    _ZNK9CosNaming13NameComponentrSER9cdrStream @3664
    _ZNK9CosNaming13NamingContext11InvalidName10_NP_repoIdEPi @3665
    _ZNK9CosNaming13NamingContext11InvalidName10_NP_typeIdEv @3666
    _ZNK9CosNaming13NamingContext11InvalidName11_NP_marshalER9cdrStream @3667
    _ZNK9CosNaming13NamingContext11InvalidName13_NP_duplicateEv @3668
    _ZNK9CosNaming13NamingContext11InvalidName6_raiseEv @3669
    _ZNK9CosNaming13NamingContext12AlreadyBound10_NP_repoIdEPi @3670
    _ZNK9CosNaming13NamingContext12AlreadyBound10_NP_typeIdEv @3671
    _ZNK9CosNaming13NamingContext12AlreadyBound11_NP_marshalER9cdrStream @3672
    _ZNK9CosNaming13NamingContext12AlreadyBound13_NP_duplicateEv @3673
    _ZNK9CosNaming13NamingContext12AlreadyBound6_raiseEv @3674
    _ZNK9CosNaming13NamingContext13CannotProceed10_NP_repoIdEPi @3675
    _ZNK9CosNaming13NamingContext13CannotProceed10_NP_typeIdEv @3676
    _ZNK9CosNaming13NamingContext13CannotProceed11_NP_marshalER9cdrStream @3677
    _ZNK9CosNaming13NamingContext13CannotProceed13_NP_duplicateEv @3678
    _ZNK9CosNaming13NamingContext13CannotProceed6_raiseEv @3679
    _ZNK9CosNaming13NamingContext13CannotProceedrSER9cdrStream @3680
    _ZNK9CosNaming13NamingContext8NotEmpty10_NP_repoIdEPi @3681
    _ZNK9CosNaming13NamingContext8NotEmpty10_NP_typeIdEv @3682
    _ZNK9CosNaming13NamingContext8NotEmpty11_NP_marshalER9cdrStream @3683
    _ZNK9CosNaming13NamingContext8NotEmpty13_NP_duplicateEv @3684
    _ZNK9CosNaming13NamingContext8NotEmpty6_raiseEv @3685
    _ZNK9CosNaming13NamingContext8NotFound10_NP_repoIdEPi @3686
    _ZNK9CosNaming13NamingContext8NotFound10_NP_typeIdEv @3687
    _ZNK9CosNaming13NamingContext8NotFound11_NP_marshalER9cdrStream @3688
    _ZNK9CosNaming13NamingContext8NotFound13_NP_duplicateEv @3689
    _ZNK9CosNaming13NamingContext8NotFound6_raiseEv @3690
    _ZNK9CosNaming13NamingContext8NotFoundrSER9cdrStream @3691
    _ZNK9CosNaming16NamingContextExt14InvalidAddress10_NP_repoIdEPi @3692
    _ZNK9CosNaming16NamingContextExt14InvalidAddress10_NP_typeIdEv @3693
    _ZNK9CosNaming16NamingContextExt14InvalidAddress11_NP_marshalER9cdrStream @3694
    _ZNK9CosNaming16NamingContextExt14InvalidAddress13_NP_duplicateEv @3695
    _ZNK9CosNaming16NamingContextExt14InvalidAddress6_raiseEv @3696
    _ZNK9CosNaming18_pof_NamingContext4is_aEPKc @3697
    _ZNK9CosNaming20_pof_BindingIterator4is_aEPKc @3698
    _ZNK9CosNaming21_pof_NamingContextExt4is_aEPKc @3699
    _ZNK9CosNaming7BindingrSER9cdrStream @3700
    _ZTC27POA_CORBA_InitialReferences0_29_impl_CORBA_InitialReferences @3701 DATA
    _ZTC27POA_CORBA_InitialReferences20_N14PortableServer11ServantBaseE @3702 DATA
    _ZTCN10omniPolicy19LocalShortcutPolicyE0_N5CORBA6PolicyE @3703 DATA
    _ZTCN11BiDirPolicy19BidirectionalPolicyE0_N5CORBA6PolicyE @3704 DATA
    _ZTCN13POA_CosNaming13NamingContextE0_N9CosNaming19_impl_NamingContextE @3705 DATA
    _ZTCN13POA_CosNaming13NamingContextE20_N14PortableServer11ServantBaseE @3706 DATA
    _ZTCN13POA_CosNaming15BindingIteratorE0_N9CosNaming21_impl_BindingIteratorE @3707 DATA
    _ZTCN13POA_CosNaming15BindingIteratorE20_N14PortableServer11ServantBaseE @3708 DATA
    _ZTCN13POA_CosNaming16NamingContextExtE0_N9CosNaming19_impl_NamingContextE @3709 DATA
    _ZTCN13POA_CosNaming16NamingContextExtE0_N9CosNaming22_impl_NamingContextExtE @3710 DATA
    _ZTCN13POA_CosNaming16NamingContextExtE20_NS_13NamingContextE @3711 DATA
    _ZTCN13POA_CosNaming16NamingContextExtE24_N14PortableServer11ServantBaseE @3712 DATA
    _ZTCN14PortableServer12ThreadPolicyE0_N5CORBA6PolicyE @3713 DATA
    _ZTCN14PortableServer14LifespanPolicyE0_N5CORBA6PolicyE @3714 DATA
    _ZTCN14PortableServer14ServantLocatorE0_N5CORBA11LocalObjectE @3715 DATA
    _ZTCN14PortableServer14ServantLocatorE0_NS_14ServantManagerE @3716 DATA
    _ZTCN14PortableServer14ServantManagerE0_N5CORBA11LocalObjectE @3717 DATA
    _ZTCN14PortableServer16AdapterActivatorE0_N5CORBA11LocalObjectE @3718 DATA
    _ZTCN14PortableServer16ServantActivatorE0_N5CORBA11LocalObjectE @3719 DATA
    _ZTCN14PortableServer16ServantActivatorE0_NS_14ServantManagerE @3720 DATA
    _ZTCN14PortableServer18IdAssignmentPolicyE0_N5CORBA6PolicyE @3721 DATA
    _ZTCN14PortableServer18IdUniquenessPolicyE0_N5CORBA6PolicyE @3722 DATA
    _ZTCN14PortableServer20_impl_ServantLocatorE0_NS_20_impl_ServantManagerE @3723 DATA
    _ZTCN14PortableServer22ServantRetentionPolicyE0_N5CORBA6PolicyE @3724 DATA
    _ZTCN14PortableServer22_impl_ServantActivatorE0_NS_20_impl_ServantManagerE @3725 DATA
    _ZTCN14PortableServer22_objref_ServantLocatorE0_N5CORBA11LocalObjectE @3726 DATA
    _ZTCN14PortableServer22_objref_ServantLocatorE0_NS_14ServantLocatorE @3727 DATA
    _ZTCN14PortableServer22_objref_ServantLocatorE0_NS_14ServantManagerE @3728 DATA
    _ZTCN14PortableServer22_objref_ServantLocatorE24_NS_22_objref_ServantManagerE @3729 DATA
    _ZTCN14PortableServer22_objref_ServantManagerE0_N5CORBA11LocalObjectE @3730 DATA
    _ZTCN14PortableServer22_objref_ServantManagerE0_NS_14ServantManagerE @3731 DATA
    _ZTCN14PortableServer23RequestProcessingPolicyE0_N5CORBA6PolicyE @3732 DATA
    _ZTCN14PortableServer24ImplicitActivationPolicyE0_N5CORBA6PolicyE @3733 DATA
    _ZTCN14PortableServer24_objref_AdapterActivatorE0_N5CORBA11LocalObjectE @3734 DATA
    _ZTCN14PortableServer24_objref_AdapterActivatorE0_NS_16AdapterActivatorE @3735 DATA
    _ZTCN14PortableServer24_objref_ServantActivatorE0_N5CORBA11LocalObjectE @3736 DATA
    _ZTCN14PortableServer24_objref_ServantActivatorE0_NS_14ServantManagerE @3737 DATA
    _ZTCN14PortableServer24_objref_ServantActivatorE0_NS_16ServantActivatorE @3738 DATA
    _ZTCN14PortableServer24_objref_ServantActivatorE24_NS_22_objref_ServantManagerE @3739 DATA
    _ZTCN18POA_PortableServer14ServantLocatorE0_N14PortableServer20_impl_ServantLocatorE @3740 DATA
    _ZTCN18POA_PortableServer14ServantLocatorE0_N14PortableServer20_impl_ServantManagerE @3741 DATA
    _ZTCN18POA_PortableServer14ServantLocatorE20_N14PortableServer11ServantBaseE @3742 DATA
    _ZTCN18POA_PortableServer14ServantManagerE0_N14PortableServer20_impl_ServantManagerE @3743 DATA
    _ZTCN18POA_PortableServer14ServantManagerE20_N14PortableServer11ServantBaseE @3744 DATA
    _ZTCN18POA_PortableServer16AdapterActivatorE0_N14PortableServer22_impl_AdapterActivatorE @3745 DATA
    _ZTCN18POA_PortableServer16AdapterActivatorE20_N14PortableServer11ServantBaseE @3746 DATA
    _ZTCN18POA_PortableServer16ServantActivatorE0_N14PortableServer20_impl_ServantManagerE @3747 DATA
    _ZTCN18POA_PortableServer16ServantActivatorE0_N14PortableServer22_impl_ServantActivatorE @3748 DATA
    _ZTCN18POA_PortableServer16ServantActivatorE20_N14PortableServer11ServantBaseE @3749 DATA
    _ZTCN4omni25CORBA_InitialReferences_iE0_27POA_CORBA_InitialReferences @3750 DATA
    _ZTCN4omni25CORBA_InitialReferences_iE0_29_impl_CORBA_InitialReferences @3751 DATA
    _ZTCN4omni25CORBA_InitialReferences_iE20_N14PortableServer11ServantBaseE @3752 DATA
    _ZTCN9CosNaming22_impl_NamingContextExtE0_NS_19_impl_NamingContextE @3753 DATA
    _ZTCN9CosNaming24_objref_NamingContextExtE0_NS_21_objref_NamingContextE @3754 DATA
    _ZTI10omniObjRef @3755 DATA
    _ZTI10omniOrbORB @3756 DATA
    _ZTI11omniCurrent @3757 DATA
    _ZTI11omniServant @3758 DATA
    _ZTI11omni_thread @3759 DATA
    _ZTI12omniIdentity @3760 DATA
    _ZTI12omniTaskLink @3761 DATA
    _ZTI14omniNilCurrent @3762 DATA
    _ZTI15cdrMemoryStream @3763 DATA
    _ZTI15omniAsyncWorker @3764 DATA
    _ZTI16cdrStreamAdapter @3765 DATA
    _ZTI16omniAsyncInvoker @3766 DATA
    _ZTI16omniEtherealiser @3767 DATA
    _ZTI16traceFileHandler @3768 DATA
    _ZTI16traceTimeHandler @3769 DATA
    _ZTI17cdrCountingStream @3770 DATA
    _ZTI17omniLocalIdentity @3771 DATA
    _ZTI17omniObjTableEntry @3772 DATA
    _ZTI17omniOrbBoaServant @3773 DATA
    _ZTI17omni_thread_fatal @3774 DATA
    _ZTI17traceLevelHandler @3775 DATA
    _ZTI18omniCallDescriptor @3776 DATA
    _ZTI18omniRemoteIdentity @3777 DATA
    _ZTI19cdrValueChunkStream @3778 DATA
    _ZTI19omniAsyncWorkerInfo @3779 DATA
    _ZTI20omniShutdownIdentity @3780 DATA
    _ZTI20traceThreadIdHandler @3781 DATA
    _ZTI21omniInProcessIdentity @3782 DATA
    _ZTI21supportCurrentHandler @3783 DATA
    _ZTI22cdrEncapsulationStream @3784 DATA
    _ZTI22objectTableSizeHandler @3785 DATA
    _ZTI22traceExceptionsHandler @3786 DATA
    _ZTI23traceInvocationsHandler @3787 DATA
    _ZTI24nativeCharCodeSetHandler @3788 DATA
    _ZTI25nativeWCharCodeSetHandler @3789 DATA
    _ZTI27POA_CORBA_InitialReferences @3790 DATA
    _ZTI27abortOnInternalErrorHandler @3791 DATA
    _ZTI27omniLocalOnlyCallDescriptor @3792 DATA
    _ZTI28_pof_CORBA_InitialReferences @3793 DATA
    _ZTI29_impl_CORBA_InitialReferences @3794 DATA
    _ZTI29abortOnNativeExceptionHandler @3795 DATA
    _ZTI29traceInvocationReturnsHandler @3796 DATA
    _ZTI31_objref_CORBA_InitialReferences @3797 DATA
    _ZTI33_0RL_cd_3c165f58b5a16b59_00000000 @3798 DATA
    _ZTI33_0RL_cd_3c165f58b5a16b59_20000000 @3799 DATA
    _ZTI33_0RL_cd_3c165f58b5a16b59_40000000 @3800 DATA
    _ZTI33_0RL_cd_3c165f58b5a16b59_60000000 @3801 DATA
    _ZTI33_0RL_cd_3c165f58b5a16b59_80000000 @3802 DATA
    _ZTI33_0RL_cd_69CECA6A39F685B5_00000000 @3803 DATA
    _ZTI33_0RL_cd_69CECA6A39F685B5_01000000 @3804 DATA
    _ZTI33_0RL_cd_69CECA6A39F685B5_02000000 @3805 DATA
    _ZTI33_0RL_cd_69CECA6A39F685B5_20000000 @3806 DATA
    _ZTI33_0RL_cd_69CECA6A39F685B5_21000000 @3807 DATA
    _ZTI33_0RL_cd_69CECA6A39F685B5_40000000 @3808 DATA
    _ZTI33_0RL_cd_69CECA6A39F685B5_41000000 @3809 DATA
    _ZTI33_0RL_cd_69CECA6A39F685B5_60000000 @3810 DATA
    _ZTI33_0RL_cd_69CECA6A39F685B5_61000000 @3811 DATA
    _ZTI33_0RL_cd_69CECA6A39F685B5_80000000 @3812 DATA
    _ZTI33_0RL_cd_69CECA6A39F685B5_81000000 @3813 DATA
    _ZTI33_0RL_cd_69CECA6A39F685B5_a0000000 @3814 DATA
    _ZTI33_0RL_cd_69CECA6A39F685B5_a1000000 @3815 DATA
    _ZTI33_0RL_cd_69CECA6A39F685B5_c0000000 @3816 DATA
    _ZTI33_0RL_cd_69CECA6A39F685B5_c1000000 @3817 DATA
    _ZTI33_0RL_cd_69CECA6A39F685B5_e0000000 @3818 DATA
    _ZTI33_0RL_cd_69CECA6A39F685B5_e1000000 @3819 DATA
    _ZTI33_0RL_cd_96F078E2247AB9DA_00000000 @3820 DATA
    _ZTI33_0RL_cd_96F078E2247AB9DA_20000000 @3821 DATA
    _ZTI8omniTask @3822 DATA
    _ZTI9cdrStream @3823 DATA
    _ZTIN10omniPolicy19LocalShortcutPolicyE @3824 DATA
    _ZTIN11BiDirPolicy19BidirectionalPolicyE @3825 DATA
    _ZTIN11omni_thread7value_tE @3826 DATA
    _ZTIN13POA_CosNaming13NamingContextE @3827 DATA
    _ZTIN13POA_CosNaming15BindingIteratorE @3828 DATA
    _ZTIN13POA_CosNaming16NamingContextExtE @3829 DATA
    _ZTIN14PortableServer10POAManager15AdapterInactiveE @3830 DATA
    _ZTIN14PortableServer10POAManagerE @3831 DATA
    _ZTIN14PortableServer11ServantBaseE @3832 DATA
    _ZTIN14PortableServer12ThreadPolicyE @3833 DATA
    _ZTIN14PortableServer14ForwardRequestE @3834 DATA
    _ZTIN14PortableServer14LifespanPolicyE @3835 DATA
    _ZTIN14PortableServer14ServantLocatorE @3836 DATA
    _ZTIN14PortableServer14ServantManagerE @3837 DATA
    _ZTIN14PortableServer16AdapterActivatorE @3838 DATA
    _ZTIN14PortableServer16ServantActivatorE @3839 DATA
    _ZTIN14PortableServer18IdAssignmentPolicyE @3840 DATA
    _ZTIN14PortableServer18IdUniquenessPolicyE @3841 DATA
    _ZTIN14PortableServer19_pof_ServantLocatorE @3842 DATA
    _ZTIN14PortableServer19_pof_ServantManagerE @3843 DATA
    _ZTIN14PortableServer20_impl_ServantLocatorE @3844 DATA
    _ZTIN14PortableServer20_impl_ServantManagerE @3845 DATA
    _ZTIN14PortableServer21_pof_AdapterActivatorE @3846 DATA
    _ZTIN14PortableServer21_pof_ServantActivatorE @3847 DATA
    _ZTIN14PortableServer22ServantRetentionPolicyE @3848 DATA
    _ZTIN14PortableServer22_impl_AdapterActivatorE @3849 DATA
    _ZTIN14PortableServer22_impl_ServantActivatorE @3850 DATA
    _ZTIN14PortableServer22_objref_ServantLocatorE @3851 DATA
    _ZTIN14PortableServer22_objref_ServantManagerE @3852 DATA
    _ZTIN14PortableServer23RequestProcessingPolicyE @3853 DATA
    _ZTIN14PortableServer24ImplicitActivationPolicyE @3854 DATA
    _ZTIN14PortableServer24_objref_AdapterActivatorE @3855 DATA
    _ZTIN14PortableServer24_objref_ServantActivatorE @3856 DATA
    _ZTIN14PortableServer3POA11WrongPolicyE @3857 DATA
    _ZTIN14PortableServer3POA12WrongAdapterE @3858 DATA
    _ZTIN14PortableServer3POA13InvalidPolicyE @3859 DATA
    _ZTIN14PortableServer3POA15AdapterInactiveE @3860 DATA
    _ZTIN14PortableServer3POA15ObjectNotActiveE @3861 DATA
    _ZTIN14PortableServer3POA16ServantNotActiveE @3862 DATA
    _ZTIN14PortableServer3POA18AdapterNonExistentE @3863 DATA
    _ZTIN14PortableServer3POA19ObjectAlreadyActiveE @3864 DATA
    _ZTIN14PortableServer3POA20AdapterAlreadyExistsE @3865 DATA
    _ZTIN14PortableServer3POA20ServantAlreadyActiveE @3866 DATA
    _ZTIN14PortableServer3POA9NoServantE @3867 DATA
    _ZTIN14PortableServer3POAE @3868 DATA
    _ZTIN14PortableServer7Current9NoContextE @3869 DATA
    _ZTIN14PortableServer7CurrentE @3870 DATA
    _ZTIN14omniCallHandle14PostInvokeHookE @3871 DATA
    _ZTIN15omniStdCallDesc25_cCORBA_mObject_i_cstringE @3872 DATA
    _ZTIN18POA_PortableServer14ServantLocatorE @3873 DATA
    _ZTIN18POA_PortableServer14ServantManagerE @3874 DATA
    _ZTIN18POA_PortableServer16AdapterActivatorE @3875 DATA
    _ZTIN18POA_PortableServer16ServantActivatorE @3876 DATA
    _ZTIN4omni10StrandListE @3877 DATA
    _ZTIN4omni10giopServer13outOfResourceE @3878 DATA
    _ZTIN4omni10giopServer4LinkE @3879 DATA
    _ZTIN4omni10giopServer9TerminateE @3880 DATA
    _ZTIN4omni10giopServerE @3881 DATA
    _ZTIN4omni10giopStrandE @3882 DATA
    _ZTIN4omni10giopStream11CommFailureE @3883 DATA
    _ZTIN4omni10giopStreamE @3884 DATA
    _ZTIN4omni10giopWorkerE @3885 DATA
    _ZTIN4omni10omniOrbBOAE @3886 DATA
    _ZTIN4omni10omniOrbPOA16SLPostInvokeHookE @3887 DATA
    _ZTIN4omni10omniOrbPOAE @3888 DATA
    _ZTIN4omni10orbOptions7HandlerE @3889 DATA
    _ZTIN4omni10orbOptions7UnknownE @3890 DATA
    _ZTIN4omni10orbOptions8BadParamE @3891 DATA
    _ZTIN4omni10tcpAddressE @3892 DATA
    _ZTIN4omni11IP4AddrInfoE @3893 DATA
    _ZTIN4omni11LibcWrapper8AddrInfoE @3894 DATA
    _ZTIN4omni11NCS_C_UTF_8E @3895 DATA
    _ZTIN4omni11TCS_C_UTF_8E @3896 DATA
    _ZTIN4omni11giopAddressE @3897 DATA
    _ZTIN4omni11giopMonitorE @3898 DATA
    _ZTIN4omni11helpHandlerE @3899 DATA
    _ZTIN4omni11omniCodeSet10NCS_C_8bitE @3900 DATA
    _ZTIN4omni11omniCodeSet10TCS_C_8bitE @3901 DATA
    _ZTIN4omni11omniCodeSet11NCS_W_16bitE @3902 DATA
    _ZTIN4omni11omniCodeSet11TCS_W_16bitE @3903 DATA
    _ZTIN4omni11omniCodeSet4BaseE @3904 DATA
    _ZTIN4omni11omniCodeSet5NCS_CE @3905 DATA
    _ZTIN4omni11omniCodeSet5NCS_WE @3906 DATA
    _ZTIN4omni11omniCodeSet5TCS_CE @3907 DATA
    _ZTIN4omni11omniCodeSet5TCS_WE @3908 DATA
    _ZTIN4omni11tcpEndpointE @3909 DATA
    _ZTIN4omni12NCS_W_UTF_16E @3910 DATA
    _ZTIN4omni12SocketHolderE @3911 DATA
    _ZTIN4omni12TCS_W_UTF_16E @3912 DATA
    _ZTIN4omni12giopEndpointE @3913 DATA
    _ZTIN4omni13iorURIHandlerE @3914 DATA
    _ZTIN4omni13tcpConnectionE @3915 DATA
    _ZTIN4omni14InitRefHandlerE @3916 DATA
    _ZTIN4omni14giopConnectionE @3917 DATA
    _ZTIN4omni14giopStreamListE @3918 DATA
    _ZTIN4omni14giopWorkerInfoE @3919 DATA
    _ZTIN4omni14lcdModeHandlerE @3920 DATA
    _ZTIN4omni14omniAnonObjRefE @3921 DATA
    _ZTIN4omni14omniObjAdapterE @3922 DATA
    _ZTIN4omni14transportRules4RuleE @3923 DATA
    _ZTIN4omni14transportRules8RuleTypeE @3924 DATA
    _ZTIN4omni15BiDirClientRopeE @3925 DATA
    _ZTIN4omni15BiDirServerRopeE @3926 DATA
    _ZTIN4omni15ORBAsyncInvokerE @3927 DATA
    _ZTIN4omni15builtinIPv4RuleE @3928 DATA
    _ZTIN4omni15builtinRuleTypeE @3929 DATA
    _ZTIN4omni15endpointHandlerE @3930 DATA
    _ZTIN4omni15omniInitialiserE @3931 DATA
    _ZTIN4omni16SocketCollectionE @3932 DATA
    _ZTIN4omni16giopRendezvouserE @3933 DATA
    _ZTIN4omni16omniInterceptors14createThread_T6info_TE @3934 DATA
    _ZTIN4omni16omniInterceptors20assignUpcallThread_T6info_TE @3935 DATA
    _ZTIN4omni16principalHandlerE @3936 DATA
    _ZTIN4omni16tcpTransportImplE @3937 DATA
    _ZTIN4omni17configFileHandlerE @3938 DATA
    _ZTIN4omni17giopTransportImplE @3939 DATA
    _ZTIN4omni17omniOrbPOACurrentE @3940 DATA
    _ZTIN4omni17omniOrbPOAManagerE @3941 DATA
    _ZTIN4omni17strictIIOPHandlerE @3942 DATA
    _ZTIN4omni18corbalocURIHandler10RirObjAddrE @3943 DATA
    _ZTIN4omni18corbalocURIHandler11IiopObjAddrE @3944 DATA
    _ZTIN4omni18corbalocURIHandler11UiopObjAddrE @3945 DATA
    _ZTIN4omni18corbalocURIHandler13SsliopObjAddrE @3946 DATA
    _ZTIN4omni18corbalocURIHandler7ObjAddrE @3947 DATA
    _ZTIN4omni18corbalocURIHandlerE @3948 DATA
    _ZTIN4omni18omniAnonObjRef_pofE @3949 DATA
    _ZTIN4omni18omni_is_a_CallDescE @3950 DATA
    _ZTIN4omni18proxyObjectFactoryE @3951 DATA
    _ZTIN4omni19builtinMatchAllRuleE @3952 DATA
    _ZTIN4omni19corbanameURIHandlerE @3953 DATA
    _ZTIN4omni19tcpActiveCollectionE @3954 DATA
    _ZTIN4omni19tcpActiveConnectionE @3955 DATA
    _ZTIN4omni19validateUTF8HandlerE @3956 DATA
    _ZTIN4omni20builtinLocalHostRuleE @3957 DATA
    _ZTIN4omni20giopActiveCollectionE @3958 DATA
    _ZTIN4omni20giopActiveConnectionE @3959 DATA
    _ZTIN4omni20maxSocketRecvHandlerE @3960 DATA
    _ZTIN4omni20maxSocketSendHandlerE @3961 DATA
    _ZTIN4omni20omni_ior_initialiserE @3962 DATA
    _ZTIN4omni20omni_poa_initialiserE @3963 DATA
    _ZTIN4omni20omni_uri_initialiserE @3964 DATA
    _ZTIN4omni20poa_iiop_portHandlerE @3965 DATA
    _ZTIN4omni20tcAliasExpandHandlerE @3966 DATA
    _ZTIN4omni21DefaultInitRefHandlerE @3967 DATA
    _ZTIN4omni21giopMaxMsgSizeHandlerE @3968 DATA
    _ZTIN4omni21maxGIOPVersionHandlerE @3969 DATA
    _ZTIN4omni21saTaskQueueAssignInfoE @3970 DATA
    _ZTIN4omni21saTaskQueueCreateInfoE @3971 DATA
    _ZTIN4omni22endpointPublishHandlerE @3972 DATA
    _ZTIN4omni22inConScanPeriodHandlerE @3973 DATA
    _ZTIN4omni22scanGranularityHandlerE @3974 DATA
    _ZTIN4omni23ValueIndirectionTrackerE @3975 DATA
    _ZTIN4omni23endpointNoListenHandlerE @3976 DATA
    _ZTIN4omni23omni_ObjRef_initialiserE @3977 DATA
    _ZTIN4omni23omni_hooked_initialiserE @3978 DATA
    _ZTIN4omni23omni_interface_CallDescE @3979 DATA
    _ZTIN4omni23outConScanPeriodHandlerE @3980 DATA
    _ZTIN4omni23socketSendBufferHandlerE @3981 DATA
    _ZTIN4omni24dumpConfigurationHandlerE @3982 DATA
    _ZTIN4omni24endpointNoPublishHandlerE @3983 DATA
    _ZTIN4omni24idleThreadTimeoutHandlerE @3984 DATA
    _ZTIN4omni24omni_codeSet_initialiserE @3985 DATA
    _ZTIN4omni24omni_invoker_initialiserE @3986 DATA
    _ZTIN4omni24omni_objadpt_initialiserE @3987 DATA
    _ZTIN4omni24omni_omniIOR_initialiserE @3988 DATA
    _ZTIN4omni25CORBA_InitialReferences_iE @3989 DATA
    _ZTIN4omni25bootstrapAgentPortHandlerE @3990 DATA
    _ZTIN4omni25omni_corbaOrb_initialiserE @3991 DATA
    _ZTIN4omni25omni_giopRope_initialiserE @3992 DATA
    _ZTIN4omni25omni_initRefs_initialiserE @3993 DATA
    _ZTIN4omni25poa_iiop_name_portHandlerE @3994 DATA
    _ZTIN4omni26clientTransportRuleHandlerE @3995 DATA
    _ZTIN4omni26immediateRopeSwitchHandlerE @3996 DATA
    _ZTIN4omni26omni_cdrStream_initialiserE @3997 DATA
    _ZTIN4omni26omni_giopbidir_initialiserE @3998 DATA
    _ZTIN4omni26omni_non_existent_CallDescE @3999 DATA
    _ZTIN4omni26serverTransportRuleHandlerE @4000 DATA
    _ZTIN4omni27omni_dynamiclib_initialiserE @4001 DATA
    _ZTIN4omni27omni_giopImpl10_initialiserE @4002 DATA
    _ZTIN4omni27omni_giopImpl11_initialiserE @4003 DATA
    _ZTIN4omni27omni_giopImpl12_initialiserE @4004 DATA
    _ZTIN4omni27omni_giopStrand_initialiserE @4005 DATA
    _ZTIN4omni27omni_giopserver_initialiserE @4006 DATA
    _ZTIN4omni27omni_orbOptions_initialiserE @4007 DATA
    _ZTIN4omni27oneCallPerConnectionHandlerE @4008 DATA
    _ZTIN4omni28connectionWatchPeriodHandlerE @4009 DATA
    _ZTIN4omni28endpointPublishAllIFsHandlerE @4010 DATA
    _ZTIN4omni28giopTargetAddressModeHandlerE @4011 DATA
    _ZTIN4omni28omni_interceptor_initialiserE @4012 DATA
    _ZTIN4omni28omni_omniCurrent_initialiserE @4013 DATA
    _ZTIN4omni28poaHoldRequestTimeoutHandlerE @4014 DATA
    _ZTIN4omni28resetTimeOutOnRetriesHandlerE @4015 DATA
    _ZTIN4omni28supportBootstrapAgentHandlerE @4016 DATA
    _ZTIN4omni29bootstrapAgentHostnameHandlerE @4017 DATA
    _ZTIN4omni29copyValuesInLocalCallsHandlerE @4018 DATA
    _ZTIN4omni29diiThrowsSysExceptionsHandlerE @4019 DATA
    _ZTIN4omni29offerBiDirectionalGIOPHandlerE @4020 DATA
    _ZTIN4omni29omniServantActivatorTaskQueue4TaskE @4021 DATA
    _ZTIN4omni29omniServantActivatorTaskQueueE @4022 DATA
    _ZTIN4omni29omni_giopEndpoint_initialiserE @4023 DATA
    _ZTIN4omni29omni_omniInternal_initialiserE @4024 DATA
    _ZTIN4omni29unixTransportDirectoryHandlerE @4025 DATA
    _ZTIN4omni30acceptBiDirectionalGIOPHandlerE @4026 DATA
    _ZTIN4omni30clientCallTimeOutPeriodHandlerE @4027 DATA
    _ZTIN4omni30maxServerThreadPoolSizeHandlerE @4028 DATA
    _ZTIN4omni30omni_omniTransport_initialiserE @4029 DATA
    _ZTIN4omni30serverCallTimeOutPeriodHandlerE @4030 DATA
    _ZTIN4omni30supportPerThreadTimeOutHandlerE @4031 DATA
    _ZTIN4omni30unixTransportPermissionHandlerE @4032 DATA
    _ZTIN4omni30useTypeCodeIndirectionsHandlerE @4033 DATA
    _ZTIN4omni31connectionWatchImmediateHandlerE @4034 DATA
    _ZTIN4omni31omni_giopStreamImpl_initialiserE @4035 DATA
    _ZTIN4omni31omni_transportRules_initialiserE @4036 DATA
    _ZTIN4omni32threadPerConnectionPolicyHandlerE @4037 DATA
    _ZTIN4omni32threadPoolWatchConnectionHandlerE @4038 DATA
    _ZTIN4omni32verifyObjectExistsAndTypeHandlerE @4039 DATA
    _ZTIN4omni33clientConnectTimeOutPeriodHandlerE @4040 DATA
    _ZTIN4omni33maxGIOPConnectionPerServerHandlerE @4041 DATA
    _ZTIN4omni35maxServerThreadPerConnectionHandlerE @4042 DATA
    _ZTIN4omni35poaUniquePersistentSystemIdsHandlerE @4043 DATA
    _ZTIN4omni36threadPerConnectionLowerLimitHandlerE @4044 DATA
    _ZTIN4omni36threadPerConnectionUpperLimitHandlerE @4045 DATA
    _ZTIN4omni37acceptMisalignedTcIndirectionsHandlerE @4046 DATA
    _ZTIN4omni39maxInterleavedCallsPerConnectionHandlerE @4047 DATA
    _ZTIN4omni4RopeE @4048 DATA
    _ZTIN4omni5IOP_CE @4049 DATA
    _ZTIN4omni5IOP_SE @4050 DATA
    _ZTIN4omni6GIOP_CE @4051 DATA
    _ZTIN4omni6GIOP_S19terminateProcessingE @4052 DATA
    _ZTIN4omni6GIOP_SE @4053 DATA
    _ZTIN4omni6StrandE @4054 DATA
    _ZTIN4omni7omniURI10URIHandlerE @4055 DATA
    _ZTIN4omni8RopeLinkE @4056 DATA
    _ZTIN4omni8giopRopeE @4057 DATA
    _ZTIN4omni9BiDirInfoE @4058 DATA
    _ZTIN4omni9ScavengerE @4059 DATA
    _ZTIN4omni9idHandlerE @4060 DATA
    _ZTIN4omni9orbServerE @4061 DATA
    _ZTIN5CORBA10INITIALIZEE @4062 DATA
    _ZTIN5CORBA10INTF_REPOSE @4063 DATA
    _ZTIN5CORBA10INV_OBJREFE @4064 DATA
    _ZTIN5CORBA10INV_POLICYE @4065 DATA
    _ZTIN5CORBA11BAD_CONTEXTE @4066 DATA
    _ZTIN5CORBA11LocalObjectE @4067 DATA
    _ZTIN5CORBA11NO_RESPONSEE @4068 DATA
    _ZTIN5CORBA11OBJ_ADAPTERE @4069 DATA
    _ZTIN5CORBA12BAD_TYPECODEE @4070 DATA
    _ZTIN5CORBA12COMM_FAILUREE @4071 DATA
    _ZTIN5CORBA12NO_IMPLEMENTE @4072 DATA
    _ZTIN5CORBA12NO_RESOURCESE @4073 DATA
    _ZTIN5CORBA13BAD_INV_ORDERE @4074 DATA
    _ZTIN5CORBA13BAD_OPERATIONE @4075 DATA
    _ZTIN5CORBA13NO_PERMISSIONE @4076 DATA
    _ZTIN5CORBA13PERSIST_STOREE @4077 DATA
    _ZTIN5CORBA13UserExceptionE @4078 DATA
    _ZTIN5CORBA15DATA_CONVERSIONE @4079 DATA
    _ZTIN5CORBA15SystemExceptionE @4080 DATA
    _ZTIN5CORBA16OBJECT_NOT_EXISTE @4081 DATA
    _ZTIN5CORBA16TRANSACTION_MODEE @4082 DATA
    _ZTIN5CORBA19INVALID_TRANSACTIONE @4083 DATA
    _ZTIN5CORBA20CODESET_INCOMPATIBLEE @4084 DATA
    _ZTIN5CORBA20TRANSACTION_REQUIREDE @4085 DATA
    _ZTIN5CORBA22TRANSACTION_ROLLEDBACKE @4086 DATA
    _ZTIN5CORBA23TRANSACTION_UNAVAILABLEE @4087 DATA
    _ZTIN5CORBA3BOAE @4088 DATA
    _ZTIN5CORBA3ORB11InvalidNameE @4089 DATA
    _ZTIN5CORBA3ORBE @4090 DATA
    _ZTIN5CORBA6ObjectE @4091 DATA
    _ZTIN5CORBA6PolicyE @4092 DATA
    _ZTIN5CORBA6REBINDE @4093 DATA
    _ZTIN5CORBA7BAD_QOSE @4094 DATA
    _ZTIN5CORBA7CurrentE @4095 DATA
    _ZTIN5CORBA7MARSHALE @4096 DATA
    _ZTIN5CORBA7TIMEOUTE @4097 DATA
    _ZTIN5CORBA7UNKNOWNE @4098 DATA
    _ZTIN5CORBA8FREE_MEME @4099 DATA
    _ZTIN5CORBA8INTERNALE @4100 DATA
    _ZTIN5CORBA8INV_FLAGE @4101 DATA
    _ZTIN5CORBA9BAD_PARAME @4102 DATA
    _ZTIN5CORBA9ExceptionE @4103 DATA
    _ZTIN5CORBA9IMP_LIMITE @4104 DATA
    _ZTIN5CORBA9INV_IDENTE @4105 DATA
    _ZTIN5CORBA9NO_MEMORYE @4106 DATA
    _ZTIN5CORBA9TRANSIENTE @4107 DATA
    _ZTIN7omniIOR12IORExtraInfoE @4108 DATA
    _ZTIN7omniORB14fatalExceptionE @4109 DATA
    _ZTIN7omniORB16LOCATION_FORWARDE @4110 DATA
    _ZTIN9CosNaming13NamingContext11InvalidNameE @4111 DATA
    _ZTIN9CosNaming13NamingContext12AlreadyBoundE @4112 DATA
    _ZTIN9CosNaming13NamingContext13CannotProceedE @4113 DATA
    _ZTIN9CosNaming13NamingContext8NotEmptyE @4114 DATA
    _ZTIN9CosNaming13NamingContext8NotFoundE @4115 DATA
    _ZTIN9CosNaming16NamingContextExt14InvalidAddressE @4116 DATA
    _ZTIN9CosNaming18_pof_NamingContextE @4117 DATA
    _ZTIN9CosNaming19_impl_NamingContextE @4118 DATA
    _ZTIN9CosNaming20_pof_BindingIteratorE @4119 DATA
    _ZTIN9CosNaming21_impl_BindingIteratorE @4120 DATA
    _ZTIN9CosNaming21_objref_NamingContextE @4121 DATA
    _ZTIN9CosNaming21_pof_NamingContextExtE @4122 DATA
    _ZTIN9CosNaming22_impl_NamingContextExtE @4123 DATA
    _ZTIN9CosNaming23_objref_BindingIteratorE @4124 DATA
    _ZTIN9CosNaming24_objref_NamingContextExtE @4125 DATA
    _ZTS10omniObjRef @4126 DATA
    _ZTS10omniOrbORB @4127 DATA
    _ZTS11omniCurrent @4128 DATA
    _ZTS11omniServant @4129 DATA
    _ZTS11omni_thread @4130 DATA
    _ZTS12omniIdentity @4131 DATA
    _ZTS12omniTaskLink @4132 DATA
    _ZTS14omniNilCurrent @4133 DATA
    _ZTS15cdrMemoryStream @4134 DATA
    _ZTS15omniAsyncWorker @4135 DATA
    _ZTS16cdrStreamAdapter @4136 DATA
    _ZTS16omniAsyncInvoker @4137 DATA
    _ZTS16omniEtherealiser @4138 DATA
    _ZTS16traceFileHandler @4139 DATA
    _ZTS16traceTimeHandler @4140 DATA
    _ZTS17cdrCountingStream @4141 DATA
    _ZTS17omniLocalIdentity @4142 DATA
    _ZTS17omniObjTableEntry @4143 DATA
    _ZTS17omniOrbBoaServant @4144 DATA
    _ZTS17omni_thread_fatal @4145 DATA
    _ZTS17traceLevelHandler @4146 DATA
    _ZTS18omniCallDescriptor @4147 DATA
    _ZTS18omniRemoteIdentity @4148 DATA
    _ZTS19cdrValueChunkStream @4149 DATA
    _ZTS19omniAsyncWorkerInfo @4150 DATA
    _ZTS20omniShutdownIdentity @4151 DATA
    _ZTS20traceThreadIdHandler @4152 DATA
    _ZTS21omniInProcessIdentity @4153 DATA
    _ZTS21supportCurrentHandler @4154 DATA
    _ZTS22cdrEncapsulationStream @4155 DATA
    _ZTS22objectTableSizeHandler @4156 DATA
    _ZTS22traceExceptionsHandler @4157 DATA
    _ZTS23traceInvocationsHandler @4158 DATA
    _ZTS24nativeCharCodeSetHandler @4159 DATA
    _ZTS25nativeWCharCodeSetHandler @4160 DATA
    _ZTS27POA_CORBA_InitialReferences @4161 DATA
    _ZTS27abortOnInternalErrorHandler @4162 DATA
    _ZTS27omniLocalOnlyCallDescriptor @4163 DATA
    _ZTS28_pof_CORBA_InitialReferences @4164 DATA
    _ZTS29_impl_CORBA_InitialReferences @4165 DATA
    _ZTS29abortOnNativeExceptionHandler @4166 DATA
    _ZTS29traceInvocationReturnsHandler @4167 DATA
    _ZTS31_objref_CORBA_InitialReferences @4168 DATA
    _ZTS33_0RL_cd_3c165f58b5a16b59_00000000 @4169 DATA
    _ZTS33_0RL_cd_3c165f58b5a16b59_20000000 @4170 DATA
    _ZTS33_0RL_cd_3c165f58b5a16b59_40000000 @4171 DATA
    _ZTS33_0RL_cd_3c165f58b5a16b59_60000000 @4172 DATA
    _ZTS33_0RL_cd_3c165f58b5a16b59_80000000 @4173 DATA
    _ZTS33_0RL_cd_69CECA6A39F685B5_00000000 @4174 DATA
    _ZTS33_0RL_cd_69CECA6A39F685B5_01000000 @4175 DATA
    _ZTS33_0RL_cd_69CECA6A39F685B5_02000000 @4176 DATA
    _ZTS33_0RL_cd_69CECA6A39F685B5_20000000 @4177 DATA
    _ZTS33_0RL_cd_69CECA6A39F685B5_21000000 @4178 DATA
    _ZTS33_0RL_cd_69CECA6A39F685B5_40000000 @4179 DATA
    _ZTS33_0RL_cd_69CECA6A39F685B5_41000000 @4180 DATA
    _ZTS33_0RL_cd_69CECA6A39F685B5_60000000 @4181 DATA
    _ZTS33_0RL_cd_69CECA6A39F685B5_61000000 @4182 DATA
    _ZTS33_0RL_cd_69CECA6A39F685B5_80000000 @4183 DATA
    _ZTS33_0RL_cd_69CECA6A39F685B5_81000000 @4184 DATA
    _ZTS33_0RL_cd_69CECA6A39F685B5_a0000000 @4185 DATA
    _ZTS33_0RL_cd_69CECA6A39F685B5_a1000000 @4186 DATA
    _ZTS33_0RL_cd_69CECA6A39F685B5_c0000000 @4187 DATA
    _ZTS33_0RL_cd_69CECA6A39F685B5_c1000000 @4188 DATA
    _ZTS33_0RL_cd_69CECA6A39F685B5_e0000000 @4189 DATA
    _ZTS33_0RL_cd_69CECA6A39F685B5_e1000000 @4190 DATA
    _ZTS33_0RL_cd_96F078E2247AB9DA_00000000 @4191 DATA
    _ZTS33_0RL_cd_96F078E2247AB9DA_20000000 @4192 DATA
    _ZTS8omniTask @4193 DATA
    _ZTS9cdrStream @4194 DATA
    _ZTSN10omniPolicy19LocalShortcutPolicyE @4195 DATA
    _ZTSN11BiDirPolicy19BidirectionalPolicyE @4196 DATA
    _ZTSN11omni_thread7value_tE @4197 DATA
    _ZTSN13POA_CosNaming13NamingContextE @4198 DATA
    _ZTSN13POA_CosNaming15BindingIteratorE @4199 DATA
    _ZTSN13POA_CosNaming16NamingContextExtE @4200 DATA
    _ZTSN14PortableServer10POAManager15AdapterInactiveE @4201 DATA
    _ZTSN14PortableServer10POAManagerE @4202 DATA
    _ZTSN14PortableServer11ServantBaseE @4203 DATA
    _ZTSN14PortableServer12ThreadPolicyE @4204 DATA
    _ZTSN14PortableServer14ForwardRequestE @4205 DATA
    _ZTSN14PortableServer14LifespanPolicyE @4206 DATA
    _ZTSN14PortableServer14ServantLocatorE @4207 DATA
    _ZTSN14PortableServer14ServantManagerE @4208 DATA
    _ZTSN14PortableServer16AdapterActivatorE @4209 DATA
    _ZTSN14PortableServer16ServantActivatorE @4210 DATA
    _ZTSN14PortableServer18IdAssignmentPolicyE @4211 DATA
    _ZTSN14PortableServer18IdUniquenessPolicyE @4212 DATA
    _ZTSN14PortableServer19_pof_ServantLocatorE @4213 DATA
    _ZTSN14PortableServer19_pof_ServantManagerE @4214 DATA
    _ZTSN14PortableServer20_impl_ServantLocatorE @4215 DATA
    _ZTSN14PortableServer20_impl_ServantManagerE @4216 DATA
    _ZTSN14PortableServer21_pof_AdapterActivatorE @4217 DATA
    _ZTSN14PortableServer21_pof_ServantActivatorE @4218 DATA
    _ZTSN14PortableServer22ServantRetentionPolicyE @4219 DATA
    _ZTSN14PortableServer22_impl_AdapterActivatorE @4220 DATA
    _ZTSN14PortableServer22_impl_ServantActivatorE @4221 DATA
    _ZTSN14PortableServer22_objref_ServantLocatorE @4222 DATA
    _ZTSN14PortableServer22_objref_ServantManagerE @4223 DATA
    _ZTSN14PortableServer23RequestProcessingPolicyE @4224 DATA
    _ZTSN14PortableServer24ImplicitActivationPolicyE @4225 DATA
    _ZTSN14PortableServer24_objref_AdapterActivatorE @4226 DATA
    _ZTSN14PortableServer24_objref_ServantActivatorE @4227 DATA
    _ZTSN14PortableServer3POA11WrongPolicyE @4228 DATA
    _ZTSN14PortableServer3POA12WrongAdapterE @4229 DATA
    _ZTSN14PortableServer3POA13InvalidPolicyE @4230 DATA
    _ZTSN14PortableServer3POA15AdapterInactiveE @4231 DATA
    _ZTSN14PortableServer3POA15ObjectNotActiveE @4232 DATA
    _ZTSN14PortableServer3POA16ServantNotActiveE @4233 DATA
    _ZTSN14PortableServer3POA18AdapterNonExistentE @4234 DATA
    _ZTSN14PortableServer3POA19ObjectAlreadyActiveE @4235 DATA
    _ZTSN14PortableServer3POA20AdapterAlreadyExistsE @4236 DATA
    _ZTSN14PortableServer3POA20ServantAlreadyActiveE @4237 DATA
    _ZTSN14PortableServer3POA9NoServantE @4238 DATA
    _ZTSN14PortableServer3POAE @4239 DATA
    _ZTSN14PortableServer7Current9NoContextE @4240 DATA
    _ZTSN14PortableServer7CurrentE @4241 DATA
    _ZTSN14omniCallHandle14PostInvokeHookE @4242 DATA
    _ZTSN15omniStdCallDesc25_cCORBA_mObject_i_cstringE @4243 DATA
    _ZTSN18POA_PortableServer14ServantLocatorE @4244 DATA
    _ZTSN18POA_PortableServer14ServantManagerE @4245 DATA
    _ZTSN18POA_PortableServer16AdapterActivatorE @4246 DATA
    _ZTSN18POA_PortableServer16ServantActivatorE @4247 DATA
    _ZTSN4omni10StrandListE @4248 DATA
    _ZTSN4omni10giopServer13outOfResourceE @4249 DATA
    _ZTSN4omni10giopServer4LinkE @4250 DATA
    _ZTSN4omni10giopServer9TerminateE @4251 DATA
    _ZTSN4omni10giopServerE @4252 DATA
    _ZTSN4omni10giopStrandE @4253 DATA
    _ZTSN4omni10giopStream11CommFailureE @4254 DATA
    _ZTSN4omni10giopStreamE @4255 DATA
    _ZTSN4omni10giopWorkerE @4256 DATA
    _ZTSN4omni10omniOrbBOAE @4257 DATA
    _ZTSN4omni10omniOrbPOA16SLPostInvokeHookE @4258 DATA
    _ZTSN4omni10omniOrbPOAE @4259 DATA
    _ZTSN4omni10orbOptions7HandlerE @4260 DATA
    _ZTSN4omni10orbOptions7UnknownE @4261 DATA
    _ZTSN4omni10orbOptions8BadParamE @4262 DATA
    _ZTSN4omni10tcpAddressE @4263 DATA
    _ZTSN4omni11IP4AddrInfoE @4264 DATA
    _ZTSN4omni11LibcWrapper8AddrInfoE @4265 DATA
    _ZTSN4omni11NCS_C_UTF_8E @4266 DATA
    _ZTSN4omni11TCS_C_UTF_8E @4267 DATA
    _ZTSN4omni11giopAddressE @4268 DATA
    _ZTSN4omni11giopMonitorE @4269 DATA
    _ZTSN4omni11helpHandlerE @4270 DATA
    _ZTSN4omni11omniCodeSet10NCS_C_8bitE @4271 DATA
    _ZTSN4omni11omniCodeSet10TCS_C_8bitE @4272 DATA
    _ZTSN4omni11omniCodeSet11NCS_W_16bitE @4273 DATA
    _ZTSN4omni11omniCodeSet11TCS_W_16bitE @4274 DATA
    _ZTSN4omni11omniCodeSet4BaseE @4275 DATA
    _ZTSN4omni11omniCodeSet5NCS_CE @4276 DATA
    _ZTSN4omni11omniCodeSet5NCS_WE @4277 DATA
    _ZTSN4omni11omniCodeSet5TCS_CE @4278 DATA
    _ZTSN4omni11omniCodeSet5TCS_WE @4279 DATA
    _ZTSN4omni11tcpEndpointE @4280 DATA
    _ZTSN4omni12NCS_W_UTF_16E @4281 DATA
    _ZTSN4omni12SocketHolderE @4282 DATA
    _ZTSN4omni12TCS_W_UTF_16E @4283 DATA
    _ZTSN4omni12giopEndpointE @4284 DATA
    _ZTSN4omni13iorURIHandlerE @4285 DATA
    _ZTSN4omni13tcpConnectionE @4286 DATA
    _ZTSN4omni14InitRefHandlerE @4287 DATA
    _ZTSN4omni14giopConnectionE @4288 DATA
    _ZTSN4omni14giopStreamListE @4289 DATA
    _ZTSN4omni14giopWorkerInfoE @4290 DATA
    _ZTSN4omni14lcdModeHandlerE @4291 DATA
    _ZTSN4omni14omniAnonObjRefE @4292 DATA
    _ZTSN4omni14omniObjAdapterE @4293 DATA
    _ZTSN4omni14transportRules4RuleE @4294 DATA
    _ZTSN4omni14transportRules8RuleTypeE @4295 DATA
    _ZTSN4omni15BiDirClientRopeE @4296 DATA
    _ZTSN4omni15BiDirServerRopeE @4297 DATA
    _ZTSN4omni15ORBAsyncInvokerE @4298 DATA
    _ZTSN4omni15builtinIPv4RuleE @4299 DATA
    _ZTSN4omni15builtinRuleTypeE @4300 DATA
    _ZTSN4omni15endpointHandlerE @4301 DATA
    _ZTSN4omni15omniInitialiserE @4302 DATA
    _ZTSN4omni16SocketCollectionE @4303 DATA
    _ZTSN4omni16giopRendezvouserE @4304 DATA
    _ZTSN4omni16omniInterceptors14createThread_T6info_TE @4305 DATA
    _ZTSN4omni16omniInterceptors20assignUpcallThread_T6info_TE @4306 DATA
    _ZTSN4omni16principalHandlerE @4307 DATA
    _ZTSN4omni16tcpTransportImplE @4308 DATA
    _ZTSN4omni17configFileHandlerE @4309 DATA
    _ZTSN4omni17giopTransportImplE @4310 DATA
    _ZTSN4omni17omniOrbPOACurrentE @4311 DATA
    _ZTSN4omni17omniOrbPOAManagerE @4312 DATA
    _ZTSN4omni17strictIIOPHandlerE @4313 DATA
    _ZTSN4omni18corbalocURIHandler10RirObjAddrE @4314 DATA
    _ZTSN4omni18corbalocURIHandler11IiopObjAddrE @4315 DATA
    _ZTSN4omni18corbalocURIHandler11UiopObjAddrE @4316 DATA
    _ZTSN4omni18corbalocURIHandler13SsliopObjAddrE @4317 DATA
    _ZTSN4omni18corbalocURIHandler7ObjAddrE @4318 DATA
    _ZTSN4omni18corbalocURIHandlerE @4319 DATA
    _ZTSN4omni18omniAnonObjRef_pofE @4320 DATA
    _ZTSN4omni18omni_is_a_CallDescE @4321 DATA
    _ZTSN4omni18proxyObjectFactoryE @4322 DATA
    _ZTSN4omni19builtinMatchAllRuleE @4323 DATA
    _ZTSN4omni19corbanameURIHandlerE @4324 DATA
    _ZTSN4omni19tcpActiveCollectionE @4325 DATA
    _ZTSN4omni19tcpActiveConnectionE @4326 DATA
    _ZTSN4omni19validateUTF8HandlerE @4327 DATA
    _ZTSN4omni20builtinLocalHostRuleE @4328 DATA
    _ZTSN4omni20giopActiveCollectionE @4329 DATA
    _ZTSN4omni20giopActiveConnectionE @4330 DATA
    _ZTSN4omni20maxSocketRecvHandlerE @4331 DATA
    _ZTSN4omni20maxSocketSendHandlerE @4332 DATA
    _ZTSN4omni20omni_ior_initialiserE @4333 DATA
    _ZTSN4omni20omni_poa_initialiserE @4334 DATA
    _ZTSN4omni20omni_uri_initialiserE @4335 DATA
    _ZTSN4omni20poa_iiop_portHandlerE @4336 DATA
    _ZTSN4omni20tcAliasExpandHandlerE @4337 DATA
    _ZTSN4omni21DefaultInitRefHandlerE @4338 DATA
    _ZTSN4omni21giopMaxMsgSizeHandlerE @4339 DATA
    _ZTSN4omni21maxGIOPVersionHandlerE @4340 DATA
    _ZTSN4omni21saTaskQueueAssignInfoE @4341 DATA
    _ZTSN4omni21saTaskQueueCreateInfoE @4342 DATA
    _ZTSN4omni22endpointPublishHandlerE @4343 DATA
    _ZTSN4omni22inConScanPeriodHandlerE @4344 DATA
    _ZTSN4omni22scanGranularityHandlerE @4345 DATA
    _ZTSN4omni23ValueIndirectionTrackerE @4346 DATA
    _ZTSN4omni23endpointNoListenHandlerE @4347 DATA
    _ZTSN4omni23omni_ObjRef_initialiserE @4348 DATA
    _ZTSN4omni23omni_hooked_initialiserE @4349 DATA
    _ZTSN4omni23omni_interface_CallDescE @4350 DATA
    _ZTSN4omni23outConScanPeriodHandlerE @4351 DATA
    _ZTSN4omni23socketSendBufferHandlerE @4352 DATA
    _ZTSN4omni24dumpConfigurationHandlerE @4353 DATA
    _ZTSN4omni24endpointNoPublishHandlerE @4354 DATA
    _ZTSN4omni24idleThreadTimeoutHandlerE @4355 DATA
    _ZTSN4omni24omni_codeSet_initialiserE @4356 DATA
    _ZTSN4omni24omni_invoker_initialiserE @4357 DATA
    _ZTSN4omni24omni_objadpt_initialiserE @4358 DATA
    _ZTSN4omni24omni_omniIOR_initialiserE @4359 DATA
    _ZTSN4omni25CORBA_InitialReferences_iE @4360 DATA
    _ZTSN4omni25bootstrapAgentPortHandlerE @4361 DATA
    _ZTSN4omni25omni_corbaOrb_initialiserE @4362 DATA
    _ZTSN4omni25omni_giopRope_initialiserE @4363 DATA
    _ZTSN4omni25omni_initRefs_initialiserE @4364 DATA
    _ZTSN4omni25poa_iiop_name_portHandlerE @4365 DATA
    _ZTSN4omni26clientTransportRuleHandlerE @4366 DATA
    _ZTSN4omni26immediateRopeSwitchHandlerE @4367 DATA
    _ZTSN4omni26omni_cdrStream_initialiserE @4368 DATA
    _ZTSN4omni26omni_giopbidir_initialiserE @4369 DATA
    _ZTSN4omni26omni_non_existent_CallDescE @4370 DATA
    _ZTSN4omni26serverTransportRuleHandlerE @4371 DATA
    _ZTSN4omni27omni_dynamiclib_initialiserE @4372 DATA
    _ZTSN4omni27omni_giopImpl10_initialiserE @4373 DATA
    _ZTSN4omni27omni_giopImpl11_initialiserE @4374 DATA
    _ZTSN4omni27omni_giopImpl12_initialiserE @4375 DATA
    _ZTSN4omni27omni_giopStrand_initialiserE @4376 DATA
    _ZTSN4omni27omni_giopserver_initialiserE @4377 DATA
    _ZTSN4omni27omni_orbOptions_initialiserE @4378 DATA
    _ZTSN4omni27oneCallPerConnectionHandlerE @4379 DATA
    _ZTSN4omni28connectionWatchPeriodHandlerE @4380 DATA
    _ZTSN4omni28endpointPublishAllIFsHandlerE @4381 DATA
    _ZTSN4omni28giopTargetAddressModeHandlerE @4382 DATA
    _ZTSN4omni28omni_interceptor_initialiserE @4383 DATA
    _ZTSN4omni28omni_omniCurrent_initialiserE @4384 DATA
    _ZTSN4omni28poaHoldRequestTimeoutHandlerE @4385 DATA
    _ZTSN4omni28resetTimeOutOnRetriesHandlerE @4386 DATA
    _ZTSN4omni28supportBootstrapAgentHandlerE @4387 DATA
    _ZTSN4omni29bootstrapAgentHostnameHandlerE @4388 DATA
    _ZTSN4omni29copyValuesInLocalCallsHandlerE @4389 DATA
    _ZTSN4omni29diiThrowsSysExceptionsHandlerE @4390 DATA
    _ZTSN4omni29offerBiDirectionalGIOPHandlerE @4391 DATA
    _ZTSN4omni29omniServantActivatorTaskQueue4TaskE @4392 DATA
    _ZTSN4omni29omniServantActivatorTaskQueueE @4393 DATA
    _ZTSN4omni29omni_giopEndpoint_initialiserE @4394 DATA
    _ZTSN4omni29omni_omniInternal_initialiserE @4395 DATA
    _ZTSN4omni29unixTransportDirectoryHandlerE @4396 DATA
    _ZTSN4omni30acceptBiDirectionalGIOPHandlerE @4397 DATA
    _ZTSN4omni30clientCallTimeOutPeriodHandlerE @4398 DATA
    _ZTSN4omni30maxServerThreadPoolSizeHandlerE @4399 DATA
    _ZTSN4omni30omni_omniTransport_initialiserE @4400 DATA
    _ZTSN4omni30serverCallTimeOutPeriodHandlerE @4401 DATA
    _ZTSN4omni30supportPerThreadTimeOutHandlerE @4402 DATA
    _ZTSN4omni30unixTransportPermissionHandlerE @4403 DATA
    _ZTSN4omni30useTypeCodeIndirectionsHandlerE @4404 DATA
    _ZTSN4omni31connectionWatchImmediateHandlerE @4405 DATA
    _ZTSN4omni31omni_giopStreamImpl_initialiserE @4406 DATA
    _ZTSN4omni31omni_transportRules_initialiserE @4407 DATA
    _ZTSN4omni32threadPerConnectionPolicyHandlerE @4408 DATA
    _ZTSN4omni32threadPoolWatchConnectionHandlerE @4409 DATA
    _ZTSN4omni32verifyObjectExistsAndTypeHandlerE @4410 DATA
    _ZTSN4omni33clientConnectTimeOutPeriodHandlerE @4411 DATA
    _ZTSN4omni33maxGIOPConnectionPerServerHandlerE @4412 DATA
    _ZTSN4omni35maxServerThreadPerConnectionHandlerE @4413 DATA
    _ZTSN4omni35poaUniquePersistentSystemIdsHandlerE @4414 DATA
    _ZTSN4omni36threadPerConnectionLowerLimitHandlerE @4415 DATA
    _ZTSN4omni36threadPerConnectionUpperLimitHandlerE @4416 DATA
    _ZTSN4omni37acceptMisalignedTcIndirectionsHandlerE @4417 DATA
    _ZTSN4omni39maxInterleavedCallsPerConnectionHandlerE @4418 DATA
    _ZTSN4omni4RopeE @4419 DATA
    _ZTSN4omni5IOP_CE @4420 DATA
    _ZTSN4omni5IOP_SE @4421 DATA
    _ZTSN4omni6GIOP_CE @4422 DATA
    _ZTSN4omni6GIOP_S19terminateProcessingE @4423 DATA
    _ZTSN4omni6GIOP_SE @4424 DATA
    _ZTSN4omni6StrandE @4425 DATA
    _ZTSN4omni7omniURI10URIHandlerE @4426 DATA
    _ZTSN4omni8RopeLinkE @4427 DATA
    _ZTSN4omni8giopRopeE @4428 DATA
    _ZTSN4omni9BiDirInfoE @4429 DATA
    _ZTSN4omni9ScavengerE @4430 DATA
    _ZTSN4omni9idHandlerE @4431 DATA
    _ZTSN4omni9orbServerE @4432 DATA
    _ZTSN5CORBA10INITIALIZEE @4433 DATA
    _ZTSN5CORBA10INTF_REPOSE @4434 DATA
    _ZTSN5CORBA10INV_OBJREFE @4435 DATA
    _ZTSN5CORBA10INV_POLICYE @4436 DATA
    _ZTSN5CORBA11BAD_CONTEXTE @4437 DATA
    _ZTSN5CORBA11LocalObjectE @4438 DATA
    _ZTSN5CORBA11NO_RESPONSEE @4439 DATA
    _ZTSN5CORBA11OBJ_ADAPTERE @4440 DATA
    _ZTSN5CORBA12BAD_TYPECODEE @4441 DATA
    _ZTSN5CORBA12COMM_FAILUREE @4442 DATA
    _ZTSN5CORBA12NO_IMPLEMENTE @4443 DATA
    _ZTSN5CORBA12NO_RESOURCESE @4444 DATA
    _ZTSN5CORBA13BAD_INV_ORDERE @4445 DATA
    _ZTSN5CORBA13BAD_OPERATIONE @4446 DATA
    _ZTSN5CORBA13NO_PERMISSIONE @4447 DATA
    _ZTSN5CORBA13PERSIST_STOREE @4448 DATA
    _ZTSN5CORBA13UserExceptionE @4449 DATA
    _ZTSN5CORBA15DATA_CONVERSIONE @4450 DATA
    _ZTSN5CORBA15SystemExceptionE @4451 DATA
    _ZTSN5CORBA16OBJECT_NOT_EXISTE @4452 DATA
    _ZTSN5CORBA16TRANSACTION_MODEE @4453 DATA
    _ZTSN5CORBA19INVALID_TRANSACTIONE @4454 DATA
    _ZTSN5CORBA20CODESET_INCOMPATIBLEE @4455 DATA
    _ZTSN5CORBA20TRANSACTION_REQUIREDE @4456 DATA
    _ZTSN5CORBA22TRANSACTION_ROLLEDBACKE @4457 DATA
    _ZTSN5CORBA23TRANSACTION_UNAVAILABLEE @4458 DATA
    _ZTSN5CORBA3BOAE @4459 DATA
    _ZTSN5CORBA3ORB11InvalidNameE @4460 DATA
    _ZTSN5CORBA3ORBE @4461 DATA
    _ZTSN5CORBA6ObjectE @4462 DATA
    _ZTSN5CORBA6PolicyE @4463 DATA
    _ZTSN5CORBA6REBINDE @4464 DATA
    _ZTSN5CORBA7BAD_QOSE @4465 DATA
    _ZTSN5CORBA7CurrentE @4466 DATA
    _ZTSN5CORBA7MARSHALE @4467 DATA
    _ZTSN5CORBA7TIMEOUTE @4468 DATA
    _ZTSN5CORBA7UNKNOWNE @4469 DATA
    _ZTSN5CORBA8FREE_MEME @4470 DATA
    _ZTSN5CORBA8INTERNALE @4471 DATA
    _ZTSN5CORBA8INV_FLAGE @4472 DATA
    _ZTSN5CORBA9BAD_PARAME @4473 DATA
    _ZTSN5CORBA9ExceptionE @4474 DATA
    _ZTSN5CORBA9IMP_LIMITE @4475 DATA
    _ZTSN5CORBA9INV_IDENTE @4476 DATA
    _ZTSN5CORBA9NO_MEMORYE @4477 DATA
    _ZTSN5CORBA9TRANSIENTE @4478 DATA
    _ZTSN7omniIOR12IORExtraInfoE @4479 DATA
    _ZTSN7omniORB14fatalExceptionE @4480 DATA
    _ZTSN7omniORB16LOCATION_FORWARDE @4481 DATA
    _ZTSN9CosNaming13NamingContext11InvalidNameE @4482 DATA
    _ZTSN9CosNaming13NamingContext12AlreadyBoundE @4483 DATA
    _ZTSN9CosNaming13NamingContext13CannotProceedE @4484 DATA
    _ZTSN9CosNaming13NamingContext8NotEmptyE @4485 DATA
    _ZTSN9CosNaming13NamingContext8NotFoundE @4486 DATA
    _ZTSN9CosNaming16NamingContextExt14InvalidAddressE @4487 DATA
    _ZTSN9CosNaming18_pof_NamingContextE @4488 DATA
    _ZTSN9CosNaming19_impl_NamingContextE @4489 DATA
    _ZTSN9CosNaming20_pof_BindingIteratorE @4490 DATA
    _ZTSN9CosNaming21_impl_BindingIteratorE @4491 DATA
    _ZTSN9CosNaming21_objref_NamingContextE @4492 DATA
    _ZTSN9CosNaming21_pof_NamingContextExtE @4493 DATA
    _ZTSN9CosNaming22_impl_NamingContextExtE @4494 DATA
    _ZTSN9CosNaming23_objref_BindingIteratorE @4495 DATA
    _ZTSN9CosNaming24_objref_NamingContextExtE @4496 DATA
    _ZTT17omniOrbBoaServant @4497 DATA
    _ZTT27POA_CORBA_InitialReferences @4498 DATA
    _ZTT29_impl_CORBA_InitialReferences @4499 DATA
    _ZTT31_objref_CORBA_InitialReferences @4500 DATA
    _ZTTN10omniPolicy19LocalShortcutPolicyE @4501 DATA
    _ZTTN11BiDirPolicy19BidirectionalPolicyE @4502 DATA
    _ZTTN13POA_CosNaming13NamingContextE @4503 DATA
    _ZTTN13POA_CosNaming15BindingIteratorE @4504 DATA
    _ZTTN13POA_CosNaming16NamingContextExtE @4505 DATA
    _ZTTN14PortableServer11ServantBaseE @4506 DATA
    _ZTTN14PortableServer12ThreadPolicyE @4507 DATA
    _ZTTN14PortableServer14LifespanPolicyE @4508 DATA
    _ZTTN14PortableServer14ServantLocatorE @4509 DATA
    _ZTTN14PortableServer14ServantManagerE @4510 DATA
    _ZTTN14PortableServer16AdapterActivatorE @4511 DATA
    _ZTTN14PortableServer16ServantActivatorE @4512 DATA
    _ZTTN14PortableServer18IdAssignmentPolicyE @4513 DATA
    _ZTTN14PortableServer18IdUniquenessPolicyE @4514 DATA
    _ZTTN14PortableServer20_impl_ServantLocatorE @4515 DATA
    _ZTTN14PortableServer20_impl_ServantManagerE @4516 DATA
    _ZTTN14PortableServer22ServantRetentionPolicyE @4517 DATA
    _ZTTN14PortableServer22_impl_AdapterActivatorE @4518 DATA
    _ZTTN14PortableServer22_impl_ServantActivatorE @4519 DATA
    _ZTTN14PortableServer22_objref_ServantLocatorE @4520 DATA
    _ZTTN14PortableServer22_objref_ServantManagerE @4521 DATA
    _ZTTN14PortableServer23RequestProcessingPolicyE @4522 DATA
    _ZTTN14PortableServer24ImplicitActivationPolicyE @4523 DATA
    _ZTTN14PortableServer24_objref_AdapterActivatorE @4524 DATA
    _ZTTN14PortableServer24_objref_ServantActivatorE @4525 DATA
    _ZTTN18POA_PortableServer14ServantLocatorE @4526 DATA
    _ZTTN18POA_PortableServer14ServantManagerE @4527 DATA
    _ZTTN18POA_PortableServer16AdapterActivatorE @4528 DATA
    _ZTTN18POA_PortableServer16ServantActivatorE @4529 DATA
    _ZTTN4omni14omniAnonObjRefE @4530 DATA
    _ZTTN4omni25CORBA_InitialReferences_iE @4531 DATA
    _ZTTN5CORBA11LocalObjectE @4532 DATA
    _ZTTN5CORBA6PolicyE @4533 DATA
    _ZTTN9CosNaming19_impl_NamingContextE @4534 DATA
    _ZTTN9CosNaming21_impl_BindingIteratorE @4535 DATA
    _ZTTN9CosNaming21_objref_NamingContextE @4536 DATA
    _ZTTN9CosNaming22_impl_NamingContextExtE @4537 DATA
    _ZTTN9CosNaming23_objref_BindingIteratorE @4538 DATA
    _ZTTN9CosNaming24_objref_NamingContextExtE @4539 DATA
    _ZTV10omniObjRef @4540 DATA
    _ZTV10omniOrbORB @4541 DATA
    _ZTV11omniCurrent @4542 DATA
    _ZTV11omniServant @4543 DATA
    _ZTV12omniIdentity @4544 DATA
    _ZTV14omniNilCurrent @4545 DATA
    _ZTV15cdrMemoryStream @4546 DATA
    _ZTV15omniAsyncWorker @4547 DATA
    _ZTV16cdrStreamAdapter @4548 DATA
    _ZTV16omniAsyncInvoker @4549 DATA
    _ZTV16omniEtherealiser @4550 DATA
    _ZTV16traceFileHandler @4551 DATA
    _ZTV16traceTimeHandler @4552 DATA
    _ZTV17cdrCountingStream @4553 DATA
    _ZTV17omniLocalIdentity @4554 DATA
    _ZTV17omniObjTableEntry @4555 DATA
    _ZTV17omniOrbBoaServant @4556 DATA
    _ZTV17traceLevelHandler @4557 DATA
    _ZTV18omniCallDescriptor @4558 DATA
    _ZTV18omniRemoteIdentity @4559 DATA
    _ZTV19cdrValueChunkStream @4560 DATA
    _ZTV19omniAsyncWorkerInfo @4561 DATA
    _ZTV20omniShutdownIdentity @4562 DATA
    _ZTV20traceThreadIdHandler @4563 DATA
    _ZTV21omniInProcessIdentity @4564 DATA
    _ZTV21supportCurrentHandler @4565 DATA
    _ZTV22cdrEncapsulationStream @4566 DATA
    _ZTV22objectTableSizeHandler @4567 DATA
    _ZTV22traceExceptionsHandler @4568 DATA
    _ZTV23traceInvocationsHandler @4569 DATA
    _ZTV24nativeCharCodeSetHandler @4570 DATA
    _ZTV25nativeWCharCodeSetHandler @4571 DATA
    _ZTV27POA_CORBA_InitialReferences @4572 DATA
    _ZTV27abortOnInternalErrorHandler @4573 DATA
    _ZTV27omniLocalOnlyCallDescriptor @4574 DATA
    _ZTV28_pof_CORBA_InitialReferences @4575 DATA
    _ZTV29_impl_CORBA_InitialReferences @4576 DATA
    _ZTV29abortOnNativeExceptionHandler @4577 DATA
    _ZTV29traceInvocationReturnsHandler @4578 DATA
    _ZTV31_objref_CORBA_InitialReferences @4579 DATA
    _ZTV33_0RL_cd_3c165f58b5a16b59_00000000 @4580 DATA
    _ZTV33_0RL_cd_3c165f58b5a16b59_20000000 @4581 DATA
    _ZTV33_0RL_cd_3c165f58b5a16b59_40000000 @4582 DATA
    _ZTV33_0RL_cd_3c165f58b5a16b59_60000000 @4583 DATA
    _ZTV33_0RL_cd_3c165f58b5a16b59_80000000 @4584 DATA
    _ZTV33_0RL_cd_69CECA6A39F685B5_00000000 @4585 DATA
    _ZTV33_0RL_cd_69CECA6A39F685B5_01000000 @4586 DATA
    _ZTV33_0RL_cd_69CECA6A39F685B5_02000000 @4587 DATA
    _ZTV33_0RL_cd_69CECA6A39F685B5_20000000 @4588 DATA
    _ZTV33_0RL_cd_69CECA6A39F685B5_21000000 @4589 DATA
    _ZTV33_0RL_cd_69CECA6A39F685B5_40000000 @4590 DATA
    _ZTV33_0RL_cd_69CECA6A39F685B5_41000000 @4591 DATA
    _ZTV33_0RL_cd_69CECA6A39F685B5_60000000 @4592 DATA
    _ZTV33_0RL_cd_69CECA6A39F685B5_61000000 @4593 DATA
    _ZTV33_0RL_cd_69CECA6A39F685B5_80000000 @4594 DATA
    _ZTV33_0RL_cd_69CECA6A39F685B5_81000000 @4595 DATA
    _ZTV33_0RL_cd_69CECA6A39F685B5_a0000000 @4596 DATA
    _ZTV33_0RL_cd_69CECA6A39F685B5_a1000000 @4597 DATA
    _ZTV33_0RL_cd_69CECA6A39F685B5_c0000000 @4598 DATA
    _ZTV33_0RL_cd_69CECA6A39F685B5_c1000000 @4599 DATA
    _ZTV33_0RL_cd_69CECA6A39F685B5_e0000000 @4600 DATA
    _ZTV33_0RL_cd_69CECA6A39F685B5_e1000000 @4601 DATA
    _ZTV33_0RL_cd_96F078E2247AB9DA_00000000 @4602 DATA
    _ZTV33_0RL_cd_96F078E2247AB9DA_20000000 @4603 DATA
    _ZTV8omniTask @4604 DATA
    _ZTV9cdrStream @4605 DATA
    _ZTVN10omniPolicy19LocalShortcutPolicyE @4606 DATA
    _ZTVN11BiDirPolicy19BidirectionalPolicyE @4607 DATA
    _ZTVN11omni_thread7value_tE @4608 DATA
    _ZTVN13POA_CosNaming13NamingContextE @4609 DATA
    _ZTVN13POA_CosNaming15BindingIteratorE @4610 DATA
    _ZTVN13POA_CosNaming16NamingContextExtE @4611 DATA
    _ZTVN14PortableServer10POAManager15AdapterInactiveE @4612 DATA
    _ZTVN14PortableServer10POAManagerE @4613 DATA
    _ZTVN14PortableServer11ServantBaseE @4614 DATA
    _ZTVN14PortableServer12ThreadPolicyE @4615 DATA
    _ZTVN14PortableServer14ForwardRequestE @4616 DATA
    _ZTVN14PortableServer14LifespanPolicyE @4617 DATA
    _ZTVN14PortableServer14ServantLocatorE @4618 DATA
    _ZTVN14PortableServer14ServantManagerE @4619 DATA
    _ZTVN14PortableServer16AdapterActivatorE @4620 DATA
    _ZTVN14PortableServer16ServantActivatorE @4621 DATA
    _ZTVN14PortableServer18IdAssignmentPolicyE @4622 DATA
    _ZTVN14PortableServer18IdUniquenessPolicyE @4623 DATA
    _ZTVN14PortableServer19_pof_ServantLocatorE @4624 DATA
    _ZTVN14PortableServer19_pof_ServantManagerE @4625 DATA
    _ZTVN14PortableServer20_impl_ServantLocatorE @4626 DATA
    _ZTVN14PortableServer20_impl_ServantManagerE @4627 DATA
    _ZTVN14PortableServer21_pof_AdapterActivatorE @4628 DATA
    _ZTVN14PortableServer21_pof_ServantActivatorE @4629 DATA
    _ZTVN14PortableServer22ServantRetentionPolicyE @4630 DATA
    _ZTVN14PortableServer22_impl_AdapterActivatorE @4631 DATA
    _ZTVN14PortableServer22_impl_ServantActivatorE @4632 DATA
    _ZTVN14PortableServer22_objref_ServantLocatorE @4633 DATA
    _ZTVN14PortableServer22_objref_ServantManagerE @4634 DATA
    _ZTVN14PortableServer23RequestProcessingPolicyE @4635 DATA
    _ZTVN14PortableServer24ImplicitActivationPolicyE @4636 DATA
    _ZTVN14PortableServer24_objref_AdapterActivatorE @4637 DATA
    _ZTVN14PortableServer24_objref_ServantActivatorE @4638 DATA
    _ZTVN14PortableServer3POA11WrongPolicyE @4639 DATA
    _ZTVN14PortableServer3POA12WrongAdapterE @4640 DATA
    _ZTVN14PortableServer3POA13InvalidPolicyE @4641 DATA
    _ZTVN14PortableServer3POA15AdapterInactiveE @4642 DATA
    _ZTVN14PortableServer3POA15ObjectNotActiveE @4643 DATA
    _ZTVN14PortableServer3POA16ServantNotActiveE @4644 DATA
    _ZTVN14PortableServer3POA18AdapterNonExistentE @4645 DATA
    _ZTVN14PortableServer3POA19ObjectAlreadyActiveE @4646 DATA
    _ZTVN14PortableServer3POA20AdapterAlreadyExistsE @4647 DATA
    _ZTVN14PortableServer3POA20ServantAlreadyActiveE @4648 DATA
    _ZTVN14PortableServer3POA9NoServantE @4649 DATA
    _ZTVN14PortableServer3POAE @4650 DATA
    _ZTVN14PortableServer7Current9NoContextE @4651 DATA
    _ZTVN14PortableServer7CurrentE @4652 DATA
    _ZTVN14omniCallHandle14PostInvokeHookE @4653 DATA
    _ZTVN15omniStdCallDesc25_cCORBA_mObject_i_cstringE @4654 DATA
    _ZTVN18POA_PortableServer14ServantLocatorE @4655 DATA
    _ZTVN18POA_PortableServer14ServantManagerE @4656 DATA
    _ZTVN18POA_PortableServer16AdapterActivatorE @4657 DATA
    _ZTVN18POA_PortableServer16ServantActivatorE @4658 DATA
    _ZTVN4omni10giopServerE @4659 DATA
    _ZTVN4omni10giopStrandE @4660 DATA
    _ZTVN4omni10giopStreamE @4661 DATA
    _ZTVN4omni10giopWorkerE @4662 DATA
    _ZTVN4omni10omniOrbBOAE @4663 DATA
    _ZTVN4omni10omniOrbPOA16SLPostInvokeHookE @4664 DATA
    _ZTVN4omni10omniOrbPOAE @4665 DATA
    _ZTVN4omni10orbOptions7HandlerE @4666 DATA
    _ZTVN4omni10tcpAddressE @4667 DATA
    _ZTVN4omni11IP4AddrInfoE @4668 DATA
    _ZTVN4omni11LibcWrapper8AddrInfoE @4669 DATA
    _ZTVN4omni11NCS_C_UTF_8E @4670 DATA
    _ZTVN4omni11TCS_C_UTF_8E @4671 DATA
    _ZTVN4omni11giopAddressE @4672 DATA
    _ZTVN4omni11giopMonitorE @4673 DATA
    _ZTVN4omni11helpHandlerE @4674 DATA
    _ZTVN4omni11omniCodeSet10NCS_C_8bitE @4675 DATA
    _ZTVN4omni11omniCodeSet10TCS_C_8bitE @4676 DATA
    _ZTVN4omni11omniCodeSet11NCS_W_16bitE @4677 DATA
    _ZTVN4omni11omniCodeSet11TCS_W_16bitE @4678 DATA
    _ZTVN4omni11omniCodeSet4BaseE @4679 DATA
    _ZTVN4omni11omniCodeSet5NCS_CE @4680 DATA
    _ZTVN4omni11omniCodeSet5NCS_WE @4681 DATA
    _ZTVN4omni11omniCodeSet5TCS_CE @4682 DATA
    _ZTVN4omni11omniCodeSet5TCS_WE @4683 DATA
    _ZTVN4omni11tcpEndpointE @4684 DATA
    _ZTVN4omni12NCS_W_UTF_16E @4685 DATA
    _ZTVN4omni12SocketHolderE @4686 DATA
    _ZTVN4omni12TCS_W_UTF_16E @4687 DATA
    _ZTVN4omni12giopEndpointE @4688 DATA
    _ZTVN4omni13iorURIHandlerE @4689 DATA
    _ZTVN4omni13tcpConnectionE @4690 DATA
    _ZTVN4omni14InitRefHandlerE @4691 DATA
    _ZTVN4omni14giopConnectionE @4692 DATA
    _ZTVN4omni14giopWorkerInfoE @4693 DATA
    _ZTVN4omni14lcdModeHandlerE @4694 DATA
    _ZTVN4omni14omniAnonObjRefE @4695 DATA
    _ZTVN4omni14omniObjAdapterE @4696 DATA
    _ZTVN4omni14transportRules4RuleE @4697 DATA
    _ZTVN4omni14transportRules8RuleTypeE @4698 DATA
    _ZTVN4omni15BiDirClientRopeE @4699 DATA
    _ZTVN4omni15BiDirServerRopeE @4700 DATA
    _ZTVN4omni15ORBAsyncInvokerE @4701 DATA
    _ZTVN4omni15builtinIPv4RuleE @4702 DATA
    _ZTVN4omni15builtinRuleTypeE @4703 DATA
    _ZTVN4omni15endpointHandlerE @4704 DATA
    _ZTVN4omni15omniInitialiserE @4705 DATA
    _ZTVN4omni16SocketCollectionE @4706 DATA
    _ZTVN4omni16giopRendezvouserE @4707 DATA
    _ZTVN4omni16omniInterceptors14createThread_T6info_TE @4708 DATA
    _ZTVN4omni16omniInterceptors20assignUpcallThread_T6info_TE @4709 DATA
    _ZTVN4omni16principalHandlerE @4710 DATA
    _ZTVN4omni16tcpTransportImplE @4711 DATA
    _ZTVN4omni17configFileHandlerE @4712 DATA
    _ZTVN4omni17giopTransportImplE @4713 DATA
    _ZTVN4omni17omniOrbPOACurrentE @4714 DATA
    _ZTVN4omni17omniOrbPOAManagerE @4715 DATA
    _ZTVN4omni17strictIIOPHandlerE @4716 DATA
    _ZTVN4omni18corbalocURIHandler10RirObjAddrE @4717 DATA
    _ZTVN4omni18corbalocURIHandler11IiopObjAddrE @4718 DATA
    _ZTVN4omni18corbalocURIHandler11UiopObjAddrE @4719 DATA
    _ZTVN4omni18corbalocURIHandler13SsliopObjAddrE @4720 DATA
    _ZTVN4omni18corbalocURIHandler7ObjAddrE @4721 DATA
    _ZTVN4omni18corbalocURIHandlerE @4722 DATA
    _ZTVN4omni18omniAnonObjRef_pofE @4723 DATA
    _ZTVN4omni18omni_is_a_CallDescE @4724 DATA
    _ZTVN4omni18proxyObjectFactoryE @4725 DATA
    _ZTVN4omni19builtinMatchAllRuleE @4726 DATA
    _ZTVN4omni19corbanameURIHandlerE @4727 DATA
    _ZTVN4omni19tcpActiveCollectionE @4728 DATA
    _ZTVN4omni19tcpActiveConnectionE @4729 DATA
    _ZTVN4omni19validateUTF8HandlerE @4730 DATA
    _ZTVN4omni20builtinLocalHostRuleE @4731 DATA
    _ZTVN4omni20giopActiveCollectionE @4732 DATA
    _ZTVN4omni20giopActiveConnectionE @4733 DATA
    _ZTVN4omni20maxSocketRecvHandlerE @4734 DATA
    _ZTVN4omni20maxSocketSendHandlerE @4735 DATA
    _ZTVN4omni20omni_ior_initialiserE @4736 DATA
    _ZTVN4omni20omni_poa_initialiserE @4737 DATA
    _ZTVN4omni20omni_uri_initialiserE @4738 DATA
    _ZTVN4omni20poa_iiop_portHandlerE @4739 DATA
    _ZTVN4omni20tcAliasExpandHandlerE @4740 DATA
    _ZTVN4omni21DefaultInitRefHandlerE @4741 DATA
    _ZTVN4omni21giopMaxMsgSizeHandlerE @4742 DATA
    _ZTVN4omni21maxGIOPVersionHandlerE @4743 DATA
    _ZTVN4omni21saTaskQueueAssignInfoE @4744 DATA
    _ZTVN4omni21saTaskQueueCreateInfoE @4745 DATA
    _ZTVN4omni22endpointPublishHandlerE @4746 DATA
    _ZTVN4omni22inConScanPeriodHandlerE @4747 DATA
    _ZTVN4omni22scanGranularityHandlerE @4748 DATA
    _ZTVN4omni23ValueIndirectionTrackerE @4749 DATA
    _ZTVN4omni23endpointNoListenHandlerE @4750 DATA
    _ZTVN4omni23omni_ObjRef_initialiserE @4751 DATA
    _ZTVN4omni23omni_hooked_initialiserE @4752 DATA
    _ZTVN4omni23omni_interface_CallDescE @4753 DATA
    _ZTVN4omni23outConScanPeriodHandlerE @4754 DATA
    _ZTVN4omni23socketSendBufferHandlerE @4755 DATA
    _ZTVN4omni24dumpConfigurationHandlerE @4756 DATA
    _ZTVN4omni24endpointNoPublishHandlerE @4757 DATA
    _ZTVN4omni24idleThreadTimeoutHandlerE @4758 DATA
    _ZTVN4omni24omni_codeSet_initialiserE @4759 DATA
    _ZTVN4omni24omni_invoker_initialiserE @4760 DATA
    _ZTVN4omni24omni_objadpt_initialiserE @4761 DATA
    _ZTVN4omni24omni_omniIOR_initialiserE @4762 DATA
    _ZTVN4omni25CORBA_InitialReferences_iE @4763 DATA
    _ZTVN4omni25bootstrapAgentPortHandlerE @4764 DATA
    _ZTVN4omni25omni_corbaOrb_initialiserE @4765 DATA
    _ZTVN4omni25omni_giopRope_initialiserE @4766 DATA
    _ZTVN4omni25omni_initRefs_initialiserE @4767 DATA
    _ZTVN4omni25poa_iiop_name_portHandlerE @4768 DATA
    _ZTVN4omni26clientTransportRuleHandlerE @4769 DATA
    _ZTVN4omni26immediateRopeSwitchHandlerE @4770 DATA
    _ZTVN4omni26omni_cdrStream_initialiserE @4771 DATA
    _ZTVN4omni26omni_giopbidir_initialiserE @4772 DATA
    _ZTVN4omni26omni_non_existent_CallDescE @4773 DATA
    _ZTVN4omni26serverTransportRuleHandlerE @4774 DATA
    _ZTVN4omni27omni_dynamiclib_initialiserE @4775 DATA
    _ZTVN4omni27omni_giopImpl10_initialiserE @4776 DATA
    _ZTVN4omni27omni_giopImpl11_initialiserE @4777 DATA
    _ZTVN4omni27omni_giopImpl12_initialiserE @4778 DATA
    _ZTVN4omni27omni_giopStrand_initialiserE @4779 DATA
    _ZTVN4omni27omni_giopserver_initialiserE @4780 DATA
    _ZTVN4omni27omni_orbOptions_initialiserE @4781 DATA
    _ZTVN4omni27oneCallPerConnectionHandlerE @4782 DATA
    _ZTVN4omni28connectionWatchPeriodHandlerE @4783 DATA
    _ZTVN4omni28endpointPublishAllIFsHandlerE @4784 DATA
    _ZTVN4omni28giopTargetAddressModeHandlerE @4785 DATA
    _ZTVN4omni28omni_interceptor_initialiserE @4786 DATA
    _ZTVN4omni28omni_omniCurrent_initialiserE @4787 DATA
    _ZTVN4omni28poaHoldRequestTimeoutHandlerE @4788 DATA
    _ZTVN4omni28resetTimeOutOnRetriesHandlerE @4789 DATA
    _ZTVN4omni28supportBootstrapAgentHandlerE @4790 DATA
    _ZTVN4omni29bootstrapAgentHostnameHandlerE @4791 DATA
    _ZTVN4omni29copyValuesInLocalCallsHandlerE @4792 DATA
    _ZTVN4omni29diiThrowsSysExceptionsHandlerE @4793 DATA
    _ZTVN4omni29offerBiDirectionalGIOPHandlerE @4794 DATA
    _ZTVN4omni29omniServantActivatorTaskQueue4TaskE @4795 DATA
    _ZTVN4omni29omniServantActivatorTaskQueueE @4796 DATA
    _ZTVN4omni29omni_giopEndpoint_initialiserE @4797 DATA
    _ZTVN4omni29omni_omniInternal_initialiserE @4798 DATA
    _ZTVN4omni29unixTransportDirectoryHandlerE @4799 DATA
    _ZTVN4omni30acceptBiDirectionalGIOPHandlerE @4800 DATA
    _ZTVN4omni30clientCallTimeOutPeriodHandlerE @4801 DATA
    _ZTVN4omni30maxServerThreadPoolSizeHandlerE @4802 DATA
    _ZTVN4omni30omni_omniTransport_initialiserE @4803 DATA
    _ZTVN4omni30serverCallTimeOutPeriodHandlerE @4804 DATA
    _ZTVN4omni30supportPerThreadTimeOutHandlerE @4805 DATA
    _ZTVN4omni30unixTransportPermissionHandlerE @4806 DATA
    _ZTVN4omni30useTypeCodeIndirectionsHandlerE @4807 DATA
    _ZTVN4omni31connectionWatchImmediateHandlerE @4808 DATA
    _ZTVN4omni31omni_giopStreamImpl_initialiserE @4809 DATA
    _ZTVN4omni31omni_transportRules_initialiserE @4810 DATA
    _ZTVN4omni32threadPerConnectionPolicyHandlerE @4811 DATA
    _ZTVN4omni32threadPoolWatchConnectionHandlerE @4812 DATA
    _ZTVN4omni32verifyObjectExistsAndTypeHandlerE @4813 DATA
    _ZTVN4omni33clientConnectTimeOutPeriodHandlerE @4814 DATA
    _ZTVN4omni33maxGIOPConnectionPerServerHandlerE @4815 DATA
    _ZTVN4omni35maxServerThreadPerConnectionHandlerE @4816 DATA
    _ZTVN4omni35poaUniquePersistentSystemIdsHandlerE @4817 DATA
    _ZTVN4omni36threadPerConnectionLowerLimitHandlerE @4818 DATA
    _ZTVN4omni36threadPerConnectionUpperLimitHandlerE @4819 DATA
    _ZTVN4omni37acceptMisalignedTcIndirectionsHandlerE @4820 DATA
    _ZTVN4omni39maxInterleavedCallsPerConnectionHandlerE @4821 DATA
    _ZTVN4omni4RopeE @4822 DATA
    _ZTVN4omni5IOP_CE @4823 DATA
    _ZTVN4omni5IOP_SE @4824 DATA
    _ZTVN4omni6GIOP_CE @4825 DATA
    _ZTVN4omni6GIOP_SE @4826 DATA
    _ZTVN4omni6StrandE @4827 DATA
    _ZTVN4omni7omniURI10URIHandlerE @4828 DATA
    _ZTVN4omni8giopRopeE @4829 DATA
    _ZTVN4omni9BiDirInfoE @4830 DATA
    _ZTVN4omni9ScavengerE @4831 DATA
    _ZTVN4omni9idHandlerE @4832 DATA
    _ZTVN4omni9orbServerE @4833 DATA
    _ZTVN5CORBA10INITIALIZEE @4834 DATA
    _ZTVN5CORBA10INTF_REPOSE @4835 DATA
    _ZTVN5CORBA10INV_OBJREFE @4836 DATA
    _ZTVN5CORBA10INV_POLICYE @4837 DATA
    _ZTVN5CORBA11BAD_CONTEXTE @4838 DATA
    _ZTVN5CORBA11LocalObjectE @4839 DATA
    _ZTVN5CORBA11NO_RESPONSEE @4840 DATA
    _ZTVN5CORBA11OBJ_ADAPTERE @4841 DATA
    _ZTVN5CORBA12BAD_TYPECODEE @4842 DATA
    _ZTVN5CORBA12COMM_FAILUREE @4843 DATA
    _ZTVN5CORBA12NO_IMPLEMENTE @4844 DATA
    _ZTVN5CORBA12NO_RESOURCESE @4845 DATA
    _ZTVN5CORBA13BAD_INV_ORDERE @4846 DATA
    _ZTVN5CORBA13BAD_OPERATIONE @4847 DATA
    _ZTVN5CORBA13NO_PERMISSIONE @4848 DATA
    _ZTVN5CORBA13PERSIST_STOREE @4849 DATA
    _ZTVN5CORBA13UserExceptionE @4850 DATA
    _ZTVN5CORBA15DATA_CONVERSIONE @4851 DATA
    _ZTVN5CORBA15SystemExceptionE @4852 DATA
    _ZTVN5CORBA16OBJECT_NOT_EXISTE @4853 DATA
    _ZTVN5CORBA16TRANSACTION_MODEE @4854 DATA
    _ZTVN5CORBA19INVALID_TRANSACTIONE @4855 DATA
    _ZTVN5CORBA20CODESET_INCOMPATIBLEE @4856 DATA
    _ZTVN5CORBA20TRANSACTION_REQUIREDE @4857 DATA
    _ZTVN5CORBA22TRANSACTION_ROLLEDBACKE @4858 DATA
    _ZTVN5CORBA23TRANSACTION_UNAVAILABLEE @4859 DATA
    _ZTVN5CORBA3BOAE @4860 DATA
    _ZTVN5CORBA3ORB11InvalidNameE @4861 DATA
    _ZTVN5CORBA3ORBE @4862 DATA
    _ZTVN5CORBA6ObjectE @4863 DATA
    _ZTVN5CORBA6PolicyE @4864 DATA
    _ZTVN5CORBA6REBINDE @4865 DATA
    _ZTVN5CORBA7BAD_QOSE @4866 DATA
    _ZTVN5CORBA7CurrentE @4867 DATA
    _ZTVN5CORBA7MARSHALE @4868 DATA
    _ZTVN5CORBA7TIMEOUTE @4869 DATA
    _ZTVN5CORBA7UNKNOWNE @4870 DATA
    _ZTVN5CORBA8FREE_MEME @4871 DATA
    _ZTVN5CORBA8INTERNALE @4872 DATA
    _ZTVN5CORBA8INV_FLAGE @4873 DATA
    _ZTVN5CORBA9BAD_PARAME @4874 DATA
    _ZTVN5CORBA9ExceptionE @4875 DATA
    _ZTVN5CORBA9IMP_LIMITE @4876 DATA
    _ZTVN5CORBA9INV_IDENTE @4877 DATA
    _ZTVN5CORBA9NO_MEMORYE @4878 DATA
    _ZTVN5CORBA9TRANSIENTE @4879 DATA
    _ZTVN7omniIOR12IORExtraInfoE @4880 DATA
    _ZTVN9CosNaming13NamingContext11InvalidNameE @4881 DATA
    _ZTVN9CosNaming13NamingContext12AlreadyBoundE @4882 DATA
    _ZTVN9CosNaming13NamingContext13CannotProceedE @4883 DATA
    _ZTVN9CosNaming13NamingContext8NotEmptyE @4884 DATA
    _ZTVN9CosNaming13NamingContext8NotFoundE @4885 DATA
    _ZTVN9CosNaming16NamingContextExt14InvalidAddressE @4886 DATA
    _ZTVN9CosNaming18_pof_NamingContextE @4887 DATA
    _ZTVN9CosNaming19_impl_NamingContextE @4888 DATA
    _ZTVN9CosNaming20_pof_BindingIteratorE @4889 DATA
    _ZTVN9CosNaming21_impl_BindingIteratorE @4890 DATA
    _ZTVN9CosNaming21_objref_NamingContextE @4891 DATA
    _ZTVN9CosNaming21_pof_NamingContextExtE @4892 DATA
    _ZTVN9CosNaming22_impl_NamingContextExtE @4893 DATA
    _ZTVN9CosNaming23_objref_BindingIteratorE @4894 DATA
    _ZTVN9CosNaming24_objref_NamingContextExtE @4895 DATA
    _ZThn12_N4omni10omniOrbBOA11_ptrToClassEPi @4896
    _ZThn12_N4omni10omniOrbBOA12decrRefCountEv @4897
    _ZThn12_N4omni10omniOrbBOA12incrRefCountEv @4898
    _ZThn12_N4omni10omniOrbBOA12objectExistsEPKhi @4899
    _ZThn12_N4omni10omniOrbBOA26lastInvocationHasCompletedEP17omniLocalIdentity @4900
    _ZThn12_N4omni10omniOrbBOA8dispatchER14omniCallHandleP17omniLocalIdentity @4901
    _ZThn12_N4omni10omniOrbBOA8dispatchER14omniCallHandlePKhi @4902
    _ZThn12_N4omni10omniOrbBOA8dispatchER18omniCallDescriptorP17omniLocalIdentity @4903
    _ZThn12_N4omni10omniOrbBOAD0Ev @4904
    _ZThn12_N4omni10omniOrbBOAD1Ev @4905
    _ZThn12_N4omni10omniOrbPOA11_ptrToClassEPi @4906
    _ZThn12_N4omni10omniOrbPOA12decrRefCountEv @4907
    _ZThn12_N4omni10omniOrbPOA12incrRefCountEv @4908
    _ZThn12_N4omni10omniOrbPOA12objectExistsEPKhi @4909
    _ZThn12_N4omni10omniOrbPOA26lastInvocationHasCompletedEP17omniLocalIdentity @4910
    _ZThn12_N4omni10omniOrbPOA8dispatchER14omniCallHandleP17omniLocalIdentity @4911
    _ZThn12_N4omni10omniOrbPOA8dispatchER14omniCallHandlePKhi @4912
    _ZThn12_N4omni10omniOrbPOA8dispatchER18omniCallDescriptorP17omniLocalIdentity @4913
    _ZThn12_N4omni10omniOrbPOAD0Ev @4914
    _ZThn12_N4omni10omniOrbPOAD1Ev @4915
    _ZThn16496_N4omni11tcpEndpointD0Ev @4916
    _ZThn16496_N4omni11tcpEndpointD1Ev @4917
    _ZThn24_N4omni13tcpConnectionD0Ev @4918
    _ZThn24_N4omni13tcpConnectionD1Ev @4919
    _ZThn28_N4omni19tcpActiveConnectionD0Ev @4920
    _ZThn28_N4omni19tcpActiveConnectionD1Ev @4921
    _ZThn4_N4omni19tcpActiveCollection14notifyReadableEPNS_12SocketHolderE @4922
    _ZThn4_N4omni19tcpActiveCollectionD0Ev @4923
    _ZThn4_N4omni19tcpActiveCollectionD1Ev @4924
    _ZThn4_N4omni19tcpActiveConnectionD0Ev @4925
    _ZThn4_N4omni19tcpActiveConnectionD1Ev @4926
    _ZThn4_N4omni6GIOP_C10completionEv @4927
    _ZThn4_N4omni6GIOP_C10ptrToClassEPi @4928
    _ZThn4_N4omni6GIOP_C17notifyCommFailureEbRmRb @4929
    _ZThn4_N4omni6GIOP_CD0Ev @4930
    _ZThn4_N4omni6GIOP_CD1Ev @4931
    _ZThn4_N4omni6GIOP_S10completionEv @4932
    _ZThn4_N4omni6GIOP_S10ptrToClassEPi @4933
    _ZThn4_N4omni6GIOP_S17notifyCommFailureEbRmRb @4934
    _ZThn4_N4omni6GIOP_SD0Ev @4935
    _ZThn4_N4omni6GIOP_SD1Ev @4936
    _ZThn8_N4omni11tcpEndpoint14notifyReadableEPNS_12SocketHolderE @4937
    _ZThn8_N4omni11tcpEndpointD0Ev @4938
    _ZThn8_N4omni11tcpEndpointD1Ev @4939
    _ZTv0_n12_N10omniPolicy19LocalShortcutPolicyD0Ev @4940
    _ZTv0_n12_N10omniPolicy19LocalShortcutPolicyD1Ev @4941
    _ZTv0_n12_N11BiDirPolicy19BidirectionalPolicyD0Ev @4942
    _ZTv0_n12_N11BiDirPolicy19BidirectionalPolicyD1Ev @4943
    _ZTv0_n12_N13POA_CosNaming13NamingContextD0Ev @4944
    _ZTv0_n12_N13POA_CosNaming13NamingContextD1Ev @4945
    _ZTv0_n12_N13POA_CosNaming15BindingIteratorD0Ev @4946
    _ZTv0_n12_N13POA_CosNaming15BindingIteratorD1Ev @4947
    _ZTv0_n12_N13POA_CosNaming16NamingContextExtD0Ev @4948
    _ZTv0_n12_N13POA_CosNaming16NamingContextExtD1Ev @4949
    _ZTv0_n12_N14PortableServer11ServantBaseD0Ev @4950
    _ZTv0_n12_N14PortableServer11ServantBaseD1Ev @4951
    _ZTv0_n12_N14PortableServer12ThreadPolicyD0Ev @4952
    _ZTv0_n12_N14PortableServer12ThreadPolicyD1Ev @4953
    _ZTv0_n12_N14PortableServer14LifespanPolicyD0Ev @4954
    _ZTv0_n12_N14PortableServer14LifespanPolicyD1Ev @4955
    _ZTv0_n12_N14PortableServer14ServantLocatorD0Ev @4956
    _ZTv0_n12_N14PortableServer14ServantLocatorD1Ev @4957
    _ZTv0_n12_N14PortableServer14ServantManagerD0Ev @4958
    _ZTv0_n12_N14PortableServer14ServantManagerD1Ev @4959
    _ZTv0_n12_N14PortableServer16AdapterActivatorD0Ev @4960
    _ZTv0_n12_N14PortableServer16AdapterActivatorD1Ev @4961
    _ZTv0_n12_N14PortableServer16ServantActivatorD0Ev @4962
    _ZTv0_n12_N14PortableServer16ServantActivatorD1Ev @4963
    _ZTv0_n12_N14PortableServer18IdAssignmentPolicyD0Ev @4964
    _ZTv0_n12_N14PortableServer18IdAssignmentPolicyD1Ev @4965
    _ZTv0_n12_N14PortableServer18IdUniquenessPolicyD0Ev @4966
    _ZTv0_n12_N14PortableServer18IdUniquenessPolicyD1Ev @4967
    _ZTv0_n12_N14PortableServer20_impl_ServantLocatorD0Ev @4968
    _ZTv0_n12_N14PortableServer20_impl_ServantLocatorD1Ev @4969
    _ZTv0_n12_N14PortableServer20_impl_ServantManagerD0Ev @4970
    _ZTv0_n12_N14PortableServer20_impl_ServantManagerD1Ev @4971
    _ZTv0_n12_N14PortableServer22ServantRetentionPolicyD0Ev @4972
    _ZTv0_n12_N14PortableServer22ServantRetentionPolicyD1Ev @4973
    _ZTv0_n12_N14PortableServer22_impl_AdapterActivatorD0Ev @4974
    _ZTv0_n12_N14PortableServer22_impl_AdapterActivatorD1Ev @4975
    _ZTv0_n12_N14PortableServer22_impl_ServantActivatorD0Ev @4976
    _ZTv0_n12_N14PortableServer22_impl_ServantActivatorD1Ev @4977
    _ZTv0_n12_N14PortableServer22_objref_ServantLocator12_ptrToObjRefEPKc @4978
    _ZTv0_n12_N14PortableServer22_objref_ServantLocatorD0Ev @4979
    _ZTv0_n12_N14PortableServer22_objref_ServantLocatorD1Ev @4980
    _ZTv0_n12_N14PortableServer22_objref_ServantManager12_ptrToObjRefEPKc @4981
    _ZTv0_n12_N14PortableServer22_objref_ServantManagerD0Ev @4982
    _ZTv0_n12_N14PortableServer22_objref_ServantManagerD1Ev @4983
    _ZTv0_n12_N14PortableServer23RequestProcessingPolicyD0Ev @4984
    _ZTv0_n12_N14PortableServer23RequestProcessingPolicyD1Ev @4985
    _ZTv0_n12_N14PortableServer24ImplicitActivationPolicyD0Ev @4986
    _ZTv0_n12_N14PortableServer24ImplicitActivationPolicyD1Ev @4987
    _ZTv0_n12_N14PortableServer24_objref_AdapterActivator12_ptrToObjRefEPKc @4988
    _ZTv0_n12_N14PortableServer24_objref_AdapterActivatorD0Ev @4989
    _ZTv0_n12_N14PortableServer24_objref_AdapterActivatorD1Ev @4990
    _ZTv0_n12_N14PortableServer24_objref_ServantActivator12_ptrToObjRefEPKc @4991
    _ZTv0_n12_N14PortableServer24_objref_ServantActivatorD0Ev @4992
    _ZTv0_n12_N14PortableServer24_objref_ServantActivatorD1Ev @4993
    _ZTv0_n12_N17omniOrbBoaServantD0Ev @4994
    _ZTv0_n12_N17omniOrbBoaServantD1Ev @4995
    _ZTv0_n12_N18POA_PortableServer14ServantLocatorD0Ev @4996
    _ZTv0_n12_N18POA_PortableServer14ServantLocatorD1Ev @4997
    _ZTv0_n12_N18POA_PortableServer14ServantManagerD0Ev @4998
    _ZTv0_n12_N18POA_PortableServer14ServantManagerD1Ev @4999
    _ZTv0_n12_N18POA_PortableServer16AdapterActivatorD0Ev @5000
    _ZTv0_n12_N18POA_PortableServer16AdapterActivatorD1Ev @5001
    _ZTv0_n12_N18POA_PortableServer16ServantActivatorD0Ev @5002
    _ZTv0_n12_N18POA_PortableServer16ServantActivatorD1Ev @5003
    _ZTv0_n12_N27POA_CORBA_InitialReferencesD0Ev @5004
    _ZTv0_n12_N27POA_CORBA_InitialReferencesD1Ev @5005
    _ZTv0_n12_N29_impl_CORBA_InitialReferencesD0Ev @5006
    _ZTv0_n12_N29_impl_CORBA_InitialReferencesD1Ev @5007
    _ZTv0_n12_N31_objref_CORBA_InitialReferences12_ptrToObjRefEPKc @5008
    _ZTv0_n12_N31_objref_CORBA_InitialReferencesD0Ev @5009
    _ZTv0_n12_N31_objref_CORBA_InitialReferencesD1Ev @5010
    _ZTv0_n12_N4omni14omniAnonObjRef12_ptrToObjRefEPKc @5011
    _ZTv0_n12_N4omni14omniAnonObjRefD0Ev @5012
    _ZTv0_n12_N4omni14omniAnonObjRefD1Ev @5013
    _ZTv0_n12_N4omni25CORBA_InitialReferences_iD0Ev @5014
    _ZTv0_n12_N4omni25CORBA_InitialReferences_iD1Ev @5015
    _ZTv0_n12_N5CORBA11LocalObjectD0Ev @5016
    _ZTv0_n12_N5CORBA11LocalObjectD1Ev @5017
    _ZTv0_n12_N5CORBA6PolicyD0Ev @5018
    _ZTv0_n12_N5CORBA6PolicyD1Ev @5019
    _ZTv0_n12_N9CosNaming19_impl_NamingContextD0Ev @5020
    _ZTv0_n12_N9CosNaming19_impl_NamingContextD1Ev @5021
    _ZTv0_n12_N9CosNaming21_impl_BindingIteratorD0Ev @5022
    _ZTv0_n12_N9CosNaming21_impl_BindingIteratorD1Ev @5023
    _ZTv0_n12_N9CosNaming21_objref_NamingContext12_ptrToObjRefEPKc @5024
    _ZTv0_n12_N9CosNaming21_objref_NamingContextD0Ev @5025
    _ZTv0_n12_N9CosNaming21_objref_NamingContextD1Ev @5026
    _ZTv0_n12_N9CosNaming22_impl_NamingContextExtD0Ev @5027
    _ZTv0_n12_N9CosNaming22_impl_NamingContextExtD1Ev @5028
    _ZTv0_n12_N9CosNaming23_objref_BindingIterator12_ptrToObjRefEPKc @5029
    _ZTv0_n12_N9CosNaming23_objref_BindingIteratorD0Ev @5030
    _ZTv0_n12_N9CosNaming23_objref_BindingIteratorD1Ev @5031
    _ZTv0_n12_N9CosNaming24_objref_NamingContextExt12_ptrToObjRefEPKc @5032
    _ZTv0_n12_N9CosNaming24_objref_NamingContextExtD0Ev @5033
    _ZTv0_n12_N9CosNaming24_objref_NamingContextExtD1Ev @5034
    _ZTv0_n16_N13POA_CosNaming13NamingContextD0Ev @5035
    _ZTv0_n16_N13POA_CosNaming13NamingContextD1Ev @5036
    _ZTv0_n16_N13POA_CosNaming15BindingIteratorD0Ev @5037
    _ZTv0_n16_N13POA_CosNaming15BindingIteratorD1Ev @5038
    _ZTv0_n16_N13POA_CosNaming16NamingContextExtD0Ev @5039
    _ZTv0_n16_N13POA_CosNaming16NamingContextExtD1Ev @5040
    _ZTv0_n16_N14PortableServer20_impl_ServantLocator15_ptrToInterfaceEPKc @5041
    _ZTv0_n16_N14PortableServer20_impl_ServantLocatorD0Ev @5042
    _ZTv0_n16_N14PortableServer20_impl_ServantLocatorD1Ev @5043
    _ZTv0_n16_N14PortableServer20_impl_ServantManager15_ptrToInterfaceEPKc @5044
    _ZTv0_n16_N14PortableServer22_impl_AdapterActivator15_ptrToInterfaceEPKc @5045
    _ZTv0_n16_N14PortableServer22_impl_ServantActivator15_ptrToInterfaceEPKc @5046
    _ZTv0_n16_N14PortableServer22_impl_ServantActivatorD0Ev @5047
    _ZTv0_n16_N14PortableServer22_impl_ServantActivatorD1Ev @5048
    _ZTv0_n16_N18POA_PortableServer14ServantLocatorD0Ev @5049
    _ZTv0_n16_N18POA_PortableServer14ServantLocatorD1Ev @5050
    _ZTv0_n16_N18POA_PortableServer14ServantManagerD0Ev @5051
    _ZTv0_n16_N18POA_PortableServer14ServantManagerD1Ev @5052
    _ZTv0_n16_N18POA_PortableServer16AdapterActivatorD0Ev @5053
    _ZTv0_n16_N18POA_PortableServer16AdapterActivatorD1Ev @5054
    _ZTv0_n16_N18POA_PortableServer16ServantActivatorD0Ev @5055
    _ZTv0_n16_N18POA_PortableServer16ServantActivatorD1Ev @5056
    _ZTv0_n16_N27POA_CORBA_InitialReferencesD0Ev @5057
    _ZTv0_n16_N27POA_CORBA_InitialReferencesD1Ev @5058
    _ZTv0_n16_N29_impl_CORBA_InitialReferences15_ptrToInterfaceEPKc @5059
    _ZTv0_n16_N4omni25CORBA_InitialReferences_iD0Ev @5060
    _ZTv0_n16_N4omni25CORBA_InitialReferences_iD1Ev @5061
    _ZTv0_n16_N5CORBA11LocalObject13_non_existentEv @5062
    _ZTv0_n16_N9CosNaming19_impl_NamingContext15_ptrToInterfaceEPKc @5063
    _ZTv0_n16_N9CosNaming21_impl_BindingIterator15_ptrToInterfaceEPKc @5064
    _ZTv0_n16_N9CosNaming22_impl_NamingContextExt15_ptrToInterfaceEPKc @5065
    _ZTv0_n16_N9CosNaming22_impl_NamingContextExtD0Ev @5066
    _ZTv0_n16_N9CosNaming22_impl_NamingContextExtD1Ev @5067
    _ZTv0_n20_N14PortableServer11ServantBase9_downcastEv @5068
    _ZTv0_n20_N14PortableServer14ServantManager16_NP_incrRefCountEv @5069
    _ZTv0_n20_N14PortableServer16AdapterActivator16_NP_incrRefCountEv @5070
    _ZTv0_n20_N14PortableServer20_impl_ServantLocator9_dispatchER14omniCallHandle @5071
    _ZTv0_n20_N14PortableServer22_impl_ServantActivator9_dispatchER14omniCallHandle @5072
    _ZTv0_n20_N14PortableServer22_objref_ServantLocator15_enableShortcutEP11omniServantPKb @5073
    _ZTv0_n20_N14PortableServer24_objref_ServantActivator15_enableShortcutEP11omniServantPKb @5074
    _ZTv0_n20_N4omni25CORBA_InitialReferences_i3getEPKc @5075
    _ZTv0_n20_N5CORBA11LocalObject16_NP_incrRefCountEv @5076
    _ZTv0_n20_N5CORBA6Policy16_NP_incrRefCountEv @5077
    _ZTv0_n20_N9CosNaming24_objref_NamingContextExtD0Ev @5078
    _ZTv0_n20_N9CosNaming24_objref_NamingContextExtD1Ev @5079
    _ZTv0_n24_N14PortableServer14ServantManager16_NP_decrRefCountEv @5080
    _ZTv0_n24_N14PortableServer16AdapterActivator16_NP_decrRefCountEv @5081
    _ZTv0_n24_N14PortableServer20_impl_ServantLocator15_ptrToInterfaceEPKc @5082
    _ZTv0_n24_N14PortableServer20_impl_ServantLocator18_mostDerivedRepoIdEv @5083
    _ZTv0_n24_N14PortableServer20_impl_ServantManager18_mostDerivedRepoIdEv @5084
    _ZTv0_n24_N14PortableServer22_impl_AdapterActivator18_mostDerivedRepoIdEv @5085
    _ZTv0_n24_N14PortableServer22_impl_ServantActivator15_ptrToInterfaceEPKc @5086
    _ZTv0_n24_N14PortableServer22_impl_ServantActivator18_mostDerivedRepoIdEv @5087
    _ZTv0_n24_N14PortableServer22_objref_ServantLocatorD0Ev @5088
    _ZTv0_n24_N14PortableServer22_objref_ServantLocatorD1Ev @5089
    _ZTv0_n24_N14PortableServer22_objref_ServantManagerD0Ev @5090
    _ZTv0_n24_N14PortableServer22_objref_ServantManagerD1Ev @5091
    _ZTv0_n24_N14PortableServer24_objref_AdapterActivatorD0Ev @5092
    _ZTv0_n24_N14PortableServer24_objref_AdapterActivatorD1Ev @5093
    _ZTv0_n24_N14PortableServer24_objref_ServantActivatorD0Ev @5094
    _ZTv0_n24_N14PortableServer24_objref_ServantActivatorD1Ev @5095
    _ZTv0_n24_N29_impl_CORBA_InitialReferences18_mostDerivedRepoIdEv @5096
    _ZTv0_n24_N31_objref_CORBA_InitialReferencesD0Ev @5097
    _ZTv0_n24_N31_objref_CORBA_InitialReferencesD1Ev @5098
    _ZTv0_n24_N4omni14omniAnonObjRefD0Ev @5099
    _ZTv0_n24_N4omni14omniAnonObjRefD1Ev @5100
    _ZTv0_n24_N4omni25CORBA_InitialReferences_i4listEv @5101
    _ZTv0_n24_N5CORBA11LocalObject16_NP_decrRefCountEv @5102
    _ZTv0_n24_N5CORBA6Policy16_NP_decrRefCountEv @5103
    _ZTv0_n24_N9CosNaming19_impl_NamingContext18_mostDerivedRepoIdEv @5104
    _ZTv0_n24_N9CosNaming21_impl_BindingIterator18_mostDerivedRepoIdEv @5105
    _ZTv0_n24_N9CosNaming21_objref_NamingContextD0Ev @5106
    _ZTv0_n24_N9CosNaming21_objref_NamingContextD1Ev @5107
    _ZTv0_n24_N9CosNaming22_impl_NamingContextExt18_mostDerivedRepoIdEv @5108
    _ZTv0_n24_N9CosNaming23_objref_BindingIteratorD0Ev @5109
    _ZTv0_n24_N9CosNaming23_objref_BindingIteratorD1Ev @5110
    _ZTv0_n24_N9CosNaming24_objref_NamingContextExt12_ptrToObjRefEPKc @5111
    _ZTv0_n24_N9CosNaming24_objref_NamingContextExtD0Ev @5112
    _ZTv0_n24_N9CosNaming24_objref_NamingContextExtD1Ev @5113
    _ZTv0_n28_N10omniPolicy19LocalShortcutPolicy12_ptrToObjRefEPKc @5114
    _ZTv0_n28_N11BiDirPolicy19BidirectionalPolicy12_ptrToObjRefEPKc @5115
    _ZTv0_n28_N14PortableServer12ThreadPolicy12_ptrToObjRefEPKc @5116
    _ZTv0_n28_N14PortableServer14LifespanPolicy12_ptrToObjRefEPKc @5117
    _ZTv0_n28_N14PortableServer14ServantLocator12_ptrToObjRefEPKc @5118
    _ZTv0_n28_N14PortableServer14ServantLocatorD0Ev @5119
    _ZTv0_n28_N14PortableServer14ServantLocatorD1Ev @5120
    _ZTv0_n28_N14PortableServer14ServantManager12_ptrToObjRefEPKc @5121
    _ZTv0_n28_N14PortableServer14ServantManagerD0Ev @5122
    _ZTv0_n28_N14PortableServer14ServantManagerD1Ev @5123
    _ZTv0_n28_N14PortableServer16AdapterActivator12_ptrToObjRefEPKc @5124
    _ZTv0_n28_N14PortableServer16AdapterActivatorD0Ev @5125
    _ZTv0_n28_N14PortableServer16AdapterActivatorD1Ev @5126
    _ZTv0_n28_N14PortableServer16ServantActivator12_ptrToObjRefEPKc @5127
    _ZTv0_n28_N14PortableServer16ServantActivatorD0Ev @5128
    _ZTv0_n28_N14PortableServer16ServantActivatorD1Ev @5129
    _ZTv0_n28_N14PortableServer18IdAssignmentPolicy12_ptrToObjRefEPKc @5130
    _ZTv0_n28_N14PortableServer18IdUniquenessPolicy12_ptrToObjRefEPKc @5131
    _ZTv0_n28_N14PortableServer20_impl_ServantLocator18_mostDerivedRepoIdEv @5132
    _ZTv0_n28_N14PortableServer22ServantRetentionPolicy12_ptrToObjRefEPKc @5133
    _ZTv0_n28_N14PortableServer22_impl_ServantActivator18_mostDerivedRepoIdEv @5134
    _ZTv0_n28_N14PortableServer22_objref_ServantLocator12_ptrToObjRefEPKc @5135
    _ZTv0_n28_N14PortableServer22_objref_ServantLocatorD0Ev @5136
    _ZTv0_n28_N14PortableServer22_objref_ServantLocatorD1Ev @5137
    _ZTv0_n28_N14PortableServer22_objref_ServantManager12_ptrToObjRefEPKc @5138
    _ZTv0_n28_N14PortableServer22_objref_ServantManagerD0Ev @5139
    _ZTv0_n28_N14PortableServer22_objref_ServantManagerD1Ev @5140
    _ZTv0_n28_N14PortableServer23RequestProcessingPolicy12_ptrToObjRefEPKc @5141
    _ZTv0_n28_N14PortableServer24ImplicitActivationPolicy12_ptrToObjRefEPKc @5142
    _ZTv0_n28_N14PortableServer24_objref_AdapterActivator12_ptrToObjRefEPKc @5143
    _ZTv0_n28_N14PortableServer24_objref_AdapterActivatorD0Ev @5144
    _ZTv0_n28_N14PortableServer24_objref_AdapterActivatorD1Ev @5145
    _ZTv0_n28_N14PortableServer24_objref_ServantActivator12_ptrToObjRefEPKc @5146
    _ZTv0_n28_N14PortableServer24_objref_ServantActivatorD0Ev @5147
    _ZTv0_n28_N14PortableServer24_objref_ServantActivatorD1Ev @5148
    _ZTv0_n28_N31_objref_CORBA_InitialReferences12_ptrToObjRefEPKc @5149
    _ZTv0_n28_N4omni14omniAnonObjRef12_ptrToObjRefEPKc @5150
    _ZTv0_n28_N5CORBA11LocalObject12_ptrToObjRefEPKc @5151
    _ZTv0_n28_N5CORBA6Policy12_ptrToObjRefEPKc @5152
    _ZTv0_n28_N9CosNaming21_objref_NamingContext12_ptrToObjRefEPKc @5153
    _ZTv0_n28_N9CosNaming23_objref_BindingIterator12_ptrToObjRefEPKc @5154
    _ZTv0_n28_N9CosNaming24_objref_NamingContextExt12_ptrToObjRefEPKc @5155
    _ZTv0_n32_N14PortableServer14ServantManager16_NP_incrRefCountEv @5156
    _ZTv0_n32_N14PortableServer16AdapterActivator16_NP_incrRefCountEv @5157
    _ZTv0_n36_N14PortableServer11ServantBase17_do_get_interfaceEv @5158
    _ZTv0_n36_N14PortableServer14ServantManager16_NP_decrRefCountEv @5159
    _ZTv0_n36_N14PortableServer16AdapterActivator16_NP_decrRefCountEv @5160
    _ZTv0_n36_N17omniOrbBoaServant17_do_get_interfaceEv @5161
    _ZTv0_n40_N14PortableServer14ServantLocator12_ptrToObjRefEPKc @5162
    _ZTv0_n40_N14PortableServer14ServantManager12_ptrToObjRefEPKc @5163
    _ZTv0_n40_N14PortableServer16AdapterActivator12_ptrToObjRefEPKc @5164
    _ZTv0_n40_N14PortableServer16ServantActivator12_ptrToObjRefEPKc @5165
    _ZTv0_n40_N14PortableServer20_impl_ServantLocator9_dispatchER14omniCallHandle @5166
    _ZTv0_n40_N14PortableServer20_impl_ServantManager9_dispatchER14omniCallHandle @5167
    _ZTv0_n40_N14PortableServer22_impl_AdapterActivator9_dispatchER14omniCallHandle @5168
    _ZTv0_n40_N14PortableServer22_impl_ServantActivator9_dispatchER14omniCallHandle @5169
    _ZTv0_n40_N14PortableServer22_objref_ServantLocator12_ptrToObjRefEPKc @5170
    _ZTv0_n40_N14PortableServer22_objref_ServantManager12_ptrToObjRefEPKc @5171
    _ZTv0_n40_N14PortableServer24_objref_AdapterActivator12_ptrToObjRefEPKc @5172
    _ZTv0_n40_N14PortableServer24_objref_ServantActivator12_ptrToObjRefEPKc @5173
    _ZTv0_n40_N29_impl_CORBA_InitialReferences9_dispatchER14omniCallHandle @5174
    _ZTv0_n40_N9CosNaming19_impl_NamingContext9_dispatchER14omniCallHandle @5175
    _ZTv0_n40_N9CosNaming21_impl_BindingIterator9_dispatchER14omniCallHandle @5176
    _ZTv0_n40_N9CosNaming22_impl_NamingContextExt9_dispatchER14omniCallHandle @5177
    _ZTv0_n44_N14PortableServer11ServantBase8_add_refEv @5178
    _ZTv0_n48_N14PortableServer11ServantBase11_remove_refEv @5179
    _ZTv0_n48_N14PortableServer24_objref_AdapterActivator15unknown_adapterEPNS_3POAEPKc @5180
    _ZTv0_n52_N14PortableServer22_objref_ServantLocator9preinvokeERKNS_8ObjectIdEPNS_3POAEPKcRPv @5181
    _ZTv0_n52_N14PortableServer24_objref_ServantActivator9incarnateERKNS_8ObjectIdEPNS_3POAE @5182
    _ZTv0_n56_N14PortableServer22_objref_ServantLocator10postinvokeERKNS_8ObjectIdEPNS_3POAEPKcPvPNS_11ServantBaseE @5183
    _ZTv0_n56_N14PortableServer24_objref_ServantActivator11etherealizeERKNS_8ObjectIdEPNS_3POAEPNS_11ServantBaseEbb @5184
    _ZTv0_n60_N9CosNaming22_impl_NamingContextExt9_dispatchER14omniCallHandle @5185
    _ZTv0_n64_N9CosNaming22_impl_NamingContextExt15_ptrToInterfaceEPKc @5186
    _ZTv0_n68_N9CosNaming22_impl_NamingContextExt18_mostDerivedRepoIdEv @5187
    _ZZN4omni29omni_giopEndpoint_initialiser6attachEvE4once @5188 DATA
    _ZdvRKN5CORBA5FixedES2_ @5189
    _ZeqRKN5CORBA5FixedES2_ @5190
    _ZgeRKN5CORBA5FixedES2_ @5191
    _ZgtRKN5CORBA5FixedES2_ @5192
    _ZlSReR9cdrStream @5193
    _ZlSRmR9cdrStream @5194
    _ZlSRtR9cdrStream @5195
    _ZleRKN5CORBA5FixedES2_ @5196
    _ZltRKN5CORBA5FixedES2_ @5197
    _ZmiRKN5CORBA5FixedES2_ @5198
    _ZmlRKN5CORBA5FixedES2_ @5199
    _ZneRKN5CORBA5FixedES2_ @5200
    _ZplRKN5CORBA5FixedES2_ @5201
    _ZrSeR9cdrStream @5202
    _ZrSmR9cdrStream @5203
    _omni_CS_8859_1_should_be_linked_but_is_not_ @5204 DATA
    _omni_CS_UTF_16_should_be_linked_but_is_not_ @5205 DATA
    _omni_CS_UTF_8_should_be_linked_but_is_not_ @5206 DATA
    _omni_tcpActive_should_be_linked_but_is_not_ @5207 DATA
    _omni_tcpAddress_should_be_linked_but_is_not_ @5208 DATA
    _omni_tcpConnection_should_be_linked_but_is_not_ @5209 DATA
    _omni_tcpEndpoint_should_be_linked_but_is_not_ @5210 DATA
    _omni_tcpTransportImpl_should_be_linked_but_is_not_ @5211 DATA
